../Binaries/nonMalware/testFiles/lab3_tar/part3

md5
5148c5afcdcb784e422f9c3fa5f191f3

sha1
5c986bcf334b4de642f79bf5a20d36ba4c363627

sha256
bcfeeddd697f769a87dcbe5699562ec25c4933e94b2fdd34297ea67304e96439

strings
[Strings]
nth paddr      vaddr      len size section type  string
―――――――――――――――――――――――――――――――――――――――――――――――――――――――
0   0x000009d8 0x000009d8 80  81   .rodata ascii Usernames and passwords cannot be the same. Please enter a new initial password.
1   0x00000a30 0x00000a30 40  41   .rodata ascii Your passwords matched. Congratulations!
2   0x00000a60 0x00000a60 40  41   .rodata ascii Your passwords did not match. Try again.
3   0x00000a89 0x00000a89 28  29   .rodata ascii Please enter your username: 
4   0x00000ab0 0x00000ab0 36  37   .rodata ascii Please enter your initial password: 
5   0x00000ad8 0x00000ad8 31  32   .rodata ascii Please re-enter your password: 


funcs
0x000006a0    1 42           entry0
0x000006d0    4 50   -> 40   sym.deregister_tm_clones
0x00000710    4 66   -> 57   sym.register_tm_clones
0x00000760    5 58   -> 51   sym.__do_global_dtors_aux
0x00000690    1 6            sym.imp.__cxa_finalize
0x000007a0    1 10           entry.init0
0x000009c0    1 2            sym.__libc_csu_fini
0x000008c5    6 125          sym.func3
0x0000084d    1 60           sym.func1
0x00000660    1 6            sym.imp.printf
0x00000680    1 6            sym.imp.__isoc99_scanf
0x000009c4    1 9            sym._fini
0x00000889    1 60           sym.func2
0x00000950    4 101          sym.__libc_csu_init
0x000007aa    9 163          main
0x00000618    3 23           sym._init
0x00000640    1 6            sym.imp.puts
0x00000650    1 6            sym.imp.__stack_chk_fail
0x00000000    3 97   -> 123  loc.imp._ITM_deregisterTMCloneTable
0x00000670    1 6            sym.imp.strcmp


arch
x86

size
8584

bintype
elf

opsystem
linux

file
ELF 64-bit LSB pie executable, x86-64, version 1 (SYSV), dynamically linked, interpreter /lib64/ld-linux-x86-64.so.2, for GNU/Linux 3.2.0, BuildID[sha1]=7d858a61dd97f44eb9f5eac5ce8ecc1e6d7f8395, not stripped


nm
00000000000009d0 R _IO_stdin_used
                 w _ITM_deregisterTMCloneTable
                 w _ITM_registerTMCloneTable
0000000000201010 D __TMC_END__
0000000000201010 B __bss_start
                 w __cxa_finalize@@GLIBC_2.2.5
0000000000201000 D __data_start
0000000000201008 D __dso_handle
                 w __gmon_start__
                 U __isoc99_scanf@@GLIBC_2.7
00000000000009c0 T __libc_csu_fini
0000000000000950 T __libc_csu_init
                 U __libc_start_main@@GLIBC_2.2.5
                 U __stack_chk_fail@@GLIBC_2.4
0000000000201010 D _edata
0000000000201018 B _end
00000000000009c4 T _fini
0000000000000618 T _init
00000000000006a0 T _start
0000000000201000 W data_start
000000000000084d T func1
0000000000000889 T func2
00000000000008c5 T func3
00000000000007aa T main
                 U printf@@GLIBC_2.2.5
                 U puts@@GLIBC_2.2.5
                 U strcmp@@GLIBC_2.2.5


objdump

../Binaries/nonMalware/testFiles/lab3_tar/part3:     file format elf64-x86-64
architecture: i386:x86-64, flags 0x00000150:
HAS_SYMS, DYNAMIC, D_PAGED
start address 0x00000000000006a0


Disassembly of section .init:

0000000000000618 <_init>:
 618:	48 83 ec 08          	sub    rsp,0x8
 61c:	48 8b 05 c5 09 20 00 	mov    rax,QWORD PTR [rip+0x2009c5]        # 200fe8 <__gmon_start__>
 623:	48 85 c0             	test   rax,rax
 626:	74 02                	je     62a <_init+0x12>
 628:	ff d0                	call   rax
 62a:	48 83 c4 08          	add    rsp,0x8
 62e:	c3                   	ret    

Disassembly of section .plt:

0000000000000630 <.plt>:
 630:	ff 35 6a 09 20 00    	push   QWORD PTR [rip+0x20096a]        # 200fa0 <_GLOBAL_OFFSET_TABLE_+0x8>
 636:	ff 25 6c 09 20 00    	jmp    QWORD PTR [rip+0x20096c]        # 200fa8 <_GLOBAL_OFFSET_TABLE_+0x10>
 63c:	0f 1f 40 00          	nop    DWORD PTR [rax+0x0]

0000000000000640 <puts@plt>:
 640:	ff 25 6a 09 20 00    	jmp    QWORD PTR [rip+0x20096a]        # 200fb0 <puts@GLIBC_2.2.5>
 646:	68 00 00 00 00       	push   0x0
 64b:	e9 e0 ff ff ff       	jmp    630 <.plt>

0000000000000650 <__stack_chk_fail@plt>:
 650:	ff 25 62 09 20 00    	jmp    QWORD PTR [rip+0x200962]        # 200fb8 <__stack_chk_fail@GLIBC_2.4>
 656:	68 01 00 00 00       	push   0x1
 65b:	e9 d0 ff ff ff       	jmp    630 <.plt>

0000000000000660 <printf@plt>:
 660:	ff 25 5a 09 20 00    	jmp    QWORD PTR [rip+0x20095a]        # 200fc0 <printf@GLIBC_2.2.5>
 666:	68 02 00 00 00       	push   0x2
 66b:	e9 c0 ff ff ff       	jmp    630 <.plt>

0000000000000670 <strcmp@plt>:
 670:	ff 25 52 09 20 00    	jmp    QWORD PTR [rip+0x200952]        # 200fc8 <strcmp@GLIBC_2.2.5>
 676:	68 03 00 00 00       	push   0x3
 67b:	e9 b0 ff ff ff       	jmp    630 <.plt>

0000000000000680 <__isoc99_scanf@plt>:
 680:	ff 25 4a 09 20 00    	jmp    QWORD PTR [rip+0x20094a]        # 200fd0 <__isoc99_scanf@GLIBC_2.7>
 686:	68 04 00 00 00       	push   0x4
 68b:	e9 a0 ff ff ff       	jmp    630 <.plt>

Disassembly of section .plt.got:

0000000000000690 <__cxa_finalize@plt>:
 690:	ff 25 62 09 20 00    	jmp    QWORD PTR [rip+0x200962]        # 200ff8 <__cxa_finalize@GLIBC_2.2.5>
 696:	66 90                	xchg   ax,ax

Disassembly of section .text:

00000000000006a0 <_start>:
 6a0:	31 ed                	xor    ebp,ebp
 6a2:	49 89 d1             	mov    r9,rdx
 6a5:	5e                   	pop    rsi
 6a6:	48 89 e2             	mov    rdx,rsp
 6a9:	48 83 e4 f0          	and    rsp,0xfffffffffffffff0
 6ad:	50                   	push   rax
 6ae:	54                   	push   rsp
 6af:	4c 8d 05 0a 03 00 00 	lea    r8,[rip+0x30a]        # 9c0 <__libc_csu_fini>
 6b6:	48 8d 0d 93 02 00 00 	lea    rcx,[rip+0x293]        # 950 <__libc_csu_init>
 6bd:	48 8d 3d e6 00 00 00 	lea    rdi,[rip+0xe6]        # 7aa <main>
 6c4:	ff 15 16 09 20 00    	call   QWORD PTR [rip+0x200916]        # 200fe0 <__libc_start_main@GLIBC_2.2.5>
 6ca:	f4                   	hlt    
 6cb:	0f 1f 44 00 00       	nop    DWORD PTR [rax+rax*1+0x0]

00000000000006d0 <deregister_tm_clones>:
 6d0:	48 8d 3d 39 09 20 00 	lea    rdi,[rip+0x200939]        # 201010 <__TMC_END__>
 6d7:	55                   	push   rbp
 6d8:	48 8d 05 31 09 20 00 	lea    rax,[rip+0x200931]        # 201010 <__TMC_END__>
 6df:	48 39 f8             	cmp    rax,rdi
 6e2:	48 89 e5             	mov    rbp,rsp
 6e5:	74 19                	je     700 <deregister_tm_clones+0x30>
 6e7:	48 8b 05 ea 08 20 00 	mov    rax,QWORD PTR [rip+0x2008ea]        # 200fd8 <_ITM_deregisterTMCloneTable>
 6ee:	48 85 c0             	test   rax,rax
 6f1:	74 0d                	je     700 <deregister_tm_clones+0x30>
 6f3:	5d                   	pop    rbp
 6f4:	ff e0                	jmp    rax
 6f6:	66 2e 0f 1f 84 00 00 	cs nop WORD PTR [rax+rax*1+0x0]
 6fd:	00 00 00 
 700:	5d                   	pop    rbp
 701:	c3                   	ret    
 702:	0f 1f 40 00          	nop    DWORD PTR [rax+0x0]
 706:	66 2e 0f 1f 84 00 00 	cs nop WORD PTR [rax+rax*1+0x0]
 70d:	00 00 00 

0000000000000710 <register_tm_clones>:
 710:	48 8d 3d f9 08 20 00 	lea    rdi,[rip+0x2008f9]        # 201010 <__TMC_END__>
 717:	48 8d 35 f2 08 20 00 	lea    rsi,[rip+0x2008f2]        # 201010 <__TMC_END__>
 71e:	55                   	push   rbp
 71f:	48 29 fe             	sub    rsi,rdi
 722:	48 89 e5             	mov    rbp,rsp
 725:	48 c1 fe 03          	sar    rsi,0x3
 729:	48 89 f0             	mov    rax,rsi
 72c:	48 c1 e8 3f          	shr    rax,0x3f
 730:	48 01 c6             	add    rsi,rax
 733:	48 d1 fe             	sar    rsi,1
 736:	74 18                	je     750 <register_tm_clones+0x40>
 738:	48 8b 05 b1 08 20 00 	mov    rax,QWORD PTR [rip+0x2008b1]        # 200ff0 <_ITM_registerTMCloneTable>
 73f:	48 85 c0             	test   rax,rax
 742:	74 0c                	je     750 <register_tm_clones+0x40>
 744:	5d                   	pop    rbp
 745:	ff e0                	jmp    rax
 747:	66 0f 1f 84 00 00 00 	nop    WORD PTR [rax+rax*1+0x0]
 74e:	00 00 
 750:	5d                   	pop    rbp
 751:	c3                   	ret    
 752:	0f 1f 40 00          	nop    DWORD PTR [rax+0x0]
 756:	66 2e 0f 1f 84 00 00 	cs nop WORD PTR [rax+rax*1+0x0]
 75d:	00 00 00 

0000000000000760 <__do_global_dtors_aux>:
 760:	80 3d a9 08 20 00 00 	cmp    BYTE PTR [rip+0x2008a9],0x0        # 201010 <__TMC_END__>
 767:	75 2f                	jne    798 <__do_global_dtors_aux+0x38>
 769:	48 83 3d 87 08 20 00 	cmp    QWORD PTR [rip+0x200887],0x0        # 200ff8 <__cxa_finalize@GLIBC_2.2.5>
 770:	00 
 771:	55                   	push   rbp
 772:	48 89 e5             	mov    rbp,rsp
 775:	74 0c                	je     783 <__do_global_dtors_aux+0x23>
 777:	48 8b 3d 8a 08 20 00 	mov    rdi,QWORD PTR [rip+0x20088a]        # 201008 <__dso_handle>
 77e:	e8 0d ff ff ff       	call   690 <__cxa_finalize@plt>
 783:	e8 48 ff ff ff       	call   6d0 <deregister_tm_clones>
 788:	c6 05 81 08 20 00 01 	mov    BYTE PTR [rip+0x200881],0x1        # 201010 <__TMC_END__>
 78f:	5d                   	pop    rbp
 790:	c3                   	ret    
 791:	0f 1f 80 00 00 00 00 	nop    DWORD PTR [rax+0x0]
 798:	f3 c3                	repz ret 
 79a:	66 0f 1f 44 00 00    	nop    WORD PTR [rax+rax*1+0x0]

00000000000007a0 <frame_dummy>:
 7a0:	55                   	push   rbp
 7a1:	48 89 e5             	mov    rbp,rsp
 7a4:	5d                   	pop    rbp
 7a5:	e9 66 ff ff ff       	jmp    710 <register_tm_clones>

00000000000007aa <main>:
 7aa:	55                   	push   rbp
 7ab:	48 89 e5             	mov    rbp,rsp
 7ae:	48 83 ec 40          	sub    rsp,0x40
 7b2:	64 48 8b 04 25 28 00 	mov    rax,QWORD PTR fs:0x28
 7b9:	00 00 
 7bb:	48 89 45 f8          	mov    QWORD PTR [rbp-0x8],rax
 7bf:	31 c0                	xor    eax,eax
 7c1:	48 8d 45 d0          	lea    rax,[rbp-0x30]
 7c5:	48 89 c7             	mov    rdi,rax
 7c8:	e8 80 00 00 00       	call   84d <func1>
 7cd:	48 8d 45 e0          	lea    rax,[rbp-0x20]
 7d1:	48 89 c7             	mov    rdi,rax
 7d4:	e8 b0 00 00 00       	call   889 <func2>
 7d9:	48 8d 55 e0          	lea    rdx,[rbp-0x20]
 7dd:	48 8d 45 d0          	lea    rax,[rbp-0x30]
 7e1:	48 89 d6             	mov    rsi,rdx
 7e4:	48 89 c7             	mov    rdi,rax
 7e7:	e8 84 fe ff ff       	call   670 <strcmp@plt>
 7ec:	85 c0                	test   eax,eax
 7ee:	75 13                	jne    803 <main+0x59>
 7f0:	48 8d 3d e1 01 00 00 	lea    rdi,[rip+0x1e1]        # 9d8 <_IO_stdin_used+0x8>
 7f7:	e8 44 fe ff ff       	call   640 <puts@plt>
 7fc:	b8 00 00 00 00       	mov    eax,0x0
 801:	eb 34                	jmp    837 <main+0x8d>
 803:	48 8d 45 e0          	lea    rax,[rbp-0x20]
 807:	48 89 c7             	mov    rdi,rax
 80a:	e8 b6 00 00 00       	call   8c5 <func3>
 80f:	89 45 cc             	mov    DWORD PTR [rbp-0x34],eax
 812:	83 7d cc 00          	cmp    DWORD PTR [rbp-0x34],0x0
 816:	75 0e                	jne    826 <main+0x7c>
 818:	48 8d 3d 11 02 00 00 	lea    rdi,[rip+0x211]        # a30 <_IO_stdin_used+0x60>
 81f:	e8 1c fe ff ff       	call   640 <puts@plt>
 824:	eb 0c                	jmp    832 <main+0x88>
 826:	48 8d 3d 33 02 00 00 	lea    rdi,[rip+0x233]        # a60 <_IO_stdin_used+0x90>
 82d:	e8 0e fe ff ff       	call   640 <puts@plt>
 832:	b8 00 00 00 00       	mov    eax,0x0
 837:	48 8b 4d f8          	mov    rcx,QWORD PTR [rbp-0x8]
 83b:	64 48 33 0c 25 28 00 	xor    rcx,QWORD PTR fs:0x28
 842:	00 00 
 844:	74 05                	je     84b <main+0xa1>
 846:	e8 05 fe ff ff       	call   650 <__stack_chk_fail@plt>
 84b:	c9                   	leave  
 84c:	c3                   	ret    

000000000000084d <func1>:
 84d:	55                   	push   rbp
 84e:	48 89 e5             	mov    rbp,rsp
 851:	48 83 ec 10          	sub    rsp,0x10
 855:	48 89 7d f8          	mov    QWORD PTR [rbp-0x8],rdi
 859:	48 8d 3d 29 02 00 00 	lea    rdi,[rip+0x229]        # a89 <_IO_stdin_used+0xb9>
 860:	b8 00 00 00 00       	mov    eax,0x0
 865:	e8 f6 fd ff ff       	call   660 <printf@plt>
 86a:	48 8b 45 f8          	mov    rax,QWORD PTR [rbp-0x8]
 86e:	48 89 c6             	mov    rsi,rax
 871:	48 8d 3d 2e 02 00 00 	lea    rdi,[rip+0x22e]        # aa6 <_IO_stdin_used+0xd6>
 878:	b8 00 00 00 00       	mov    eax,0x0
 87d:	e8 fe fd ff ff       	call   680 <__isoc99_scanf@plt>
 882:	b8 00 00 00 00       	mov    eax,0x0
 887:	c9                   	leave  
 888:	c3                   	ret    

0000000000000889 <func2>:
 889:	55                   	push   rbp
 88a:	48 89 e5             	mov    rbp,rsp
 88d:	48 83 ec 10          	sub    rsp,0x10
 891:	48 89 7d f8          	mov    QWORD PTR [rbp-0x8],rdi
 895:	48 8d 3d 14 02 00 00 	lea    rdi,[rip+0x214]        # ab0 <_IO_stdin_used+0xe0>
 89c:	b8 00 00 00 00       	mov    eax,0x0
 8a1:	e8 ba fd ff ff       	call   660 <printf@plt>
 8a6:	48 8b 45 f8          	mov    rax,QWORD PTR [rbp-0x8]
 8aa:	48 89 c6             	mov    rsi,rax
 8ad:	48 8d 3d f2 01 00 00 	lea    rdi,[rip+0x1f2]        # aa6 <_IO_stdin_used+0xd6>
 8b4:	b8 00 00 00 00       	mov    eax,0x0
 8b9:	e8 c2 fd ff ff       	call   680 <__isoc99_scanf@plt>
 8be:	b8 00 00 00 00       	mov    eax,0x0
 8c3:	c9                   	leave  
 8c4:	c3                   	ret    

00000000000008c5 <func3>:
 8c5:	55                   	push   rbp
 8c6:	48 89 e5             	mov    rbp,rsp
 8c9:	48 83 ec 30          	sub    rsp,0x30
 8cd:	48 89 7d d8          	mov    QWORD PTR [rbp-0x28],rdi
 8d1:	64 48 8b 04 25 28 00 	mov    rax,QWORD PTR fs:0x28
 8d8:	00 00 
 8da:	48 89 45 f8          	mov    QWORD PTR [rbp-0x8],rax
 8de:	31 c0                	xor    eax,eax
 8e0:	48 8d 3d f1 01 00 00 	lea    rdi,[rip+0x1f1]        # ad8 <_IO_stdin_used+0x108>
 8e7:	b8 00 00 00 00       	mov    eax,0x0
 8ec:	e8 6f fd ff ff       	call   660 <printf@plt>
 8f1:	48 8d 45 e0          	lea    rax,[rbp-0x20]
 8f5:	48 89 c6             	mov    rsi,rax
 8f8:	48 8d 3d a7 01 00 00 	lea    rdi,[rip+0x1a7]        # aa6 <_IO_stdin_used+0xd6>
 8ff:	b8 00 00 00 00       	mov    eax,0x0
 904:	e8 77 fd ff ff       	call   680 <__isoc99_scanf@plt>
 909:	48 8b 55 d8          	mov    rdx,QWORD PTR [rbp-0x28]
 90d:	48 8d 45 e0          	lea    rax,[rbp-0x20]
 911:	48 89 d6             	mov    rsi,rdx
 914:	48 89 c7             	mov    rdi,rax
 917:	e8 54 fd ff ff       	call   670 <strcmp@plt>
 91c:	85 c0                	test   eax,eax
 91e:	74 07                	je     927 <func3+0x62>
 920:	b8 01 00 00 00       	mov    eax,0x1
 925:	eb 05                	jmp    92c <func3+0x67>
 927:	b8 00 00 00 00       	mov    eax,0x0
 92c:	48 8b 4d f8          	mov    rcx,QWORD PTR [rbp-0x8]
 930:	64 48 33 0c 25 28 00 	xor    rcx,QWORD PTR fs:0x28
 937:	00 00 
 939:	74 05                	je     940 <func3+0x7b>
 93b:	e8 10 fd ff ff       	call   650 <__stack_chk_fail@plt>
 940:	c9                   	leave  
 941:	c3                   	ret    
 942:	66 2e 0f 1f 84 00 00 	cs nop WORD PTR [rax+rax*1+0x0]
 949:	00 00 00 
 94c:	0f 1f 40 00          	nop    DWORD PTR [rax+0x0]

0000000000000950 <__libc_csu_init>:
 950:	41 57                	push   r15
 952:	41 56                	push   r14
 954:	49 89 d7             	mov    r15,rdx
 957:	41 55                	push   r13
 959:	41 54                	push   r12
 95b:	4c 8d 25 36 04 20 00 	lea    r12,[rip+0x200436]        # 200d98 <__frame_dummy_init_array_entry>
 962:	55                   	push   rbp
 963:	48 8d 2d 36 04 20 00 	lea    rbp,[rip+0x200436]        # 200da0 <__do_global_dtors_aux_fini_array_entry>
 96a:	53                   	push   rbx
 96b:	41 89 fd             	mov    r13d,edi
 96e:	49 89 f6             	mov    r14,rsi
 971:	4c 29 e5             	sub    rbp,r12
 974:	48 83 ec 08          	sub    rsp,0x8
 978:	48 c1 fd 03          	sar    rbp,0x3
 97c:	e8 97 fc ff ff       	call   618 <_init>
 981:	48 85 ed             	test   rbp,rbp
 984:	74 20                	je     9a6 <__libc_csu_init+0x56>
 986:	31 db                	xor    ebx,ebx
 988:	0f 1f 84 00 00 00 00 	nop    DWORD PTR [rax+rax*1+0x0]
 98f:	00 
 990:	4c 89 fa             	mov    rdx,r15
 993:	4c 89 f6             	mov    rsi,r14
 996:	44 89 ef             	mov    edi,r13d
 999:	41 ff 14 dc          	call   QWORD PTR [r12+rbx*8]
 99d:	48 83 c3 01          	add    rbx,0x1
 9a1:	48 39 dd             	cmp    rbp,rbx
 9a4:	75 ea                	jne    990 <__libc_csu_init+0x40>
 9a6:	48 83 c4 08          	add    rsp,0x8
 9aa:	5b                   	pop    rbx
 9ab:	5d                   	pop    rbp
 9ac:	41 5c                	pop    r12
 9ae:	41 5d                	pop    r13
 9b0:	41 5e                	pop    r14
 9b2:	41 5f                	pop    r15
 9b4:	c3                   	ret    
 9b5:	90                   	nop
 9b6:	66 2e 0f 1f 84 00 00 	cs nop WORD PTR [rax+rax*1+0x0]
 9bd:	00 00 00 

00000000000009c0 <__libc_csu_fini>:
 9c0:	f3 c3                	repz ret 

Disassembly of section .fini:

00000000000009c4 <_fini>:
 9c4:	48 83 ec 08          	sub    rsp,0x8
 9c8:	48 83 c4 08          	add    rsp,0x8
 9cc:	c3                   	ret    

