../Binaries/nonMalware/testFiles/lab3_tar/part1

md5
063f53a38a6b5a5224d550a06f97a6eb

sha1
97423620854ed3205b7d7d364bb1d0bd33e71b15

sha256
26359b81f02d64d33d0ee07e53b50009f9540a56f4674bb0cdb1a74976e628cc

strings
[Strings]
nth paddr vaddr len size section type string
――――――――――――――――――――――――――――――――――――――――――――


funcs
0x00000540    1 42           entry0
0x00000570    4 50   -> 40   sym.deregister_tm_clones
0x000005b0    4 66   -> 57   sym.register_tm_clones
0x00000600    5 58   -> 51   sym.__do_global_dtors_aux
0x00000530    1 6            sym.imp.__cxa_finalize
0x00000640    1 10           entry.init0
0x00000710    1 2            sym.__libc_csu_fini
0x00000714    1 9            sym._fini
0x000006a0    4 101          sym.__libc_csu_init
0x0000064a    1 71           main
0x00000520    1 6            sym.imp.printf
0x000004f0    3 23           sym._init
0x00000000    6 236  -> 262  loc.imp._ITM_deregisterTMCloneTable


arch
x86

size
8304

bintype
elf

opsystem
linux

file
ELF 64-bit LSB pie executable, x86-64, version 1 (SYSV), dynamically linked, interpreter /lib64/ld-linux-x86-64.so.2, for GNU/Linux 3.2.0, BuildID[sha1]=ccffdda1c114a44a976ba0afa39f3dcb9f2bb7e4, not stripped


nm
0000000000000720 R _IO_stdin_used
                 w _ITM_deregisterTMCloneTable
                 w _ITM_registerTMCloneTable
0000000000201010 D __TMC_END__
0000000000201010 B __bss_start
                 w __cxa_finalize@@GLIBC_2.2.5
0000000000201000 D __data_start
0000000000201008 D __dso_handle
                 w __gmon_start__
0000000000000710 T __libc_csu_fini
00000000000006a0 T __libc_csu_init
                 U __libc_start_main@@GLIBC_2.2.5
0000000000201010 D _edata
0000000000201018 B _end
0000000000000714 T _fini
00000000000004f0 T _init
0000000000000540 T _start
0000000000201000 W data_start
000000000000064a T main
                 U printf@@GLIBC_2.2.5


objdump

../Binaries/nonMalware/testFiles/lab3_tar/part1:     file format elf64-x86-64
architecture: i386:x86-64, flags 0x00000150:
HAS_SYMS, DYNAMIC, D_PAGED
start address 0x0000000000000540


Disassembly of section .init:

00000000000004f0 <_init>:
 4f0:	48 83 ec 08          	sub    rsp,0x8
 4f4:	48 8b 05 ed 0a 20 00 	mov    rax,QWORD PTR [rip+0x200aed]        # 200fe8 <__gmon_start__>
 4fb:	48 85 c0             	test   rax,rax
 4fe:	74 02                	je     502 <_init+0x12>
 500:	ff d0                	call   rax
 502:	48 83 c4 08          	add    rsp,0x8
 506:	c3                   	ret    

Disassembly of section .plt:

0000000000000510 <.plt>:
 510:	ff 35 aa 0a 20 00    	push   QWORD PTR [rip+0x200aaa]        # 200fc0 <_GLOBAL_OFFSET_TABLE_+0x8>
 516:	ff 25 ac 0a 20 00    	jmp    QWORD PTR [rip+0x200aac]        # 200fc8 <_GLOBAL_OFFSET_TABLE_+0x10>
 51c:	0f 1f 40 00          	nop    DWORD PTR [rax+0x0]

0000000000000520 <printf@plt>:
 520:	ff 25 aa 0a 20 00    	jmp    QWORD PTR [rip+0x200aaa]        # 200fd0 <printf@GLIBC_2.2.5>
 526:	68 00 00 00 00       	push   0x0
 52b:	e9 e0 ff ff ff       	jmp    510 <.plt>

Disassembly of section .plt.got:

0000000000000530 <__cxa_finalize@plt>:
 530:	ff 25 c2 0a 20 00    	jmp    QWORD PTR [rip+0x200ac2]        # 200ff8 <__cxa_finalize@GLIBC_2.2.5>
 536:	66 90                	xchg   ax,ax

Disassembly of section .text:

0000000000000540 <_start>:
 540:	31 ed                	xor    ebp,ebp
 542:	49 89 d1             	mov    r9,rdx
 545:	5e                   	pop    rsi
 546:	48 89 e2             	mov    rdx,rsp
 549:	48 83 e4 f0          	and    rsp,0xfffffffffffffff0
 54d:	50                   	push   rax
 54e:	54                   	push   rsp
 54f:	4c 8d 05 ba 01 00 00 	lea    r8,[rip+0x1ba]        # 710 <__libc_csu_fini>
 556:	48 8d 0d 43 01 00 00 	lea    rcx,[rip+0x143]        # 6a0 <__libc_csu_init>
 55d:	48 8d 3d e6 00 00 00 	lea    rdi,[rip+0xe6]        # 64a <main>
 564:	ff 15 76 0a 20 00    	call   QWORD PTR [rip+0x200a76]        # 200fe0 <__libc_start_main@GLIBC_2.2.5>
 56a:	f4                   	hlt    
 56b:	0f 1f 44 00 00       	nop    DWORD PTR [rax+rax*1+0x0]

0000000000000570 <deregister_tm_clones>:
 570:	48 8d 3d 99 0a 20 00 	lea    rdi,[rip+0x200a99]        # 201010 <__TMC_END__>
 577:	55                   	push   rbp
 578:	48 8d 05 91 0a 20 00 	lea    rax,[rip+0x200a91]        # 201010 <__TMC_END__>
 57f:	48 39 f8             	cmp    rax,rdi
 582:	48 89 e5             	mov    rbp,rsp
 585:	74 19                	je     5a0 <deregister_tm_clones+0x30>
 587:	48 8b 05 4a 0a 20 00 	mov    rax,QWORD PTR [rip+0x200a4a]        # 200fd8 <_ITM_deregisterTMCloneTable>
 58e:	48 85 c0             	test   rax,rax
 591:	74 0d                	je     5a0 <deregister_tm_clones+0x30>
 593:	5d                   	pop    rbp
 594:	ff e0                	jmp    rax
 596:	66 2e 0f 1f 84 00 00 	cs nop WORD PTR [rax+rax*1+0x0]
 59d:	00 00 00 
 5a0:	5d                   	pop    rbp
 5a1:	c3                   	ret    
 5a2:	0f 1f 40 00          	nop    DWORD PTR [rax+0x0]
 5a6:	66 2e 0f 1f 84 00 00 	cs nop WORD PTR [rax+rax*1+0x0]
 5ad:	00 00 00 

00000000000005b0 <register_tm_clones>:
 5b0:	48 8d 3d 59 0a 20 00 	lea    rdi,[rip+0x200a59]        # 201010 <__TMC_END__>
 5b7:	48 8d 35 52 0a 20 00 	lea    rsi,[rip+0x200a52]        # 201010 <__TMC_END__>
 5be:	55                   	push   rbp
 5bf:	48 29 fe             	sub    rsi,rdi
 5c2:	48 89 e5             	mov    rbp,rsp
 5c5:	48 c1 fe 03          	sar    rsi,0x3
 5c9:	48 89 f0             	mov    rax,rsi
 5cc:	48 c1 e8 3f          	shr    rax,0x3f
 5d0:	48 01 c6             	add    rsi,rax
 5d3:	48 d1 fe             	sar    rsi,1
 5d6:	74 18                	je     5f0 <register_tm_clones+0x40>
 5d8:	48 8b 05 11 0a 20 00 	mov    rax,QWORD PTR [rip+0x200a11]        # 200ff0 <_ITM_registerTMCloneTable>
 5df:	48 85 c0             	test   rax,rax
 5e2:	74 0c                	je     5f0 <register_tm_clones+0x40>
 5e4:	5d                   	pop    rbp
 5e5:	ff e0                	jmp    rax
 5e7:	66 0f 1f 84 00 00 00 	nop    WORD PTR [rax+rax*1+0x0]
 5ee:	00 00 
 5f0:	5d                   	pop    rbp
 5f1:	c3                   	ret    
 5f2:	0f 1f 40 00          	nop    DWORD PTR [rax+0x0]
 5f6:	66 2e 0f 1f 84 00 00 	cs nop WORD PTR [rax+rax*1+0x0]
 5fd:	00 00 00 

0000000000000600 <__do_global_dtors_aux>:
 600:	80 3d 09 0a 20 00 00 	cmp    BYTE PTR [rip+0x200a09],0x0        # 201010 <__TMC_END__>
 607:	75 2f                	jne    638 <__do_global_dtors_aux+0x38>
 609:	48 83 3d e7 09 20 00 	cmp    QWORD PTR [rip+0x2009e7],0x0        # 200ff8 <__cxa_finalize@GLIBC_2.2.5>
 610:	00 
 611:	55                   	push   rbp
 612:	48 89 e5             	mov    rbp,rsp
 615:	74 0c                	je     623 <__do_global_dtors_aux+0x23>
 617:	48 8b 3d ea 09 20 00 	mov    rdi,QWORD PTR [rip+0x2009ea]        # 201008 <__dso_handle>
 61e:	e8 0d ff ff ff       	call   530 <__cxa_finalize@plt>
 623:	e8 48 ff ff ff       	call   570 <deregister_tm_clones>
 628:	c6 05 e1 09 20 00 01 	mov    BYTE PTR [rip+0x2009e1],0x1        # 201010 <__TMC_END__>
 62f:	5d                   	pop    rbp
 630:	c3                   	ret    
 631:	0f 1f 80 00 00 00 00 	nop    DWORD PTR [rax+0x0]
 638:	f3 c3                	repz ret 
 63a:	66 0f 1f 44 00 00    	nop    WORD PTR [rax+rax*1+0x0]

0000000000000640 <frame_dummy>:
 640:	55                   	push   rbp
 641:	48 89 e5             	mov    rbp,rsp
 644:	5d                   	pop    rbp
 645:	e9 66 ff ff ff       	jmp    5b0 <register_tm_clones>

000000000000064a <main>:
 64a:	55                   	push   rbp
 64b:	48 89 e5             	mov    rbp,rsp
 64e:	48 83 ec 10          	sub    rsp,0x10
 652:	c7 45 f4 1a 00 00 00 	mov    DWORD PTR [rbp-0xc],0x1a
 659:	c7 45 f8 fe 00 00 00 	mov    DWORD PTR [rbp-0x8],0xfe
 660:	c7 45 fc 23 01 00 00 	mov    DWORD PTR [rbp-0x4],0x123
 667:	8b 45 f4             	mov    eax,DWORD PTR [rbp-0xc]
 66a:	0f af 45 f8          	imul   eax,DWORD PTR [rbp-0x8]
 66e:	2b 45 fc             	sub    eax,DWORD PTR [rbp-0x4]
 671:	89 45 f4             	mov    DWORD PTR [rbp-0xc],eax
 674:	8b 45 f4             	mov    eax,DWORD PTR [rbp-0xc]
 677:	89 c6                	mov    esi,eax
 679:	48 8d 3d a4 00 00 00 	lea    rdi,[rip+0xa4]        # 724 <_IO_stdin_used+0x4>
 680:	b8 00 00 00 00       	mov    eax,0x0
 685:	e8 96 fe ff ff       	call   520 <printf@plt>
 68a:	b8 00 00 00 00       	mov    eax,0x0
 68f:	c9                   	leave  
 690:	c3                   	ret    
 691:	66 2e 0f 1f 84 00 00 	cs nop WORD PTR [rax+rax*1+0x0]
 698:	00 00 00 
 69b:	0f 1f 44 00 00       	nop    DWORD PTR [rax+rax*1+0x0]

00000000000006a0 <__libc_csu_init>:
 6a0:	41 57                	push   r15
 6a2:	41 56                	push   r14
 6a4:	49 89 d7             	mov    r15,rdx
 6a7:	41 55                	push   r13
 6a9:	41 54                	push   r12
 6ab:	4c 8d 25 06 07 20 00 	lea    r12,[rip+0x200706]        # 200db8 <__frame_dummy_init_array_entry>
 6b2:	55                   	push   rbp
 6b3:	48 8d 2d 06 07 20 00 	lea    rbp,[rip+0x200706]        # 200dc0 <__do_global_dtors_aux_fini_array_entry>
 6ba:	53                   	push   rbx
 6bb:	41 89 fd             	mov    r13d,edi
 6be:	49 89 f6             	mov    r14,rsi
 6c1:	4c 29 e5             	sub    rbp,r12
 6c4:	48 83 ec 08          	sub    rsp,0x8
 6c8:	48 c1 fd 03          	sar    rbp,0x3
 6cc:	e8 1f fe ff ff       	call   4f0 <_init>
 6d1:	48 85 ed             	test   rbp,rbp
 6d4:	74 20                	je     6f6 <__libc_csu_init+0x56>
 6d6:	31 db                	xor    ebx,ebx
 6d8:	0f 1f 84 00 00 00 00 	nop    DWORD PTR [rax+rax*1+0x0]
 6df:	00 
 6e0:	4c 89 fa             	mov    rdx,r15
 6e3:	4c 89 f6             	mov    rsi,r14
 6e6:	44 89 ef             	mov    edi,r13d
 6e9:	41 ff 14 dc          	call   QWORD PTR [r12+rbx*8]
 6ed:	48 83 c3 01          	add    rbx,0x1
 6f1:	48 39 dd             	cmp    rbp,rbx
 6f4:	75 ea                	jne    6e0 <__libc_csu_init+0x40>
 6f6:	48 83 c4 08          	add    rsp,0x8
 6fa:	5b                   	pop    rbx
 6fb:	5d                   	pop    rbp
 6fc:	41 5c                	pop    r12
 6fe:	41 5d                	pop    r13
 700:	41 5e                	pop    r14
 702:	41 5f                	pop    r15
 704:	c3                   	ret    
 705:	90                   	nop
 706:	66 2e 0f 1f 84 00 00 	cs nop WORD PTR [rax+rax*1+0x0]
 70d:	00 00 00 

0000000000000710 <__libc_csu_fini>:
 710:	f3 c3                	repz ret 

Disassembly of section .fini:

0000000000000714 <_fini>:
 714:	48 83 ec 08          	sub    rsp,0x8
 718:	48 83 c4 08          	add    rsp,0x8
 71c:	c3                   	ret    

