../malSamples/samples/Trojan-exe-132ab6bad9a67e89e621caa83db4baa17664e89d8d13a12fba8f2e8a1e72e48e

md5
8ab493363ea363dd3f4dd2f31543e32a

sha1
8cfedf0766583b6b3928cd5af14a4a61f7585239

sha256
132ab6bad9a67e89e621caa83db4baa17664e89d8d13a12fba8f2e8a1e72e48e

strings
[Strings]
nth paddr      vaddr      len size section type    string
―――――――――――――――――――――――――――――――――――――――――――――――――――――――――
0   0x0000608c 0x0040728c 8   9    .rdata  ascii   RichEdit
1   0x00006098 0x00407298 11  12   .rdata  ascii   RichEdit20A
2   0x000060a4 0x004072a4 8   9    .rdata  ascii   RichEd32
3   0x000060b0 0x004072b0 8   9    .rdata  ascii   RichEd20
4   0x000060bc 0x004072bc 36  37   .rdata  ascii   .DEFAULT\Control Panel\International
5   0x000060e4 0x004072e4 36  37   .rdata  ascii   Control Panel\Desktop\ResourceLocale
6   0x0000610c 0x0040730c 10  11   .rdata  ascii   [Rename]\r\n
7   0x0000611c 0x0040731c 41  42   .rdata  ascii   Software\Microsoft\Windows\CurrentVersion
8   0x00006148 0x00407348 41  42   .rdata  ascii   \Microsoft\Internet Explorer\Quick Launch
9   0x000064e6 0x004076e6 6   7    .rdata  ascii   MulDiv
10  0x000064f0 0x004076f0 11  12   .rdata  ascii   DeleteFileA
11  0x000064fe 0x004076fe 14  15   .rdata  ascii   FindFirstFileA
12  0x00006510 0x00407710 13  14   .rdata  ascii   FindNextFileA
13  0x00006520 0x00407720 9   10   .rdata  ascii   FindClose
14  0x0000652c 0x0040772c 14  15   .rdata  ascii   SetFilePointer
15  0x0000653e 0x0040773e 8   9    .rdata  ascii   ReadFile
16  0x0000654a 0x0040774a 9   10   .rdata  ascii   WriteFile
17  0x00006556 0x00407756 24  25   .rdata  ascii   GetPrivateProfileStringA
18  0x00006572 0x00407772 26  27   .rdata  ascii   WritePrivateProfileStringA
19  0x00006590 0x00407790 19  20   .rdata  ascii   MultiByteToWideChar
20  0x000065a6 0x004077a6 11  12   .rdata  ascii   FreeLibrary
21  0x000065b4 0x004077b4 14  15   .rdata  ascii   GetProcAddress
22  0x000065c6 0x004077c6 14  15   .rdata  ascii   LoadLibraryExA
23  0x000065d8 0x004077d8 16  17   .rdata  ascii   GetModuleHandleA
24  0x000065ec 0x004077ec 18  19   .rdata  ascii   GetExitCodeProcess
25  0x00006602 0x00407802 19  20   .rdata  ascii   WaitForSingleObject
26  0x00006618 0x00407818 11  12   .rdata  ascii   GlobalAlloc
27  0x00006626 0x00407826 10  11   .rdata  ascii   GlobalFree
28  0x00006634 0x00407834 25  26   .rdata  ascii   ExpandEnvironmentStringsA
29  0x00006650 0x00407850 8   9    .rdata  ascii   lstrcmpA
30  0x0000665c 0x0040785c 9   10   .rdata  ascii   lstrcmpiA
31  0x00006668 0x00407868 11  12   .rdata  ascii   CloseHandle
32  0x00006676 0x00407876 11  12   .rdata  ascii   SetFileTime
33  0x00006684 0x00407884 15  16   .rdata  ascii   CompareFileTime
34  0x00006696 0x00407896 11  12   .rdata  ascii   SearchPathA
35  0x000066a4 0x004078a4 17  18   .rdata  ascii   GetShortPathNameA
36  0x000066b8 0x004078b8 16  17   .rdata  ascii   GetFullPathNameA
37  0x000066cc 0x004078cc 9   10   .rdata  ascii   MoveFileA
38  0x000066d8 0x004078d8 20  21   .rdata  ascii   SetCurrentDirectoryA
39  0x000066f0 0x004078f0 18  19   .rdata  ascii   GetFileAttributesA
40  0x00006706 0x00407906 12  13   .rdata  ascii   GetLastError
41  0x00006716 0x00407916 16  17   .rdata  ascii   CreateDirectoryA
42  0x0000672a 0x0040792a 18  19   .rdata  ascii   SetFileAttributesA
43  0x00006740 0x00407940 5   6    .rdata  ascii   Sleep
44  0x00006748 0x00407948 12  13   .rdata  ascii   GetTickCount
45  0x00006758 0x00407958 11  12   .rdata  ascii   CreateFileA
46  0x00006766 0x00407966 11  12   .rdata  ascii   GetFileSize
47  0x00006774 0x00407974 18  19   .rdata  ascii   GetModuleFileNameA
48  0x0000678a 0x0040798a 17  18   .rdata  ascii   GetCurrentProcess
49  0x0000679e 0x0040799e 9   10   .rdata  ascii   CopyFileA
50  0x000067aa 0x004079aa 11  12   .rdata  ascii   ExitProcess
51  0x000067b8 0x004079b8 20  21   .rdata  ascii   GetWindowsDirectoryA
52  0x000067d0 0x004079d0 12  13   .rdata  ascii   GetTempPathA
53  0x000067e0 0x004079e0 15  16   .rdata  ascii   GetCommandLineA
54  0x000067f2 0x004079f2 12  13   .rdata  ascii   SetErrorMode
55  0x00006802 0x00407a02 12  13   .rdata  ascii   LoadLibraryA
56  0x00006812 0x00407a12 9   10   .rdata  ascii   lstrcpynA
57  0x0000681e 0x00407a1e 17  18   .rdata  ascii   GetDiskFreeSpaceA
58  0x00006832 0x00407a32 12  13   .rdata  ascii   GlobalUnlock
59  0x00006842 0x00407a42 10  11   .rdata  ascii   GlobalLock
60  0x00006850 0x00407a50 12  13   .rdata  ascii   CreateThread
61  0x00006860 0x00407a60 14  15   .rdata  ascii   CreateProcessA
62  0x00006872 0x00407a72 16  17   .rdata  ascii   RemoveDirectoryA
63  0x00006886 0x00407a86 16  17   .rdata  ascii   GetTempFileNameA
64  0x0000689a 0x00407a9a 8   9    .rdata  ascii   lstrlenA
65  0x000068a6 0x00407aa6 8   9    .rdata  ascii   lstrcatA
66  0x000068b2 0x00407ab2 19  20   .rdata  ascii   GetSystemDirectoryA
67  0x000068c8 0x00407ac8 10  11   .rdata  ascii   GetVersion
68  0x000068d4 0x00407ad4 12  13   .rdata  ascii   KERNEL32.dll
69  0x000068e4 0x00407ae4 8   9    .rdata  ascii   EndPaint
70  0x000068f0 0x00407af0 9   10   .rdata  ascii   DrawTextA
71  0x000068fc 0x00407afc 8   9    .rdata  ascii   FillRect
72  0x00006908 0x00407b08 13  14   .rdata  ascii   GetClientRect
73  0x00006918 0x00407b18 10  11   .rdata  ascii   BeginPaint
74  0x00006926 0x00407b26 14  15   .rdata  ascii   DefWindowProcA
75  0x00006938 0x00407b38 12  13   .rdata  ascii   SendMessageA
76  0x00006948 0x00407b48 14  15   .rdata  ascii   InvalidateRect
77  0x0000695a 0x00407b5a 12  13   .rdata  ascii   EnableWindow
78  0x0000696a 0x00407b6a 5   6    .rdata  ascii   GetDC
79  0x00006972 0x00407b72 10  11   .rdata  ascii   LoadImageA
80  0x00006980 0x00407b80 14  15   .rdata  ascii   SetWindowLongA
81  0x00006992 0x00407b92 10  11   .rdata  ascii   GetDlgItem
82  0x000069a0 0x00407ba0 8   9    .rdata  ascii   IsWindow
83  0x000069ac 0x00407bac 13  14   .rdata  ascii   FindWindowExA
84  0x000069bc 0x00407bbc 19  20   .rdata  ascii   SendMessageTimeoutA
85  0x000069d2 0x00407bd2 9   10   .rdata  ascii   wsprintfA
86  0x000069de 0x00407bde 10  11   .rdata  ascii   ShowWindow
87  0x000069ec 0x00407bec 19  20   .rdata  ascii   SetForegroundWindow
88  0x00006a02 0x00407c02 15  16   .rdata  ascii   PostQuitMessage
89  0x00006a14 0x00407c14 14  15   .rdata  ascii   SetWindowTextA
90  0x00006a26 0x00407c26 8   9    .rdata  ascii   SetTimer
91  0x00006a32 0x00407c32 18  19   .rdata  ascii   CreateDialogParamA
92  0x00006a48 0x00407c48 13  14   .rdata  ascii   DestroyWindow
93  0x00006a58 0x00407c58 13  14   .rdata  ascii   ExitWindowsEx
94  0x00006a68 0x00407c68 9   10   .rdata  ascii   CharNextA
95  0x00006a74 0x00407c74 15  16   .rdata  ascii   DialogBoxParamA
96  0x00006a86 0x00407c86 13  14   .rdata  ascii   GetClassInfoA
97  0x00006a96 0x00407c96 15  16   .rdata  ascii   CreateWindowExA
98  0x00006aa8 0x00407ca8 21  22   .rdata  ascii   SystemParametersInfoA
99  0x00006ac0 0x00407cc0 14  15   .rdata  ascii   RegisterClassA
100 0x00006ad2 0x00407cd2 9   10   .rdata  ascii   EndDialog
101 0x00006ade 0x00407cde 14  15   .rdata  ascii   ScreenToClient
102 0x00006af0 0x00407cf0 13  14   .rdata  ascii   GetWindowRect
103 0x00006b00 0x00407d00 14  15   .rdata  ascii   EnableMenuItem
104 0x00006b12 0x00407d12 13  14   .rdata  ascii   GetSystemMenu
105 0x00006b22 0x00407d22 13  14   .rdata  ascii   SetClassLongA
106 0x00006b32 0x00407d32 15  16   .rdata  ascii   IsWindowEnabled
107 0x00006b44 0x00407d44 12  13   .rdata  ascii   SetWindowPos
108 0x00006b54 0x00407d54 11  12   .rdata  ascii   GetSysColor
109 0x00006b62 0x00407d62 14  15   .rdata  ascii   GetWindowLongA
110 0x00006b74 0x00407d74 9   10   .rdata  ascii   SetCursor
111 0x00006b80 0x00407d80 11  12   .rdata  ascii   LoadCursorA
112 0x00006b8e 0x00407d8e 14  15   .rdata  ascii   CheckDlgButton
113 0x00006ba0 0x00407da0 13  14   .rdata  ascii   GetMessagePos
114 0x00006bb0 0x00407db0 11  12   .rdata  ascii   LoadBitmapA
115 0x00006bbe 0x00407dbe 15  16   .rdata  ascii   CallWindowProcA
116 0x00006bd0 0x00407dd0 15  16   .rdata  ascii   IsWindowVisible
117 0x00006be2 0x00407de2 14  15   .rdata  ascii   CloseClipboard
118 0x00006bf4 0x00407df4 16  17   .rdata  ascii   SetClipboardData
119 0x00006c08 0x00407e08 14  15   .rdata  ascii   EmptyClipboard
120 0x00006c1a 0x00407e1a 13  14   .rdata  ascii   OpenClipboard
121 0x00006c2a 0x00407e2a 14  15   .rdata  ascii   TrackPopupMenu
122 0x00006c3c 0x00407e3c 11  12   .rdata  ascii   AppendMenuA
123 0x00006c4a 0x00407e4a 15  16   .rdata  ascii   CreatePopupMenu
124 0x00006c5c 0x00407e5c 16  17   .rdata  ascii   GetSystemMetrics
125 0x00006c70 0x00407e70 15  16   .rdata  ascii   SetDlgItemTextA
126 0x00006c82 0x00407e82 15  16   .rdata  ascii   GetDlgItemTextA
127 0x00006c94 0x00407e94 19  20   .rdata  ascii   MessageBoxIndirectA
128 0x00006caa 0x00407eaa 9   10   .rdata  ascii   CharPrevA
129 0x00006cb6 0x00407eb6 16  17   .rdata  ascii   DispatchMessageA
130 0x00006cca 0x00407eca 12  13   .rdata  ascii   PeekMessageA
131 0x00006cd8 0x00407ed8 10  11   .rdata  ascii   USER32.dll
132 0x00006ce6 0x00407ee6 12  13   .rdata  ascii   SelectObject
133 0x00006cf6 0x00407ef6 12  13   .rdata  ascii   SetTextColor
134 0x00006d06 0x00407f06 9   10   .rdata  ascii   SetBkMode
135 0x00006d12 0x00407f12 19  20   .rdata  ascii   CreateFontIndirectA
136 0x00006d28 0x00407f28 19  20   .rdata  ascii   CreateBrushIndirect
137 0x00006d3e 0x00407f3e 12  13   .rdata  ascii   DeleteObject
138 0x00006d4e 0x00407f4e 13  14   .rdata  ascii   GetDeviceCaps
139 0x00006d5e 0x00407f5e 10  11   .rdata  ascii   SetBkColor
140 0x00006d6a 0x00407f6a 9   10   .rdata  ascii   GDI32.dll
141 0x00006d76 0x00407f76 16  17   .rdata  ascii   SHFileOperationA
142 0x00006d8a 0x00407f8a 13  14   .rdata  ascii   ShellExecuteA
143 0x00006d9a 0x00407f9a 14  15   .rdata  ascii   SHGetFileInfoA
144 0x00006dac 0x00407fac 18  19   .rdata  ascii   SHBrowseForFolderA
145 0x00006dc2 0x00407fc2 20  21   .rdata  ascii   SHGetPathFromIDListA
146 0x00006dda 0x00407fda 26  27   .rdata  ascii   SHGetSpecialFolderLocation
147 0x00006df6 0x00407ff6 11  12   .rdata  ascii   SHELL32.dll
148 0x00006e04 0x00408004 13  14   .rdata  ascii   RegEnumValueA
149 0x00006e14 0x00408014 11  12   .rdata  ascii   RegEnumKeyA
150 0x00006e22 0x00408022 16  17   .rdata  ascii   RegQueryValueExA
151 0x00006e36 0x00408036 14  15   .rdata  ascii   RegSetValueExA
152 0x00006e48 0x00408048 15  16   .rdata  ascii   RegCreateKeyExA
153 0x00006e5a 0x0040805a 11  12   .rdata  ascii   RegCloseKey
154 0x00006e68 0x00408068 15  16   .rdata  ascii   RegDeleteValueA
155 0x00006e7a 0x0040807a 13  14   .rdata  ascii   RegDeleteKeyA
156 0x00006e8a 0x0040808a 13  14   .rdata  ascii   RegOpenKeyExA
157 0x00006e98 0x00408098 12  13   .rdata  ascii   ADVAPI32.dll
158 0x00006ea8 0x004080a8 17  18   .rdata  ascii   ImageList_Destroy
159 0x00006ebc 0x004080bc 19  20   .rdata  ascii   ImageList_AddMasked
160 0x00006ed2 0x004080d2 16  17   .rdata  ascii   ImageList_Create
161 0x00006ee4 0x004080e4 12  13   .rdata  ascii   COMCTL32.dll
162 0x00006ef4 0x004080f4 16  17   .rdata  ascii   CoCreateInstance
163 0x00006f08 0x00408108 15  16   .rdata  ascii   OleUninitialize
164 0x00006f1a 0x0040811a 13  14   .rdata  ascii   OleInitialize
165 0x00006f2a 0x0040812a 13  14   .rdata  ascii   CoTaskMemFree
166 0x00006f38 0x00408138 9   10   .rdata  ascii   ole32.dll
167 0x00006f44 0x00408144 14  15   .rdata  ascii   VerQueryValueA
168 0x00006f56 0x00408156 19  20   .rdata  ascii   GetFileVersionInfoA
169 0x00006f6c 0x0040816c 23  24   .rdata  ascii   GetFileVersionInfoSizeA
170 0x00006f84 0x00408184 11  12   .rdata  ascii   VERSION.dll
0   0x00007018 0x00409018 25  26   .data   ascii   verifying installer: %d%%
1   0x00007034 0x00409034 20  21   .data   ascii   unpacking data: %d%%
2   0x0000704c 0x0040904c 8   9    .data   ascii   ... %d%%
3   0x00007058 0x00409058 203 204  .data   ascii   Installer integrity check has failed. Common causes include\nincomplete download and damaged media. Contact the\ninstaller's author to obtain a new copy.\n\nMore information at:\nhttp://nsis.sf.net/NSIS_Error
4   0x00007128 0x00409128 66  67   .data   ascii   Error writing temporary file. Make sure your temp folder is valid.
5   0x0000716c 0x0040916c 25  26   .data   ascii   Error launching installer
6   0x00007188 0x00409188 19  20   .data   ascii   SeShutdownPrivilege
7   0x0000719c 0x0040919c 8   9    .data   ascii   ~nsu.tmp
8   0x000071a8 0x004091a8 5   6    .data   ascii   \Temp
9   0x000071b0 0x004091b0 10  11   .data   ascii   NSIS Error
10  0x000071d4 0x004091d4 4   5    .data   ascii   .exe
11  0x000071dc 0x004091dc 4   5    .data   ascii   open
12  0x000071e4 0x004091e4 9   10   .data   ascii   %u.%u%s%s
13  0x00007260 0x00409260 16  17   .data   ascii   SHGetFolderPathA
14  0x00007274 0x00409274 8   9    .data   ascii   SHFOLDER
15  0x00007280 0x00409280 14  15   .data   ascii   SHAutoComplete
16  0x00007290 0x00409290 7   8    .data   ascii   SHLWAPI
17  0x00007298 0x00409298 24  25   .data   ascii   GetUserDefaultUILanguage
18  0x000072b4 0x004092b4 21  22   .data   ascii   AdjustTokenPrivileges
19  0x000072cc 0x004092cc 21  22   .data   ascii   LookupPrivilegeValueA
20  0x000072e4 0x004092e4 16  17   .data   ascii   OpenProcessToken
21  0x000072f8 0x004092f8 15  16   .data   ascii   RegDeleteKeyExA
22  0x00007308 0x00409308 8   9    .data   ascii   ADVAPI32
23  0x00007314 0x00409314 11  12   .data   ascii   MoveFileExA
24  0x00007320 0x00409320 19  20   .data   ascii   GetDiskFreeSpaceExA
25  0x00007334 0x00409334 8   9    .data   ascii   KERNEL32
26  0x00007340 0x00409340 4   5    .data   ascii   \*.*
27  0x0000734c 0x0040934c 7   8    .data   ascii   %s=%s\r\n
28  0x00007354 0x00409354 8   9    .data   ascii   *?|<>/":
0   0x0000765d 0x0042c25d 5   6    .rsrc   ascii   xxxp\t
1   0x000076fe 0x0042c2fe 10  11   .rsrc   ascii   \awwwwwwwxp
2   0x00007728 0x0042c328 5   6    .rsrc   ascii   wwwwp
3   0x0000773a 0x0042c33a 5   6    .rsrc   ascii   \aww\b\a
4   0x0000774b 0x0042c34b 4   5    .rsrc   ascii   wwp\a
5   0x000077ef 0x0042c3ef 8   9    .rsrc   ascii   wwwwwwww
6   0x0000789e 0x0042c49e 12  26   .rsrc   utf16le MS Shell Dlg
7   0x0000799e 0x0042c59e 12  26   .rsrc   utf16le MS Shell Dlg
8   0x000079d0 0x0042c5d0 17  36   .rsrc   utf16le msctls_progress32
9   0x00007a30 0x0042c630 13  28   .rsrc   utf16le SysListView32
10  0x00007abe 0x0042c6be 12  26   .rsrc   utf16le MS Shell Dlg
11  0x00007b10 0x0042c710 491 492  .rsrc   ascii   <?xml version="1.0" encoding="UTF-8" standalone="yes"?><assembly xmlns="urn:schemas-microsoft-com:asm.v1" manifestVersion="1.0"><assemblyIdentity version="1.0.0.0" processorArchitecture="X86" name="Nullsoft.NSIS.exehead" type="win32"/><description>Nullsoft Install System v2.40</description><trustInfo xmlns="urn:schemas-microsoft-com:asm.v3"><security><requestedPrivileges><requestedExecutionLevel level="asInvoker" uiAccess="false"/></requestedPrivileges></security></trustInfo></assembly>


funcs
0x00403225   55 897          entry0
0x004011ef   19 170          fcn.004011ef
0x004059fc   17 137          fcn.004059fc
0x00401434  360 5211         fcn.00401434
0x00404e23   13 210          fcn.00404e23
0x0040136d    3 28           fcn.0040136d
0x00401389   12 130          fcn.00401389
0x004029cb    1 29           fcn.004029cb
0x00405aa7   49 572          fcn.00405aa7
0x004029e8    5 64           fcn.004029e8
0x0040560c   10 77           fcn.0040560c
0x004055a3    5 28           fcn.004055a3
0x00401423    1 17           fcn.00401423
0x00405a85    1 22           fcn.00405a85
0x00405d7c    4 39           fcn.00405d7c
0x004057d3   22 409          fcn.004057d3
0x0040578b    6 72           fcn.0040578b
0x004055e5    7 39           fcn.004055e5
0x00405578    3 43           fcn.00405578
0x00405a9b    1 6            sub.KERNEL32.dll_lstrlenA
0x00405aa1    1 6            sub.KERNEL32.dll_lstrcatA
0x00405ce3   20 153          fcn.00405ce3
0x0040573d    3 31           fcn.0040573d
0x0040575c    1 47           fcn.0040575c
0x00405346    6 100          fcn.00405346
0x00402f01   26 299          fcn.00402f01
0x004053aa   40 462          fcn.004053aa
0x004052e5    3 63           fcn.004052e5
0x00405ddc    4 51           fcn.00405ddc
0x004059e3    1 25           fcn.004059e3
0x00406970    1 6            sub.VERSION.dll_GetFileVersionInfoSizeA
0x0040696a    1 6            sub.VERSION.dll_GetFileVersionInfoA
0x00406964    1 6            sub.VERSION.dll_VerQueryValueA
0x00402af2    1 59           fcn.00402af2
0x00402add    3 21           fcn.00402add
0x00402a28   13 181          fcn.00402a28
0x004031da    1 23           fcn.004031da
0x004031a8    5 50           fcn.004031a8
0x0040571d    4 32           fcn.0040571d
0x0040117d   12 114          fcn.0040117d
0x00401299   11 73           fcn.00401299
0x004012e2   13 139          fcn.004012e2
0x00405da3    4 57           fcn.00405da3
0x00402ba9    3 28           fcn.00402ba9
0x00405324    1 6            sub.USER32.dll_SetDlgItemTextA
0x004055bf    4 38           fcn.004055bf
0x00402bc5   12 150          fcn.00402bc5
0x00405e0f   10 110          fcn.00405e0f
0x00405e7d    3 32           fcn.00405e7d
0x0040302c   25 380          fcn.0040302c
0x00405e9d  176 2642         fcn.00405e9d
0x004031f1    3 52           fcn.004031f1
0x00402c5b   37 678          fcn.00402c5b
0x00405659   12 120          fcn.00405659
0x004035e3   35 692          fcn.004035e3
0x004035a6    5 61           fcn.004035a6
0x0040140b    1 24           fcn.0040140b
0x0040596c    7 119          fcn.0040596c
0x00403897   16 205          fcn.00403897
0x00404ef5    8 108          fcn.00404ef5
0x00403e10    3 39           fcn.00403e10
0x00403e9e   17 173          fcn.00403e9e
0x00403e37    1 34           fcn.00403e37
0x00403e83    3 27           fcn.00403e83
0x00403e59    1 19           fcn.00403e59
0x00403e6c    1 23           fcn.00403e6c
0x0040420a    3 36           fcn.0040420a
0x0040532a    1 28           fcn.0040532a
0x004046c5    7 45           fcn.004046c5
0x00404610    7 181          fcn.00404610
0x004046f2    6 128          fcn.004046f2
0x004056d1    7 76           fcn.004056d1
0x00401000   12 381          fcn.00401000
0x00402b2d    7 124          fcn.00402b2d
0x00403f4b    1 52           fcn.00403f4b
0x00403f7f   28 651          fcn.00403f7f
0x0040422e    3 71           fcn.0040422e
0x00404275   54 821          fcn.00404275
0x004045aa    9 102          fcn.004045aa
0x00404772   90 1537         fcn.00404772
0x00404d73   13 176          fcn.00404d73
0x00404f61   38 900          fcn.00404f61


arch
x86

size
292586

bintype
pe

opsystem
windows

file
PE32 executable (GUI) Intel 80386, for MS Windows, Nullsoft Installer self-extracting archive


objdump

../malSamples/samples/Trojan-exe-132ab6bad9a67e89e621caa83db4baa17664e89d8d13a12fba8f2e8a1e72e48e:     file format pei-i386
architecture: i386, flags 0x0000010a:
EXEC_P, HAS_DEBUG, D_PAGED
start address 0x00403225


Disassembly of section .text:

00401000 <.text>:
  401000:	55                   	push   ebp
  401001:	8b ec                	mov    ebp,esp
  401003:	83 ec 5c             	sub    esp,0x5c
  401006:	83 7d 0c 0f          	cmp    DWORD PTR [ebp+0xc],0xf
  40100a:	74 2b                	je     0x401037
  40100c:	83 7d 0c 46          	cmp    DWORD PTR [ebp+0xc],0x46
  401010:	8b 45 14             	mov    eax,DWORD PTR [ebp+0x14]
  401013:	75 0d                	jne    0x401022
  401015:	83 48 18 10          	or     DWORD PTR [eax+0x18],0x10
  401019:	8b 0d a8 3e 42 00    	mov    ecx,DWORD PTR ds:0x423ea8
  40101f:	89 48 04             	mov    DWORD PTR [eax+0x4],ecx
  401022:	50                   	push   eax
  401023:	ff 75 10             	push   DWORD PTR [ebp+0x10]
  401026:	ff 75 0c             	push   DWORD PTR [ebp+0xc]
  401029:	ff 75 08             	push   DWORD PTR [ebp+0x8]
  40102c:	ff 15 48 72 40 00    	call   DWORD PTR ds:0x407248
  401032:	e9 42 01 00 00       	jmp    0x401179
  401037:	53                   	push   ebx
  401038:	56                   	push   esi
  401039:	8b 35 b0 3e 42 00    	mov    esi,DWORD PTR ds:0x423eb0
  40103f:	8d 45 a4             	lea    eax,[ebp-0x5c]
  401042:	57                   	push   edi
  401043:	50                   	push   eax
  401044:	ff 75 08             	push   DWORD PTR [ebp+0x8]
  401047:	ff 15 4c 72 40 00    	call   DWORD PTR ds:0x40724c
  40104d:	83 65 f4 00          	and    DWORD PTR [ebp-0xc],0x0
  401051:	89 45 0c             	mov    DWORD PTR [ebp+0xc],eax
  401054:	8d 45 e4             	lea    eax,[ebp-0x1c]
  401057:	50                   	push   eax
  401058:	ff 75 08             	push   DWORD PTR [ebp+0x8]
  40105b:	ff 15 50 72 40 00    	call   DWORD PTR ds:0x407250
  401061:	8b 7d f0             	mov    edi,DWORD PTR [ebp-0x10]
  401064:	83 65 f0 00          	and    DWORD PTR [ebp-0x10],0x0
  401068:	8b 1d 44 70 40 00    	mov    ebx,DWORD PTR ds:0x407044
  40106e:	e9 80 00 00 00       	jmp    0x4010f3
  401073:	0f b6 46 52          	movzx  eax,BYTE PTR [esi+0x52]
  401077:	0f b6 56 56          	movzx  edx,BYTE PTR [esi+0x56]
  40107b:	0f af 55 e8          	imul   edx,DWORD PTR [ebp-0x18]
  40107f:	8b cf                	mov    ecx,edi
  401081:	2b 4d e8             	sub    ecx,DWORD PTR [ebp-0x18]
  401084:	0f af c1             	imul   eax,ecx
  401087:	03 c2                	add    eax,edx
  401089:	89 4d 10             	mov    DWORD PTR [ebp+0x10],ecx
  40108c:	99                   	cdq    
  40108d:	f7 ff                	idiv   edi
  40108f:	33 d2                	xor    edx,edx
  401091:	8a f0                	mov    dh,al
  401093:	0f b6 46 51          	movzx  eax,BYTE PTR [esi+0x51]
  401097:	0f af c1             	imul   eax,ecx
  40109a:	0f b6 4e 55          	movzx  ecx,BYTE PTR [esi+0x55]
  40109e:	0f af 4d e8          	imul   ecx,DWORD PTR [ebp-0x18]
  4010a2:	03 c1                	add    eax,ecx
  4010a4:	8b ca                	mov    ecx,edx
  4010a6:	99                   	cdq    
  4010a7:	f7 ff                	idiv   edi
  4010a9:	0f b6 56 54          	movzx  edx,BYTE PTR [esi+0x54]
  4010ad:	0f af 55 e8          	imul   edx,DWORD PTR [ebp-0x18]
  4010b1:	8a c8                	mov    cl,al
  4010b3:	0f b6 46 50          	movzx  eax,BYTE PTR [esi+0x50]
  4010b7:	0f af 45 10          	imul   eax,DWORD PTR [ebp+0x10]
  4010bb:	03 c2                	add    eax,edx
  4010bd:	99                   	cdq    
  4010be:	f7 ff                	idiv   edi
  4010c0:	c1 e1 08             	shl    ecx,0x8
  4010c3:	0f b6 c0             	movzx  eax,al
  4010c6:	0b c8                	or     ecx,eax
  4010c8:	8d 45 f4             	lea    eax,[ebp-0xc]
  4010cb:	50                   	push   eax
  4010cc:	89 4d f8             	mov    DWORD PTR [ebp-0x8],ecx
  4010cf:	ff 15 48 70 40 00    	call   DWORD PTR ds:0x407048
  4010d5:	83 45 f0 04          	add    DWORD PTR [ebp-0x10],0x4
  4010d9:	89 45 14             	mov    DWORD PTR [ebp+0x14],eax
  4010dc:	50                   	push   eax
  4010dd:	8d 45 e4             	lea    eax,[ebp-0x1c]
  4010e0:	50                   	push   eax
  4010e1:	ff 75 0c             	push   DWORD PTR [ebp+0xc]
  4010e4:	ff 15 54 72 40 00    	call   DWORD PTR ds:0x407254
  4010ea:	ff 75 14             	push   DWORD PTR [ebp+0x14]
  4010ed:	ff d3                	call   ebx
  4010ef:	83 45 e8 04          	add    DWORD PTR [ebp-0x18],0x4
  4010f3:	39 7d e8             	cmp    DWORD PTR [ebp-0x18],edi
  4010f6:	0f 8c 77 ff ff ff    	jl     0x401073
  4010fc:	83 7e 58 ff          	cmp    DWORD PTR [esi+0x58],0xffffffff
  401100:	74 65                	je     0x401167
  401102:	ff 76 34             	push   DWORD PTR [esi+0x34]
  401105:	ff 15 4c 70 40 00    	call   DWORD PTR ds:0x40704c
  40110b:	85 c0                	test   eax,eax
  40110d:	89 45 14             	mov    DWORD PTR [ebp+0x14],eax
  401110:	74 55                	je     0x401167
  401112:	8b 7d 0c             	mov    edi,DWORD PTR [ebp+0xc]
  401115:	6a 01                	push   0x1
  401117:	57                   	push   edi
  401118:	c7 45 e4 10 00 00 00 	mov    DWORD PTR [ebp-0x1c],0x10
  40111f:	c7 45 e8 08 00 00 00 	mov    DWORD PTR [ebp-0x18],0x8
  401126:	ff 15 50 70 40 00    	call   DWORD PTR ds:0x407050
  40112c:	ff 76 58             	push   DWORD PTR [esi+0x58]
  40112f:	57                   	push   edi
  401130:	ff 15 54 70 40 00    	call   DWORD PTR ds:0x407054
  401136:	ff 75 14             	push   DWORD PTR [ebp+0x14]
  401139:	8b 35 58 70 40 00    	mov    esi,DWORD PTR ds:0x407058
  40113f:	57                   	push   edi
  401140:	ff d6                	call   esi
  401142:	89 45 0c             	mov    DWORD PTR [ebp+0xc],eax
  401145:	8d 45 e4             	lea    eax,[ebp-0x1c]
  401148:	68 20 08 00 00       	push   0x820
  40114d:	50                   	push   eax
  40114e:	6a ff                	push   0xffffffff
  401150:	68 a0 36 42 00       	push   0x4236a0
  401155:	57                   	push   edi
  401156:	ff 15 58 72 40 00    	call   DWORD PTR ds:0x407258
  40115c:	ff 75 0c             	push   DWORD PTR [ebp+0xc]
  40115f:	57                   	push   edi
  401160:	ff d6                	call   esi
  401162:	ff 75 14             	push   DWORD PTR [ebp+0x14]
  401165:	ff d3                	call   ebx
  401167:	8d 45 a4             	lea    eax,[ebp-0x5c]
  40116a:	50                   	push   eax
  40116b:	ff 75 08             	push   DWORD PTR [ebp+0x8]
  40116e:	ff 15 5c 72 40 00    	call   DWORD PTR ds:0x40725c
  401174:	5f                   	pop    edi
  401175:	5e                   	pop    esi
  401176:	33 c0                	xor    eax,eax
  401178:	5b                   	pop    ebx
  401179:	c9                   	leave  
  40117a:	c2 10 00             	ret    0x10
  40117d:	8b 4c 24 04          	mov    ecx,DWORD PTR [esp+0x4]
  401181:	a1 c8 3e 42 00       	mov    eax,ds:0x423ec8
  401186:	8b d1                	mov    edx,ecx
  401188:	53                   	push   ebx
  401189:	69 d2 18 04 00 00    	imul   edx,edx,0x418
  40118f:	56                   	push   esi
  401190:	57                   	push   edi
  401191:	8b 54 02 08          	mov    edx,DWORD PTR [edx+eax*1+0x8]
  401195:	f6 c2 02             	test   dl,0x2
  401198:	74 4f                	je     0x4011e9
  40119a:	8d 71 01             	lea    esi,[ecx+0x1]
  40119d:	33 ff                	xor    edi,edi
  40119f:	3b 35 cc 3e 42 00    	cmp    esi,DWORD PTR ds:0x423ecc
  4011a5:	73 42                	jae    0x4011e9
  4011a7:	8b ce                	mov    ecx,esi
  4011a9:	69 c9 18 04 00 00    	imul   ecx,ecx,0x418
  4011af:	8d 44 01 08          	lea    eax,[ecx+eax*1+0x8]
  4011b3:	8b 08                	mov    ecx,DWORD PTR [eax]
  4011b5:	f6 c1 02             	test   cl,0x2
  4011b8:	74 03                	je     0x4011bd
  4011ba:	47                   	inc    edi
  4011bb:	eb 1e                	jmp    0x4011db
  4011bd:	f6 c1 04             	test   cl,0x4
  4011c0:	74 09                	je     0x4011cb
  4011c2:	8b cf                	mov    ecx,edi
  4011c4:	4f                   	dec    edi
  4011c5:	85 c9                	test   ecx,ecx
  4011c7:	74 20                	je     0x4011e9
  4011c9:	eb 10                	jmp    0x4011db
  4011cb:	f6 c1 10             	test   cl,0x10
  4011ce:	75 0b                	jne    0x4011db
  4011d0:	8b d9                	mov    ebx,ecx
  4011d2:	33 da                	xor    ebx,edx
  4011d4:	83 e3 01             	and    ebx,0x1
  4011d7:	33 d9                	xor    ebx,ecx
  4011d9:	89 18                	mov    DWORD PTR [eax],ebx
  4011db:	46                   	inc    esi
  4011dc:	05 18 04 00 00       	add    eax,0x418
  4011e1:	3b 35 cc 3e 42 00    	cmp    esi,DWORD PTR ds:0x423ecc
  4011e7:	72 ca                	jb     0x4011b3
  4011e9:	5f                   	pop    edi
  4011ea:	5e                   	pop    esi
  4011eb:	5b                   	pop    ebx
  4011ec:	c2 04 00             	ret    0x4
  4011ef:	55                   	push   ebp
  4011f0:	8b ec                	mov    ebp,esp
  4011f2:	51                   	push   ecx
  4011f3:	51                   	push   ecx
  4011f4:	8b 55 08             	mov    edx,DWORD PTR [ebp+0x8]
  4011f7:	53                   	push   ebx
  4011f8:	56                   	push   esi
  4011f9:	8b f2                	mov    esi,edx
  4011fb:	69 f6 18 04 00 00    	imul   esi,esi,0x418
  401201:	8b 1d c8 3e 42 00    	mov    ebx,DWORD PTR ds:0x423ec8
  401207:	33 c9                	xor    ecx,ecx
  401209:	03 f3                	add    esi,ebx
  40120b:	57                   	push   edi
  40120c:	89 4d fc             	mov    DWORD PTR [ebp-0x4],ecx
  40120f:	89 4d f8             	mov    DWORD PTR [ebp-0x8],ecx
  401212:	8b 46 08             	mov    eax,DWORD PTR [esi+0x8]
  401215:	a8 02                	test   al,0x2
  401217:	74 0b                	je     0x401224
  401219:	39 4d 0c             	cmp    DWORD PTR [ebp+0xc],ecx
  40121c:	74 06                	je     0x401224
  40121e:	24 be                	and    al,0xbe
  401220:	42                   	inc    edx
  401221:	89 46 08             	mov    DWORD PTR [esi+0x8],eax
  401224:	3b 15 cc 3e 42 00    	cmp    edx,DWORD PTR ds:0x423ecc
  40122a:	73 44                	jae    0x401270
  40122c:	8b c2                	mov    eax,edx
  40122e:	69 c0 18 04 00 00    	imul   eax,eax,0x418
  401234:	8d 7c 18 08          	lea    edi,[eax+ebx*1+0x8]
  401238:	8d 42 01             	lea    eax,[edx+0x1]
  40123b:	8b 0f                	mov    ecx,DWORD PTR [edi]
  40123d:	f6 c1 02             	test   cl,0x2
  401240:	74 0a                	je     0x40124c
  401242:	6a 01                	push   0x1
  401244:	52                   	push   edx
  401245:	e8 a5 ff ff ff       	call   0x4011ef
  40124a:	8b 0f                	mov    ecx,DWORD PTR [edi]
  40124c:	f6 c1 04             	test   cl,0x4
  40124f:	75 28                	jne    0x401279
  401251:	f6 c1 40             	test   cl,0x40
  401254:	74 03                	je     0x401259
  401256:	ff 45 fc             	inc    DWORD PTR [ebp-0x4]
  401259:	f6 c1 01             	test   cl,0x1
  40125c:	74 05                	je     0x401263
  40125e:	ff 45 fc             	inc    DWORD PTR [ebp-0x4]
  401261:	eb 03                	jmp    0x401266
  401263:	ff 45 f8             	inc    DWORD PTR [ebp-0x8]
  401266:	3b 05 cc 3e 42 00    	cmp    eax,DWORD PTR ds:0x423ecc
  40126c:	8b d0                	mov    edx,eax
  40126e:	72 bc                	jb     0x40122c
  401270:	33 c0                	xor    eax,eax
  401272:	5f                   	pop    edi
  401273:	5e                   	pop    esi
  401274:	5b                   	pop    ebx
  401275:	c9                   	leave  
  401276:	c2 08 00             	ret    0x8
  401279:	83 7d fc 00          	cmp    DWORD PTR [ebp-0x4],0x0
  40127d:	74 f3                	je     0x401272
  40127f:	83 7d f8 00          	cmp    DWORD PTR [ebp-0x8],0x0
  401283:	74 06                	je     0x40128b
  401285:	83 4e 08 40          	or     DWORD PTR [esi+0x8],0x40
  401289:	eb e7                	jmp    0x401272
  40128b:	8b 4e 08             	mov    ecx,DWORD PTR [esi+0x8]
  40128e:	80 e1 7f             	and    cl,0x7f
  401291:	83 c9 01             	or     ecx,0x1
  401294:	89 4e 08             	mov    DWORD PTR [esi+0x8],ecx
  401297:	eb d9                	jmp    0x401272
  401299:	8b 4c 24 04          	mov    ecx,DWORD PTR [esp+0x4]
  40129d:	a1 c8 3e 42 00       	mov    eax,ds:0x423ec8
  4012a2:	56                   	push   esi
  4012a3:	33 f6                	xor    esi,esi
  4012a5:	83 f9 20             	cmp    ecx,0x20
  4012a8:	73 34                	jae    0x4012de
  4012aa:	39 35 cc 3e 42 00    	cmp    DWORD PTR ds:0x423ecc,esi
  4012b0:	76 2c                	jbe    0x4012de
  4012b2:	8d 50 08             	lea    edx,[eax+0x8]
  4012b5:	57                   	push   edi
  4012b6:	8b 02                	mov    eax,DWORD PTR [edx]
  4012b8:	a8 06                	test   al,0x6
  4012ba:	75 12                	jne    0x4012ce
  4012bc:	33 ff                	xor    edi,edi
  4012be:	47                   	inc    edi
  4012bf:	d3 e7                	shl    edi,cl
  4012c1:	85 7a fc             	test   DWORD PTR [edx-0x4],edi
  4012c4:	74 04                	je     0x4012ca
  4012c6:	0c 01                	or     al,0x1
  4012c8:	eb 02                	jmp    0x4012cc
  4012ca:	24 fe                	and    al,0xfe
  4012cc:	89 02                	mov    DWORD PTR [edx],eax
  4012ce:	46                   	inc    esi
  4012cf:	81 c2 18 04 00 00    	add    edx,0x418
  4012d5:	3b 35 cc 3e 42 00    	cmp    esi,DWORD PTR ds:0x423ecc
  4012db:	72 d9                	jb     0x4012b6
  4012dd:	5f                   	pop    edi
  4012de:	5e                   	pop    esi
  4012df:	c2 04 00             	ret    0x4
  4012e2:	55                   	push   ebp
  4012e3:	8b ec                	mov    ebp,esp
  4012e5:	83 ec 0c             	sub    esp,0xc
  4012e8:	a1 b0 3e 42 00       	mov    eax,ds:0x423eb0
  4012ed:	83 65 fc 00          	and    DWORD PTR [ebp-0x4],0x0
  4012f1:	53                   	push   ebx
  4012f2:	56                   	push   esi
  4012f3:	05 94 00 00 00       	add    eax,0x94
  4012f8:	57                   	push   edi
  4012f9:	8b 3d cc 3e 42 00    	mov    edi,DWORD PTR ds:0x423ecc
  4012ff:	89 45 f8             	mov    DWORD PTR [ebp-0x8],eax
  401302:	8b 45 f8             	mov    eax,DWORD PTR [ebp-0x8]
  401305:	33 db                	xor    ebx,ebx
  401307:	39 18                	cmp    DWORD PTR [eax],ebx
  401309:	74 4b                	je     0x401356
  40130b:	3b df                	cmp    ebx,edi
  40130d:	73 45                	jae    0x401354
  40130f:	8b 35 c8 3e 42 00    	mov    esi,DWORD PTR ds:0x423ec8
  401315:	83 c6 08             	add    esi,0x8
  401318:	8b 16                	mov    edx,DWORD PTR [esi]
  40131a:	f6 c2 06             	test   dl,0x6
  40131d:	75 28                	jne    0x401347
  40131f:	8b 45 08             	mov    eax,DWORD PTR [ebp+0x8]
  401322:	85 c0                	test   eax,eax
  401324:	74 06                	je     0x40132c
  401326:	83 3c 98 00          	cmp    DWORD PTR [eax+ebx*4],0x0
  40132a:	74 1b                	je     0x401347
  40132c:	8b 4d fc             	mov    ecx,DWORD PTR [ebp-0x4]
  40132f:	33 c0                	xor    eax,eax
  401331:	40                   	inc    eax
  401332:	83 e2 01             	and    edx,0x1
  401335:	d3 e0                	shl    eax,cl
  401337:	8b 4e fc             	mov    ecx,DWORD PTR [esi-0x4]
  40133a:	23 c8                	and    ecx,eax
  40133c:	8b c1                	mov    eax,ecx
  40133e:	8b 4d fc             	mov    ecx,DWORD PTR [ebp-0x4]
  401341:	d3 e2                	shl    edx,cl
  401343:	3b c2                	cmp    eax,edx
  401345:	75 0b                	jne    0x401352
  401347:	43                   	inc    ebx
  401348:	81 c6 18 04 00 00    	add    esi,0x418
  40134e:	3b df                	cmp    ebx,edi
  401350:	72 c6                	jb     0x401318
  401352:	3b df                	cmp    ebx,edi
  401354:	74 0d                	je     0x401363
  401356:	ff 45 fc             	inc    DWORD PTR [ebp-0x4]
  401359:	83 45 f8 04          	add    DWORD PTR [ebp-0x8],0x4
  40135d:	83 7d fc 20          	cmp    DWORD PTR [ebp-0x4],0x20
  401361:	72 9f                	jb     0x401302
  401363:	8b 45 fc             	mov    eax,DWORD PTR [ebp-0x4]
  401366:	5f                   	pop    edi
  401367:	5e                   	pop    esi
  401368:	5b                   	pop    ebx
  401369:	c9                   	leave  
  40136a:	c2 04 00             	ret    0x4
  40136d:	8b 44 24 04          	mov    eax,DWORD PTR [esp+0x4]
  401371:	85 c0                	test   eax,eax
  401373:	7d 11                	jge    0x401386
  401375:	40                   	inc    eax
  401376:	b9 00 40 42 00       	mov    ecx,0x424000
  40137b:	c1 e0 0a             	shl    eax,0xa
  40137e:	2b c8                	sub    ecx,eax
  401380:	51                   	push   ecx
  401381:	e8 76 46 00 00       	call   0x4059fc
  401386:	c2 04 00             	ret    0x4
  401389:	56                   	push   esi
  40138a:	8b 74 24 08          	mov    esi,DWORD PTR [esp+0x8]
  40138e:	eb 6a                	jmp    0x4013fa
  401390:	8b c6                	mov    eax,esi
  401392:	8b 0d d0 3e 42 00    	mov    ecx,DWORD PTR ds:0x423ed0
  401398:	6b c0 1c             	imul   eax,eax,0x1c
  40139b:	03 c1                	add    eax,ecx
  40139d:	83 38 01             	cmp    DWORD PTR [eax],0x1
  4013a0:	74 5c                	je     0x4013fe
  4013a2:	50                   	push   eax
  4013a3:	e8 8c 00 00 00       	call   0x401434
  4013a8:	3d ff ff ff 7f       	cmp    eax,0x7fffffff
  4013ad:	74 55                	je     0x401404
  4013af:	50                   	push   eax
  4013b0:	e8 b8 ff ff ff       	call   0x40136d
  4013b5:	85 c0                	test   eax,eax
  4013b7:	75 04                	jne    0x4013bd
  4013b9:	40                   	inc    eax
  4013ba:	46                   	inc    esi
  4013bb:	eb 07                	jmp    0x4013c4
  4013bd:	48                   	dec    eax
  4013be:	8b ce                	mov    ecx,esi
  4013c0:	8b f0                	mov    esi,eax
  4013c2:	2b c1                	sub    eax,ecx
  4013c4:	83 7c 24 0c 00       	cmp    DWORD PTR [esp+0xc],0x0
  4013c9:	74 2f                	je     0x4013fa
  4013cb:	01 05 8c 36 42 00    	add    DWORD PTR ds:0x42368c,eax
  4013d1:	6a 00                	push   0x0
  4013d3:	ff 35 74 36 42 00    	push   DWORD PTR ds:0x423674
  4013d9:	68 30 75 00 00       	push   0x7530
  4013de:	ff 35 8c 36 42 00    	push   DWORD PTR ds:0x42368c
  4013e4:	ff 15 30 71 40 00    	call   DWORD PTR ds:0x407130
  4013ea:	50                   	push   eax
  4013eb:	68 02 04 00 00       	push   0x402
  4013f0:	ff 74 24 18          	push   DWORD PTR [esp+0x18]
  4013f4:	ff 15 44 72 40 00    	call   DWORD PTR ds:0x407244
  4013fa:	85 f6                	test   esi,esi
  4013fc:	7d 92                	jge    0x401390
  4013fe:	33 c0                	xor    eax,eax
  401400:	5e                   	pop    esi
  401401:	c2 08 00             	ret    0x8
  401404:	b8 ff ff ff 7f       	mov    eax,0x7fffffff
  401409:	eb f5                	jmp    0x401400
  40140b:	8b 44 24 04          	mov    eax,DWORD PTR [esp+0x4]
  40140f:	8b 0d b0 3e 42 00    	mov    ecx,DWORD PTR ds:0x423eb0
  401415:	6a 00                	push   0x0
  401417:	ff 74 81 6c          	push   DWORD PTR [ecx+eax*4+0x6c]
  40141b:	e8 69 ff ff ff       	call   0x401389
  401420:	c2 04 00             	ret    0x4
  401423:	68 68 9f 40 00       	push   0x409f68
  401428:	ff 74 24 08          	push   DWORD PTR [esp+0x8]
  40142c:	e8 f2 39 00 00       	call   0x404e23
  401431:	c2 04 00             	ret    0x4
  401434:	55                   	push   ebp
  401435:	8b ec                	mov    ebp,esp
  401437:	81 ec a4 01 00 00    	sub    esp,0x1a4
  40143d:	a1 a8 3e 42 00       	mov    eax,ds:0x423ea8
  401442:	53                   	push   ebx
  401443:	56                   	push   esi
  401444:	8b 75 08             	mov    esi,DWORD PTR [ebp+0x8]
  401447:	57                   	push   edi
  401448:	6a 07                	push   0x7
  40144a:	59                   	pop    ecx
  40144b:	8d 7d d8             	lea    edi,[ebp-0x28]
  40144e:	89 45 cc             	mov    DWORD PTR [ebp-0x34],eax
  401451:	33 db                	xor    ebx,ebx
  401453:	f3 a5                	rep movs DWORD PTR es:[edi],DWORD PTR ds:[esi]
  401455:	8b 45 dc             	mov    eax,DWORD PTR [ebp-0x24]
  401458:	8b 55 e0             	mov    edx,DWORD PTR [ebp-0x20]
  40145b:	8b f0                	mov    esi,eax
  40145d:	8b fa                	mov    edi,edx
  40145f:	c1 e6 0a             	shl    esi,0xa
  401462:	b9 00 40 42 00       	mov    ecx,0x424000
  401467:	89 5d fc             	mov    DWORD PTR [ebp-0x4],ebx
  40146a:	c1 e7 0a             	shl    edi,0xa
  40146d:	03 f1                	add    esi,ecx
  40146f:	03 f9                	add    edi,ecx
  401471:	8d 4d dc             	lea    ecx,[ebp-0x24]
  401474:	89 0d 60 9b 40 00    	mov    DWORD PTR ds:0x409b60,ecx
  40147a:	8b 4d d8             	mov    ecx,DWORD PTR [ebp-0x28]
  40147d:	83 c1 fe             	add    ecx,0xfffffffe
  401480:	83 f9 41             	cmp    ecx,0x41
  401483:	0f 87 f4 13 00 00    	ja     0x40287d
  401489:	ff 24 8d 8f 28 40 00 	jmp    DWORD PTR [ecx*4+0x40288f]
  401490:	53                   	push   ebx
  401491:	50                   	push   eax
  401492:	e8 8c 39 00 00       	call   0x404e23
  401497:	e9 64 0d 00 00       	jmp    0x402200
  40149c:	ff 05 6c 36 42 00    	inc    DWORD PTR ds:0x42366c
  4014a2:	39 5d cc             	cmp    DWORD PTR [ebp-0x34],ebx
  4014a5:	0f 84 55 0d 00 00    	je     0x402200
  4014ab:	53                   	push   ebx
  4014ac:	ff 15 f8 71 40 00    	call   DWORD PTR ds:0x4071f8
  4014b2:	e9 49 0d 00 00       	jmp    0x402200
  4014b7:	50                   	push   eax
  4014b8:	e8 b0 fe ff ff       	call   0x40136d
  4014bd:	48                   	dec    eax
  4014be:	53                   	push   ebx
  4014bf:	50                   	push   eax
  4014c0:	e8 c4 fe ff ff       	call   0x401389
  4014c5:	e9 be 13 00 00       	jmp    0x402888
  4014ca:	53                   	push   ebx
  4014cb:	50                   	push   eax
  4014cc:	e8 52 39 00 00       	call   0x404e23
  4014d1:	e9 a7 13 00 00       	jmp    0x40287d
  4014d6:	53                   	push   ebx
  4014d7:	e8 ef 14 00 00       	call   0x4029cb
  4014dc:	83 f8 01             	cmp    eax,0x1
  4014df:	7f 03                	jg     0x4014e4
  4014e1:	33 c0                	xor    eax,eax
  4014e3:	40                   	inc    eax
  4014e4:	50                   	push   eax
  4014e5:	ff 15 88 70 40 00    	call   DWORD PTR ds:0x407088
  4014eb:	e9 8d 13 00 00       	jmp    0x40287d
  4014f0:	ff 75 cc             	push   DWORD PTR [ebp-0x34]
  4014f3:	ff 15 fc 71 40 00    	call   DWORD PTR ds:0x4071fc
  4014f9:	e9 7f 13 00 00       	jmp    0x40287d
  4014fe:	c1 e0 02             	shl    eax,0x2
  401501:	39 5d e4             	cmp    DWORD PTR [ebp-0x1c],ebx
  401504:	75 22                	jne    0x401528
  401506:	8b 88 20 3f 42 00    	mov    ecx,DWORD PTR [eax+0x423f20]
  40150c:	6a 01                	push   0x1
  40150e:	89 88 60 3f 42 00    	mov    DWORD PTR [eax+0x423f60],ecx
  401514:	e8 b2 14 00 00       	call   0x4029cb
  401519:	8b 4d dc             	mov    ecx,DWORD PTR [ebp-0x24]
  40151c:	89 04 8d 20 3f 42 00 	mov    DWORD PTR [ecx*4+0x423f20],eax
  401523:	e9 55 13 00 00       	jmp    0x40287d
  401528:	8b 88 60 3f 42 00    	mov    ecx,DWORD PTR [eax+0x423f60]
  40152e:	89 88 20 3f 42 00    	mov    DWORD PTR [eax+0x423f20],ecx
  401534:	e9 44 13 00 00       	jmp    0x40287d
  401539:	8b 45 e4             	mov    eax,DWORD PTR [ebp-0x1c]
  40153c:	8d 34 85 20 3f 42 00 	lea    esi,[eax*4+0x423f20]
  401543:	33 c0                	xor    eax,eax
  401545:	8b 0e                	mov    ecx,DWORD PTR [esi]
  401547:	3b cb                	cmp    ecx,ebx
  401549:	0f 94 c0             	sete   al
  40154c:	23 4d e8             	and    ecx,DWORD PTR [ebp-0x18]
  40154f:	8b 44 85 dc          	mov    eax,DWORD PTR [ebp+eax*4-0x24]
  401553:	89 0e                	mov    DWORD PTR [esi],ecx
  401555:	e9 2e 13 00 00       	jmp    0x402888
  40155a:	ff 34 95 20 3f 42 00 	push   DWORD PTR [edx*4+0x423f20]
  401561:	56                   	push   esi
  401562:	e9 be 12 00 00       	jmp    0x402825
  401567:	8b 0d 70 36 42 00    	mov    ecx,DWORD PTR ds:0x423670
  40156d:	8b 35 60 72 40 00    	mov    esi,DWORD PTR ds:0x407260
  401573:	3b cb                	cmp    ecx,ebx
  401575:	74 07                	je     0x40157e
  401577:	52                   	push   edx
  401578:	51                   	push   ecx
  401579:	ff d6                	call   esi
  40157b:	8b 45 dc             	mov    eax,DWORD PTR [ebp-0x24]
  40157e:	8b 0d 84 36 42 00    	mov    ecx,DWORD PTR ds:0x423684
  401584:	3b cb                	cmp    ecx,ebx
  401586:	0f 84 f1 12 00 00    	je     0x40287d
  40158c:	50                   	push   eax
  40158d:	51                   	push   ecx
  40158e:	ff d6                	call   esi
  401590:	e9 e8 12 00 00       	jmp    0x40287d
  401595:	6a f0                	push   0xfffffff0
  401597:	e8 4c 14 00 00       	call   0x4029e8
  40159c:	ff 75 e0             	push   DWORD PTR [ebp-0x20]
  40159f:	50                   	push   eax
  4015a0:	ff 15 84 70 40 00    	call   DWORD PTR ds:0x407084
  4015a6:	85 c0                	test   eax,eax
  4015a8:	0f 85 cf 12 00 00    	jne    0x40287d
  4015ae:	e9 9b 10 00 00       	jmp    0x40264e
  4015b3:	6a f0                	push   0xfffffff0
  4015b5:	e8 2e 14 00 00       	call   0x4029e8
  4015ba:	8b f8                	mov    edi,eax
  4015bc:	57                   	push   edi
  4015bd:	e8 4a 40 00 00       	call   0x40560c
  4015c2:	8b f0                	mov    esi,eax
  4015c4:	3b f3                	cmp    esi,ebx
  4015c6:	74 42                	je     0x40160a
  4015c8:	6a 5c                	push   0x5c
  4015ca:	56                   	push   esi
  4015cb:	e8 d3 3f 00 00       	call   0x4055a3
  4015d0:	8b f0                	mov    esi,eax
  4015d2:	53                   	push   ebx
  4015d3:	57                   	push   edi
  4015d4:	8a 06                	mov    al,BYTE PTR [esi]
  4015d6:	88 1e                	mov    BYTE PTR [esi],bl
  4015d8:	88 45 0b             	mov    BYTE PTR [ebp+0xb],al
  4015db:	ff 15 80 70 40 00    	call   DWORD PTR ds:0x407080
  4015e1:	85 c0                	test   eax,eax
  4015e3:	75 1b                	jne    0x401600
  4015e5:	ff 15 7c 70 40 00    	call   DWORD PTR ds:0x40707c
  4015eb:	3d b7 00 00 00       	cmp    eax,0xb7
  4015f0:	75 0b                	jne    0x4015fd
  4015f2:	57                   	push   edi
  4015f3:	ff 15 78 70 40 00    	call   DWORD PTR ds:0x407078
  4015f9:	a8 10                	test   al,0x10
  4015fb:	75 03                	jne    0x401600
  4015fd:	ff 45 fc             	inc    DWORD PTR [ebp-0x4]
  401600:	8a 45 0b             	mov    al,BYTE PTR [ebp+0xb]
  401603:	88 06                	mov    BYTE PTR [esi],al
  401605:	46                   	inc    esi
  401606:	3a c3                	cmp    al,bl
  401608:	75 be                	jne    0x4015c8
  40160a:	39 5d e0             	cmp    DWORD PTR [ebp-0x20],ebx
  40160d:	74 1e                	je     0x40162d
  40160f:	6a e6                	push   0xffffffe6
  401611:	e8 0d fe ff ff       	call   0x401423
  401616:	57                   	push   edi
  401617:	68 00 98 42 00       	push   0x429800
  40161c:	e8 64 44 00 00       	call   0x405a85
  401621:	57                   	push   edi
  401622:	ff 15 74 70 40 00    	call   DWORD PTR ds:0x407074
  401628:	e9 50 12 00 00       	jmp    0x40287d
  40162d:	6a f5                	push   0xfffffff5
  40162f:	e9 22 0b 00 00       	jmp    0x402156
  401634:	53                   	push   ebx
  401635:	e8 ae 13 00 00       	call   0x4029e8
  40163a:	50                   	push   eax
  40163b:	e8 3c 47 00 00       	call   0x405d7c
  401640:	e9 35 06 00 00       	jmp    0x401c7a
  401645:	6a d0                	push   0xffffffd0
  401647:	e8 9c 13 00 00       	call   0x4029e8
  40164c:	6a df                	push   0xffffffdf
  40164e:	8b f0                	mov    esi,eax
  401650:	e8 93 13 00 00       	call   0x4029e8
  401655:	6a 13                	push   0x13
  401657:	8b f8                	mov    edi,eax
  401659:	e8 8a 13 00 00       	call   0x4029e8
  40165e:	57                   	push   edi
  40165f:	56                   	push   esi
  401660:	ff 15 70 70 40 00    	call   DWORD PTR ds:0x407070
  401666:	85 c0                	test   eax,eax
  401668:	74 07                	je     0x401671
  40166a:	6a e3                	push   0xffffffe3
  40166c:	e9 e5 0a 00 00       	jmp    0x402156
  401671:	39 5d e4             	cmp    DWORD PTR [ebp-0x1c],ebx
  401674:	0f 84 d4 0f 00 00    	je     0x40264e
  40167a:	56                   	push   esi
  40167b:	e8 fc 46 00 00       	call   0x405d7c
  401680:	85 c0                	test   eax,eax
  401682:	0f 84 c6 0f 00 00    	je     0x40264e
  401688:	57                   	push   edi
  401689:	56                   	push   esi
  40168a:	e8 44 41 00 00       	call   0x4057d3
  40168f:	6a e4                	push   0xffffffe4
  401691:	e9 c0 0a 00 00       	jmp    0x402156
  401696:	53                   	push   ebx
  401697:	e8 4c 13 00 00       	call   0x4029e8
  40169c:	8b f0                	mov    esi,eax
  40169e:	8d 45 08             	lea    eax,[ebp+0x8]
  4016a1:	50                   	push   eax
  4016a2:	57                   	push   edi
  4016a3:	68 00 04 00 00       	push   0x400
  4016a8:	56                   	push   esi
  4016a9:	ff 15 6c 70 40 00    	call   DWORD PTR ds:0x40706c
  4016af:	85 c0                	test   eax,eax
  4016b1:	74 23                	je     0x4016d6
  4016b3:	8b 45 08             	mov    eax,DWORD PTR [ebp+0x8]
  4016b6:	3b c6                	cmp    eax,esi
  4016b8:	76 25                	jbe    0x4016df
  4016ba:	38 18                	cmp    BYTE PTR [eax],bl
  4016bc:	74 21                	je     0x4016df
  4016be:	56                   	push   esi
  4016bf:	e8 b8 46 00 00       	call   0x405d7c
  4016c4:	3b c3                	cmp    eax,ebx
  4016c6:	74 0e                	je     0x4016d6
  4016c8:	83 c0 2c             	add    eax,0x2c
  4016cb:	50                   	push   eax
  4016cc:	ff 75 08             	push   DWORD PTR [ebp+0x8]
  4016cf:	e8 b1 43 00 00       	call   0x405a85
  4016d4:	eb 09                	jmp    0x4016df
  4016d6:	c7 45 fc 01 00 00 00 	mov    DWORD PTR [ebp-0x4],0x1
  4016dd:	88 1f                	mov    BYTE PTR [edi],bl
  4016df:	39 5d e4             	cmp    DWORD PTR [ebp-0x1c],ebx
  4016e2:	0f 85 95 11 00 00    	jne    0x40287d
  4016e8:	68 00 04 00 00       	push   0x400
  4016ed:	57                   	push   edi
  4016ee:	57                   	push   edi
  4016ef:	ff 15 68 70 40 00    	call   DWORD PTR ds:0x407068
  4016f5:	e9 83 11 00 00       	jmp    0x40287d
  4016fa:	6a ff                	push   0xffffffff
  4016fc:	e8 e7 12 00 00       	call   0x4029e8
  401701:	8d 4d 08             	lea    ecx,[ebp+0x8]
  401704:	51                   	push   ecx
  401705:	56                   	push   esi
  401706:	68 00 04 00 00       	push   0x400
  40170b:	53                   	push   ebx
  40170c:	50                   	push   eax
  40170d:	53                   	push   ebx
  40170e:	ff 15 64 70 40 00    	call   DWORD PTR ds:0x407064
  401714:	85 c0                	test   eax,eax
  401716:	0f 85 61 11 00 00    	jne    0x40287d
  40171c:	e9 01 0f 00 00       	jmp    0x402622
  401721:	6a ef                	push   0xffffffef
  401723:	e8 c0 12 00 00       	call   0x4029e8
  401728:	50                   	push   eax
  401729:	56                   	push   esi
  40172a:	e8 5c 40 00 00       	call   0x40578b
  40172f:	e9 72 fe ff ff       	jmp    0x4015a6
  401734:	6a 31                	push   0x31
  401736:	e8 ad 12 00 00       	call   0x4029e8
  40173b:	8b f0                	mov    esi,eax
  40173d:	8b 45 dc             	mov    eax,DWORD PTR [ebp-0x24]
  401740:	83 e0 07             	and    eax,0x7
  401743:	56                   	push   esi
  401744:	89 75 f8             	mov    DWORD PTR [ebp-0x8],esi
  401747:	89 45 08             	mov    DWORD PTR [ebp+0x8],eax
  40174a:	e8 96 3e 00 00       	call   0x4055e5
  40174f:	56                   	push   esi
  401750:	be 68 9b 40 00       	mov    esi,0x409b68
  401755:	85 c0                	test   eax,eax
  401757:	74 08                	je     0x401761
  401759:	56                   	push   esi
  40175a:	e8 26 43 00 00       	call   0x405a85
  40175f:	eb 17                	jmp    0x401778
  401761:	68 00 98 42 00       	push   0x429800
  401766:	56                   	push   esi
  401767:	e8 19 43 00 00       	call   0x405a85
  40176c:	50                   	push   eax
  40176d:	e8 06 3e 00 00       	call   0x405578
  401772:	50                   	push   eax
  401773:	e8 29 43 00 00       	call   0x405aa1
  401778:	56                   	push   esi
  401779:	e8 65 45 00 00       	call   0x405ce3
  40177e:	bf 68 a3 40 00       	mov    edi,0x40a368
  401783:	83 7d 08 03          	cmp    DWORD PTR [ebp+0x8],0x3
  401787:	7c 31                	jl     0x4017ba
  401789:	56                   	push   esi
  40178a:	e8 ed 45 00 00       	call   0x405d7c
  40178f:	33 c9                	xor    ecx,ecx
  401791:	3b c3                	cmp    eax,ebx
  401793:	74 10                	je     0x4017a5
  401795:	8d 4d e8             	lea    ecx,[ebp-0x18]
  401798:	83 c0 14             	add    eax,0x14
  40179b:	51                   	push   ecx
  40179c:	50                   	push   eax
  40179d:	ff 15 60 70 40 00    	call   DWORD PTR ds:0x407060
  4017a3:	8b c8                	mov    ecx,eax
  4017a5:	8b 45 08             	mov    eax,DWORD PTR [ebp+0x8]
  4017a8:	83 c0 fd             	add    eax,0xfffffffd
  4017ab:	0d 00 00 00 80       	or     eax,0x80000000
  4017b0:	23 c1                	and    eax,ecx
  4017b2:	f7 d8                	neg    eax
  4017b4:	1b c0                	sbb    eax,eax
  4017b6:	40                   	inc    eax
  4017b7:	89 45 08             	mov    DWORD PTR [ebp+0x8],eax
  4017ba:	39 5d 08             	cmp    DWORD PTR [ebp+0x8],ebx
  4017bd:	75 06                	jne    0x4017c5
  4017bf:	56                   	push   esi
  4017c0:	e8 78 3f 00 00       	call   0x40573d
  4017c5:	33 c0                	xor    eax,eax
  4017c7:	83 7d 08 01          	cmp    DWORD PTR [ebp+0x8],0x1
  4017cb:	0f 95 c0             	setne  al
  4017ce:	40                   	inc    eax
  4017cf:	50                   	push   eax
  4017d0:	68 00 00 00 40       	push   0x40000000
  4017d5:	56                   	push   esi
  4017d6:	e8 81 3f 00 00       	call   0x40575c
  4017db:	83 f8 ff             	cmp    eax,0xffffffff
  4017de:	89 45 cc             	mov    DWORD PTR [ebp-0x34],eax
  4017e1:	75 76                	jne    0x401859
  4017e3:	39 5d 08             	cmp    DWORD PTR [ebp+0x8],ebx
  4017e6:	75 53                	jne    0x40183b
  4017e8:	68 00 40 42 00       	push   0x424000
  4017ed:	57                   	push   edi
  4017ee:	e8 92 42 00 00       	call   0x405a85
  4017f3:	56                   	push   esi
  4017f4:	68 00 40 42 00       	push   0x424000
  4017f9:	e8 87 42 00 00       	call   0x405a85
  4017fe:	ff 75 f0             	push   DWORD PTR [ebp-0x10]
  401801:	68 68 9f 40 00       	push   0x409f68
  401806:	e8 9c 42 00 00       	call   0x405aa7
  40180b:	57                   	push   edi
  40180c:	68 00 40 42 00       	push   0x424000
  401811:	e8 6f 42 00 00       	call   0x405a85
  401816:	8b 45 dc             	mov    eax,DWORD PTR [ebp-0x24]
  401819:	c1 f8 03             	sar    eax,0x3
  40181c:	50                   	push   eax
  40181d:	68 68 9f 40 00       	push   0x409f68
  401822:	e8 1f 3b 00 00       	call   0x405346
  401827:	83 e8 04             	sub    eax,0x4
  40182a:	0f 84 53 ff ff ff    	je     0x401783
  401830:	48                   	dec    eax
  401831:	74 1b                	je     0x40184e
  401833:	56                   	push   esi
  401834:	6a fa                	push   0xfffffffa
  401836:	e9 57 fc ff ff       	jmp    0x401492
  40183b:	ff 75 f8             	push   DWORD PTR [ebp-0x8]
  40183e:	6a e2                	push   0xffffffe2
  401840:	e8 de 35 00 00       	call   0x404e23
  401845:	83 7d 08 02          	cmp    DWORD PTR [ebp+0x8],0x2
  401849:	e9 5a fd ff ff       	jmp    0x4015a8
  40184e:	ff 05 28 3f 42 00    	inc    DWORD PTR ds:0x423f28
  401854:	e9 2d 10 00 00       	jmp    0x402886
  401859:	ff 75 f8             	push   DWORD PTR [ebp-0x8]
  40185c:	6a ea                	push   0xffffffea
  40185e:	e8 c0 35 00 00       	call   0x404e23
  401863:	ff 05 54 3f 42 00    	inc    DWORD PTR ds:0x423f54
  401869:	53                   	push   ebx
  40186a:	53                   	push   ebx
  40186b:	ff 75 cc             	push   DWORD PTR [ebp-0x34]
  40186e:	ff 75 e4             	push   DWORD PTR [ebp-0x1c]
  401871:	e8 8b 16 00 00       	call   0x402f01
  401876:	ff 0d 54 3f 42 00    	dec    DWORD PTR ds:0x423f54
  40187c:	83 7d e8 ff          	cmp    DWORD PTR [ebp-0x18],0xffffffff
  401880:	8b f8                	mov    edi,eax
  401882:	75 06                	jne    0x40188a
  401884:	83 7d ec ff          	cmp    DWORD PTR [ebp-0x14],0xffffffff
  401888:	74 12                	je     0x40189c
  40188a:	8d 45 e8             	lea    eax,[ebp-0x18]
  40188d:	50                   	push   eax
  40188e:	8d 45 e8             	lea    eax,[ebp-0x18]
  401891:	53                   	push   ebx
  401892:	50                   	push   eax
  401893:	ff 75 cc             	push   DWORD PTR [ebp-0x34]
  401896:	ff 15 a8 70 40 00    	call   DWORD PTR ds:0x4070a8
  40189c:	ff 75 cc             	push   DWORD PTR [ebp-0x34]
  40189f:	ff 15 ec 70 40 00    	call   DWORD PTR ds:0x4070ec
  4018a5:	3b fb                	cmp    edi,ebx
  4018a7:	0f 8d d0 0f 00 00    	jge    0x40287d
  4018ad:	83 ff fe             	cmp    edi,0xfffffffe
  4018b0:	75 13                	jne    0x4018c5
  4018b2:	6a e9                	push   0xffffffe9
  4018b4:	56                   	push   esi
  4018b5:	e8 ed 41 00 00       	call   0x405aa7
  4018ba:	ff 75 f8             	push   DWORD PTR [ebp-0x8]
  4018bd:	56                   	push   esi
  4018be:	e8 de 41 00 00       	call   0x405aa1
  4018c3:	eb 08                	jmp    0x4018cd
  4018c5:	6a ee                	push   0xffffffee
  4018c7:	56                   	push   esi
  4018c8:	e8 da 41 00 00       	call   0x405aa7
  4018cd:	68 10 00 20 00       	push   0x200010
  4018d2:	56                   	push   esi
  4018d3:	e9 23 09 00 00       	jmp    0x4021fb
  4018d8:	53                   	push   ebx
  4018d9:	eb 34                	jmp    0x40190f
  4018db:	6a 31                	push   0x31
  4018dd:	e8 06 11 00 00       	call   0x4029e8
  4018e2:	ff 75 dc             	push   DWORD PTR [ebp-0x24]
  4018e5:	50                   	push   eax
  4018e6:	e8 5b 3a 00 00       	call   0x405346
  4018eb:	3b c3                	cmp    eax,ebx
  4018ed:	0f 84 5b 0d 00 00    	je     0x40264e
  4018f3:	3b 45 e4             	cmp    eax,DWORD PTR [ebp-0x1c]
  4018f6:	0f 84 4a 01 00 00    	je     0x401a46
  4018fc:	3b 45 ec             	cmp    eax,DWORD PTR [ebp-0x14]
  4018ff:	0f 85 78 0f 00 00    	jne    0x40287d
  401905:	8b 45 f0             	mov    eax,DWORD PTR [ebp-0x10]
  401908:	e9 7b 0f 00 00       	jmp    0x402888
  40190d:	6a f0                	push   0xfffffff0
  40190f:	e8 d4 10 00 00       	call   0x4029e8
  401914:	ff 75 e0             	push   DWORD PTR [ebp-0x20]
  401917:	50                   	push   eax
  401918:	e8 8d 3a 00 00       	call   0x4053aa
  40191d:	e9 5b 0f 00 00       	jmp    0x40287d
  401922:	6a 01                	push   0x1
  401924:	e8 bf 10 00 00       	call   0x4029e8
  401929:	50                   	push   eax
  40192a:	e8 6c 41 00 00       	call   0x405a9b
  40192f:	e9 76 0b 00 00       	jmp    0x4024aa
  401934:	6a 02                	push   0x2
  401936:	e8 90 10 00 00       	call   0x4029cb
  40193b:	6a 03                	push   0x3
  40193d:	89 45 08             	mov    DWORD PTR [ebp+0x8],eax
  401940:	e8 86 10 00 00       	call   0x4029cb
  401945:	6a 01                	push   0x1
  401947:	8b f8                	mov    edi,eax
  401949:	e8 9a 10 00 00       	call   0x4029e8
  40194e:	39 5d e4             	cmp    DWORD PTR [ebp-0x1c],ebx
  401951:	89 45 d4             	mov    DWORD PTR [ebp-0x2c],eax
  401954:	88 1e                	mov    BYTE PTR [esi],bl
  401956:	74 09                	je     0x401961
  401958:	39 5d 08             	cmp    DWORD PTR [ebp+0x8],ebx
  40195b:	0f 84 1c 0f 00 00    	je     0x40287d
  401961:	50                   	push   eax
  401962:	e8 34 41 00 00       	call   0x405a9b
  401967:	3b fb                	cmp    edi,ebx
  401969:	7d 08                	jge    0x401973
  40196b:	03 f8                	add    edi,eax
  40196d:	0f 88 0a 0f 00 00    	js     0x40287d
  401973:	3b f8                	cmp    edi,eax
  401975:	7e 02                	jle    0x401979
  401977:	8b f8                	mov    edi,eax
  401979:	8b 45 d4             	mov    eax,DWORD PTR [ebp-0x2c]
  40197c:	03 c7                	add    eax,edi
  40197e:	50                   	push   eax
  40197f:	56                   	push   esi
  401980:	e8 00 41 00 00       	call   0x405a85
  401985:	8b 7d 08             	mov    edi,DWORD PTR [ebp+0x8]
  401988:	3b fb                	cmp    edi,ebx
  40198a:	0f 84 ed 0e 00 00    	je     0x40287d
  401990:	7d 0f                	jge    0x4019a1
  401992:	56                   	push   esi
  401993:	e8 03 41 00 00       	call   0x405a9b
  401998:	03 f8                	add    edi,eax
  40199a:	79 05                	jns    0x4019a1
  40199c:	89 5d 08             	mov    DWORD PTR [ebp+0x8],ebx
  40199f:	8b fb                	mov    edi,ebx
  4019a1:	81 ff 00 04 00 00    	cmp    edi,0x400
  4019a7:	0f 8d d0 0e 00 00    	jge    0x40287d
  4019ad:	88 1c 37             	mov    BYTE PTR [edi+esi*1],bl
  4019b0:	e9 c8 0e 00 00       	jmp    0x40287d
  4019b5:	6a 20                	push   0x20
  4019b7:	e8 2c 10 00 00       	call   0x4029e8
  4019bc:	6a 31                	push   0x31
  4019be:	8b f0                	mov    esi,eax
  4019c0:	e8 23 10 00 00       	call   0x4029e8
  4019c5:	39 5d ec             	cmp    DWORD PTR [ebp-0x14],ebx
  4019c8:	50                   	push   eax
  4019c9:	56                   	push   esi
  4019ca:	75 12                	jne    0x4019de
  4019cc:	ff 15 f0 70 40 00    	call   DWORD PTR ds:0x4070f0
  4019d2:	85 c0                	test   eax,eax
  4019d4:	75 70                	jne    0x401a46
  4019d6:	8b 45 e4             	mov    eax,DWORD PTR [ebp-0x1c]
  4019d9:	e9 aa 0e 00 00       	jmp    0x402888
  4019de:	ff 15 f4 70 40 00    	call   DWORD PTR ds:0x4070f4
  4019e4:	eb ec                	jmp    0x4019d2
  4019e6:	33 ff                	xor    edi,edi
  4019e8:	47                   	inc    edi
  4019e9:	57                   	push   edi
  4019ea:	e8 f9 0f 00 00       	call   0x4029e8
  4019ef:	68 00 04 00 00       	push   0x400
  4019f4:	56                   	push   esi
  4019f5:	50                   	push   eax
  4019f6:	89 45 08             	mov    DWORD PTR [ebp+0x8],eax
  4019f9:	ff 15 f8 70 40 00    	call   DWORD PTR ds:0x4070f8
  4019ff:	85 c0                	test   eax,eax
  401a01:	74 13                	je     0x401a16
  401a03:	39 5d e4             	cmp    DWORD PTR [ebp-0x1c],ebx
  401a06:	74 13                	je     0x401a1b
  401a08:	56                   	push   esi
  401a09:	ff 75 08             	push   DWORD PTR [ebp+0x8]
  401a0c:	ff 15 f4 70 40 00    	call   DWORD PTR ds:0x4070f4
  401a12:	85 c0                	test   eax,eax
  401a14:	75 05                	jne    0x401a1b
  401a16:	89 7d fc             	mov    DWORD PTR [ebp-0x4],edi
  401a19:	88 1e                	mov    BYTE PTR [esi],bl
  401a1b:	88 9e ff 03 00 00    	mov    BYTE PTR [esi+0x3ff],bl
  401a21:	e9 57 0e 00 00       	jmp    0x40287d
  401a26:	53                   	push   ebx
  401a27:	e8 9f 0f 00 00       	call   0x4029cb
  401a2c:	6a 01                	push   0x1
  401a2e:	8b f0                	mov    esi,eax
  401a30:	e8 96 0f 00 00       	call   0x4029cb
  401a35:	39 5d f0             	cmp    DWORD PTR [ebp-0x10],ebx
  401a38:	75 08                	jne    0x401a42
  401a3a:	3b f0                	cmp    esi,eax
  401a3c:	7c 08                	jl     0x401a46
  401a3e:	7e 96                	jle    0x4019d6
  401a40:	eb 0e                	jmp    0x401a50
  401a42:	3b f0                	cmp    esi,eax
  401a44:	73 08                	jae    0x401a4e
  401a46:	8b 45 e8             	mov    eax,DWORD PTR [ebp-0x18]
  401a49:	e9 3a 0e 00 00       	jmp    0x402888
  401a4e:	76 86                	jbe    0x4019d6
  401a50:	8b 45 ec             	mov    eax,DWORD PTR [ebp-0x14]
  401a53:	e9 30 0e 00 00       	jmp    0x402888
  401a58:	6a 01                	push   0x1
  401a5a:	e8 6c 0f 00 00       	call   0x4029cb
  401a5f:	6a 02                	push   0x2
  401a61:	8b f8                	mov    edi,eax
  401a63:	e8 63 0f 00 00       	call   0x4029cb
  401a68:	8b c8                	mov    ecx,eax
  401a6a:	8b 45 e8             	mov    eax,DWORD PTR [ebp-0x18]
  401a6d:	83 f8 0c             	cmp    eax,0xc
  401a70:	77 6d                	ja     0x401adf
  401a72:	ff 24 85 97 29 40 00 	jmp    DWORD PTR [eax*4+0x402997]
  401a79:	03 f9                	add    edi,ecx
  401a7b:	eb 62                	jmp    0x401adf
  401a7d:	2b f9                	sub    edi,ecx
  401a7f:	eb 5e                	jmp    0x401adf
  401a81:	0f af cf             	imul   ecx,edi
  401a84:	8b f9                	mov    edi,ecx
  401a86:	eb 57                	jmp    0x401adf
  401a88:	3b cb                	cmp    ecx,ebx
  401a8a:	74 42                	je     0x401ace
  401a8c:	8b c7                	mov    eax,edi
  401a8e:	99                   	cdq    
  401a8f:	f7 f9                	idiv   ecx
  401a91:	8b f8                	mov    edi,eax
  401a93:	eb 4a                	jmp    0x401adf
  401a95:	0b f9                	or     edi,ecx
  401a97:	eb 46                	jmp    0x401adf
  401a99:	23 f9                	and    edi,ecx
  401a9b:	eb 42                	jmp    0x401adf
  401a9d:	33 f9                	xor    edi,ecx
  401a9f:	eb 3e                	jmp    0x401adf
  401aa1:	33 c0                	xor    eax,eax
  401aa3:	3b fb                	cmp    edi,ebx
  401aa5:	0f 94 c0             	sete   al
  401aa8:	eb e7                	jmp    0x401a91
  401aaa:	3b fb                	cmp    edi,ebx
  401aac:	75 0e                	jne    0x401abc
  401aae:	eb 08                	jmp    0x401ab8
  401ab0:	33 ff                	xor    edi,edi
  401ab2:	eb 2b                	jmp    0x401adf
  401ab4:	3b fb                	cmp    edi,ebx
  401ab6:	74 f8                	je     0x401ab0
  401ab8:	3b cb                	cmp    ecx,ebx
  401aba:	74 f4                	je     0x401ab0
  401abc:	33 ff                	xor    edi,edi
  401abe:	47                   	inc    edi
  401abf:	eb 1e                	jmp    0x401adf
  401ac1:	3b cb                	cmp    ecx,ebx
  401ac3:	74 09                	je     0x401ace
  401ac5:	8b c7                	mov    eax,edi
  401ac7:	99                   	cdq    
  401ac8:	f7 f9                	idiv   ecx
  401aca:	8b fa                	mov    edi,edx
  401acc:	eb 11                	jmp    0x401adf
  401ace:	33 ff                	xor    edi,edi
  401ad0:	c7 45 fc 01 00 00 00 	mov    DWORD PTR [ebp-0x4],0x1
  401ad7:	eb 06                	jmp    0x401adf
  401ad9:	d3 e7                	shl    edi,cl
  401adb:	eb 02                	jmp    0x401adf
  401add:	d3 ff                	sar    edi,cl
  401adf:	57                   	push   edi
  401ae0:	e9 7c fa ff ff       	jmp    0x401561
  401ae5:	6a 01                	push   0x1
  401ae7:	e8 fc 0e 00 00       	call   0x4029e8
  401aec:	6a 02                	push   0x2
  401aee:	8b f8                	mov    edi,eax
  401af0:	e8 d6 0e 00 00       	call   0x4029cb
  401af5:	50                   	push   eax
  401af6:	57                   	push   edi
  401af7:	56                   	push   esi
  401af8:	ff 15 00 72 40 00    	call   DWORD PTR ds:0x407200
  401afe:	83 c4 0c             	add    esp,0xc
  401b01:	e9 77 0d 00 00       	jmp    0x40287d
  401b06:	8b 45 e4             	mov    eax,DWORD PTR [ebp-0x1c]
  401b09:	8b 3d 68 af 40 00    	mov    edi,DWORD PTR ds:0x40af68
  401b0f:	3b c3                	cmp    eax,ebx
  401b11:	74 44                	je     0x401b57
  401b13:	48                   	dec    eax
  401b14:	3b fb                	cmp    edi,ebx
  401b16:	0f 84 d1 06 00 00    	je     0x4021ed
  401b1c:	8b 3f                	mov    edi,DWORD PTR [edi]
  401b1e:	3b c3                	cmp    eax,ebx
  401b20:	75 f1                	jne    0x401b13
  401b22:	3b fb                	cmp    edi,ebx
  401b24:	0f 84 c3 06 00 00    	je     0x4021ed
  401b2a:	83 c7 04             	add    edi,0x4
  401b2d:	be 68 9b 40 00       	mov    esi,0x409b68
  401b32:	57                   	push   edi
  401b33:	56                   	push   esi
  401b34:	e8 4c 3f 00 00       	call   0x405a85
  401b39:	a1 68 af 40 00       	mov    eax,ds:0x40af68
  401b3e:	83 c0 04             	add    eax,0x4
  401b41:	50                   	push   eax
  401b42:	57                   	push   edi
  401b43:	e8 3d 3f 00 00       	call   0x405a85
  401b48:	a1 68 af 40 00       	mov    eax,ds:0x40af68
  401b4d:	56                   	push   esi
  401b4e:	83 c0 04             	add    eax,0x4
  401b51:	50                   	push   eax
  401b52:	e9 4c 0c 00 00       	jmp    0x4027a3
  401b57:	3b d3                	cmp    edx,ebx
  401b59:	74 25                	je     0x401b80
  401b5b:	3b fb                	cmp    edi,ebx
  401b5d:	0f 84 eb 0a 00 00    	je     0x40264e
  401b63:	8d 47 04             	lea    eax,[edi+0x4]
  401b66:	50                   	push   eax
  401b67:	56                   	push   esi
  401b68:	e8 18 3f 00 00       	call   0x405a85
  401b6d:	8b 07                	mov    eax,DWORD PTR [edi]
  401b6f:	57                   	push   edi
  401b70:	a3 68 af 40 00       	mov    ds:0x40af68,eax
  401b75:	ff 15 fc 70 40 00    	call   DWORD PTR ds:0x4070fc
  401b7b:	e9 fd 0c 00 00       	jmp    0x40287d
  401b80:	68 04 04 00 00       	push   0x404
  401b85:	6a 40                	push   0x40
  401b87:	ff 15 00 71 40 00    	call   DWORD PTR ds:0x407100
  401b8d:	ff 75 dc             	push   DWORD PTR [ebp-0x24]
  401b90:	8b f0                	mov    esi,eax
  401b92:	8d 46 04             	lea    eax,[esi+0x4]
  401b95:	50                   	push   eax
  401b96:	e8 0c 3f 00 00       	call   0x405aa7
  401b9b:	a1 68 af 40 00       	mov    eax,ds:0x40af68
  401ba0:	89 06                	mov    DWORD PTR [esi],eax
  401ba2:	89 35 68 af 40 00    	mov    DWORD PTR ds:0x40af68,esi
  401ba8:	e9 d0 0c 00 00       	jmp    0x40287d
  401bad:	6a 03                	push   0x3
  401baf:	e8 17 0e 00 00       	call   0x4029cb
  401bb4:	6a 04                	push   0x4
  401bb6:	89 45 cc             	mov    DWORD PTR [ebp-0x34],eax
  401bb9:	e8 0d 0e 00 00       	call   0x4029cb
  401bbe:	f6 45 f0 01          	test   BYTE PTR [ebp-0x10],0x1
  401bc2:	89 45 08             	mov    DWORD PTR [ebp+0x8],eax
  401bc5:	74 0a                	je     0x401bd1
  401bc7:	6a 33                	push   0x33
  401bc9:	e8 1a 0e 00 00       	call   0x4029e8
  401bce:	89 45 cc             	mov    DWORD PTR [ebp-0x34],eax
  401bd1:	f6 45 f0 02          	test   BYTE PTR [ebp-0x10],0x2
  401bd5:	74 0a                	je     0x401be1
  401bd7:	6a 44                	push   0x44
  401bd9:	e8 0a 0e 00 00       	call   0x4029e8
  401bde:	89 45 08             	mov    DWORD PTR [ebp+0x8],eax
  401be1:	83 7d d8 21          	cmp    DWORD PTR [ebp-0x28],0x21
  401be5:	6a 01                	push   0x1
  401be7:	75 44                	jne    0x401c2d
  401be9:	e8 dd 0d 00 00       	call   0x4029cb
  401bee:	6a 02                	push   0x2
  401bf0:	8b f8                	mov    edi,eax
  401bf2:	e8 d4 0d 00 00       	call   0x4029cb
  401bf7:	8b 4d f0             	mov    ecx,DWORD PTR [ebp-0x10]
  401bfa:	c1 f9 02             	sar    ecx,0x2
  401bfd:	74 1e                	je     0x401c1d
  401bff:	8d 55 f8             	lea    edx,[ebp-0x8]
  401c02:	52                   	push   edx
  401c03:	51                   	push   ecx
  401c04:	53                   	push   ebx
  401c05:	ff 75 08             	push   DWORD PTR [ebp+0x8]
  401c08:	ff 75 cc             	push   DWORD PTR [ebp-0x34]
  401c0b:	50                   	push   eax
  401c0c:	57                   	push   edi
  401c0d:	ff 15 04 72 40 00    	call   DWORD PTR ds:0x407204
  401c13:	f7 d8                	neg    eax
  401c15:	1b c0                	sbb    eax,eax
  401c17:	40                   	inc    eax
  401c18:	89 45 fc             	mov    DWORD PTR [ebp-0x4],eax
  401c1b:	eb 3f                	jmp    0x401c5c
  401c1d:	ff 75 08             	push   DWORD PTR [ebp+0x8]
  401c20:	ff 75 cc             	push   DWORD PTR [ebp-0x34]
  401c23:	50                   	push   eax
  401c24:	57                   	push   edi
  401c25:	ff 15 44 72 40 00    	call   DWORD PTR ds:0x407244
  401c2b:	eb 2c                	jmp    0x401c59
  401c2d:	e8 b6 0d 00 00       	call   0x4029e8
  401c32:	6a 12                	push   0x12
  401c34:	8b f8                	mov    edi,eax
  401c36:	e8 ad 0d 00 00       	call   0x4029e8
  401c3b:	8a 08                	mov    cl,BYTE PTR [eax]
  401c3d:	f6 d9                	neg    cl
  401c3f:	1b c9                	sbb    ecx,ecx
  401c41:	23 c8                	and    ecx,eax
  401c43:	8a 07                	mov    al,BYTE PTR [edi]
  401c45:	f6 d8                	neg    al
  401c47:	1b c0                	sbb    eax,eax
  401c49:	51                   	push   ecx
  401c4a:	23 c7                	and    eax,edi
  401c4c:	50                   	push   eax
  401c4d:	ff 75 08             	push   DWORD PTR [ebp+0x8]
  401c50:	ff 75 cc             	push   DWORD PTR [ebp-0x34]
  401c53:	ff 15 08 72 40 00    	call   DWORD PTR ds:0x407208
  401c59:	89 45 f8             	mov    DWORD PTR [ebp-0x8],eax
  401c5c:	39 5d dc             	cmp    DWORD PTR [ebp-0x24],ebx
  401c5f:	0f 8c 18 0c 00 00    	jl     0x40287d
  401c65:	ff 75 f8             	push   DWORD PTR [ebp-0x8]
  401c68:	e9 f4 f8 ff ff       	jmp    0x401561
  401c6d:	53                   	push   ebx
  401c6e:	e8 58 0d 00 00       	call   0x4029cb
  401c73:	50                   	push   eax
  401c74:	ff 15 28 72 40 00    	call   DWORD PTR ds:0x407228
  401c7a:	85 c0                	test   eax,eax
  401c7c:	0f 84 54 fd ff ff    	je     0x4019d6
  401c82:	8b 45 e0             	mov    eax,DWORD PTR [ebp-0x20]
  401c85:	e9 fe 0b 00 00       	jmp    0x402888
  401c8a:	6a 02                	push   0x2
  401c8c:	e8 3a 0d 00 00       	call   0x4029cb
  401c91:	50                   	push   eax
  401c92:	6a 01                	push   0x1
  401c94:	e8 32 0d 00 00       	call   0x4029cb
  401c99:	50                   	push   eax
  401c9a:	ff 15 2c 72 40 00    	call   DWORD PTR ds:0x40722c
  401ca0:	e9 05 08 00 00       	jmp    0x4024aa
  401ca5:	a1 e8 3e 42 00       	mov    eax,ds:0x423ee8
  401caa:	03 c2                	add    eax,edx
  401cac:	50                   	push   eax
  401cad:	6a eb                	push   0xffffffeb
  401caf:	53                   	push   ebx
  401cb0:	e8 16 0d 00 00       	call   0x4029cb
  401cb5:	50                   	push   eax
  401cb6:	ff 15 30 72 40 00    	call   DWORD PTR ds:0x407230
  401cbc:	e9 bc 0b 00 00       	jmp    0x40287d
  401cc1:	52                   	push   edx
  401cc2:	ff 75 cc             	push   DWORD PTR [ebp-0x34]
  401cc5:	ff 15 2c 72 40 00    	call   DWORD PTR ds:0x40722c
  401ccb:	8b f0                	mov    esi,eax
  401ccd:	8d 45 c0             	lea    eax,[ebp-0x40]
  401cd0:	50                   	push   eax
  401cd1:	56                   	push   esi
  401cd2:	ff 15 50 72 40 00    	call   DWORD PTR ds:0x407250
  401cd8:	8b 45 cc             	mov    eax,DWORD PTR [ebp-0x34]
  401cdb:	6a 10                	push   0x10
  401cdd:	0f af 45 e4          	imul   eax,DWORD PTR [ebp-0x1c]
  401ce1:	50                   	push   eax
  401ce2:	8b 45 c8             	mov    eax,DWORD PTR [ebp-0x38]
  401ce5:	0f af 45 e4          	imul   eax,DWORD PTR [ebp-0x1c]
  401ce9:	50                   	push   eax
  401cea:	53                   	push   ebx
  401ceb:	53                   	push   ebx
  401cec:	e8 f7 0c 00 00       	call   0x4029e8
  401cf1:	50                   	push   eax
  401cf2:	53                   	push   ebx
  401cf3:	ff 15 34 72 40 00    	call   DWORD PTR ds:0x407234
  401cf9:	50                   	push   eax
  401cfa:	53                   	push   ebx
  401cfb:	68 72 01 00 00       	push   0x172
  401d00:	56                   	push   esi
  401d01:	ff 15 44 72 40 00    	call   DWORD PTR ds:0x407244
  401d07:	3b c3                	cmp    eax,ebx
  401d09:	0f 84 6e 0b 00 00    	je     0x40287d
  401d0f:	50                   	push   eax
  401d10:	ff 15 44 70 40 00    	call   DWORD PTR ds:0x407044
  401d16:	e9 62 0b 00 00       	jmp    0x40287d
  401d1b:	6a 48                	push   0x48
  401d1d:	6a 5a                	push   0x5a
  401d1f:	ff 75 cc             	push   DWORD PTR [ebp-0x34]
  401d22:	ff 15 38 72 40 00    	call   DWORD PTR ds:0x407238
  401d28:	50                   	push   eax
  401d29:	ff 15 40 70 40 00    	call   DWORD PTR ds:0x407040
  401d2f:	50                   	push   eax
  401d30:	6a 02                	push   0x2
  401d32:	e8 94 0c 00 00       	call   0x4029cb
  401d37:	50                   	push   eax
  401d38:	ff 15 30 71 40 00    	call   DWORD PTR ds:0x407130
  401d3e:	f7 d8                	neg    eax
  401d40:	6a 03                	push   0x3
  401d42:	a3 6c af 40 00       	mov    ds:0x40af6c,eax
  401d47:	e8 7f 0c 00 00       	call   0x4029cb
  401d4c:	a3 7c af 40 00       	mov    ds:0x40af7c,eax
  401d51:	8a 45 ec             	mov    al,BYTE PTR [ebp-0x14]
  401d54:	ff 75 e0             	push   DWORD PTR [ebp-0x20]
  401d57:	8a c8                	mov    cl,al
  401d59:	80 e1 01             	and    cl,0x1
  401d5c:	c6 05 83 af 40 00 01 	mov    BYTE PTR ds:0x40af83,0x1
  401d63:	88 0d 80 af 40 00    	mov    BYTE PTR ds:0x40af80,cl
  401d69:	8a c8                	mov    cl,al
  401d6b:	80 e1 02             	and    cl,0x2
  401d6e:	24 04                	and    al,0x4
  401d70:	68 88 af 40 00       	push   0x40af88
  401d75:	88 0d 81 af 40 00    	mov    BYTE PTR ds:0x40af81,cl
  401d7b:	a2 82 af 40 00       	mov    ds:0x40af82,al
  401d80:	e8 22 3d 00 00       	call   0x405aa7
  401d85:	68 6c af 40 00       	push   0x40af6c
  401d8a:	ff 15 4c 70 40 00    	call   DWORD PTR ds:0x40704c
  401d90:	e9 15 07 00 00       	jmp    0x4024aa
  401d95:	53                   	push   ebx
  401d96:	e8 30 0c 00 00       	call   0x4029cb
  401d9b:	6a 01                	push   0x1
  401d9d:	8b f0                	mov    esi,eax
  401d9f:	e8 27 0c 00 00       	call   0x4029cb
  401da4:	39 5d e8             	cmp    DWORD PTR [ebp-0x18],ebx
  401da7:	50                   	push   eax
  401da8:	56                   	push   esi
  401da9:	75 0b                	jne    0x401db6
  401dab:	ff 15 60 72 40 00    	call   DWORD PTR ds:0x407260
  401db1:	e9 c7 0a 00 00       	jmp    0x40287d
  401db6:	ff 15 3c 72 40 00    	call   DWORD PTR ds:0x40723c
  401dbc:	e9 bc 0a 00 00       	jmp    0x40287d
  401dc1:	53                   	push   ebx
  401dc2:	e8 21 0c 00 00       	call   0x4029e8
  401dc7:	6a 31                	push   0x31
  401dc9:	8b f0                	mov    esi,eax
  401dcb:	e8 18 0c 00 00       	call   0x4029e8
  401dd0:	6a 22                	push   0x22
  401dd2:	8b d8                	mov    ebx,eax
  401dd4:	e8 0f 0c 00 00       	call   0x4029e8
  401dd9:	6a 15                	push   0x15
  401ddb:	8b f8                	mov    edi,eax
  401ddd:	e8 06 0c 00 00       	call   0x4029e8
  401de2:	6a ec                	push   0xffffffec
  401de4:	e8 3a f6 ff ff       	call   0x401423
  401de9:	8a 07                	mov    al,BYTE PTR [edi]
  401deb:	ff 75 e8             	push   DWORD PTR [ebp-0x18]
  401dee:	f6 d8                	neg    al
  401df0:	1b c0                	sbb    eax,eax
  401df2:	68 00 98 42 00       	push   0x429800
  401df7:	23 c7                	and    eax,edi
  401df9:	50                   	push   eax
  401dfa:	8a 06                	mov    al,BYTE PTR [esi]
  401dfc:	f6 d8                	neg    al
  401dfe:	1b c0                	sbb    eax,eax
  401e00:	53                   	push   ebx
  401e01:	23 c6                	and    eax,esi
  401e03:	50                   	push   eax
  401e04:	ff 75 cc             	push   DWORD PTR [ebp-0x34]
  401e07:	ff 15 5c 71 40 00    	call   DWORD PTR ds:0x40715c
  401e0d:	83 f8 21             	cmp    eax,0x21
  401e10:	0f 8d 67 0a 00 00    	jge    0x40287d
  401e16:	e9 33 08 00 00       	jmp    0x40264e
  401e1b:	53                   	push   ebx
  401e1c:	e8 c7 0b 00 00       	call   0x4029e8
  401e21:	8b f0                	mov    esi,eax
  401e23:	56                   	push   esi
  401e24:	6a eb                	push   0xffffffeb
  401e26:	e8 f8 2f 00 00       	call   0x404e23
  401e2b:	56                   	push   esi
  401e2c:	e8 b4 34 00 00       	call   0x4052e5
  401e31:	3b c3                	cmp    eax,ebx
  401e33:	89 45 08             	mov    DWORD PTR [ebp+0x8],eax
  401e36:	0f 84 12 08 00 00    	je     0x40264e
  401e3c:	39 5d e4             	cmp    DWORD PTR [ebp-0x1c],ebx
  401e3f:	74 46                	je     0x401e87
  401e41:	8b 35 04 71 40 00    	mov    esi,DWORD PTR ds:0x407104
  401e47:	eb 07                	jmp    0x401e50
  401e49:	6a 0f                	push   0xf
  401e4b:	e8 8c 3f 00 00       	call   0x405ddc
  401e50:	6a 64                	push   0x64
  401e52:	ff 75 08             	push   DWORD PTR [ebp+0x8]
  401e55:	ff d6                	call   esi
  401e57:	3d 02 01 00 00       	cmp    eax,0x102
  401e5c:	74 eb                	je     0x401e49
  401e5e:	8d 45 f8             	lea    eax,[ebp-0x8]
  401e61:	50                   	push   eax
  401e62:	ff 75 08             	push   DWORD PTR [ebp+0x8]
  401e65:	ff 15 08 71 40 00    	call   DWORD PTR ds:0x407108
  401e6b:	39 5d e0             	cmp    DWORD PTR [ebp-0x20],ebx
  401e6e:	7c 0b                	jl     0x401e7b
  401e70:	ff 75 f8             	push   DWORD PTR [ebp-0x8]
  401e73:	57                   	push   edi
  401e74:	e8 6a 3b 00 00       	call   0x4059e3
  401e79:	eb 0c                	jmp    0x401e87
  401e7b:	39 5d f8             	cmp    DWORD PTR [ebp-0x8],ebx
  401e7e:	74 07                	je     0x401e87
  401e80:	c7 45 fc 01 00 00 00 	mov    DWORD PTR [ebp-0x4],0x1
  401e87:	ff 75 08             	push   DWORD PTR [ebp+0x8]
  401e8a:	ff 15 ec 70 40 00    	call   DWORD PTR ds:0x4070ec
  401e90:	e9 e8 09 00 00       	jmp    0x40287d
  401e95:	6a 02                	push   0x2
  401e97:	e8 4c 0b 00 00       	call   0x4029e8
  401e9c:	50                   	push   eax
  401e9d:	e8 da 3e 00 00       	call   0x405d7c
  401ea2:	3b c3                	cmp    eax,ebx
  401ea4:	89 45 08             	mov    DWORD PTR [ebp+0x8],eax
  401ea7:	74 13                	je     0x401ebc
  401ea9:	8b d8                	mov    ebx,eax
  401eab:	ff 73 14             	push   DWORD PTR [ebx+0x14]
  401eae:	57                   	push   edi
  401eaf:	e8 2f 3b 00 00       	call   0x4059e3
  401eb4:	ff 73 18             	push   DWORD PTR [ebx+0x18]
  401eb7:	e9 a5 f6 ff ff       	jmp    0x401561
  401ebc:	88 1e                	mov    BYTE PTR [esi],bl
  401ebe:	88 1f                	mov    BYTE PTR [edi],bl
  401ec0:	e9 89 07 00 00       	jmp    0x40264e
  401ec5:	6a ee                	push   0xffffffee
  401ec7:	e8 1c 0b 00 00       	call   0x4029e8
  401ecc:	8d 4d d0             	lea    ecx,[ebp-0x30]
  401ecf:	89 45 d4             	mov    DWORD PTR [ebp-0x2c],eax
  401ed2:	51                   	push   ecx
  401ed3:	50                   	push   eax
  401ed4:	e8 97 4a 00 00       	call   0x406970
  401ed9:	88 1e                	mov    BYTE PTR [esi],bl
  401edb:	3b c3                	cmp    eax,ebx
  401edd:	89 45 f8             	mov    DWORD PTR [ebp-0x8],eax
  401ee0:	88 1f                	mov    BYTE PTR [edi],bl
  401ee2:	c7 45 fc 01 00 00 00 	mov    DWORD PTR [ebp-0x4],0x1
  401ee9:	0f 84 8e 09 00 00    	je     0x40287d
  401eef:	50                   	push   eax
  401ef0:	6a 40                	push   0x40
  401ef2:	ff 15 00 71 40 00    	call   DWORD PTR ds:0x407100
  401ef8:	3b c3                	cmp    eax,ebx
  401efa:	89 45 08             	mov    DWORD PTR [ebp+0x8],eax
  401efd:	0f 84 7a 09 00 00    	je     0x40287d
  401f03:	50                   	push   eax
  401f04:	ff 75 f8             	push   DWORD PTR [ebp-0x8]
  401f07:	53                   	push   ebx
  401f08:	ff 75 d4             	push   DWORD PTR [ebp-0x2c]
  401f0b:	e8 5a 4a 00 00       	call   0x40696a
  401f10:	85 c0                	test   eax,eax
  401f12:	74 34                	je     0x401f48
  401f14:	8d 45 bc             	lea    eax,[ebp-0x44]
  401f17:	50                   	push   eax
  401f18:	8d 45 cc             	lea    eax,[ebp-0x34]
  401f1b:	50                   	push   eax
  401f1c:	68 0c 90 40 00       	push   0x40900c
  401f21:	ff 75 08             	push   DWORD PTR [ebp+0x8]
  401f24:	e8 3b 4a 00 00       	call   0x406964
  401f29:	85 c0                	test   eax,eax
  401f2b:	74 1b                	je     0x401f48
  401f2d:	8b 45 cc             	mov    eax,DWORD PTR [ebp-0x34]
  401f30:	ff 70 08             	push   DWORD PTR [eax+0x8]
  401f33:	56                   	push   esi
  401f34:	e8 aa 3a 00 00       	call   0x4059e3
  401f39:	8b 45 cc             	mov    eax,DWORD PTR [ebp-0x34]
  401f3c:	ff 70 0c             	push   DWORD PTR [eax+0xc]
  401f3f:	57                   	push   edi
  401f40:	e8 9e 3a 00 00       	call   0x4059e3
  401f45:	89 5d fc             	mov    DWORD PTR [ebp-0x4],ebx
  401f48:	ff 75 08             	push   DWORD PTR [ebp+0x8]
  401f4b:	e9 25 fc ff ff       	jmp    0x401b75
  401f50:	39 1d 58 3f 42 00    	cmp    DWORD PTR ds:0x423f58,ebx
  401f56:	c7 45 fc 01 00 00 00 	mov    DWORD PTR [ebp-0x4],0x1
  401f5d:	0f 8c a8 00 00 00    	jl     0x40200b
  401f63:	6a f0                	push   0xfffffff0
  401f65:	e8 7e 0a 00 00       	call   0x4029e8
  401f6a:	6a 01                	push   0x1
  401f6c:	8b f0                	mov    esi,eax
  401f6e:	e8 75 0a 00 00       	call   0x4029e8
  401f73:	39 5d ec             	cmp    DWORD PTR [ebp-0x14],ebx
  401f76:	89 45 08             	mov    DWORD PTR [ebp+0x8],eax
  401f79:	74 0d                	je     0x401f88
  401f7b:	56                   	push   esi
  401f7c:	ff 15 0c 71 40 00    	call   DWORD PTR ds:0x40710c
  401f82:	8b f8                	mov    edi,eax
  401f84:	3b fb                	cmp    edi,ebx
  401f86:	75 10                	jne    0x401f98
  401f88:	6a 08                	push   0x8
  401f8a:	53                   	push   ebx
  401f8b:	56                   	push   esi
  401f8c:	ff 15 10 71 40 00    	call   DWORD PTR ds:0x407110
  401f92:	8b f8                	mov    edi,eax
  401f94:	3b fb                	cmp    edi,ebx
  401f96:	74 6c                	je     0x402004
  401f98:	ff 75 08             	push   DWORD PTR [ebp+0x8]
  401f9b:	57                   	push   edi
  401f9c:	ff 15 14 71 40 00    	call   DWORD PTR ds:0x407114
  401fa2:	8b f0                	mov    esi,eax
  401fa4:	3b f3                	cmp    esi,ebx
  401fa6:	74 3d                	je     0x401fe5
  401fa8:	39 5d e4             	cmp    DWORD PTR [ebp-0x1c],ebx
  401fab:	89 5d fc             	mov    DWORD PTR [ebp-0x4],ebx
  401fae:	74 17                	je     0x401fc7
  401fb0:	ff 75 e4             	push   DWORD PTR [ebp-0x1c]
  401fb3:	e8 6b f4 ff ff       	call   0x401423
  401fb8:	ff d6                	call   esi
  401fba:	85 c0                	test   eax,eax
  401fbc:	74 31                	je     0x401fef
  401fbe:	c7 45 fc 01 00 00 00 	mov    DWORD PTR [ebp-0x4],0x1
  401fc5:	eb 28                	jmp    0x401fef
  401fc7:	68 00 90 40 00       	push   0x409000
  401fcc:	68 68 af 40 00       	push   0x40af68
  401fd1:	68 00 40 42 00       	push   0x424000
  401fd6:	68 00 04 00 00       	push   0x400
  401fdb:	ff 75 cc             	push   DWORD PTR [ebp-0x34]
  401fde:	ff d6                	call   esi
  401fe0:	83 c4 14             	add    esp,0x14
  401fe3:	eb 0a                	jmp    0x401fef
  401fe5:	ff 75 08             	push   DWORD PTR [ebp+0x8]
  401fe8:	6a f7                	push   0xfffffff7
  401fea:	e8 34 2e 00 00       	call   0x404e23
  401fef:	39 5d e8             	cmp    DWORD PTR [ebp-0x18],ebx
  401ff2:	0f 85 85 08 00 00    	jne    0x40287d
  401ff8:	57                   	push   edi
  401ff9:	ff 15 18 71 40 00    	call   DWORD PTR ds:0x407118
  401fff:	e9 79 08 00 00       	jmp    0x40287d
  402004:	6a f6                	push   0xfffffff6
  402006:	e9 4b 01 00 00       	jmp    0x402156
  40200b:	6a e7                	push   0xffffffe7
  40200d:	e9 44 01 00 00       	jmp    0x402156
  402012:	6a f0                	push   0xfffffff0
  402014:	e8 cf 09 00 00       	call   0x4029e8
  402019:	6a df                	push   0xffffffdf
  40201b:	89 45 d0             	mov    DWORD PTR [ebp-0x30],eax
  40201e:	e8 c5 09 00 00       	call   0x4029e8
  402023:	6a 02                	push   0x2
  402025:	8b f0                	mov    esi,eax
  402027:	e8 bc 09 00 00       	call   0x4029e8
  40202c:	6a cd                	push   0xffffffcd
  40202e:	89 45 d4             	mov    DWORD PTR [ebp-0x2c],eax
  402031:	e8 b2 09 00 00       	call   0x4029e8
  402036:	6a 45                	push   0x45
  402038:	89 45 f8             	mov    DWORD PTR [ebp-0x8],eax
  40203b:	e8 a8 09 00 00       	call   0x4029e8
  402040:	56                   	push   esi
  402041:	89 45 bc             	mov    DWORD PTR [ebp-0x44],eax
  402044:	e8 9c 35 00 00       	call   0x4055e5
  402049:	85 c0                	test   eax,eax
  40204b:	75 07                	jne    0x402054
  40204d:	6a 21                	push   0x21
  40204f:	e8 94 09 00 00       	call   0x4029e8
  402054:	8d 45 08             	lea    eax,[ebp+0x8]
  402057:	50                   	push   eax
  402058:	68 74 73 40 00       	push   0x407374
  40205d:	6a 01                	push   0x1
  40205f:	53                   	push   ebx
  402060:	68 84 73 40 00       	push   0x407384
  402065:	ff 15 84 72 40 00    	call   DWORD PTR ds:0x407284
  40206b:	3b c3                	cmp    eax,ebx
  40206d:	0f 8c da 00 00 00    	jl     0x40214d
  402073:	8b 45 08             	mov    eax,DWORD PTR [ebp+0x8]
  402076:	8d 55 cc             	lea    edx,[ebp-0x34]
  402079:	52                   	push   edx
  40207a:	68 94 73 40 00       	push   0x407394
  40207f:	8b 08                	mov    ecx,DWORD PTR [eax]
  402081:	50                   	push   eax
  402082:	ff 11                	call   DWORD PTR [ecx]
  402084:	8b f8                	mov    edi,eax
  402086:	3b fb                	cmp    edi,ebx
  402088:	0f 8c b2 00 00 00    	jl     0x402140
  40208e:	8b 45 08             	mov    eax,DWORD PTR [ebp+0x8]
  402091:	56                   	push   esi
  402092:	50                   	push   eax
  402093:	8b 08                	mov    ecx,DWORD PTR [eax]
  402095:	ff 51 50             	call   DWORD PTR [ecx+0x50]
  402098:	8b f8                	mov    edi,eax
  40209a:	8b 45 08             	mov    eax,DWORD PTR [ebp+0x8]
  40209d:	68 00 98 42 00       	push   0x429800
  4020a2:	50                   	push   eax
  4020a3:	8b 08                	mov    ecx,DWORD PTR [eax]
  4020a5:	ff 51 24             	call   DWORD PTR [ecx+0x24]
  4020a8:	8b 4d ec             	mov    ecx,DWORD PTR [ebp-0x14]
  4020ab:	be ff 00 00 00       	mov    esi,0xff
  4020b0:	8b c1                	mov    eax,ecx
  4020b2:	c1 f8 08             	sar    eax,0x8
  4020b5:	23 c6                	and    eax,esi
  4020b7:	74 0d                	je     0x4020c6
  4020b9:	8b 4d 08             	mov    ecx,DWORD PTR [ebp+0x8]
  4020bc:	50                   	push   eax
  4020bd:	51                   	push   ecx
  4020be:	8b 11                	mov    edx,DWORD PTR [ecx]
  4020c0:	ff 52 3c             	call   DWORD PTR [edx+0x3c]
  4020c3:	8b 4d ec             	mov    ecx,DWORD PTR [ebp-0x14]
  4020c6:	8b 45 08             	mov    eax,DWORD PTR [ebp+0x8]
  4020c9:	c1 f9 10             	sar    ecx,0x10
  4020cc:	8b 10                	mov    edx,DWORD PTR [eax]
  4020ce:	51                   	push   ecx
  4020cf:	50                   	push   eax
  4020d0:	ff 52 34             	call   DWORD PTR [edx+0x34]
  4020d3:	8b 45 f8             	mov    eax,DWORD PTR [ebp-0x8]
  4020d6:	38 18                	cmp    BYTE PTR [eax],bl
  4020d8:	74 12                	je     0x4020ec
  4020da:	8b 55 ec             	mov    edx,DWORD PTR [ebp-0x14]
  4020dd:	8b 45 08             	mov    eax,DWORD PTR [ebp+0x8]
  4020e0:	23 d6                	and    edx,esi
  4020e2:	8b 08                	mov    ecx,DWORD PTR [eax]
  4020e4:	52                   	push   edx
  4020e5:	ff 75 f8             	push   DWORD PTR [ebp-0x8]
  4020e8:	50                   	push   eax
  4020e9:	ff 51 44             	call   DWORD PTR [ecx+0x44]
  4020ec:	8b 45 08             	mov    eax,DWORD PTR [ebp+0x8]
  4020ef:	ff 75 d4             	push   DWORD PTR [ebp-0x2c]
  4020f2:	8b 08                	mov    ecx,DWORD PTR [eax]
  4020f4:	50                   	push   eax
  4020f5:	ff 51 2c             	call   DWORD PTR [ecx+0x2c]
  4020f8:	8b 45 08             	mov    eax,DWORD PTR [ebp+0x8]
  4020fb:	ff 75 bc             	push   DWORD PTR [ebp-0x44]
  4020fe:	8b 08                	mov    ecx,DWORD PTR [eax]
  402100:	50                   	push   eax
  402101:	ff 51 1c             	call   DWORD PTR [ecx+0x1c]
  402104:	3b fb                	cmp    edi,ebx
  402106:	7c 2f                	jl     0x402137
  402108:	be 60 93 40 00       	mov    esi,0x409360
  40210d:	68 00 04 00 00       	push   0x400
  402112:	56                   	push   esi
  402113:	6a ff                	push   0xffffffff
  402115:	ff 75 d0             	push   DWORD PTR [ebp-0x30]
  402118:	bf 05 40 00 80       	mov    edi,0x80004005
  40211d:	53                   	push   ebx
  40211e:	53                   	push   ebx
  40211f:	ff 15 1c 71 40 00    	call   DWORD PTR ds:0x40711c
  402125:	85 c0                	test   eax,eax
  402127:	74 0e                	je     0x402137
  402129:	8b 45 cc             	mov    eax,DWORD PTR [ebp-0x34]
  40212c:	6a 01                	push   0x1
  40212e:	56                   	push   esi
  40212f:	50                   	push   eax
  402130:	8b 08                	mov    ecx,DWORD PTR [eax]
  402132:	ff 51 18             	call   DWORD PTR [ecx+0x18]
  402135:	8b f8                	mov    edi,eax
  402137:	8b 45 cc             	mov    eax,DWORD PTR [ebp-0x34]
  40213a:	50                   	push   eax
  40213b:	8b 08                	mov    ecx,DWORD PTR [eax]
  40213d:	ff 51 08             	call   DWORD PTR [ecx+0x8]
  402140:	8b 45 08             	mov    eax,DWORD PTR [ebp+0x8]
  402143:	50                   	push   eax
  402144:	8b 08                	mov    ecx,DWORD PTR [eax]
  402146:	ff 51 08             	call   DWORD PTR [ecx+0x8]
  402149:	3b fb                	cmp    edi,ebx
  40214b:	7d 13                	jge    0x402160
  40214d:	c7 45 fc 01 00 00 00 	mov    DWORD PTR [ebp-0x4],0x1
  402154:	6a f0                	push   0xfffffff0
  402156:	e8 c8 f2 ff ff       	call   0x401423
  40215b:	e9 1d 07 00 00       	jmp    0x40287d
  402160:	6a f4                	push   0xfffffff4
  402162:	eb f2                	jmp    0x402156
  402164:	53                   	push   ebx
  402165:	e8 7e 08 00 00       	call   0x4029e8
  40216a:	6a 11                	push   0x11
  40216c:	8b f0                	mov    esi,eax
  40216e:	e8 75 08 00 00       	call   0x4029e8
  402173:	6a 23                	push   0x23
  402175:	8b f8                	mov    edi,eax
  402177:	e8 6c 08 00 00       	call   0x4029e8
  40217c:	56                   	push   esi
  40217d:	89 45 08             	mov    DWORD PTR [ebp+0x8],eax
  402180:	e8 f7 3b 00 00       	call   0x405d7c
  402185:	85 c0                	test   eax,eax
  402187:	75 0d                	jne    0x402196
  402189:	53                   	push   ebx
  40218a:	6a f9                	push   0xfffffff9
  40218c:	e8 92 2c 00 00       	call   0x404e23
  402191:	e9 b8 04 00 00       	jmp    0x40264e
  402196:	8b 45 cc             	mov    eax,DWORD PTR [ebp-0x34]
  402199:	56                   	push   esi
  40219a:	89 45 9c             	mov    DWORD PTR [ebp-0x64],eax
  40219d:	c7 45 a0 02 00 00 00 	mov    DWORD PTR [ebp-0x60],0x2
  4021a4:	e8 f2 38 00 00       	call   0x405a9b
  4021a9:	57                   	push   edi
  4021aa:	88 5c 30 01          	mov    BYTE PTR [eax+esi*1+0x1],bl
  4021ae:	e8 e8 38 00 00       	call   0x405a9b
  4021b3:	88 5c 38 01          	mov    BYTE PTR [eax+edi*1+0x1],bl
  4021b7:	8b 45 08             	mov    eax,DWORD PTR [ebp+0x8]
  4021ba:	66 8b 4d e4          	mov    cx,WORD PTR [ebp-0x1c]
  4021be:	50                   	push   eax
  4021bf:	53                   	push   ebx
  4021c0:	89 75 a4             	mov    DWORD PTR [ebp-0x5c],esi
  4021c3:	89 7d a8             	mov    DWORD PTR [ebp-0x58],edi
  4021c6:	89 45 b6             	mov    DWORD PTR [ebp-0x4a],eax
  4021c9:	66 89 4d ac          	mov    WORD PTR [ebp-0x54],cx
  4021cd:	e8 51 2c 00 00       	call   0x404e23
  4021d2:	8d 45 9c             	lea    eax,[ebp-0x64]
  4021d5:	50                   	push   eax
  4021d6:	ff 15 60 71 40 00    	call   DWORD PTR ds:0x407160
  4021dc:	85 c0                	test   eax,eax
  4021de:	0f 84 99 06 00 00    	je     0x40287d
  4021e4:	eb a3                	jmp    0x402189
  4021e6:	3d 0d f0 ad 0b       	cmp    eax,0xbadf00d
  4021eb:	74 1d                	je     0x40220a
  4021ed:	68 10 00 20 00       	push   0x200010
  4021f2:	6a e8                	push   0xffffffe8
  4021f4:	53                   	push   ebx
  4021f5:	e8 ad 38 00 00       	call   0x405aa7
  4021fa:	50                   	push   eax
  4021fb:	e8 46 31 00 00       	call   0x405346
  402200:	b8 ff ff ff 7f       	mov    eax,0x7fffffff
  402205:	e9 7e 06 00 00       	jmp    0x402888
  40220a:	ff 05 34 3f 42 00    	inc    DWORD PTR ds:0x423f34
  402210:	e9 68 06 00 00       	jmp    0x40287d
  402215:	33 f6                	xor    esi,esi
  402217:	33 ff                	xor    edi,edi
  402219:	3b c3                	cmp    eax,ebx
  40221b:	74 0b                	je     0x402228
  40221d:	53                   	push   ebx
  40221e:	e8 c5 07 00 00       	call   0x4029e8
  402223:	8b 55 e0             	mov    edx,DWORD PTR [ebp-0x20]
  402226:	8b f0                	mov    esi,eax
  402228:	3b d3                	cmp    edx,ebx
  40222a:	74 09                	je     0x402235
  40222c:	6a 11                	push   0x11
  40222e:	e8 b5 07 00 00       	call   0x4029e8
  402233:	8b f8                	mov    edi,eax
  402235:	39 5d ec             	cmp    DWORD PTR [ebp-0x14],ebx
  402238:	74 09                	je     0x402243
  40223a:	6a 22                	push   0x22
  40223c:	e8 a7 07 00 00       	call   0x4029e8
  402241:	8b d8                	mov    ebx,eax
  402243:	6a cd                	push   0xffffffcd
  402245:	e8 9e 07 00 00       	call   0x4029e8
  40224a:	50                   	push   eax
  40224b:	53                   	push   ebx
  40224c:	57                   	push   edi
  40224d:	56                   	push   esi
  40224e:	ff 15 20 71 40 00    	call   DWORD PTR ds:0x407120
  402254:	e9 4d f3 ff ff       	jmp    0x4015a6
  402259:	6a 01                	push   0x1
  40225b:	c7 45 08 21 4e 7e 00 	mov    DWORD PTR [ebp+0x8],0x7e4e21
  402262:	e8 81 07 00 00       	call   0x4029e8
  402267:	6a 12                	push   0x12
  402269:	8b f8                	mov    edi,eax
  40226b:	e8 78 07 00 00       	call   0x4029e8
  402270:	6a dd                	push   0xffffffdd
  402272:	89 45 d0             	mov    DWORD PTR [ebp-0x30],eax
  402275:	e8 6e 07 00 00       	call   0x4029e8
  40227a:	50                   	push   eax
  40227b:	68 ff 03 00 00       	push   0x3ff
  402280:	8d 45 08             	lea    eax,[ebp+0x8]
  402283:	56                   	push   esi
  402284:	50                   	push   eax
  402285:	ff 75 d0             	push   DWORD PTR [ebp-0x30]
  402288:	57                   	push   edi
  402289:	ff 15 24 71 40 00    	call   DWORD PTR ds:0x407124
  40228f:	8b 06                	mov    eax,DWORD PTR [esi]
  402291:	3b 45 08             	cmp    eax,DWORD PTR [ebp+0x8]
  402294:	e9 7d f4 ff ff       	jmp    0x401716
  402299:	39 5d ec             	cmp    DWORD PTR [ebp-0x14],ebx
  40229c:	75 2b                	jne    0x4022c9
  40229e:	6a 02                	push   0x2
  4022a0:	e8 4d 08 00 00       	call   0x402af2
  4022a5:	8b f0                	mov    esi,eax
  4022a7:	3b f3                	cmp    esi,ebx
  4022a9:	0f 84 9f 03 00 00    	je     0x40264e
  4022af:	6a 33                	push   0x33
  4022b1:	e8 32 07 00 00       	call   0x4029e8
  4022b6:	50                   	push   eax
  4022b7:	56                   	push   esi
  4022b8:	ff 15 18 70 40 00    	call   DWORD PTR ds:0x407018
  4022be:	56                   	push   esi
  4022bf:	8b f8                	mov    edi,eax
  4022c1:	ff 15 1c 70 40 00    	call   DWORD PTR ds:0x40701c
  4022c7:	eb 1f                	jmp    0x4022e8
  4022c9:	6a 22                	push   0x22
  4022cb:	e8 18 07 00 00       	call   0x4029e8
  4022d0:	8b 4d ec             	mov    ecx,DWORD PTR [ebp-0x14]
  4022d3:	83 e1 02             	and    ecx,0x2
  4022d6:	51                   	push   ecx
  4022d7:	50                   	push   eax
  4022d8:	ff 75 e0             	push   DWORD PTR [ebp-0x20]
  4022db:	e8 fd 07 00 00       	call   0x402add
  4022e0:	50                   	push   eax
  4022e1:	e8 42 07 00 00       	call   0x402a28
  4022e6:	8b f8                	mov    edi,eax
  4022e8:	3b fb                	cmp    edi,ebx
  4022ea:	0f 84 8d 05 00 00    	je     0x40287d
  4022f0:	e9 59 03 00 00       	jmp    0x40264e
  4022f5:	50                   	push   eax
  4022f6:	e8 e2 07 00 00       	call   0x402add
  4022fb:	8b 75 ec             	mov    esi,DWORD PTR [ebp-0x14]
  4022fe:	8b f8                	mov    edi,eax
  402300:	8b 45 f0             	mov    eax,DWORD PTR [ebp-0x10]
  402303:	6a 02                	push   0x2
  402305:	89 45 d0             	mov    DWORD PTR [ebp-0x30],eax
  402308:	e8 db 06 00 00       	call   0x4029e8
  40230d:	6a 11                	push   0x11
  40230f:	89 45 bc             	mov    DWORD PTR [ebp-0x44],eax
  402312:	e8 d1 06 00 00       	call   0x4029e8
  402317:	8d 4d 08             	lea    ecx,[ebp+0x8]
  40231a:	53                   	push   ebx
  40231b:	51                   	push   ecx
  40231c:	8b 0d 50 3f 42 00    	mov    ecx,DWORD PTR ds:0x423f50
  402322:	83 c9 02             	or     ecx,0x2
  402325:	53                   	push   ebx
  402326:	51                   	push   ecx
  402327:	53                   	push   ebx
  402328:	53                   	push   ebx
  402329:	53                   	push   ebx
  40232a:	50                   	push   eax
  40232b:	57                   	push   edi
  40232c:	c7 45 fc 01 00 00 00 	mov    DWORD PTR [ebp-0x4],0x1
  402333:	ff 15 20 70 40 00    	call   DWORD PTR ds:0x407020
  402339:	85 c0                	test   eax,eax
  40233b:	0f 85 3c 05 00 00    	jne    0x40287d
  402341:	83 fe 01             	cmp    esi,0x1
  402344:	bf 68 a3 40 00       	mov    edi,0x40a368
  402349:	75 0e                	jne    0x402359
  40234b:	6a 23                	push   0x23
  40234d:	e8 96 06 00 00       	call   0x4029e8
  402352:	57                   	push   edi
  402353:	e8 43 37 00 00       	call   0x405a9b
  402358:	40                   	inc    eax
  402359:	83 fe 04             	cmp    esi,0x4
  40235c:	75 0e                	jne    0x40236c
  40235e:	6a 03                	push   0x3
  402360:	e8 66 06 00 00       	call   0x4029cb
  402365:	56                   	push   esi
  402366:	a3 68 a3 40 00       	mov    ds:0x40a368,eax
  40236b:	58                   	pop    eax
  40236c:	83 fe 03             	cmp    esi,0x3
  40236f:	75 0f                	jne    0x402380
  402371:	68 00 0c 00 00       	push   0xc00
  402376:	57                   	push   edi
  402377:	53                   	push   ebx
  402378:	ff 75 e8             	push   DWORD PTR [ebp-0x18]
  40237b:	e8 81 0b 00 00       	call   0x402f01
  402380:	50                   	push   eax
  402381:	57                   	push   edi
  402382:	ff 75 d0             	push   DWORD PTR [ebp-0x30]
  402385:	53                   	push   ebx
  402386:	ff 75 bc             	push   DWORD PTR [ebp-0x44]
  402389:	ff 75 08             	push   DWORD PTR [ebp+0x8]
  40238c:	ff 15 04 70 40 00    	call   DWORD PTR ds:0x407004
  402392:	85 c0                	test   eax,eax
  402394:	75 03                	jne    0x402399
  402396:	89 5d fc             	mov    DWORD PTR [ebp-0x4],ebx
  402399:	ff 75 08             	push   DWORD PTR [ebp+0x8]
  40239c:	e9 ce 00 00 00       	jmp    0x40246f
  4023a1:	68 19 00 02 00       	push   0x20019
  4023a6:	e8 47 07 00 00       	call   0x402af2
  4023ab:	6a 33                	push   0x33
  4023ad:	8b f8                	mov    edi,eax
  4023af:	e8 34 06 00 00       	call   0x4029e8
  4023b4:	3b fb                	cmp    edi,ebx
  4023b6:	88 1e                	mov    BYTE PTR [esi],bl
  4023b8:	0f 84 90 02 00 00    	je     0x40264e
  4023be:	8d 4d f8             	lea    ecx,[ebp-0x8]
  4023c1:	c7 45 f8 ff 03 00 00 	mov    DWORD PTR [ebp-0x8],0x3ff
  4023c8:	51                   	push   ecx
  4023c9:	8d 4d 08             	lea    ecx,[ebp+0x8]
  4023cc:	56                   	push   esi
  4023cd:	51                   	push   ecx
  4023ce:	53                   	push   ebx
  4023cf:	50                   	push   eax
  4023d0:	57                   	push   edi
  4023d1:	ff 15 00 70 40 00    	call   DWORD PTR ds:0x407000
  4023d7:	33 c9                	xor    ecx,ecx
  4023d9:	41                   	inc    ecx
  4023da:	85 c0                	test   eax,eax
  4023dc:	75 34                	jne    0x402412
  4023de:	83 7d 08 04          	cmp    DWORD PTR [ebp+0x8],0x4
  4023e2:	74 19                	je     0x4023fd
  4023e4:	39 4d 08             	cmp    DWORD PTR [ebp+0x8],ecx
  4023e7:	74 06                	je     0x4023ef
  4023e9:	83 7d 08 02          	cmp    DWORD PTR [ebp+0x8],0x2
  4023ed:	75 23                	jne    0x402412
  4023ef:	8b 45 ec             	mov    eax,DWORD PTR [ebp-0x14]
  4023f2:	89 45 fc             	mov    DWORD PTR [ebp-0x4],eax
  4023f5:	8b 45 f8             	mov    eax,DWORD PTR [ebp-0x8]
  4023f8:	88 1c 30             	mov    BYTE PTR [eax+esi*1],bl
  4023fb:	eb 71                	jmp    0x40246e
  4023fd:	ff 36                	push   DWORD PTR [esi]
  4023ff:	33 c0                	xor    eax,eax
  402401:	39 5d ec             	cmp    DWORD PTR [ebp-0x14],ebx
  402404:	56                   	push   esi
  402405:	0f 94 c0             	sete   al
  402408:	89 45 fc             	mov    DWORD PTR [ebp-0x4],eax
  40240b:	e8 d3 35 00 00       	call   0x4059e3
  402410:	eb 5c                	jmp    0x40246e
  402412:	88 1e                	mov    BYTE PTR [esi],bl
  402414:	89 4d fc             	mov    DWORD PTR [ebp-0x4],ecx
  402417:	eb 55                	jmp    0x40246e
  402419:	68 19 00 02 00       	push   0x20019
  40241e:	e8 cf 06 00 00       	call   0x402af2
  402423:	6a 03                	push   0x3
  402425:	8b f8                	mov    edi,eax
  402427:	e8 9f 05 00 00       	call   0x4029cb
  40242c:	3b fb                	cmp    edi,ebx
  40242e:	88 1e                	mov    BYTE PTR [esi],bl
  402430:	0f 84 18 02 00 00    	je     0x40264e
  402436:	39 5d ec             	cmp    DWORD PTR [ebp-0x14],ebx
  402439:	b9 ff 03 00 00       	mov    ecx,0x3ff
  40243e:	89 4d 08             	mov    DWORD PTR [ebp+0x8],ecx
  402441:	74 0c                	je     0x40244f
  402443:	51                   	push   ecx
  402444:	56                   	push   esi
  402445:	50                   	push   eax
  402446:	57                   	push   edi
  402447:	ff 15 08 70 40 00    	call   DWORD PTR ds:0x407008
  40244d:	eb 19                	jmp    0x402468
  40244f:	53                   	push   ebx
  402450:	53                   	push   ebx
  402451:	53                   	push   ebx
  402452:	8d 4d 08             	lea    ecx,[ebp+0x8]
  402455:	53                   	push   ebx
  402456:	51                   	push   ecx
  402457:	56                   	push   esi
  402458:	50                   	push   eax
  402459:	57                   	push   edi
  40245a:	ff 15 0c 70 40 00    	call   DWORD PTR ds:0x40700c
  402460:	85 c0                	test   eax,eax
  402462:	0f 85 e6 01 00 00    	jne    0x40264e
  402468:	88 9e ff 03 00 00    	mov    BYTE PTR [esi+0x3ff],bl
  40246e:	57                   	push   edi
  40246f:	ff 15 1c 70 40 00    	call   DWORD PTR ds:0x40701c
  402475:	e9 03 04 00 00       	jmp    0x40287d
  40247a:	38 1e                	cmp    BYTE PTR [esi],bl
  40247c:	0f 84 fb 03 00 00    	je     0x40287d
  402482:	56                   	push   esi
  402483:	e8 74 35 00 00       	call   0x4059fc
  402488:	50                   	push   eax
  402489:	e9 fc f9 ff ff       	jmp    0x401e8a
  40248e:	6a ed                	push   0xffffffed
  402490:	e8 53 05 00 00       	call   0x4029e8
  402495:	ff 75 e4             	push   DWORD PTR [ebp-0x1c]
  402498:	ff 75 e0             	push   DWORD PTR [ebp-0x20]
  40249b:	50                   	push   eax
  40249c:	e8 bb 32 00 00       	call   0x40575c
  4024a1:	83 f8 ff             	cmp    eax,0xffffffff
  4024a4:	0f 84 a2 01 00 00    	je     0x40264c
  4024aa:	50                   	push   eax
  4024ab:	e9 b1 f0 ff ff       	jmp    0x401561
  4024b0:	39 5d e4             	cmp    DWORD PTR [ebp-0x1c],ebx
  4024b3:	74 11                	je     0x4024c6
  4024b5:	6a 01                	push   0x1
  4024b7:	e8 0f 05 00 00       	call   0x4029cb
  4024bc:	a2 68 9f 40 00       	mov    ds:0x409f68,al
  4024c1:	33 c0                	xor    eax,eax
  4024c3:	40                   	inc    eax
  4024c4:	eb 0d                	jmp    0x4024d3
  4024c6:	6a 11                	push   0x11
  4024c8:	e8 1b 05 00 00       	call   0x4029e8
  4024cd:	50                   	push   eax
  4024ce:	e8 c8 35 00 00       	call   0x405a9b
  4024d3:	38 1e                	cmp    BYTE PTR [esi],bl
  4024d5:	0f 84 73 01 00 00    	je     0x40264e
  4024db:	8d 4d 08             	lea    ecx,[ebp+0x8]
  4024de:	53                   	push   ebx
  4024df:	51                   	push   ecx
  4024e0:	50                   	push   eax
  4024e1:	68 68 9f 40 00       	push   0x409f68
  4024e6:	56                   	push   esi
  4024e7:	e8 10 35 00 00       	call   0x4059fc
  4024ec:	50                   	push   eax
  4024ed:	ff 15 28 71 40 00    	call   DWORD PTR ds:0x407128
  4024f3:	e9 ae f0 ff ff       	jmp    0x4015a6
  4024f8:	6a 02                	push   0x2
  4024fa:	89 5d d4             	mov    DWORD PTR [ebp-0x2c],ebx
  4024fd:	e8 c9 04 00 00       	call   0x4029cb
  402502:	83 f8 01             	cmp    eax,0x1
  402505:	89 45 cc             	mov    DWORD PTR [ebp-0x34],eax
  402508:	0f 8c 6f 03 00 00    	jl     0x40287d
  40250e:	b9 ff 03 00 00       	mov    ecx,0x3ff
  402513:	3b c1                	cmp    eax,ecx
  402515:	7e 03                	jle    0x40251a
  402517:	89 4d cc             	mov    DWORD PTR [ebp-0x34],ecx
  40251a:	38 1e                	cmp    BYTE PTR [esi],bl
  40251c:	0f 84 8e 00 00 00    	je     0x4025b0
  402522:	56                   	push   esi
  402523:	88 5d 0b             	mov    BYTE PTR [ebp+0xb],bl
  402526:	e8 d1 34 00 00       	call   0x4059fc
  40252b:	39 5d cc             	cmp    DWORD PTR [ebp-0x34],ebx
  40252e:	89 45 f8             	mov    DWORD PTR [ebp-0x8],eax
  402531:	7e 7d                	jle    0x4025b0
  402533:	8b 75 d4             	mov    esi,DWORD PTR [ebp-0x2c]
  402536:	8d 45 d0             	lea    eax,[ebp-0x30]
  402539:	53                   	push   ebx
  40253a:	50                   	push   eax
  40253b:	8d 45 f7             	lea    eax,[ebp-0x9]
  40253e:	6a 01                	push   0x1
  402540:	50                   	push   eax
  402541:	ff 75 f8             	push   DWORD PTR [ebp-0x8]
  402544:	ff 15 2c 71 40 00    	call   DWORD PTR ds:0x40712c
  40254a:	85 c0                	test   eax,eax
  40254c:	74 65                	je     0x4025b3
  40254e:	83 7d d0 01          	cmp    DWORD PTR [ebp-0x30],0x1
  402552:	75 5f                	jne    0x4025b3
  402554:	39 5d e8             	cmp    DWORD PTR [ebp-0x18],ebx
  402557:	75 21                	jne    0x40257a
  402559:	80 7d 0b 0d          	cmp    BYTE PTR [ebp+0xb],0xd
  40255d:	74 2b                	je     0x40258a
  40255f:	80 7d 0b 0a          	cmp    BYTE PTR [ebp+0xb],0xa
  402563:	74 25                	je     0x40258a
  402565:	8a 45 f7             	mov    al,BYTE PTR [ebp-0x9]
  402568:	88 04 3e             	mov    BYTE PTR [esi+edi*1],al
  40256b:	46                   	inc    esi
  40256c:	3a c3                	cmp    al,bl
  40256e:	88 45 0b             	mov    BYTE PTR [ebp+0xb],al
  402571:	74 40                	je     0x4025b3
  402573:	3b 75 cc             	cmp    esi,DWORD PTR [ebp-0x34]
  402576:	7c be                	jl     0x402536
  402578:	eb 39                	jmp    0x4025b3
  40257a:	0f b6 45 f7          	movzx  eax,BYTE PTR [ebp-0x9]
  40257e:	50                   	push   eax
  40257f:	57                   	push   edi
  402580:	e8 5e 34 00 00       	call   0x4059e3
  402585:	e9 fc 02 00 00       	jmp    0x402886
  40258a:	8a 45 f7             	mov    al,BYTE PTR [ebp-0x9]
  40258d:	38 45 0b             	cmp    BYTE PTR [ebp+0xb],al
  402590:	74 0e                	je     0x4025a0
  402592:	3c 0d                	cmp    al,0xd
  402594:	74 04                	je     0x40259a
  402596:	3c 0a                	cmp    al,0xa
  402598:	75 06                	jne    0x4025a0
  40259a:	88 04 3e             	mov    BYTE PTR [esi+edi*1],al
  40259d:	46                   	inc    esi
  40259e:	eb 13                	jmp    0x4025b3
  4025a0:	6a 01                	push   0x1
  4025a2:	53                   	push   ebx
  4025a3:	6a ff                	push   0xffffffff
  4025a5:	ff 75 f8             	push   DWORD PTR [ebp-0x8]
  4025a8:	ff 15 34 71 40 00    	call   DWORD PTR ds:0x407134
  4025ae:	eb 03                	jmp    0x4025b3
  4025b0:	8b 75 d4             	mov    esi,DWORD PTR [ebp-0x2c]
  4025b3:	88 1c 3e             	mov    BYTE PTR [esi+edi*1],bl
  4025b6:	3b f3                	cmp    esi,ebx
  4025b8:	e9 eb ef ff ff       	jmp    0x4015a8
  4025bd:	38 1e                	cmp    BYTE PTR [esi],bl
  4025bf:	0f 84 b8 02 00 00    	je     0x40287d
  4025c5:	ff 75 e8             	push   DWORD PTR [ebp-0x18]
  4025c8:	53                   	push   ebx
  4025c9:	6a 02                	push   0x2
  4025cb:	e8 fb 03 00 00       	call   0x4029cb
  4025d0:	50                   	push   eax
  4025d1:	56                   	push   esi
  4025d2:	e8 25 34 00 00       	call   0x4059fc
  4025d7:	50                   	push   eax
  4025d8:	ff 15 34 71 40 00    	call   DWORD PTR ds:0x407134
  4025de:	39 5d e0             	cmp    DWORD PTR [ebp-0x20],ebx
  4025e1:	0f 8c 96 02 00 00    	jl     0x40287d
  4025e7:	e9 37 02 00 00       	jmp    0x402823
  4025ec:	38 1e                	cmp    BYTE PTR [esi],bl
  4025ee:	0f 84 89 02 00 00    	je     0x40287d
  4025f4:	56                   	push   esi
  4025f5:	e8 02 34 00 00       	call   0x4059fc
  4025fa:	50                   	push   eax
  4025fb:	ff 15 38 71 40 00    	call   DWORD PTR ds:0x407138
  402601:	e9 77 02 00 00       	jmp    0x40287d
  402606:	38 1f                	cmp    BYTE PTR [edi],bl
  402608:	74 18                	je     0x402622
  40260a:	8d 85 5c fe ff ff    	lea    eax,[ebp-0x1a4]
  402610:	50                   	push   eax
  402611:	57                   	push   edi
  402612:	e8 e5 33 00 00       	call   0x4059fc
  402617:	50                   	push   eax
  402618:	ff 15 3c 71 40 00    	call   DWORD PTR ds:0x40713c
  40261e:	85 c0                	test   eax,eax
  402620:	75 3f                	jne    0x402661
  402622:	c7 45 fc 01 00 00 00 	mov    DWORD PTR [ebp-0x4],0x1
  402629:	88 1e                	mov    BYTE PTR [esi],bl
  40262b:	e9 4d 02 00 00       	jmp    0x40287d
  402630:	6a 02                	push   0x2
  402632:	e8 b1 03 00 00       	call   0x4029e8
  402637:	8d 8d 5c fe ff ff    	lea    ecx,[ebp-0x1a4]
  40263d:	51                   	push   ecx
  40263e:	50                   	push   eax
  40263f:	ff 15 40 71 40 00    	call   DWORD PTR ds:0x407140
  402645:	83 f8 ff             	cmp    eax,0xffffffff
  402648:	75 10                	jne    0x40265a
  40264a:	88 1f                	mov    BYTE PTR [edi],bl
  40264c:	88 1e                	mov    BYTE PTR [esi],bl
  40264e:	c7 45 fc 01 00 00 00 	mov    DWORD PTR [ebp-0x4],0x1
  402655:	e9 23 02 00 00       	jmp    0x40287d
  40265a:	50                   	push   eax
  40265b:	57                   	push   edi
  40265c:	e8 82 33 00 00       	call   0x4059e3
  402661:	8d 85 88 fe ff ff    	lea    eax,[ebp-0x178]
  402667:	50                   	push   eax
  402668:	56                   	push   esi
  402669:	e9 35 01 00 00       	jmp    0x4027a3
  40266e:	6a f0                	push   0xfffffff0
  402670:	c7 45 f8 66 fd ff ff 	mov    DWORD PTR [ebp-0x8],0xfffffd66
  402677:	e8 6c 03 00 00       	call   0x4029e8
  40267c:	8b f0                	mov    esi,eax
  40267e:	56                   	push   esi
  40267f:	89 75 bc             	mov    DWORD PTR [ebp-0x44],esi
  402682:	e8 5e 2f 00 00       	call   0x4055e5
  402687:	85 c0                	test   eax,eax
  402689:	75 07                	jne    0x402692
  40268b:	6a ed                	push   0xffffffed
  40268d:	e8 56 03 00 00       	call   0x4029e8
  402692:	56                   	push   esi
  402693:	e8 a5 30 00 00       	call   0x40573d
  402698:	6a 02                	push   0x2
  40269a:	68 00 00 00 40       	push   0x40000000
  40269f:	56                   	push   esi
  4026a0:	e8 b7 30 00 00       	call   0x40575c
  4026a5:	83 f8 ff             	cmp    eax,0xffffffff
  4026a8:	89 45 08             	mov    DWORD PTR [ebp+0x8],eax
  4026ab:	0f 84 9d 00 00 00    	je     0x40274e
  4026b1:	a1 b4 3e 42 00       	mov    eax,ds:0x423eb4
  4026b6:	8b 35 00 71 40 00    	mov    esi,DWORD PTR ds:0x407100
  4026bc:	50                   	push   eax
  4026bd:	6a 40                	push   0x40
  4026bf:	89 45 d4             	mov    DWORD PTR [ebp-0x2c],eax
  4026c2:	ff d6                	call   esi
  4026c4:	8b f8                	mov    edi,eax
  4026c6:	3b fb                	cmp    edi,ebx
  4026c8:	74 7b                	je     0x402745
  4026ca:	53                   	push   ebx
  4026cb:	e8 0a 0b 00 00       	call   0x4031da
  4026d0:	ff 75 d4             	push   DWORD PTR [ebp-0x2c]
  4026d3:	57                   	push   edi
  4026d4:	e8 cf 0a 00 00       	call   0x4031a8
  4026d9:	ff 75 e4             	push   DWORD PTR [ebp-0x1c]
  4026dc:	6a 40                	push   0x40
  4026de:	ff d6                	call   esi
  4026e0:	8b f0                	mov    esi,eax
  4026e2:	3b f3                	cmp    esi,ebx
  4026e4:	89 75 d0             	mov    DWORD PTR [ebp-0x30],esi
  4026e7:	74 34                	je     0x40271d
  4026e9:	ff 75 e4             	push   DWORD PTR [ebp-0x1c]
  4026ec:	56                   	push   esi
  4026ed:	53                   	push   ebx
  4026ee:	ff 75 e0             	push   DWORD PTR [ebp-0x20]
  4026f1:	e8 0b 08 00 00       	call   0x402f01
  4026f6:	eb 18                	jmp    0x402710
  4026f8:	8b 0e                	mov    ecx,DWORD PTR [esi]
  4026fa:	8b 46 04             	mov    eax,DWORD PTR [esi+0x4]
  4026fd:	83 c6 08             	add    esi,0x8
  402700:	51                   	push   ecx
  402701:	03 c7                	add    eax,edi
  402703:	56                   	push   esi
  402704:	50                   	push   eax
  402705:	89 4d c8             	mov    DWORD PTR [ebp-0x38],ecx
  402708:	e8 10 30 00 00       	call   0x40571d
  40270d:	03 75 c8             	add    esi,DWORD PTR [ebp-0x38]
  402710:	38 1e                	cmp    BYTE PTR [esi],bl
  402712:	75 e4                	jne    0x4026f8
  402714:	ff 75 d0             	push   DWORD PTR [ebp-0x30]
  402717:	ff 15 fc 70 40 00    	call   DWORD PTR ds:0x4070fc
  40271d:	8d 45 f8             	lea    eax,[ebp-0x8]
  402720:	53                   	push   ebx
  402721:	50                   	push   eax
  402722:	ff 75 d4             	push   DWORD PTR [ebp-0x2c]
  402725:	57                   	push   edi
  402726:	ff 75 08             	push   DWORD PTR [ebp+0x8]
  402729:	ff 15 28 71 40 00    	call   DWORD PTR ds:0x407128
  40272f:	57                   	push   edi
  402730:	ff 15 fc 70 40 00    	call   DWORD PTR ds:0x4070fc
  402736:	53                   	push   ebx
  402737:	53                   	push   ebx
  402738:	ff 75 08             	push   DWORD PTR [ebp+0x8]
  40273b:	6a ff                	push   0xffffffff
  40273d:	e8 bf 07 00 00       	call   0x402f01
  402742:	89 45 f8             	mov    DWORD PTR [ebp-0x8],eax
  402745:	ff 75 08             	push   DWORD PTR [ebp+0x8]
  402748:	ff 15 ec 70 40 00    	call   DWORD PTR ds:0x4070ec
  40274e:	39 5d f8             	cmp    DWORD PTR [ebp-0x8],ebx
  402751:	6a f3                	push   0xfffffff3
  402753:	5e                   	pop    esi
  402754:	7d 13                	jge    0x402769
  402756:	6a ef                	push   0xffffffef
  402758:	5e                   	pop    esi
  402759:	ff 75 bc             	push   DWORD PTR [ebp-0x44]
  40275c:	ff 15 44 71 40 00    	call   DWORD PTR ds:0x407144
  402762:	c7 45 fc 01 00 00 00 	mov    DWORD PTR [ebp-0x4],0x1
  402769:	56                   	push   esi
  40276a:	e9 e7 f9 ff ff       	jmp    0x402156
  40276f:	53                   	push   ebx
  402770:	e8 56 02 00 00       	call   0x4029cb
  402775:	3b 05 cc 3e 42 00    	cmp    eax,DWORD PTR ds:0x423ecc
  40277b:	89 45 08             	mov    DWORD PTR [ebp+0x8],eax
  40277e:	0f 83 ca fe ff ff    	jae    0x40264e
  402784:	8b f0                	mov    esi,eax
  402786:	8b 45 e4             	mov    eax,DWORD PTR [ebp-0x1c]
  402789:	69 f6 18 04 00 00    	imul   esi,esi,0x418
  40278f:	03 35 c8 3e 42 00    	add    esi,DWORD PTR ds:0x423ec8
  402795:	3b c3                	cmp    eax,ebx
  402797:	7c 17                	jl     0x4027b0
  402799:	8b 0c 86             	mov    ecx,DWORD PTR [esi+eax*4]
  40279c:	75 0f                	jne    0x4027ad
  40279e:	83 c6 18             	add    esi,0x18
  4027a1:	56                   	push   esi
  4027a2:	57                   	push   edi
  4027a3:	e8 dd 32 00 00       	call   0x405a85
  4027a8:	e9 d0 00 00 00       	jmp    0x40287d
  4027ad:	51                   	push   ecx
  4027ae:	eb 74                	jmp    0x402824
  4027b0:	83 c9 ff             	or     ecx,0xffffffff
  4027b3:	2b c8                	sub    ecx,eax
  4027b5:	89 4d e4             	mov    DWORD PTR [ebp-0x1c],ecx
  4027b8:	74 0c                	je     0x4027c6
  4027ba:	6a 01                	push   0x1
  4027bc:	e8 0a 02 00 00       	call   0x4029cb
  4027c1:	89 45 e0             	mov    DWORD PTR [ebp-0x20],eax
  4027c4:	eb 10                	jmp    0x4027d6
  4027c6:	ff 75 ec             	push   DWORD PTR [ebp-0x14]
  4027c9:	8d 46 18             	lea    eax,[esi+0x18]
  4027cc:	50                   	push   eax
  4027cd:	e8 d5 32 00 00       	call   0x405aa7
  4027d2:	80 4e 09 01          	or     BYTE PTR [esi+0x9],0x1
  4027d6:	8b 45 e4             	mov    eax,DWORD PTR [ebp-0x1c]
  4027d9:	8b 4d e0             	mov    ecx,DWORD PTR [ebp-0x20]
  4027dc:	89 0c 86             	mov    DWORD PTR [esi+eax*4],ecx
  4027df:	39 5d e8             	cmp    DWORD PTR [ebp-0x18],ebx
  4027e2:	0f 84 95 00 00 00    	je     0x40287d
  4027e8:	ff 75 08             	push   DWORD PTR [ebp+0x8]
  4027eb:	e8 8d e9 ff ff       	call   0x40117d
  4027f0:	e9 88 00 00 00       	jmp    0x40287d
  4027f5:	53                   	push   ebx
  4027f6:	e8 d0 01 00 00       	call   0x4029cb
  4027fb:	83 f8 20             	cmp    eax,0x20
  4027fe:	0f 83 4a fe ff ff    	jae    0x40264e
  402804:	39 5d e8             	cmp    DWORD PTR [ebp-0x18],ebx
  402807:	74 23                	je     0x40282c
  402809:	39 5d e4             	cmp    DWORD PTR [ebp-0x1c],ebx
  40280c:	74 0f                	je     0x40281d
  40280e:	50                   	push   eax
  40280f:	e8 85 ea ff ff       	call   0x401299
  402814:	53                   	push   ebx
  402815:	53                   	push   ebx
  402816:	e8 d4 e9 ff ff       	call   0x4011ef
  40281b:	eb 60                	jmp    0x40287d
  40281d:	53                   	push   ebx
  40281e:	e8 bf ea ff ff       	call   0x4012e2
  402823:	50                   	push   eax
  402824:	57                   	push   edi
  402825:	e8 b9 31 00 00       	call   0x4059e3
  40282a:	eb 51                	jmp    0x40287d
  40282c:	39 5d e4             	cmp    DWORD PTR [ebp-0x1c],ebx
  40282f:	74 12                	je     0x402843
  402831:	8b 15 b0 3e 42 00    	mov    edx,DWORD PTR ds:0x423eb0
  402837:	8b 4d e0             	mov    ecx,DWORD PTR [ebp-0x20]
  40283a:	89 8c 82 94 00 00 00 	mov    DWORD PTR [edx+eax*4+0x94],ecx
  402841:	eb 3a                	jmp    0x40287d
  402843:	8b 0d b0 3e 42 00    	mov    ecx,DWORD PTR ds:0x423eb0
  402849:	ff b4 81 94 00 00 00 	push   DWORD PTR [ecx+eax*4+0x94]
  402850:	57                   	push   edi
  402851:	e8 51 32 00 00       	call   0x405aa7
  402856:	eb 25                	jmp    0x40287d
  402858:	8b 0d 98 14 42 00    	mov    ecx,DWORD PTR ds:0x421498
  40285e:	53                   	push   ebx
  40285f:	23 c8                	and    ecx,eax
  402861:	51                   	push   ecx
  402862:	6a 0b                	push   0xb
  402864:	ff 75 cc             	push   DWORD PTR [ebp-0x34]
  402867:	ff 15 44 72 40 00    	call   DWORD PTR ds:0x407244
  40286d:	39 5d dc             	cmp    DWORD PTR [ebp-0x24],ebx
  402870:	74 0b                	je     0x40287d
  402872:	53                   	push   ebx
  402873:	53                   	push   ebx
  402874:	ff 75 cc             	push   DWORD PTR [ebp-0x34]
  402877:	ff 15 40 72 40 00    	call   DWORD PTR ds:0x407240
  40287d:	8b 45 fc             	mov    eax,DWORD PTR [ebp-0x4]
  402880:	01 05 28 3f 42 00    	add    DWORD PTR ds:0x423f28,eax
  402886:	33 c0                	xor    eax,eax
  402888:	5f                   	pop    edi
  402889:	5e                   	pop    esi
  40288a:	5b                   	pop    ebx
  40288b:	c9                   	leave  
  40288c:	c2 04 00             	ret    0x4
  40288f:	88 28                	mov    BYTE PTR [eax],ch
  402891:	40                   	inc    eax
  402892:	00 90 14 40 00 9c    	add    BYTE PTR [eax-0x63ffbfec],dl
  402898:	14 40                	adc    al,0x40
  40289a:	00 b7 14 40 00 ca    	add    BYTE PTR [edi-0x35ffbfec],dh
  4028a0:	14 40                	adc    al,0x40
  4028a2:	00 d6                	add    dh,dl
  4028a4:	14 40                	adc    al,0x40
  4028a6:	00 f0                	add    al,dh
  4028a8:	14 40                	adc    al,0x40
  4028aa:	00 67 15             	add    BYTE PTR [edi+0x15],ah
  4028ad:	40                   	inc    eax
  4028ae:	00 95 15 40 00 b3    	add    BYTE PTR [ebp-0x4cffbfeb],dl
  4028b4:	15 40 00 34 16       	adc    eax,0x16340040
  4028b9:	40                   	inc    eax
  4028ba:	00 fe                	add    dh,bh
  4028bc:	14 40                	adc    al,0x40
  4028be:	00 39                	add    BYTE PTR [ecx],bh
  4028c0:	15 40 00 5a 15       	adc    eax,0x155a0040
  4028c5:	40                   	inc    eax
  4028c6:	00 45 16             	add    BYTE PTR [ebp+0x16],al
  4028c9:	40                   	inc    eax
  4028ca:	00 96 16 40 00 fa    	add    BYTE PTR [esi-0x5ffbfea],dl
  4028d0:	16                   	push   ss
  4028d1:	40                   	inc    eax
  4028d2:	00 21                	add    BYTE PTR [ecx],ah
  4028d4:	17                   	pop    ss
  4028d5:	40                   	inc    eax
  4028d6:	00 34 17             	add    BYTE PTR [edi+edx*1],dh
  4028d9:	40                   	inc    eax
  4028da:	00 d8                	add    al,bl
  4028dc:	18 40 00             	sbb    BYTE PTR [eax+0x0],al
  4028df:	db 18                	fistp  DWORD PTR [eax]
  4028e1:	40                   	inc    eax
  4028e2:	00 0d 19 40 00 22    	add    BYTE PTR ds:0x22004019,cl
  4028e8:	19 40 00             	sbb    DWORD PTR [eax+0x0],eax
  4028eb:	34 19                	xor    al,0x19
  4028ed:	40                   	inc    eax
  4028ee:	00 b5 19 40 00 e6    	add    BYTE PTR [ebp-0x19ffbfe7],dh
  4028f4:	19 40 00             	sbb    DWORD PTR [eax+0x0],eax
  4028f7:	26 1a 40 00          	sbb    al,BYTE PTR es:[eax+0x0]
  4028fb:	58                   	pop    eax
  4028fc:	1a 40 00             	sbb    al,BYTE PTR [eax+0x0]
  4028ff:	e5 1a                	in     eax,0x1a
  402901:	40                   	inc    eax
  402902:	00 06                	add    BYTE PTR [esi],al
  402904:	1b 40 00             	sbb    eax,DWORD PTR [eax+0x0]
  402907:	ad                   	lods   eax,DWORD PTR ds:[esi]
  402908:	1b 40 00             	sbb    eax,DWORD PTR [eax+0x0]
  40290b:	ad                   	lods   eax,DWORD PTR ds:[esi]
  40290c:	1b 40 00             	sbb    eax,DWORD PTR [eax+0x0]
  40290f:	6d                   	ins    DWORD PTR es:[edi],dx
  402910:	1c 40                	sbb    al,0x40
  402912:	00 8a 1c 40 00 a5    	add    BYTE PTR [edx-0x5affbfe4],cl
  402918:	1c 40                	sbb    al,0x40
  40291a:	00 c1                	add    cl,al
  40291c:	1c 40                	sbb    al,0x40
  40291e:	00 1b                	add    BYTE PTR [ebx],bl
  402920:	1d 40 00 95 1d       	sbb    eax,0x1d950040
  402925:	40                   	inc    eax
  402926:	00 c1                	add    cl,al
  402928:	1d 40 00 1b 1e       	sbb    eax,0x1e1b0040
  40292d:	40                   	inc    eax
  40292e:	00 95 1e 40 00 c5    	add    BYTE PTR [ebp-0x3affbfe2],dl
  402934:	1e                   	push   ds
  402935:	40                   	inc    eax
  402936:	00 50 1f             	add    BYTE PTR [eax+0x1f],dl
  402939:	40                   	inc    eax
  40293a:	00 12                	add    BYTE PTR [edx],dl
  40293c:	20 40 00             	and    BYTE PTR [eax+0x0],al
  40293f:	64 21 40 00          	and    DWORD PTR fs:[eax+0x0],eax
  402943:	e6 21                	out    0x21,al
  402945:	40                   	inc    eax
  402946:	00 15 22 40 00 59    	add    BYTE PTR ds:0x59004022,dl
  40294c:	22 40 00             	and    al,BYTE PTR [eax+0x0]
  40294f:	99                   	cdq    
  402950:	22 40 00             	and    al,BYTE PTR [eax+0x0]
  402953:	f5                   	cmc    
  402954:	22 40 00             	and    al,BYTE PTR [eax+0x0]
  402957:	a1 23 40 00 19       	mov    eax,ds:0x19004023
  40295c:	24 40                	and    al,0x40
  40295e:	00 7a 24             	add    BYTE PTR [edx+0x24],bh
  402961:	40                   	inc    eax
  402962:	00 8e 24 40 00 b0    	add    BYTE PTR [esi-0x4fffbfdc],cl
  402968:	24 40                	and    al,0x40
  40296a:	00 f8                	add    al,bh
  40296c:	24 40                	and    al,0x40
  40296e:	00 bd 25 40 00 ec    	add    BYTE PTR [ebp-0x13ffbfdb],bh
  402974:	25 40 00 06 26       	and    eax,0x26060040
  402979:	40                   	inc    eax
  40297a:	00 30                	add    BYTE PTR [eax],dh
  40297c:	26 40                	es inc eax
  40297e:	00 6e 26             	add    BYTE PTR [esi+0x26],ch
  402981:	40                   	inc    eax
  402982:	00 6f 27             	add    BYTE PTR [edi+0x27],ch
  402985:	40                   	inc    eax
  402986:	00 f5                	add    ch,dh
  402988:	27                   	daa    
  402989:	40                   	inc    eax
  40298a:	00 7d 28             	add    BYTE PTR [ebp+0x28],bh
  40298d:	40                   	inc    eax
  40298e:	00 7d 28             	add    BYTE PTR [ebp+0x28],bh
  402991:	40                   	inc    eax
  402992:	00 58 28             	add    BYTE PTR [eax+0x28],bl
  402995:	40                   	inc    eax
  402996:	00 79 1a             	add    BYTE PTR [ecx+0x1a],bh
  402999:	40                   	inc    eax
  40299a:	00 7d 1a             	add    BYTE PTR [ebp+0x1a],bh
  40299d:	40                   	inc    eax
  40299e:	00 81 1a 40 00 88    	add    BYTE PTR [ecx-0x77ffbfe6],al
  4029a4:	1a 40 00             	sbb    al,BYTE PTR [eax+0x0]
  4029a7:	95                   	xchg   ebp,eax
  4029a8:	1a 40 00             	sbb    al,BYTE PTR [eax+0x0]
  4029ab:	99                   	cdq    
  4029ac:	1a 40 00             	sbb    al,BYTE PTR [eax+0x0]
  4029af:	9d                   	popf   
  4029b0:	1a 40 00             	sbb    al,BYTE PTR [eax+0x0]
  4029b3:	a1 1a 40 00 aa       	mov    eax,ds:0xaa00401a
  4029b8:	1a 40 00             	sbb    al,BYTE PTR [eax+0x0]
  4029bb:	b4 1a                	mov    ah,0x1a
  4029bd:	40                   	inc    eax
  4029be:	00 c1                	add    cl,al
  4029c0:	1a 40 00             	sbb    al,BYTE PTR [eax+0x0]
  4029c3:	d9 1a                	fstp   DWORD PTR [edx]
  4029c5:	40                   	inc    eax
  4029c6:	00 dd                	add    ch,bl
  4029c8:	1a 40 00             	sbb    al,BYTE PTR [eax+0x0]
  4029cb:	8b 44 24 04          	mov    eax,DWORD PTR [esp+0x4]
  4029cf:	8b 0d 60 9b 40 00    	mov    ecx,DWORD PTR ds:0x409b60
  4029d5:	ff 34 81             	push   DWORD PTR [ecx+eax*4]
  4029d8:	6a 00                	push   0x0
  4029da:	e8 c8 30 00 00       	call   0x405aa7
  4029df:	50                   	push   eax
  4029e0:	e8 17 30 00 00       	call   0x4059fc
  4029e5:	c2 04 00             	ret    0x4
  4029e8:	56                   	push   esi
  4029e9:	8b 74 24 08          	mov    esi,DWORD PTR [esp+0x8]
  4029ed:	85 f6                	test   esi,esi
  4029ef:	57                   	push   edi
  4029f0:	8b c6                	mov    eax,esi
  4029f2:	7d 02                	jge    0x4029f6
  4029f4:	f7 d8                	neg    eax
  4029f6:	8b 15 60 9b 40 00    	mov    edx,DWORD PTR ds:0x409b60
  4029fc:	8b c8                	mov    ecx,eax
  4029fe:	83 e1 0f             	and    ecx,0xf
  402a01:	c1 f8 04             	sar    eax,0x4
  402a04:	ff 34 8a             	push   DWORD PTR [edx+ecx*4]
  402a07:	c1 e0 0a             	shl    eax,0xa
  402a0a:	05 68 9b 40 00       	add    eax,0x409b68
  402a0f:	50                   	push   eax
  402a10:	e8 92 30 00 00       	call   0x405aa7
  402a15:	85 f6                	test   esi,esi
  402a17:	8b f8                	mov    edi,eax
  402a19:	7d 06                	jge    0x402a21
  402a1b:	57                   	push   edi
  402a1c:	e8 c2 32 00 00       	call   0x405ce3
  402a21:	8b c7                	mov    eax,edi
  402a23:	5f                   	pop    edi
  402a24:	5e                   	pop    esi
  402a25:	c2 04 00             	ret    0x4
  402a28:	55                   	push   ebp
  402a29:	8b ec                	mov    ebp,esp
  402a2b:	81 ec 0c 01 00 00    	sub    esp,0x10c
  402a31:	53                   	push   ebx
  402a32:	56                   	push   esi
  402a33:	8d 45 fc             	lea    eax,[ebp-0x4]
  402a36:	57                   	push   edi
  402a37:	50                   	push   eax
  402a38:	a1 50 3f 42 00       	mov    eax,ds:0x423f50
  402a3d:	0c 08                	or     al,0x8
  402a3f:	33 db                	xor    ebx,ebx
  402a41:	50                   	push   eax
  402a42:	53                   	push   ebx
  402a43:	ff 75 0c             	push   DWORD PTR [ebp+0xc]
  402a46:	ff 75 08             	push   DWORD PTR [ebp+0x8]
  402a49:	ff 15 10 70 40 00    	call   DWORD PTR ds:0x407010
  402a4f:	3b c3                	cmp    eax,ebx
  402a51:	75 69                	jne    0x402abc
  402a53:	8b 35 08 70 40 00    	mov    esi,DWORD PTR ds:0x407008
  402a59:	bf 05 01 00 00       	mov    edi,0x105
  402a5e:	eb 19                	jmp    0x402a79
  402a60:	39 5d 10             	cmp    DWORD PTR [ebp+0x10],ebx
  402a63:	75 4b                	jne    0x402ab0
  402a65:	8d 85 f4 fe ff ff    	lea    eax,[ebp-0x10c]
  402a6b:	53                   	push   ebx
  402a6c:	50                   	push   eax
  402a6d:	ff 75 fc             	push   DWORD PTR [ebp-0x4]
  402a70:	e8 b3 ff ff ff       	call   0x402a28
  402a75:	85 c0                	test   eax,eax
  402a77:	75 12                	jne    0x402a8b
  402a79:	8d 85 f4 fe ff ff    	lea    eax,[ebp-0x10c]
  402a7f:	57                   	push   edi
  402a80:	50                   	push   eax
  402a81:	53                   	push   ebx
  402a82:	ff 75 fc             	push   DWORD PTR [ebp-0x4]
  402a85:	ff d6                	call   esi
  402a87:	85 c0                	test   eax,eax
  402a89:	74 d5                	je     0x402a60
  402a8b:	ff 75 fc             	push   DWORD PTR [ebp-0x4]
  402a8e:	ff 15 1c 70 40 00    	call   DWORD PTR ds:0x40701c
  402a94:	6a 02                	push   0x2
  402a96:	e8 08 33 00 00       	call   0x405da3
  402a9b:	3b c3                	cmp    eax,ebx
  402a9d:	74 24                	je     0x402ac3
  402a9f:	53                   	push   ebx
  402aa0:	ff 35 50 3f 42 00    	push   DWORD PTR ds:0x423f50
  402aa6:	ff 75 0c             	push   DWORD PTR [ebp+0xc]
  402aa9:	ff 75 08             	push   DWORD PTR [ebp+0x8]
  402aac:	ff d0                	call   eax
  402aae:	eb 0c                	jmp    0x402abc
  402ab0:	ff 75 fc             	push   DWORD PTR [ebp-0x4]
  402ab3:	ff 15 1c 70 40 00    	call   DWORD PTR ds:0x40701c
  402ab9:	33 c0                	xor    eax,eax
  402abb:	40                   	inc    eax
  402abc:	5f                   	pop    edi
  402abd:	5e                   	pop    esi
  402abe:	5b                   	pop    ebx
  402abf:	c9                   	leave  
  402ac0:	c2 0c 00             	ret    0xc
  402ac3:	39 1d 50 3f 42 00    	cmp    DWORD PTR ds:0x423f50,ebx
  402ac9:	75 ee                	jne    0x402ab9
  402acb:	ff 75 0c             	push   DWORD PTR [ebp+0xc]
  402ace:	ff 75 08             	push   DWORD PTR [ebp+0x8]
  402ad1:	ff 15 14 70 40 00    	call   DWORD PTR ds:0x407014
  402ad7:	85 c0                	test   eax,eax
  402ad9:	75 de                	jne    0x402ab9
  402adb:	eb df                	jmp    0x402abc
  402add:	8b 44 24 04          	mov    eax,DWORD PTR [esp+0x4]
  402ae1:	85 c0                	test   eax,eax
  402ae3:	75 0a                	jne    0x402aef
  402ae5:	a1 24 3f 42 00       	mov    eax,ds:0x423f24
  402aea:	05 01 00 00 80       	add    eax,0x80000001
  402aef:	c2 04 00             	ret    0x4
  402af2:	55                   	push   ebp
  402af3:	8b ec                	mov    ebp,esp
  402af5:	8d 45 08             	lea    eax,[ebp+0x8]
  402af8:	50                   	push   eax
  402af9:	a1 50 3f 42 00       	mov    eax,ds:0x423f50
  402afe:	0b 45 08             	or     eax,DWORD PTR [ebp+0x8]
  402b01:	50                   	push   eax
  402b02:	6a 00                	push   0x0
  402b04:	6a 22                	push   0x22
  402b06:	e8 dd fe ff ff       	call   0x4029e8
  402b0b:	50                   	push   eax
  402b0c:	a1 60 9b 40 00       	mov    eax,ds:0x409b60
  402b11:	ff 70 04             	push   DWORD PTR [eax+0x4]
  402b14:	e8 c4 ff ff ff       	call   0x402add
  402b19:	50                   	push   eax
  402b1a:	ff 15 10 70 40 00    	call   DWORD PTR ds:0x407010
  402b20:	f7 d8                	neg    eax
  402b22:	1b c0                	sbb    eax,eax
  402b24:	f7 d0                	not    eax
  402b26:	23 45 08             	and    eax,DWORD PTR [ebp+0x8]
  402b29:	5d                   	pop    ebp
  402b2a:	c2 04 00             	ret    0x4
  402b2d:	55                   	push   ebp
  402b2e:	8b ec                	mov    ebp,esp
  402b30:	83 ec 40             	sub    esp,0x40
  402b33:	81 7d 0c 10 01 00 00 	cmp    DWORD PTR [ebp+0xc],0x110
  402b3a:	75 19                	jne    0x402b55
  402b3c:	6a 00                	push   0x0
  402b3e:	68 fa 00 00 00       	push   0xfa
  402b43:	6a 01                	push   0x1
  402b45:	ff 75 08             	push   DWORD PTR [ebp+0x8]
  402b48:	ff 15 f0 71 40 00    	call   DWORD PTR ds:0x4071f0
  402b4e:	c7 45 0c 13 01 00 00 	mov    DWORD PTR [ebp+0xc],0x113
  402b55:	81 7d 0c 13 01 00 00 	cmp    DWORD PTR [ebp+0xc],0x113
  402b5c:	75 45                	jne    0x402ba3
  402b5e:	e8 46 00 00 00       	call   0x402ba9
  402b63:	83 3d b0 3e 42 00 00 	cmp    DWORD PTR ds:0x423eb0,0x0
  402b6a:	b9 34 90 40 00       	mov    ecx,0x409034
  402b6f:	75 05                	jne    0x402b76
  402b71:	b9 18 90 40 00       	mov    ecx,0x409018
  402b76:	50                   	push   eax
  402b77:	8d 45 c0             	lea    eax,[ebp-0x40]
  402b7a:	51                   	push   ecx
  402b7b:	50                   	push   eax
  402b7c:	ff 15 00 72 40 00    	call   DWORD PTR ds:0x407200
  402b82:	83 c4 0c             	add    esp,0xc
  402b85:	8d 45 c0             	lea    eax,[ebp-0x40]
  402b88:	50                   	push   eax
  402b89:	ff 75 08             	push   DWORD PTR [ebp+0x8]
  402b8c:	ff 15 f4 71 40 00    	call   DWORD PTR ds:0x4071f4
  402b92:	8d 45 c0             	lea    eax,[ebp-0x40]
  402b95:	50                   	push   eax
  402b96:	68 06 04 00 00       	push   0x406
  402b9b:	ff 75 08             	push   DWORD PTR [ebp+0x8]
  402b9e:	e8 81 27 00 00       	call   0x405324
  402ba3:	33 c0                	xor    eax,eax
  402ba5:	c9                   	leave  
  402ba6:	c2 10 00             	ret    0x10
  402ba9:	8b 0d 38 70 41 00    	mov    ecx,DWORD PTR ds:0x417038
  402baf:	a1 48 f0 41 00       	mov    eax,ds:0x41f048
  402bb4:	3b c8                	cmp    ecx,eax
  402bb6:	7c 02                	jl     0x402bba
  402bb8:	8b c8                	mov    ecx,eax
  402bba:	50                   	push   eax
  402bbb:	6a 64                	push   0x64
  402bbd:	51                   	push   ecx
  402bbe:	ff 15 30 71 40 00    	call   DWORD PTR ds:0x407130
  402bc4:	c3                   	ret    
  402bc5:	55                   	push   ebp
  402bc6:	8b ec                	mov    ebp,esp
  402bc8:	83 ec 40             	sub    esp,0x40
  402bcb:	56                   	push   esi
  402bcc:	33 f6                	xor    esi,esi
  402bce:	39 75 08             	cmp    DWORD PTR [ebp+0x8],esi
  402bd1:	74 18                	je     0x402beb
  402bd3:	a1 44 70 41 00       	mov    eax,ds:0x417044
  402bd8:	3b c6                	cmp    eax,esi
  402bda:	74 07                	je     0x402be3
  402bdc:	50                   	push   eax
  402bdd:	ff 15 e8 71 40 00    	call   DWORD PTR ds:0x4071e8
  402be3:	89 35 44 70 41 00    	mov    DWORD PTR ds:0x417044,esi
  402be9:	eb 6d                	jmp    0x402c58
  402beb:	39 35 44 70 41 00    	cmp    DWORD PTR ds:0x417044,esi
  402bf1:	74 08                	je     0x402bfb
  402bf3:	56                   	push   esi
  402bf4:	e8 e3 31 00 00       	call   0x405ddc
  402bf9:	eb 5d                	jmp    0x402c58
  402bfb:	ff 15 8c 70 40 00    	call   DWORD PTR ds:0x40708c
  402c01:	3b 05 ac 3e 42 00    	cmp    eax,DWORD PTR ds:0x423eac
  402c07:	76 4f                	jbe    0x402c58
  402c09:	39 35 a8 3e 42 00    	cmp    DWORD PTR ds:0x423ea8,esi
  402c0f:	74 2d                	je     0x402c3e
  402c11:	f6 05 54 3f 42 00 01 	test   BYTE PTR ds:0x423f54,0x1
  402c18:	74 3e                	je     0x402c58
  402c1a:	e8 8a ff ff ff       	call   0x402ba9
  402c1f:	50                   	push   eax
  402c20:	8d 45 c0             	lea    eax,[ebp-0x40]
  402c23:	68 4c 90 40 00       	push   0x40904c
  402c28:	50                   	push   eax
  402c29:	ff 15 00 72 40 00    	call   DWORD PTR ds:0x407200
  402c2f:	83 c4 0c             	add    esp,0xc
  402c32:	8d 45 c0             	lea    eax,[ebp-0x40]
  402c35:	50                   	push   eax
  402c36:	56                   	push   esi
  402c37:	e8 e7 21 00 00       	call   0x404e23
  402c3c:	eb 1a                	jmp    0x402c58
  402c3e:	56                   	push   esi
  402c3f:	68 2d 2b 40 00       	push   0x402b2d
  402c44:	56                   	push   esi
  402c45:	6a 6f                	push   0x6f
  402c47:	ff 35 a0 3e 42 00    	push   DWORD PTR ds:0x423ea0
  402c4d:	ff 15 ec 71 40 00    	call   DWORD PTR ds:0x4071ec
  402c53:	a3 44 70 41 00       	mov    ds:0x417044,eax
  402c58:	5e                   	pop    esi
  402c59:	c9                   	leave  
  402c5a:	c3                   	ret    
  402c5b:	55                   	push   ebp
  402c5c:	8b ec                	mov    ebp,esp
  402c5e:	81 ec 28 01 00 00    	sub    esp,0x128
  402c64:	53                   	push   ebx
  402c65:	56                   	push   esi
  402c66:	33 db                	xor    ebx,ebx
  402c68:	57                   	push   edi
  402c69:	89 5d fc             	mov    DWORD PTR [ebp-0x4],ebx
  402c6c:	89 5d f8             	mov    DWORD PTR [ebp-0x8],ebx
  402c6f:	ff 15 8c 70 40 00    	call   DWORD PTR ds:0x40708c
  402c75:	be 00 ac 42 00       	mov    esi,0x42ac00
  402c7a:	68 00 04 00 00       	push   0x400
  402c7f:	05 e8 03 00 00       	add    eax,0x3e8
  402c84:	56                   	push   esi
  402c85:	53                   	push   ebx
  402c86:	a3 ac 3e 42 00       	mov    ds:0x423eac,eax
  402c8b:	ff 15 98 70 40 00    	call   DWORD PTR ds:0x407098
  402c91:	6a 03                	push   0x3
  402c93:	68 00 00 00 80       	push   0x80000000
  402c98:	56                   	push   esi
  402c99:	e8 be 2a 00 00       	call   0x40575c
  402c9e:	8b f8                	mov    edi,eax
  402ca0:	83 ff ff             	cmp    edi,0xffffffff
  402ca3:	89 3d 10 90 40 00    	mov    DWORD PTR ds:0x409010,edi
  402ca9:	75 0a                	jne    0x402cb5
  402cab:	b8 6c 91 40 00       	mov    eax,0x40916c
  402cb0:	e9 45 02 00 00       	jmp    0x402efa
  402cb5:	56                   	push   esi
  402cb6:	be 00 9c 42 00       	mov    esi,0x429c00
  402cbb:	56                   	push   esi
  402cbc:	e8 c4 2d 00 00       	call   0x405a85
  402cc1:	56                   	push   esi
  402cc2:	e8 f8 28 00 00       	call   0x4055bf
  402cc7:	50                   	push   eax
  402cc8:	68 00 b0 42 00       	push   0x42b000
  402ccd:	e8 b3 2d 00 00       	call   0x405a85
  402cd2:	53                   	push   ebx
  402cd3:	57                   	push   edi
  402cd4:	ff 15 94 70 40 00    	call   DWORD PTR ds:0x407094
  402cda:	3b c3                	cmp    eax,ebx
  402cdc:	a3 48 f0 41 00       	mov    ds:0x41f048,eax
  402ce1:	8b f0                	mov    esi,eax
  402ce3:	0f 8e ea 00 00 00    	jle    0x402dd3
  402ce9:	a1 b4 3e 42 00       	mov    eax,ds:0x423eb4
  402cee:	8b fe                	mov    edi,esi
  402cf0:	f7 d8                	neg    eax
  402cf2:	1b c0                	sbb    eax,eax
  402cf4:	25 00 7e 00 00       	and    eax,0x7e00
  402cf9:	05 00 02 00 00       	add    eax,0x200
  402cfe:	3b f0                	cmp    esi,eax
  402d00:	7c 02                	jl     0x402d04
  402d02:	8b f8                	mov    edi,eax
  402d04:	57                   	push   edi
  402d05:	68 48 70 41 00       	push   0x417048
  402d0a:	e8 99 04 00 00       	call   0x4031a8
  402d0f:	85 c0                	test   eax,eax
  402d11:	0f 84 57 01 00 00    	je     0x402e6e
  402d17:	39 1d b4 3e 42 00    	cmp    DWORD PTR ds:0x423eb4,ebx
  402d1d:	75 7e                	jne    0x402d9d
  402d1f:	6a 1c                	push   0x1c
  402d21:	8d 45 dc             	lea    eax,[ebp-0x24]
  402d24:	68 48 70 41 00       	push   0x417048
  402d29:	50                   	push   eax
  402d2a:	e8 ee 29 00 00       	call   0x40571d
  402d2f:	8b 45 dc             	mov    eax,DWORD PTR [ebp-0x24]
  402d32:	a9 f0 ff ff ff       	test   eax,0xfffffff0
  402d37:	75 71                	jne    0x402daa
  402d39:	81 7d e0 ef be ad de 	cmp    DWORD PTR [ebp-0x20],0xdeadbeef
  402d40:	75 68                	jne    0x402daa
  402d42:	81 7d ec 49 6e 73 74 	cmp    DWORD PTR [ebp-0x14],0x74736e49
  402d49:	75 5f                	jne    0x402daa
  402d4b:	81 7d e8 73 6f 66 74 	cmp    DWORD PTR [ebp-0x18],0x74666f73
  402d52:	75 56                	jne    0x402daa
  402d54:	81 7d e4 4e 75 6c 6c 	cmp    DWORD PTR [ebp-0x1c],0x6c6c754e
  402d5b:	75 4d                	jne    0x402daa
  402d5d:	09 45 08             	or     DWORD PTR [ebp+0x8],eax
  402d60:	8b 45 08             	mov    eax,DWORD PTR [ebp+0x8]
  402d63:	8b 0d 38 70 41 00    	mov    ecx,DWORD PTR ds:0x417038
  402d69:	83 e0 02             	and    eax,0x2
  402d6c:	09 05 40 3f 42 00    	or     DWORD PTR ds:0x423f40,eax
  402d72:	8b 45 f4             	mov    eax,DWORD PTR [ebp-0xc]
  402d75:	3b c6                	cmp    eax,esi
  402d77:	89 0d b4 3e 42 00    	mov    DWORD PTR ds:0x423eb4,ecx
  402d7d:	0f 8f 2f 01 00 00    	jg     0x402eb2
  402d83:	f6 45 08 08          	test   BYTE PTR [ebp+0x8],0x8
  402d87:	75 06                	jne    0x402d8f
  402d89:	f6 45 08 04          	test   BYTE PTR [ebp+0x8],0x4
  402d8d:	75 44                	jne    0x402dd3
  402d8f:	ff 45 f8             	inc    DWORD PTR [ebp-0x8]
  402d92:	8d 70 fc             	lea    esi,[eax-0x4]
  402d95:	3b fe                	cmp    edi,esi
  402d97:	76 11                	jbe    0x402daa
  402d99:	8b fe                	mov    edi,esi
  402d9b:	eb 0d                	jmp    0x402daa
  402d9d:	f6 45 08 02          	test   BYTE PTR [ebp+0x8],0x2
  402da1:	75 07                	jne    0x402daa
  402da3:	53                   	push   ebx
  402da4:	e8 1c fe ff ff       	call   0x402bc5
  402da9:	59                   	pop    ecx
  402daa:	3b 35 48 f0 41 00    	cmp    esi,DWORD PTR ds:0x41f048
  402db0:	7d 11                	jge    0x402dc3
  402db2:	57                   	push   edi
  402db3:	68 48 70 41 00       	push   0x417048
  402db8:	ff 75 fc             	push   DWORD PTR [ebp-0x4]
  402dbb:	e8 4f 30 00 00       	call   0x405e0f
  402dc0:	89 45 fc             	mov    DWORD PTR [ebp-0x4],eax
  402dc3:	01 3d 38 70 41 00    	add    DWORD PTR ds:0x417038,edi
  402dc9:	2b f7                	sub    esi,edi
  402dcb:	3b f3                	cmp    esi,ebx
  402dcd:	0f 8f 16 ff ff ff    	jg     0x402ce9
  402dd3:	6a 01                	push   0x1
  402dd5:	e8 eb fd ff ff       	call   0x402bc5
  402dda:	39 1d b4 3e 42 00    	cmp    DWORD PTR ds:0x423eb4,ebx
  402de0:	59                   	pop    ecx
  402de1:	0f 84 cb 00 00 00    	je     0x402eb2
  402de7:	39 5d f8             	cmp    DWORD PTR [ebp-0x8],ebx
  402dea:	74 2a                	je     0x402e16
  402dec:	ff 35 38 70 41 00    	push   DWORD PTR ds:0x417038
  402df2:	e8 e3 03 00 00       	call   0x4031da
  402df7:	8d 45 08             	lea    eax,[ebp+0x8]
  402dfa:	6a 04                	push   0x4
  402dfc:	50                   	push   eax
  402dfd:	e8 a6 03 00 00       	call   0x4031a8
  402e02:	85 c0                	test   eax,eax
  402e04:	0f 84 a8 00 00 00    	je     0x402eb2
  402e0a:	8b 45 fc             	mov    eax,DWORD PTR [ebp-0x4]
  402e0d:	3b 45 08             	cmp    eax,DWORD PTR [ebp+0x8]
  402e10:	0f 85 9c 00 00 00    	jne    0x402eb2
  402e16:	ff 75 f0             	push   DWORD PTR [ebp-0x10]
  402e19:	6a 40                	push   0x40
  402e1b:	ff 15 00 71 40 00    	call   DWORD PTR ds:0x407100
  402e21:	b9 b0 af 40 00       	mov    ecx,0x40afb0
  402e26:	8b f0                	mov    esi,eax
  402e28:	e8 50 30 00 00       	call   0x405e7d
  402e2d:	8d 85 d8 fe ff ff    	lea    eax,[ebp-0x128]
  402e33:	68 00 a4 42 00       	push   0x42a400
  402e38:	50                   	push   eax
  402e39:	e8 4d 29 00 00       	call   0x40578b
  402e3e:	53                   	push   ebx
  402e3f:	68 00 01 00 04       	push   0x4000100
  402e44:	6a 02                	push   0x2
  402e46:	53                   	push   ebx
  402e47:	53                   	push   ebx
  402e48:	8d 85 d8 fe ff ff    	lea    eax,[ebp-0x128]
  402e4e:	68 00 00 00 c0       	push   0xc0000000
  402e53:	50                   	push   eax
  402e54:	ff 15 90 70 40 00    	call   DWORD PTR ds:0x407090
  402e5a:	83 f8 ff             	cmp    eax,0xffffffff
  402e5d:	a3 14 90 40 00       	mov    ds:0x409014,eax
  402e62:	75 14                	jne    0x402e78
  402e64:	b8 28 91 40 00       	mov    eax,0x409128
  402e69:	e9 8c 00 00 00       	jmp    0x402efa
  402e6e:	6a 01                	push   0x1
  402e70:	e8 50 fd ff ff       	call   0x402bc5
  402e75:	59                   	pop    ecx
  402e76:	eb 3a                	jmp    0x402eb2
  402e78:	a1 b4 3e 42 00       	mov    eax,ds:0x423eb4
  402e7d:	83 c0 1c             	add    eax,0x1c
  402e80:	50                   	push   eax
  402e81:	e8 54 03 00 00       	call   0x4031da
  402e86:	8b 4d dc             	mov    ecx,DWORD PTR [ebp-0x24]
  402e89:	ff 75 f0             	push   DWORD PTR [ebp-0x10]
  402e8c:	f7 d1                	not    ecx
  402e8e:	83 e1 04             	and    ecx,0x4
  402e91:	a3 4c f0 41 00       	mov    ds:0x41f04c,eax
  402e96:	2b c1                	sub    eax,ecx
  402e98:	8b 4d f4             	mov    ecx,DWORD PTR [ebp-0xc]
  402e9b:	56                   	push   esi
  402e9c:	53                   	push   ebx
  402e9d:	8d 44 08 e4          	lea    eax,[eax+ecx*1-0x1c]
  402ea1:	6a ff                	push   0xffffffff
  402ea3:	a3 40 70 41 00       	mov    ds:0x417040,eax
  402ea8:	e8 54 00 00 00       	call   0x402f01
  402ead:	3b 45 f0             	cmp    eax,DWORD PTR [ebp-0x10]
  402eb0:	74 07                	je     0x402eb9
  402eb2:	b8 58 90 40 00       	mov    eax,0x409058
  402eb7:	eb 41                	jmp    0x402efa
  402eb9:	f6 45 dc 01          	test   BYTE PTR [ebp-0x24],0x1
  402ebd:	89 35 b0 3e 42 00    	mov    DWORD PTR ds:0x423eb0,esi
  402ec3:	8b 06                	mov    eax,DWORD PTR [esi]
  402ec5:	a3 b8 3e 42 00       	mov    ds:0x423eb8,eax
  402eca:	74 06                	je     0x402ed2
  402ecc:	ff 05 bc 3e 42 00    	inc    DWORD PTR ds:0x423ebc
  402ed2:	6a 08                	push   0x8
  402ed4:	8d 46 44             	lea    eax,[esi+0x44]
  402ed7:	59                   	pop    ecx
  402ed8:	83 e8 08             	sub    eax,0x8
  402edb:	01 30                	add    DWORD PTR [eax],esi
  402edd:	49                   	dec    ecx
  402ede:	75 f8                	jne    0x402ed8
  402ee0:	a1 3c 70 41 00       	mov    eax,ds:0x41703c
  402ee5:	6a 40                	push   0x40
  402ee7:	89 46 3c             	mov    DWORD PTR [esi+0x3c],eax
  402eea:	83 c6 04             	add    esi,0x4
  402eed:	56                   	push   esi
  402eee:	68 c0 3e 42 00       	push   0x423ec0
  402ef3:	e8 25 28 00 00       	call   0x40571d
  402ef8:	33 c0                	xor    eax,eax
  402efa:	5f                   	pop    edi
  402efb:	5e                   	pop    esi
  402efc:	5b                   	pop    ebx
  402efd:	c9                   	leave  
  402efe:	c2 04 00             	ret    0x4
  402f01:	55                   	push   ebp
  402f02:	8b ec                	mov    ebp,esp
  402f04:	51                   	push   ecx
  402f05:	51                   	push   ecx
  402f06:	8b 45 08             	mov    eax,DWORD PTR [ebp+0x8]
  402f09:	53                   	push   ebx
  402f0a:	56                   	push   esi
  402f0b:	57                   	push   edi
  402f0c:	33 ff                	xor    edi,edi
  402f0e:	3b c7                	cmp    eax,edi
  402f10:	7c 1c                	jl     0x402f2e
  402f12:	8b 0d f8 3e 42 00    	mov    ecx,DWORD PTR ds:0x423ef8
  402f18:	57                   	push   edi
  402f19:	03 c1                	add    eax,ecx
  402f1b:	57                   	push   edi
  402f1c:	50                   	push   eax
  402f1d:	a3 3c 70 41 00       	mov    ds:0x41703c,eax
  402f22:	ff 35 14 90 40 00    	push   DWORD PTR ds:0x409014
  402f28:	ff 15 34 71 40 00    	call   DWORD PTR ds:0x407134
  402f2e:	6a 04                	push   0x4
  402f30:	5e                   	pop    esi
  402f31:	56                   	push   esi
  402f32:	e8 f5 00 00 00       	call   0x40302c
  402f37:	3b c7                	cmp    eax,edi
  402f39:	0f 8c e6 00 00 00    	jl     0x403025
  402f3f:	8d 45 fc             	lea    eax,[ebp-0x4]
  402f42:	8b 1d 2c 71 40 00    	mov    ebx,DWORD PTR ds:0x40712c
  402f48:	57                   	push   edi
  402f49:	50                   	push   eax
  402f4a:	8d 45 08             	lea    eax,[ebp+0x8]
  402f4d:	56                   	push   esi
  402f4e:	50                   	push   eax
  402f4f:	ff 35 14 90 40 00    	push   DWORD PTR ds:0x409014
  402f55:	ff d3                	call   ebx
  402f57:	85 c0                	test   eax,eax
  402f59:	0f 84 c3 00 00 00    	je     0x403022
  402f5f:	39 75 fc             	cmp    DWORD PTR [ebp-0x4],esi
  402f62:	0f 85 ba 00 00 00    	jne    0x403022
  402f68:	ff 75 08             	push   DWORD PTR [ebp+0x8]
  402f6b:	01 35 3c 70 41 00    	add    DWORD PTR ds:0x41703c,esi
  402f71:	e8 b6 00 00 00       	call   0x40302c
  402f76:	3b c7                	cmp    eax,edi
  402f78:	89 45 f8             	mov    DWORD PTR [ebp-0x8],eax
  402f7b:	0f 8c a4 00 00 00    	jl     0x403025
  402f81:	39 7d 10             	cmp    DWORD PTR [ebp+0x10],edi
  402f84:	75 6b                	jne    0x402ff1
  402f86:	39 7d 08             	cmp    DWORD PTR [ebp+0x8],edi
  402f89:	0f 8e 8e 00 00 00    	jle    0x40301d
  402f8f:	be 38 30 41 00       	mov    esi,0x413038
  402f94:	bf 00 40 00 00       	mov    edi,0x4000
  402f99:	39 7d 08             	cmp    DWORD PTR [ebp+0x8],edi
  402f9c:	7d 03                	jge    0x402fa1
  402f9e:	8b 7d 08             	mov    edi,DWORD PTR [ebp+0x8]
  402fa1:	8d 45 fc             	lea    eax,[ebp-0x4]
  402fa4:	6a 00                	push   0x0
  402fa6:	50                   	push   eax
  402fa7:	57                   	push   edi
  402fa8:	56                   	push   esi
  402fa9:	ff 35 14 90 40 00    	push   DWORD PTR ds:0x409014
  402faf:	ff d3                	call   ebx
  402fb1:	85 c0                	test   eax,eax
  402fb3:	74 6d                	je     0x403022
  402fb5:	3b 7d fc             	cmp    edi,DWORD PTR [ebp-0x4]
  402fb8:	75 68                	jne    0x403022
  402fba:	8d 45 14             	lea    eax,[ebp+0x14]
  402fbd:	6a 00                	push   0x0
  402fbf:	50                   	push   eax
  402fc0:	ff 75 fc             	push   DWORD PTR [ebp-0x4]
  402fc3:	56                   	push   esi
  402fc4:	ff 75 0c             	push   DWORD PTR [ebp+0xc]
  402fc7:	ff 15 28 71 40 00    	call   DWORD PTR ds:0x407128
  402fcd:	85 c0                	test   eax,eax
  402fcf:	74 1c                	je     0x402fed
  402fd1:	39 7d 14             	cmp    DWORD PTR [ebp+0x14],edi
  402fd4:	75 17                	jne    0x402fed
  402fd6:	8b 45 fc             	mov    eax,DWORD PTR [ebp-0x4]
  402fd9:	01 45 f8             	add    DWORD PTR [ebp-0x8],eax
  402fdc:	29 45 08             	sub    DWORD PTR [ebp+0x8],eax
  402fdf:	01 05 3c 70 41 00    	add    DWORD PTR ds:0x41703c,eax
  402fe5:	83 7d 08 00          	cmp    DWORD PTR [ebp+0x8],0x0
  402fe9:	7f a9                	jg     0x402f94
  402feb:	eb 30                	jmp    0x40301d
  402fed:	6a fe                	push   0xfffffffe
  402fef:	eb 33                	jmp    0x403024
  402ff1:	8b 45 08             	mov    eax,DWORD PTR [ebp+0x8]
  402ff4:	3b 45 14             	cmp    eax,DWORD PTR [ebp+0x14]
  402ff7:	7c 03                	jl     0x402ffc
  402ff9:	8b 45 14             	mov    eax,DWORD PTR [ebp+0x14]
  402ffc:	8d 4d fc             	lea    ecx,[ebp-0x4]
  402fff:	57                   	push   edi
  403000:	51                   	push   ecx
  403001:	50                   	push   eax
  403002:	ff 75 10             	push   DWORD PTR [ebp+0x10]
  403005:	ff 35 14 90 40 00    	push   DWORD PTR ds:0x409014
  40300b:	ff d3                	call   ebx
  40300d:	85 c0                	test   eax,eax
  40300f:	74 11                	je     0x403022
  403011:	8b 45 fc             	mov    eax,DWORD PTR [ebp-0x4]
  403014:	01 05 3c 70 41 00    	add    DWORD PTR ds:0x41703c,eax
  40301a:	89 45 f8             	mov    DWORD PTR [ebp-0x8],eax
  40301d:	8b 45 f8             	mov    eax,DWORD PTR [ebp-0x8]
  403020:	eb 03                	jmp    0x403025
  403022:	6a fd                	push   0xfffffffd
  403024:	58                   	pop    eax
  403025:	5f                   	pop    edi
  403026:	5e                   	pop    esi
  403027:	5b                   	pop    ebx
  403028:	c9                   	leave  
  403029:	c2 10 00             	ret    0x10
  40302c:	51                   	push   ecx
  40302d:	53                   	push   ebx
  40302e:	55                   	push   ebp
  40302f:	56                   	push   esi
  403030:	8b 35 3c 70 41 00    	mov    esi,DWORD PTR ds:0x41703c
  403036:	2b 35 a8 af 40 00    	sub    esi,DWORD PTR ds:0x40afa8
  40303c:	57                   	push   edi
  40303d:	03 74 24 18          	add    esi,DWORD PTR [esp+0x18]
  403041:	ff 15 8c 70 40 00    	call   DWORD PTR ds:0x40708c
  403047:	33 db                	xor    ebx,ebx
  403049:	05 f4 01 00 00       	add    eax,0x1f4
  40304e:	3b f3                	cmp    esi,ebx
  403050:	a3 ac 3e 42 00       	mov    ds:0x423eac,eax
  403055:	0f 8e 3b 01 00 00    	jle    0x403196
  40305b:	ff 35 4c f0 41 00    	push   DWORD PTR ds:0x41f04c
  403061:	e8 74 01 00 00       	call   0x4031da
  403066:	53                   	push   ebx
  403067:	53                   	push   ebx
  403068:	ff 35 a8 af 40 00    	push   DWORD PTR ds:0x40afa8
  40306e:	ff 35 14 90 40 00    	push   DWORD PTR ds:0x409014
  403074:	ff 15 34 71 40 00    	call   DWORD PTR ds:0x407134
  40307a:	89 35 48 f0 41 00    	mov    DWORD PTR ds:0x41f048,esi
  403080:	89 1d 38 70 41 00    	mov    DWORD PTR ds:0x417038,ebx
  403086:	bd 38 b0 40 00       	mov    ebp,0x40b038
  40308b:	a1 40 70 41 00       	mov    eax,ds:0x417040
  403090:	bf 00 40 00 00       	mov    edi,0x4000
  403095:	2b 05 4c f0 41 00    	sub    eax,DWORD PTR ds:0x41f04c
  40309b:	3b c7                	cmp    eax,edi
  40309d:	7f 02                	jg     0x4030a1
  40309f:	8b f8                	mov    edi,eax
  4030a1:	be 38 30 41 00       	mov    esi,0x413038
  4030a6:	57                   	push   edi
  4030a7:	56                   	push   esi
  4030a8:	e8 fb 00 00 00       	call   0x4031a8
  4030ad:	85 c0                	test   eax,eax
  4030af:	0f 84 d3 00 00 00    	je     0x403188
  4030b5:	01 3d 4c f0 41 00    	add    DWORD PTR ds:0x41f04c,edi
  4030bb:	89 35 c8 af 40 00    	mov    DWORD PTR ds:0x40afc8,esi
  4030c1:	89 3d cc af 40 00    	mov    DWORD PTR ds:0x40afcc,edi
  4030c7:	39 1d b0 3e 42 00    	cmp    DWORD PTR ds:0x423eb0,ebx
  4030cd:	74 29                	je     0x4030f8
  4030cf:	39 1d 40 3f 42 00    	cmp    DWORD PTR ds:0x423f40,ebx
  4030d5:	75 21                	jne    0x4030f8
  4030d7:	a1 48 f0 41 00       	mov    eax,ds:0x41f048
  4030dc:	53                   	push   ebx
  4030dd:	2b 05 3c 70 41 00    	sub    eax,DWORD PTR ds:0x41703c
  4030e3:	2b 44 24 1c          	sub    eax,DWORD PTR [esp+0x1c]
  4030e7:	03 05 a8 af 40 00    	add    eax,DWORD PTR ds:0x40afa8
  4030ed:	a3 38 70 41 00       	mov    ds:0x417038,eax
  4030f2:	e8 ce fa ff ff       	call   0x402bc5
  4030f7:	59                   	pop    ecx
  4030f8:	b9 b0 af 40 00       	mov    ecx,0x40afb0
  4030fd:	89 2d d0 af 40 00    	mov    DWORD PTR ds:0x40afd0,ebp
  403103:	c7 05 d4 af 40 00 00 	mov    DWORD PTR ds:0x40afd4,0x8000
  40310a:	80 00 00 
  40310d:	e8 8b 2d 00 00       	call   0x405e9d
  403112:	85 c0                	test   eax,eax
  403114:	7c 7b                	jl     0x403191
  403116:	8b 35 d0 af 40 00    	mov    esi,DWORD PTR ds:0x40afd0
  40311c:	2b f5                	sub    esi,ebp
  40311e:	74 32                	je     0x403152
  403120:	8d 44 24 10          	lea    eax,[esp+0x10]
  403124:	53                   	push   ebx
  403125:	50                   	push   eax
  403126:	56                   	push   esi
  403127:	55                   	push   ebp
  403128:	ff 35 14 90 40 00    	push   DWORD PTR ds:0x409014
  40312e:	ff 15 28 71 40 00    	call   DWORD PTR ds:0x407128
  403134:	85 c0                	test   eax,eax
  403136:	74 55                	je     0x40318d
  403138:	3b 74 24 10          	cmp    esi,DWORD PTR [esp+0x10]
  40313c:	75 4f                	jne    0x40318d
  40313e:	01 35 a8 af 40 00    	add    DWORD PTR ds:0x40afa8,esi
  403144:	39 1d cc af 40 00    	cmp    DWORD PTR ds:0x40afcc,ebx
  40314a:	0f 85 77 ff ff ff    	jne    0x4030c7
  403150:	eb 0c                	jmp    0x40315e
  403152:	39 1d cc af 40 00    	cmp    DWORD PTR ds:0x40afcc,ebx
  403158:	75 37                	jne    0x403191
  40315a:	3b fb                	cmp    edi,ebx
  40315c:	74 33                	je     0x403191
  40315e:	a1 3c 70 41 00       	mov    eax,ds:0x41703c
  403163:	8b c8                	mov    ecx,eax
  403165:	2b 0d a8 af 40 00    	sub    ecx,DWORD PTR ds:0x40afa8
  40316b:	03 4c 24 18          	add    ecx,DWORD PTR [esp+0x18]
  40316f:	85 c9                	test   ecx,ecx
  403171:	0f 8f 14 ff ff ff    	jg     0x40308b
  403177:	53                   	push   ebx
  403178:	53                   	push   ebx
  403179:	50                   	push   eax
  40317a:	ff 35 14 90 40 00    	push   DWORD PTR ds:0x409014
  403180:	ff 15 34 71 40 00    	call   DWORD PTR ds:0x407134
  403186:	eb 0e                	jmp    0x403196
  403188:	83 c8 ff             	or     eax,0xffffffff
  40318b:	eb 13                	jmp    0x4031a0
  40318d:	6a fe                	push   0xfffffffe
  40318f:	eb 02                	jmp    0x403193
  403191:	6a fd                	push   0xfffffffd
  403193:	58                   	pop    eax
  403194:	eb 0a                	jmp    0x4031a0
  403196:	6a 01                	push   0x1
  403198:	e8 28 fa ff ff       	call   0x402bc5
  40319d:	59                   	pop    ecx
  40319e:	33 c0                	xor    eax,eax
  4031a0:	5f                   	pop    edi
  4031a1:	5e                   	pop    esi
  4031a2:	5d                   	pop    ebp
  4031a3:	5b                   	pop    ebx
  4031a4:	59                   	pop    ecx
  4031a5:	c2 04 00             	ret    0x4
  4031a8:	55                   	push   ebp
  4031a9:	8b ec                	mov    ebp,esp
  4031ab:	56                   	push   esi
  4031ac:	8b 75 0c             	mov    esi,DWORD PTR [ebp+0xc]
  4031af:	8d 45 0c             	lea    eax,[ebp+0xc]
  4031b2:	6a 00                	push   0x0
  4031b4:	50                   	push   eax
  4031b5:	56                   	push   esi
  4031b6:	ff 75 08             	push   DWORD PTR [ebp+0x8]
  4031b9:	ff 35 10 90 40 00    	push   DWORD PTR ds:0x409010
  4031bf:	ff 15 2c 71 40 00    	call   DWORD PTR ds:0x40712c
  4031c5:	85 c0                	test   eax,eax
  4031c7:	74 0a                	je     0x4031d3
  4031c9:	39 75 0c             	cmp    DWORD PTR [ebp+0xc],esi
  4031cc:	75 05                	jne    0x4031d3
  4031ce:	33 c0                	xor    eax,eax
  4031d0:	40                   	inc    eax
  4031d1:	eb 02                	jmp    0x4031d5
  4031d3:	33 c0                	xor    eax,eax
  4031d5:	5e                   	pop    esi
  4031d6:	5d                   	pop    ebp
  4031d7:	c2 08 00             	ret    0x8
  4031da:	6a 00                	push   0x0
  4031dc:	6a 00                	push   0x0
  4031de:	ff 74 24 0c          	push   DWORD PTR [esp+0xc]
  4031e2:	ff 35 10 90 40 00    	push   DWORD PTR ds:0x409010
  4031e8:	ff 15 34 71 40 00    	call   DWORD PTR ds:0x407134
  4031ee:	c2 04 00             	ret    0x4
  4031f1:	56                   	push   esi
  4031f2:	be 00 a4 42 00       	mov    esi,0x42a400
  4031f7:	56                   	push   esi
  4031f8:	e8 e6 2a 00 00       	call   0x405ce3
  4031fd:	56                   	push   esi
  4031fe:	e8 e2 23 00 00       	call   0x4055e5
  403203:	85 c0                	test   eax,eax
  403205:	75 02                	jne    0x403209
  403207:	5e                   	pop    esi
  403208:	c3                   	ret    
  403209:	56                   	push   esi
  40320a:	e8 69 23 00 00       	call   0x405578
  40320f:	6a 00                	push   0x0
  403211:	56                   	push   esi
  403212:	ff 15 80 70 40 00    	call   DWORD PTR ds:0x407080
  403218:	56                   	push   esi
  403219:	68 00 a0 42 00       	push   0x42a000
  40321e:	e8 68 25 00 00       	call   0x40578b
  403223:	5e                   	pop    esi
  403224:	c3                   	ret    
  403225:	81 ec 80 01 00 00    	sub    esp,0x180
  40322b:	53                   	push   ebx
  40322c:	55                   	push   ebp
  40322d:	56                   	push   esi
  40322e:	33 db                	xor    ebx,ebx
  403230:	57                   	push   edi
  403231:	89 5c 24 18          	mov    DWORD PTR [esp+0x18],ebx
  403235:	c7 44 24 10 28 91 40 	mov    DWORD PTR [esp+0x10],0x409128
  40323c:	00 
  40323d:	33 f6                	xor    esi,esi
  40323f:	c6 44 24 14 20       	mov    BYTE PTR [esp+0x14],0x20
  403244:	ff 15 30 70 40 00    	call   DWORD PTR ds:0x407030
  40324a:	68 01 80 00 00       	push   0x8001
  40324f:	ff 15 b4 70 40 00    	call   DWORD PTR ds:0x4070b4
  403255:	53                   	push   ebx
  403256:	ff 15 7c 72 40 00    	call   DWORD PTR ds:0x40727c
  40325c:	6a 08                	push   0x8
  40325e:	a3 58 3f 42 00       	mov    ds:0x423f58,eax
  403263:	e8 3b 2b 00 00       	call   0x405da3
  403268:	a3 a4 3e 42 00       	mov    ds:0x423ea4,eax
  40326d:	53                   	push   ebx
  40326e:	8d 44 24 34          	lea    eax,[esp+0x34]
  403272:	68 60 01 00 00       	push   0x160
  403277:	50                   	push   eax
  403278:	53                   	push   ebx
  403279:	68 50 f4 41 00       	push   0x41f450
  40327e:	ff 15 58 71 40 00    	call   DWORD PTR ds:0x407158
  403284:	68 b0 91 40 00       	push   0x4091b0
  403289:	68 a0 36 42 00       	push   0x4236a0
  40328e:	e8 f2 27 00 00       	call   0x405a85
  403293:	ff 15 b0 70 40 00    	call   DWORD PTR ds:0x4070b0
  403299:	bf 00 90 42 00       	mov    edi,0x429000
  40329e:	50                   	push   eax
  40329f:	57                   	push   edi
  4032a0:	e8 e0 27 00 00       	call   0x405a85
  4032a5:	53                   	push   ebx
  4032a6:	ff 15 0c 71 40 00    	call   DWORD PTR ds:0x40710c
  4032ac:	80 3d 00 90 42 00 22 	cmp    BYTE PTR ds:0x429000,0x22
  4032b3:	a3 a0 3e 42 00       	mov    ds:0x423ea0,eax
  4032b8:	8b c7                	mov    eax,edi
  4032ba:	75 0a                	jne    0x4032c6
  4032bc:	c6 44 24 14 22       	mov    BYTE PTR [esp+0x14],0x22
  4032c1:	b8 01 90 42 00       	mov    eax,0x429001
  4032c6:	ff 74 24 14          	push   DWORD PTR [esp+0x14]
  4032ca:	50                   	push   eax
  4032cb:	e8 d3 22 00 00       	call   0x4055a3
  4032d0:	50                   	push   eax
  4032d1:	ff 15 1c 72 40 00    	call   DWORD PTR ds:0x40721c
  4032d7:	89 44 24 1c          	mov    DWORD PTR [esp+0x1c],eax
  4032db:	eb 63                	jmp    0x403340
  4032dd:	80 f9 20             	cmp    cl,0x20
  4032e0:	75 06                	jne    0x4032e8
  4032e2:	40                   	inc    eax
  4032e3:	80 38 20             	cmp    BYTE PTR [eax],0x20
  4032e6:	74 fa                	je     0x4032e2
  4032e8:	80 38 22             	cmp    BYTE PTR [eax],0x22
  4032eb:	c6 44 24 14 20       	mov    BYTE PTR [esp+0x14],0x20
  4032f0:	75 06                	jne    0x4032f8
  4032f2:	40                   	inc    eax
  4032f3:	c6 44 24 14 22       	mov    BYTE PTR [esp+0x14],0x22
  4032f8:	80 38 2f             	cmp    BYTE PTR [eax],0x2f
  4032fb:	75 33                	jne    0x403330
  4032fd:	40                   	inc    eax
  4032fe:	80 38 53             	cmp    BYTE PTR [eax],0x53
  403301:	75 0e                	jne    0x403311
  403303:	8a 48 01             	mov    cl,BYTE PTR [eax+0x1]
  403306:	80 c9 20             	or     cl,0x20
  403309:	80 f9 20             	cmp    cl,0x20
  40330c:	75 03                	jne    0x403311
  40330e:	83 ce 02             	or     esi,0x2
  403311:	81 38 4e 43 52 43    	cmp    DWORD PTR [eax],0x4352434e
  403317:	75 0e                	jne    0x403327
  403319:	8a 48 04             	mov    cl,BYTE PTR [eax+0x4]
  40331c:	80 c9 20             	or     cl,0x20
  40331f:	80 f9 20             	cmp    cl,0x20
  403322:	75 03                	jne    0x403327
  403324:	83 ce 04             	or     esi,0x4
  403327:	81 78 fe 20 2f 44 3d 	cmp    DWORD PTR [eax-0x2],0x3d442f20
  40332e:	74 18                	je     0x403348
  403330:	ff 74 24 14          	push   DWORD PTR [esp+0x14]
  403334:	50                   	push   eax
  403335:	e8 69 22 00 00       	call   0x4055a3
  40333a:	80 38 22             	cmp    BYTE PTR [eax],0x22
  40333d:	75 01                	jne    0x403340
  40333f:	40                   	inc    eax
  403340:	8a 08                	mov    cl,BYTE PTR [eax]
  403342:	3a cb                	cmp    cl,bl
  403344:	75 97                	jne    0x4032dd
  403346:	eb 11                	jmp    0x403359
  403348:	89 58 fe             	mov    DWORD PTR [eax-0x2],ebx
  40334b:	83 c0 02             	add    eax,0x2
  40334e:	50                   	push   eax
  40334f:	68 00 94 42 00       	push   0x429400
  403354:	e8 2c 27 00 00       	call   0x405a85
  403359:	bd 00 a4 42 00       	mov    ebp,0x42a400
  40335e:	55                   	push   ebp
  40335f:	68 00 04 00 00       	push   0x400
  403364:	ff 15 ac 70 40 00    	call   DWORD PTR ds:0x4070ac
  40336a:	e8 82 fe ff ff       	call   0x4031f1
  40336f:	85 c0                	test   eax,eax
  403371:	75 20                	jne    0x403393
  403373:	68 fb 03 00 00       	push   0x3fb
  403378:	55                   	push   ebp
  403379:	ff 15 48 71 40 00    	call   DWORD PTR ds:0x407148
  40337f:	68 a8 91 40 00       	push   0x4091a8
  403384:	55                   	push   ebp
  403385:	e8 17 27 00 00       	call   0x405aa1
  40338a:	e8 62 fe ff ff       	call   0x4031f1
  40338f:	85 c0                	test   eax,eax
  403391:	74 7e                	je     0x403411
  403393:	68 00 a0 42 00       	push   0x42a000
  403398:	ff 15 44 71 40 00    	call   DWORD PTR ds:0x407144
  40339e:	56                   	push   esi
  40339f:	e8 b7 f8 ff ff       	call   0x402c5b
  4033a4:	3b c3                	cmp    eax,ebx
  4033a6:	89 44 24 10          	mov    DWORD PTR [esp+0x10],eax
  4033aa:	75 65                	jne    0x403411
  4033ac:	39 1d bc 3e 42 00    	cmp    DWORD PTR ds:0x423ebc,ebx
  4033b2:	74 4d                	je     0x403401
  4033b4:	53                   	push   ebx
  4033b5:	57                   	push   edi
  4033b6:	e8 e8 21 00 00       	call   0x4055a3
  4033bb:	8b f0                	mov    esi,eax
  4033bd:	eb 09                	jmp    0x4033c8
  4033bf:	81 3e 20 5f 3f 3d    	cmp    DWORD PTR [esi],0x3d3f5f20
  4033c5:	74 05                	je     0x4033cc
  4033c7:	4e                   	dec    esi
  4033c8:	3b f7                	cmp    esi,edi
  4033ca:	73 f3                	jae    0x4033bf
  4033cc:	3b f7                	cmp    esi,edi
  4033ce:	c7 44 24 10 6c 91 40 	mov    DWORD PTR [esp+0x10],0x40916c
  4033d5:	00 
  4033d6:	72 64                	jb     0x40343c
  4033d8:	88 1e                	mov    BYTE PTR [esi],bl
  4033da:	83 c6 04             	add    esi,0x4
  4033dd:	56                   	push   esi
  4033de:	e8 76 22 00 00       	call   0x405659
  4033e3:	85 c0                	test   eax,eax
  4033e5:	74 2a                	je     0x403411
  4033e7:	56                   	push   esi
  4033e8:	68 00 94 42 00       	push   0x429400
  4033ed:	e8 93 26 00 00       	call   0x405a85
  4033f2:	56                   	push   esi
  4033f3:	68 00 98 42 00       	push   0x429800
  4033f8:	e8 88 26 00 00       	call   0x405a85
  4033fd:	89 5c 24 10          	mov    DWORD PTR [esp+0x10],ebx
  403401:	83 0d 4c 3f 42 00 ff 	or     DWORD PTR ds:0x423f4c,0xffffffff
  403408:	e8 d6 01 00 00       	call   0x4035e3
  40340d:	89 44 24 18          	mov    DWORD PTR [esp+0x18],eax
  403411:	e8 90 01 00 00       	call   0x4035a6
  403416:	ff 15 80 72 40 00    	call   DWORD PTR ds:0x407280
  40341c:	39 5c 24 10          	cmp    DWORD PTR [esp+0x10],ebx
  403420:	0f 84 e5 00 00 00    	je     0x40350b
  403426:	68 10 00 20 00       	push   0x200010
  40342b:	ff 74 24 14          	push   DWORD PTR [esp+0x14]
  40342f:	e8 12 1f 00 00       	call   0x405346
  403434:	6a 02                	push   0x2
  403436:	ff 15 a4 70 40 00    	call   DWORD PTR ds:0x4070a4
  40343c:	68 9c 91 40 00       	push   0x40919c
  403441:	55                   	push   ebp
  403442:	e8 5a 26 00 00       	call   0x405aa1
  403447:	be 00 9c 42 00       	mov    esi,0x429c00
  40344c:	56                   	push   esi
  40344d:	55                   	push   ebp
  40344e:	ff 15 f0 70 40 00    	call   DWORD PTR ds:0x4070f0
  403454:	85 c0                	test   eax,eax
  403456:	74 b9                	je     0x403411
  403458:	53                   	push   ebx
  403459:	55                   	push   ebp
  40345a:	ff 15 80 70 40 00    	call   DWORD PTR ds:0x407080
  403460:	55                   	push   ebp
  403461:	ff 15 74 70 40 00    	call   DWORD PTR ds:0x407074
  403467:	38 1d 00 94 42 00    	cmp    BYTE PTR ds:0x429400,bl
  40346d:	75 0b                	jne    0x40347a
  40346f:	56                   	push   esi
  403470:	68 00 94 42 00       	push   0x429400
  403475:	e8 0b 26 00 00       	call   0x405a85
  40347a:	ff 74 24 1c          	push   DWORD PTR [esp+0x1c]
  40347e:	68 00 40 42 00       	push   0x424000
  403483:	e8 fd 25 00 00       	call   0x405a85
  403488:	6a 1a                	push   0x1a
  40348a:	66 c7 05 00 44 42 00 	mov    WORD PTR ds:0x424400,0x41
  403491:	41 00 
  403493:	5f                   	pop    edi
  403494:	be 50 f0 41 00       	mov    esi,0x41f050
  403499:	a1 b0 3e 42 00       	mov    eax,ds:0x423eb0
  40349e:	ff b0 20 01 00 00    	push   DWORD PTR [eax+0x120]
  4034a4:	56                   	push   esi
  4034a5:	e8 fd 25 00 00       	call   0x405aa7
  4034aa:	56                   	push   esi
  4034ab:	ff 15 44 71 40 00    	call   DWORD PTR ds:0x407144
  4034b1:	39 5c 24 10          	cmp    DWORD PTR [esp+0x10],ebx
  4034b5:	74 3f                	je     0x4034f6
  4034b7:	6a 01                	push   0x1
  4034b9:	56                   	push   esi
  4034ba:	68 00 ac 42 00       	push   0x42ac00
  4034bf:	ff 15 a0 70 40 00    	call   DWORD PTR ds:0x4070a0
  4034c5:	85 c0                	test   eax,eax
  4034c7:	74 2d                	je     0x4034f6
  4034c9:	53                   	push   ebx
  4034ca:	56                   	push   esi
  4034cb:	e8 03 23 00 00       	call   0x4057d3
  4034d0:	a1 b0 3e 42 00       	mov    eax,ds:0x423eb0
  4034d5:	ff b0 24 01 00 00    	push   DWORD PTR [eax+0x124]
  4034db:	56                   	push   esi
  4034dc:	e8 c6 25 00 00       	call   0x405aa7
  4034e1:	56                   	push   esi
  4034e2:	e8 fe 1d 00 00       	call   0x4052e5
  4034e7:	3b c3                	cmp    eax,ebx
  4034e9:	74 0b                	je     0x4034f6
  4034eb:	50                   	push   eax
  4034ec:	ff 15 ec 70 40 00    	call   DWORD PTR ds:0x4070ec
  4034f2:	89 5c 24 10          	mov    DWORD PTR [esp+0x10],ebx
  4034f6:	fe 05 00 44 42 00    	inc    BYTE PTR ds:0x424400
  4034fc:	4f                   	dec    edi
  4034fd:	75 9a                	jne    0x403499
  4034ff:	53                   	push   ebx
  403500:	55                   	push   ebp
  403501:	e8 cd 22 00 00       	call   0x4057d3
  403506:	e9 06 ff ff ff       	jmp    0x403411
  40350b:	39 1d 34 3f 42 00    	cmp    DWORD PTR ds:0x423f34,ebx
  403511:	74 7b                	je     0x40358e
  403513:	6a 03                	push   0x3
  403515:	e8 89 28 00 00       	call   0x405da3
  40351a:	6a 04                	push   0x4
  40351c:	8b e8                	mov    ebp,eax
  40351e:	e8 80 28 00 00       	call   0x405da3
  403523:	6a 05                	push   0x5
  403525:	8b f0                	mov    esi,eax
  403527:	e8 77 28 00 00       	call   0x405da3
  40352c:	3b eb                	cmp    ebp,ebx
  40352e:	8b f8                	mov    edi,eax
  403530:	74 48                	je     0x40357a
  403532:	3b f3                	cmp    esi,ebx
  403534:	74 44                	je     0x40357a
  403536:	3b fb                	cmp    edi,ebx
  403538:	74 40                	je     0x40357a
  40353a:	8d 44 24 1c          	lea    eax,[esp+0x1c]
  40353e:	50                   	push   eax
  40353f:	6a 28                	push   0x28
  403541:	ff 15 9c 70 40 00    	call   DWORD PTR ds:0x40709c
  403547:	50                   	push   eax
  403548:	ff d5                	call   ebp
  40354a:	85 c0                	test   eax,eax
  40354c:	74 2c                	je     0x40357a
  40354e:	8d 44 24 24          	lea    eax,[esp+0x24]
  403552:	50                   	push   eax
  403553:	68 88 91 40 00       	push   0x409188
  403558:	53                   	push   ebx
  403559:	ff d6                	call   esi
  40355b:	53                   	push   ebx
  40355c:	53                   	push   ebx
  40355d:	8d 44 24 28          	lea    eax,[esp+0x28]
  403561:	53                   	push   ebx
  403562:	50                   	push   eax
  403563:	53                   	push   ebx
  403564:	ff 74 24 30          	push   DWORD PTR [esp+0x30]
  403568:	c7 44 24 38 01 00 00 	mov    DWORD PTR [esp+0x38],0x1
  40356f:	00 
  403570:	c7 44 24 44 02 00 00 	mov    DWORD PTR [esp+0x44],0x2
  403577:	00 
  403578:	ff d7                	call   edi
  40357a:	53                   	push   ebx
  40357b:	6a 02                	push   0x2
  40357d:	ff 15 24 72 40 00    	call   DWORD PTR ds:0x407224
  403583:	85 c0                	test   eax,eax
  403585:	75 07                	jne    0x40358e
  403587:	6a 09                	push   0x9
  403589:	e8 7d de ff ff       	call   0x40140b
  40358e:	a1 4c 3f 42 00       	mov    eax,ds:0x423f4c
  403593:	83 f8 ff             	cmp    eax,0xffffffff
  403596:	74 04                	je     0x40359c
  403598:	89 44 24 18          	mov    DWORD PTR [esp+0x18],eax
  40359c:	ff 74 24 18          	push   DWORD PTR [esp+0x18]
  4035a0:	ff 15 a4 70 40 00    	call   DWORD PTR ds:0x4070a4
  4035a6:	a1 10 90 40 00       	mov    eax,ds:0x409010
  4035ab:	56                   	push   esi
  4035ac:	8b 35 ec 70 40 00    	mov    esi,DWORD PTR ds:0x4070ec
  4035b2:	83 f8 ff             	cmp    eax,0xffffffff
  4035b5:	74 0a                	je     0x4035c1
  4035b7:	50                   	push   eax
  4035b8:	ff d6                	call   esi
  4035ba:	83 0d 10 90 40 00 ff 	or     DWORD PTR ds:0x409010,0xffffffff
  4035c1:	a1 14 90 40 00       	mov    eax,ds:0x409014
  4035c6:	83 f8 ff             	cmp    eax,0xffffffff
  4035c9:	74 0a                	je     0x4035d5
  4035cb:	50                   	push   eax
  4035cc:	ff d6                	call   esi
  4035ce:	83 0d 14 90 40 00 ff 	or     DWORD PTR ds:0x409014,0xffffffff
  4035d5:	6a 07                	push   0x7
  4035d7:	68 00 a8 42 00       	push   0x42a800
  4035dc:	e8 c9 1d 00 00       	call   0x4053aa
  4035e1:	5e                   	pop    esi
  4035e2:	c3                   	ret    
  4035e3:	83 ec 14             	sub    esp,0x14
  4035e6:	53                   	push   ebx
  4035e7:	55                   	push   ebp
  4035e8:	56                   	push   esi
  4035e9:	8b 35 b0 3e 42 00    	mov    esi,DWORD PTR ds:0x423eb0
  4035ef:	57                   	push   edi
  4035f0:	6a 06                	push   0x6
  4035f2:	e8 ac 27 00 00       	call   0x405da3
  4035f7:	33 db                	xor    ebx,ebx
  4035f9:	3b c3                	cmp    eax,ebx
  4035fb:	74 12                	je     0x40360f
  4035fd:	ff d0                	call   eax
  4035ff:	0f b7 c0             	movzx  eax,ax
  403602:	50                   	push   eax
  403603:	68 00 a0 42 00       	push   0x42a000
  403608:	e8 d6 23 00 00       	call   0x4059e3
  40360d:	eb 4a                	jmp    0x403659
  40360f:	bf 98 04 42 00       	mov    edi,0x420498
  403614:	53                   	push   ebx
  403615:	57                   	push   edi
  403616:	53                   	push   ebx
  403617:	68 e4 72 40 00       	push   0x4072e4
  40361c:	68 01 00 00 80       	push   0x80000001
  403621:	c7 05 00 a0 42 00 30 	mov    DWORD PTR ds:0x42a000,0x7830
  403628:	78 00 00 
  40362b:	e8 3c 23 00 00       	call   0x40596c
  403630:	38 1d 98 04 42 00    	cmp    BYTE PTR ds:0x420498,bl
  403636:	75 16                	jne    0x40364e
  403638:	53                   	push   ebx
  403639:	57                   	push   edi
  40363a:	68 02 73 40 00       	push   0x407302
  40363f:	68 bc 72 40 00       	push   0x4072bc
  403644:	68 03 00 00 80       	push   0x80000003
  403649:	e8 1e 23 00 00       	call   0x40596c
  40364e:	57                   	push   edi
  40364f:	68 00 a0 42 00       	push   0x42a000
  403654:	e8 48 24 00 00       	call   0x405aa1
  403659:	e8 39 02 00 00       	call   0x403897
  40365e:	a1 b8 3e 42 00       	mov    eax,ds:0x423eb8
  403663:	bd 00 94 42 00       	mov    ebp,0x429400
  403668:	83 e0 20             	and    eax,0x20
  40366b:	55                   	push   ebp
  40366c:	a3 20 3f 42 00       	mov    ds:0x423f20,eax
  403671:	e8 e3 1f 00 00       	call   0x405659
  403676:	85 c0                	test   eax,eax
  403678:	0f 85 81 00 00 00    	jne    0x4036ff
  40367e:	8b 4e 48             	mov    ecx,DWORD PTR [esi+0x48]
  403681:	3b cb                	cmp    ecx,ebx
  403683:	74 7a                	je     0x4036ff
  403685:	8b 56 4c             	mov    edx,DWORD PTR [esi+0x4c]
  403688:	a1 d8 3e 42 00       	mov    eax,ds:0x423ed8
  40368d:	bf 40 2e 42 00       	mov    edi,0x422e40
  403692:	53                   	push   ebx
  403693:	03 d0                	add    edx,eax
  403695:	57                   	push   edi
  403696:	03 c8                	add    ecx,eax
  403698:	52                   	push   edx
  403699:	51                   	push   ecx
  40369a:	ff 76 44             	push   DWORD PTR [esi+0x44]
  40369d:	e8 ca 22 00 00       	call   0x40596c
  4036a2:	a0 40 2e 42 00       	mov    al,ds:0x422e40
  4036a7:	3a c3                	cmp    al,bl
  4036a9:	74 54                	je     0x4036ff
  4036ab:	3c 22                	cmp    al,0x22
  4036ad:	75 0f                	jne    0x4036be
  4036af:	bf 41 2e 42 00       	mov    edi,0x422e41
  4036b4:	6a 22                	push   0x22
  4036b6:	57                   	push   edi
  4036b7:	e8 e7 1e 00 00       	call   0x4055a3
  4036bc:	88 18                	mov    BYTE PTR [eax],bl
  4036be:	57                   	push   edi
  4036bf:	e8 d7 23 00 00       	call   0x405a9b
  4036c4:	8d 44 38 fc          	lea    eax,[eax+edi*1-0x4]
  4036c8:	3b c7                	cmp    eax,edi
  4036ca:	76 26                	jbe    0x4036f2
  4036cc:	68 d4 91 40 00       	push   0x4091d4
  4036d1:	50                   	push   eax
  4036d2:	ff 15 f0 70 40 00    	call   DWORD PTR ds:0x4070f0
  4036d8:	85 c0                	test   eax,eax
  4036da:	75 16                	jne    0x4036f2
  4036dc:	57                   	push   edi
  4036dd:	ff 15 78 70 40 00    	call   DWORD PTR ds:0x407078
  4036e3:	83 f8 ff             	cmp    eax,0xffffffff
  4036e6:	74 04                	je     0x4036ec
  4036e8:	a8 10                	test   al,0x10
  4036ea:	75 06                	jne    0x4036f2
  4036ec:	57                   	push   edi
  4036ed:	e8 cd 1e 00 00       	call   0x4055bf
  4036f2:	57                   	push   edi
  4036f3:	e8 80 1e 00 00       	call   0x405578
  4036f8:	50                   	push   eax
  4036f9:	55                   	push   ebp
  4036fa:	e8 86 23 00 00       	call   0x405a85
  4036ff:	55                   	push   ebp
  403700:	e8 54 1f 00 00       	call   0x405659
  403705:	85 c0                	test   eax,eax
  403707:	75 0c                	jne    0x403715
  403709:	ff b6 18 01 00 00    	push   DWORD PTR [esi+0x118]
  40370f:	55                   	push   ebp
  403710:	e8 92 23 00 00       	call   0x405aa7
  403715:	68 40 80 00 00       	push   0x8040
  40371a:	53                   	push   ebx
  40371b:	53                   	push   ebx
  40371c:	6a 01                	push   0x1
  40371e:	6a 67                	push   0x67
  403720:	ff 35 a0 3e 42 00    	push   DWORD PTR ds:0x423ea0
  403726:	ff 15 34 72 40 00    	call   DWORD PTR ds:0x407234
  40372c:	a3 88 36 42 00       	mov    ds:0x423688,eax
  403731:	83 7e 50 ff          	cmp    DWORD PTR [esi+0x50],0xffffffff
  403735:	bf 40 36 42 00       	mov    edi,0x423640
  40373a:	0f 84 89 00 00 00    	je     0x4037c9
  403740:	8b 0d a0 3e 42 00    	mov    ecx,DWORD PTR ds:0x423ea0
  403746:	a3 54 36 42 00       	mov    ds:0x423654,eax
  40374b:	8d 44 24 10          	lea    eax,[esp+0x10]
  40374f:	57                   	push   edi
  403750:	c7 44 24 14 5f 4e 62 	mov    DWORD PTR [esp+0x14],0x624e5f
  403757:	00 
  403758:	c7 05 44 36 42 00 00 	mov    DWORD PTR ds:0x423644,0x401000
  40375f:	10 40 00 
  403762:	89 0d 50 36 42 00    	mov    DWORD PTR ds:0x423650,ecx
  403768:	a3 64 36 42 00       	mov    ds:0x423664,eax
  40376d:	ff 15 bc 71 40 00    	call   DWORD PTR ds:0x4071bc
  403773:	66 85 c0             	test   ax,ax
  403776:	0f 84 11 01 00 00    	je     0x40388d
  40377c:	8d 44 24 14          	lea    eax,[esp+0x14]
  403780:	53                   	push   ebx
  403781:	50                   	push   eax
  403782:	53                   	push   ebx
  403783:	6a 30                	push   0x30
  403785:	ff 15 0c 72 40 00    	call   DWORD PTR ds:0x40720c
  40378b:	53                   	push   ebx
  40378c:	ff 35 a0 3e 42 00    	push   DWORD PTR ds:0x423ea0
  403792:	8b 44 24 28          	mov    eax,DWORD PTR [esp+0x28]
  403796:	2b 44 24 20          	sub    eax,DWORD PTR [esp+0x20]
  40379a:	53                   	push   ebx
  40379b:	53                   	push   ebx
  40379c:	50                   	push   eax
  40379d:	8b 44 24 30          	mov    eax,DWORD PTR [esp+0x30]
  4037a1:	2b 44 24 28          	sub    eax,DWORD PTR [esp+0x28]
  4037a5:	50                   	push   eax
  4037a6:	8d 44 24 28          	lea    eax,[esp+0x28]
  4037aa:	ff 74 24 30          	push   DWORD PTR [esp+0x30]
  4037ae:	ff 74 24 30          	push   DWORD PTR [esp+0x30]
  4037b2:	68 00 00 00 80       	push   0x80000000
  4037b7:	53                   	push   ebx
  4037b8:	50                   	push   eax
  4037b9:	68 80 00 00 00       	push   0x80
  4037be:	ff 15 10 72 40 00    	call   DWORD PTR ds:0x407210
  4037c4:	a3 70 04 42 00       	mov    ds:0x420470,eax
  4037c9:	53                   	push   ebx
  4037ca:	e8 3c dc ff ff       	call   0x40140b
  4037cf:	85 c0                	test   eax,eax
  4037d1:	74 08                	je     0x4037db
  4037d3:	6a 02                	push   0x2
  4037d5:	58                   	pop    eax
  4037d6:	e9 b4 00 00 00       	jmp    0x40388f
  4037db:	e8 b7 00 00 00       	call   0x403897
  4037e0:	39 1d 40 3f 42 00    	cmp    DWORD PTR ds:0x423f40,ebx
  4037e6:	75 7c                	jne    0x403864
  4037e8:	6a 05                	push   0x5
  4037ea:	ff 35 70 04 42 00    	push   DWORD PTR ds:0x420470
  4037f0:	ff 15 60 72 40 00    	call   DWORD PTR ds:0x407260
  4037f6:	8b 35 b8 70 40 00    	mov    esi,DWORD PTR ds:0x4070b8
  4037fc:	68 b0 72 40 00       	push   0x4072b0
  403801:	ff d6                	call   esi
  403803:	85 c0                	test   eax,eax
  403805:	75 07                	jne    0x40380e
  403807:	68 a4 72 40 00       	push   0x4072a4
  40380c:	ff d6                	call   esi
  40380e:	8b 35 14 72 40 00    	mov    esi,DWORD PTR ds:0x407214
  403814:	bd 98 72 40 00       	mov    ebp,0x407298
  403819:	57                   	push   edi
  40381a:	55                   	push   ebp
  40381b:	53                   	push   ebx
  40381c:	ff d6                	call   esi
  40381e:	85 c0                	test   eax,eax
  403820:	75 16                	jne    0x403838
  403822:	57                   	push   edi
  403823:	68 8c 72 40 00       	push   0x40728c
  403828:	53                   	push   ebx
  403829:	ff d6                	call   esi
  40382b:	57                   	push   edi
  40382c:	89 2d 64 36 42 00    	mov    DWORD PTR ds:0x423664,ebp
  403832:	ff 15 bc 71 40 00    	call   DWORD PTR ds:0x4071bc
  403838:	a1 80 36 42 00       	mov    eax,ds:0x423680
  40383d:	53                   	push   ebx
  40383e:	83 c0 69             	add    eax,0x69
  403841:	68 64 39 40 00       	push   0x403964
  403846:	0f b7 c0             	movzx  eax,ax
  403849:	53                   	push   ebx
  40384a:	50                   	push   eax
  40384b:	ff 35 a0 3e 42 00    	push   DWORD PTR ds:0x423ea0
  403851:	ff 15 18 72 40 00    	call   DWORD PTR ds:0x407218
  403857:	6a 05                	push   0x5
  403859:	8b f0                	mov    esi,eax
  40385b:	e8 ab db ff ff       	call   0x40140b
  403860:	8b c6                	mov    eax,esi
  403862:	eb 2b                	jmp    0x40388f
  403864:	53                   	push   ebx
  403865:	e8 8b 16 00 00       	call   0x404ef5
  40386a:	85 c0                	test   eax,eax
  40386c:	74 18                	je     0x403886
  40386e:	39 1d 6c 36 42 00    	cmp    DWORD PTR ds:0x42366c,ebx
  403874:	0f 85 59 ff ff ff    	jne    0x4037d3
  40387a:	6a 02                	push   0x2
  40387c:	e8 8a db ff ff       	call   0x40140b
  403881:	e9 4d ff ff ff       	jmp    0x4037d3
  403886:	6a 01                	push   0x1
  403888:	e8 7e db ff ff       	call   0x40140b
  40388d:	33 c0                	xor    eax,eax
  40388f:	5f                   	pop    edi
  403890:	5e                   	pop    esi
  403891:	5d                   	pop    ebp
  403892:	5b                   	pop    ebx
  403893:	83 c4 14             	add    esp,0x14
  403896:	c3                   	ret    
  403897:	53                   	push   ebx
  403898:	55                   	push   ebp
  403899:	56                   	push   esi
  40389a:	57                   	push   edi
  40389b:	bf 00 a0 42 00       	mov    edi,0x42a000
  4038a0:	bb ff ff 00 00       	mov    ebx,0xffff
  4038a5:	57                   	push   edi
  4038a6:	e8 51 21 00 00       	call   0x4059fc
  4038ab:	8b 35 e4 3e 42 00    	mov    esi,DWORD PTR ds:0x423ee4
  4038b1:	85 f6                	test   esi,esi
  4038b3:	74 45                	je     0x4038fa
  4038b5:	8b 0d b0 3e 42 00    	mov    ecx,DWORD PTR ds:0x423eb0
  4038bb:	8b 49 64             	mov    ecx,DWORD PTR [ecx+0x64]
  4038be:	8b d1                	mov    edx,ecx
  4038c0:	0f af ce             	imul   ecx,esi
  4038c3:	f7 da                	neg    edx
  4038c5:	03 0d e0 3e 42 00    	add    ecx,DWORD PTR ds:0x423ee0
  4038cb:	03 ca                	add    ecx,edx
  4038cd:	4e                   	dec    esi
  4038ce:	66 8b 29             	mov    bp,WORD PTR [ecx]
  4038d1:	66 33 e8             	xor    bp,ax
  4038d4:	23 eb                	and    ebp,ebx
  4038d6:	66 85 ed             	test   bp,bp
  4038d9:	74 06                	je     0x4038e1
  4038db:	85 f6                	test   esi,esi
  4038dd:	75 ec                	jne    0x4038cb
  4038df:	eb 19                	jmp    0x4038fa
  4038e1:	8b 51 02             	mov    edx,DWORD PTR [ecx+0x2]
  4038e4:	89 15 80 36 42 00    	mov    DWORD PTR ds:0x423680,edx
  4038ea:	8b 51 06             	mov    edx,DWORD PTR [ecx+0x6]
  4038ed:	89 15 48 3f 42 00    	mov    DWORD PTR ds:0x423f48,edx
  4038f3:	8d 51 0a             	lea    edx,[ecx+0xa]
  4038f6:	85 d2                	test   edx,edx
  4038f8:	75 12                	jne    0x40390c
  4038fa:	66 81 fb ff ff       	cmp    bx,0xffff
  4038ff:	75 07                	jne    0x403908
  403901:	bb ff 03 00 00       	mov    ebx,0x3ff
  403906:	eb a3                	jmp    0x4038ab
  403908:	33 db                	xor    ebx,ebx
  40390a:	eb 9f                	jmp    0x4038ab
  40390c:	89 15 7c 36 42 00    	mov    DWORD PTR ds:0x42367c,edx
  403912:	0f b7 01             	movzx  eax,WORD PTR [ecx]
  403915:	50                   	push   eax
  403916:	57                   	push   edi
  403917:	e8 c7 20 00 00       	call   0x4059e3
  40391c:	6a fe                	push   0xfffffffe
  40391e:	68 a0 36 42 00       	push   0x4236a0
  403923:	e8 7f 21 00 00       	call   0x405aa7
  403928:	50                   	push   eax
  403929:	ff 35 70 04 42 00    	push   DWORD PTR ds:0x420470
  40392f:	ff 15 f4 71 40 00    	call   DWORD PTR ds:0x4071f4
  403935:	a1 cc 3e 42 00       	mov    eax,ds:0x423ecc
  40393a:	8b 35 c8 3e 42 00    	mov    esi,DWORD PTR ds:0x423ec8
  403940:	85 c0                	test   eax,eax
  403942:	74 1b                	je     0x40395f
  403944:	8b f8                	mov    edi,eax
  403946:	8b 06                	mov    eax,DWORD PTR [esi]
  403948:	85 c0                	test   eax,eax
  40394a:	74 0a                	je     0x403956
  40394c:	50                   	push   eax
  40394d:	8d 46 18             	lea    eax,[esi+0x18]
  403950:	50                   	push   eax
  403951:	e8 51 21 00 00       	call   0x405aa7
  403956:	81 c6 18 04 00 00    	add    esi,0x418
  40395c:	4f                   	dec    edi
  40395d:	75 e7                	jne    0x403946
  40395f:	5f                   	pop    edi
  403960:	5e                   	pop    esi
  403961:	5d                   	pop    ebp
  403962:	5b                   	pop    ebx
  403963:	c3                   	ret    
  403964:	83 ec 10             	sub    esp,0x10
  403967:	b9 10 01 00 00       	mov    ecx,0x110
  40396c:	53                   	push   ebx
  40396d:	8b 5c 24 1c          	mov    ebx,DWORD PTR [esp+0x1c]
  403971:	55                   	push   ebp
  403972:	56                   	push   esi
  403973:	3b d9                	cmp    ebx,ecx
  403975:	57                   	push   edi
  403976:	0f 84 3b 01 00 00    	je     0x403ab7
  40397c:	81 fb 08 04 00 00    	cmp    ebx,0x408
  403982:	0f 84 2f 01 00 00    	je     0x403ab7
  403988:	8b 7c 24 24          	mov    edi,DWORD PTR [esp+0x24]
  40398c:	33 ed                	xor    ebp,ebp
  40398e:	83 fb 47             	cmp    ebx,0x47
  403991:	75 13                	jne    0x4039a6
  403993:	6a 13                	push   0x13
  403995:	55                   	push   ebp
  403996:	55                   	push   ebp
  403997:	55                   	push   ebp
  403998:	55                   	push   ebp
  403999:	57                   	push   edi
  40399a:	ff 35 70 04 42 00    	push   DWORD PTR ds:0x420470
  4039a0:	ff 15 88 71 40 00    	call   DWORD PTR ds:0x407188
  4039a6:	83 fb 05             	cmp    ebx,0x5
  4039a9:	75 18                	jne    0x4039c3
  4039ab:	8b 44 24 2c          	mov    eax,DWORD PTR [esp+0x2c]
  4039af:	48                   	dec    eax
  4039b0:	f7 d8                	neg    eax
  4039b2:	1b c0                	sbb    eax,eax
  4039b4:	23 c3                	and    eax,ebx
  4039b6:	50                   	push   eax
  4039b7:	ff 35 70 04 42 00    	push   DWORD PTR ds:0x420470
  4039bd:	ff 15 60 72 40 00    	call   DWORD PTR ds:0x407260
  4039c3:	81 fb 0d 04 00 00    	cmp    ebx,0x40d
  4039c9:	75 1a                	jne    0x4039e5
  4039cb:	ff 35 78 36 42 00    	push   DWORD PTR ds:0x423678
  4039d1:	ff 15 e8 71 40 00    	call   DWORD PTR ds:0x4071e8
  4039d7:	8b 44 24 2c          	mov    eax,DWORD PTR [esp+0x2c]
  4039db:	a3 78 36 42 00       	mov    ds:0x423678,eax
  4039e0:	e9 fc 03 00 00       	jmp    0x403de1
  4039e5:	83 fb 11             	cmp    ebx,0x11
  4039e8:	75 11                	jne    0x4039fb
  4039ea:	55                   	push   ebp
  4039eb:	55                   	push   ebp
  4039ec:	57                   	push   edi
  4039ed:	ff 15 30 72 40 00    	call   DWORD PTR ds:0x407230
  4039f3:	33 c0                	xor    eax,eax
  4039f5:	40                   	inc    eax
  4039f6:	e9 0b 04 00 00       	jmp    0x403e06
  4039fb:	81 fb 11 01 00 00    	cmp    ebx,0x111
  403a01:	0f 85 9d 00 00 00    	jne    0x403aa4
  403a07:	0f b7 74 24 2c       	movzx  esi,WORD PTR [esp+0x2c]
  403a0c:	56                   	push   esi
  403a0d:	57                   	push   edi
  403a0e:	ff 15 2c 72 40 00    	call   DWORD PTR ds:0x40722c
  403a14:	8b f8                	mov    edi,eax
  403a16:	3b fd                	cmp    edi,ebp
  403a18:	74 1d                	je     0x403a37
  403a1a:	55                   	push   ebp
  403a1b:	55                   	push   ebp
  403a1c:	68 f3 00 00 00       	push   0xf3
  403a21:	57                   	push   edi
  403a22:	ff 15 44 72 40 00    	call   DWORD PTR ds:0x407244
  403a28:	57                   	push   edi
  403a29:	ff 15 84 71 40 00    	call   DWORD PTR ds:0x407184
  403a2f:	85 c0                	test   eax,eax
  403a31:	0f 84 cd 03 00 00    	je     0x403e04
  403a37:	83 fe 01             	cmp    esi,0x1
  403a3a:	75 03                	jne    0x403a3f
  403a3c:	56                   	push   esi
  403a3d:	eb 2e                	jmp    0x403a6d
  403a3f:	83 fe 03             	cmp    esi,0x3
  403a42:	75 0c                	jne    0x403a50
  403a44:	39 2d bc 91 40 00    	cmp    DWORD PTR ds:0x4091bc,ebp
  403a4a:	7e 3f                	jle    0x403a8b
  403a4c:	6a ff                	push   0xffffffff
  403a4e:	eb 1d                	jmp    0x403a6d
  403a50:	6a 02                	push   0x2
  403a52:	5f                   	pop    edi
  403a53:	3b f7                	cmp    esi,edi
  403a55:	75 34                	jne    0x403a8b
  403a57:	39 2d 2c 3f 42 00    	cmp    DWORD PTR ds:0x423f2c,ebp
  403a5d:	74 15                	je     0x403a74
  403a5f:	57                   	push   edi
  403a60:	e8 a6 d9 ff ff       	call   0x40140b
  403a65:	89 3d 60 f8 41 00    	mov    DWORD PTR ds:0x41f860,edi
  403a6b:	6a 78                	push   0x78
  403a6d:	e8 9e 03 00 00       	call   0x403e10
  403a72:	eb 30                	jmp    0x403aa4
  403a74:	6a 03                	push   0x3
  403a76:	e8 90 d9 ff ff       	call   0x40140b
  403a7b:	85 c0                	test   eax,eax
  403a7d:	75 25                	jne    0x403aa4
  403a7f:	c7 05 60 f8 41 00 01 	mov    DWORD PTR ds:0x41f860,0x1
  403a86:	00 00 00 
  403a89:	eb e0                	jmp    0x403a6b
  403a8b:	ff 74 24 30          	push   DWORD PTR [esp+0x30]
  403a8f:	ff 74 24 30          	push   DWORD PTR [esp+0x30]
  403a93:	68 11 01 00 00       	push   0x111
  403a98:	ff 35 78 36 42 00    	push   DWORD PTR ds:0x423678
  403a9e:	ff 15 44 72 40 00    	call   DWORD PTR ds:0x407244
  403aa4:	ff 74 24 30          	push   DWORD PTR [esp+0x30]
  403aa8:	ff 74 24 30          	push   DWORD PTR [esp+0x30]
  403aac:	53                   	push   ebx
  403aad:	e8 ec 03 00 00       	call   0x403e9e
  403ab2:	e9 4f 03 00 00       	jmp    0x403e06
  403ab7:	8b 44 24 2c          	mov    eax,DWORD PTR [esp+0x2c]
  403abb:	8b 7c 24 24          	mov    edi,DWORD PTR [esp+0x24]
  403abf:	3b d9                	cmp    ebx,ecx
  403ac1:	a3 7c 04 42 00       	mov    ds:0x42047c,eax
  403ac6:	75 4d                	jne    0x403b15
  403ac8:	8b 35 2c 72 40 00    	mov    esi,DWORD PTR ds:0x40722c
  403ace:	6a 01                	push   0x1
  403ad0:	57                   	push   edi
  403ad1:	89 3d a8 3e 42 00    	mov    DWORD PTR ds:0x423ea8,edi
  403ad7:	ff d6                	call   esi
  403ad9:	6a 02                	push   0x2
  403adb:	57                   	push   edi
  403adc:	a3 90 04 42 00       	mov    ds:0x420490,eax
  403ae1:	ff d6                	call   esi
  403ae3:	6a ff                	push   0xffffffff
  403ae5:	6a 1c                	push   0x1c
  403ae7:	57                   	push   edi
  403ae8:	a3 58 f4 41 00       	mov    ds:0x41f458,eax
  403aed:	e8 45 03 00 00       	call   0x403e37
  403af2:	ff 35 88 36 42 00    	push   DWORD PTR ds:0x423688
  403af8:	6a f2                	push   0xfffffff2
  403afa:	57                   	push   edi
  403afb:	ff 15 80 71 40 00    	call   DWORD PTR ds:0x407180
  403b01:	6a 04                	push   0x4
  403b03:	e8 03 d9 ff ff       	call   0x40140b
  403b08:	a3 6c 36 42 00       	mov    ds:0x42366c,eax
  403b0d:	33 c0                	xor    eax,eax
  403b0f:	40                   	inc    eax
  403b10:	a3 7c 04 42 00       	mov    ds:0x42047c,eax
  403b15:	8b 0d bc 91 40 00    	mov    ecx,DWORD PTR ds:0x4091bc
  403b1b:	33 ed                	xor    ebp,ebp
  403b1d:	8b f1                	mov    esi,ecx
  403b1f:	c1 e6 06             	shl    esi,0x6
  403b22:	03 35 c0 3e 42 00    	add    esi,DWORD PTR ds:0x423ec0
  403b28:	3b cd                	cmp    ecx,ebp
  403b2a:	7c 3e                	jl     0x403b6a
  403b2c:	83 f8 01             	cmp    eax,0x1
  403b2f:	75 31                	jne    0x403b62
  403b31:	55                   	push   ebp
  403b32:	ff 76 10             	push   DWORD PTR [esi+0x10]
  403b35:	e8 4f d8 ff ff       	call   0x401389
  403b3a:	85 c0                	test   eax,eax
  403b3c:	74 24                	je     0x403b62
  403b3e:	6a 01                	push   0x1
  403b40:	55                   	push   ebp
  403b41:	68 0f 04 00 00       	push   0x40f
  403b46:	ff 35 78 36 42 00    	push   DWORD PTR ds:0x423678
  403b4c:	ff 15 44 72 40 00    	call   DWORD PTR ds:0x407244
  403b52:	33 c0                	xor    eax,eax
  403b54:	39 2d 6c 36 42 00    	cmp    DWORD PTR ds:0x42366c,ebp
  403b5a:	0f 94 c0             	sete   al
  403b5d:	e9 a4 02 00 00       	jmp    0x403e06
  403b62:	39 2e                	cmp    DWORD PTR [esi],ebp
  403b64:	0f 84 9a 02 00 00    	je     0x403e04
  403b6a:	68 0b 04 00 00       	push   0x40b
  403b6f:	e8 0f 03 00 00       	call   0x403e83
  403b74:	a1 7c 04 42 00       	mov    eax,ds:0x42047c
  403b79:	01 05 bc 91 40 00    	add    DWORD PTR ds:0x4091bc,eax
  403b7f:	c1 e0 06             	shl    eax,0x6
  403b82:	03 f0                	add    esi,eax
  403b84:	a1 bc 91 40 00       	mov    eax,ds:0x4091bc
  403b89:	3b 05 c4 3e 42 00    	cmp    eax,DWORD PTR ds:0x423ec4
  403b8f:	75 07                	jne    0x403b98
  403b91:	6a 01                	push   0x1
  403b93:	e8 73 d8 ff ff       	call   0x40140b
  403b98:	39 2d 6c 36 42 00    	cmp    DWORD PTR ds:0x42366c,ebp
  403b9e:	0f 85 1e 02 00 00    	jne    0x403dc2
  403ba4:	a1 c4 3e 42 00       	mov    eax,ds:0x423ec4
  403ba9:	39 05 bc 91 40 00    	cmp    DWORD PTR ds:0x4091bc,eax
  403baf:	0f 83 0d 02 00 00    	jae    0x403dc2
  403bb5:	ff 76 24             	push   DWORD PTR [esi+0x24]
  403bb8:	8b 5e 14             	mov    ebx,DWORD PTR [esi+0x14]
  403bbb:	68 00 b8 42 00       	push   0x42b800
  403bc0:	e8 e2 1e 00 00       	call   0x405aa7
  403bc5:	ff 76 20             	push   DWORD PTR [esi+0x20]
  403bc8:	68 19 fc ff ff       	push   0xfffffc19
  403bcd:	57                   	push   edi
  403bce:	e8 64 02 00 00       	call   0x403e37
  403bd3:	ff 76 1c             	push   DWORD PTR [esi+0x1c]
  403bd6:	68 1b fc ff ff       	push   0xfffffc1b
  403bdb:	57                   	push   edi
  403bdc:	e8 56 02 00 00       	call   0x403e37
  403be1:	ff 76 28             	push   DWORD PTR [esi+0x28]
  403be4:	68 1a fc ff ff       	push   0xfffffc1a
  403be9:	57                   	push   edi
  403bea:	e8 48 02 00 00       	call   0x403e37
  403bef:	6a 03                	push   0x3
  403bf1:	57                   	push   edi
  403bf2:	ff 15 2c 72 40 00    	call   DWORD PTR ds:0x40722c
  403bf8:	39 2d 2c 3f 42 00    	cmp    DWORD PTR ds:0x423f2c,ebp
  403bfe:	89 44 24 2c          	mov    DWORD PTR [esp+0x2c],eax
  403c02:	74 08                	je     0x403c0c
  403c04:	66 81 e3 fd fe       	and    bx,0xfefd
  403c09:	83 cb 04             	or     ebx,0x4
  403c0c:	8b cb                	mov    ecx,ebx
  403c0e:	83 e1 08             	and    ecx,0x8
  403c11:	51                   	push   ecx
  403c12:	50                   	push   eax
  403c13:	ff 15 60 72 40 00    	call   DWORD PTR ds:0x407260
  403c19:	8b c3                	mov    eax,ebx
  403c1b:	25 00 01 00 00       	and    eax,0x100
  403c20:	50                   	push   eax
  403c21:	ff 74 24 30          	push   DWORD PTR [esp+0x30]
  403c25:	ff 15 3c 72 40 00    	call   DWORD PTR ds:0x40723c
  403c2b:	8b c3                	mov    eax,ebx
  403c2d:	83 e0 02             	and    eax,0x2
  403c30:	50                   	push   eax
  403c31:	e8 23 02 00 00       	call   0x403e59
  403c36:	83 e3 04             	and    ebx,0x4
  403c39:	53                   	push   ebx
  403c3a:	ff 35 58 f4 41 00    	push   DWORD PTR ds:0x41f458
  403c40:	ff 15 3c 72 40 00    	call   DWORD PTR ds:0x40723c
  403c46:	3b dd                	cmp    ebx,ebp
  403c48:	74 03                	je     0x403c4d
  403c4a:	55                   	push   ebp
  403c4b:	eb 02                	jmp    0x403c4f
  403c4d:	6a 01                	push   0x1
  403c4f:	68 60 f0 00 00       	push   0xf060
  403c54:	55                   	push   ebp
  403c55:	57                   	push   edi
  403c56:	ff 15 7c 71 40 00    	call   DWORD PTR ds:0x40717c
  403c5c:	50                   	push   eax
  403c5d:	ff 15 78 71 40 00    	call   DWORD PTR ds:0x407178
  403c63:	8b 1d 44 72 40 00    	mov    ebx,DWORD PTR ds:0x407244
  403c69:	6a 01                	push   0x1
  403c6b:	55                   	push   ebp
  403c6c:	68 f4 00 00 00       	push   0xf4
  403c71:	ff 74 24 38          	push   DWORD PTR [esp+0x38]
  403c75:	ff d3                	call   ebx
  403c77:	39 2d 2c 3f 42 00    	cmp    DWORD PTR ds:0x423f2c,ebp
  403c7d:	74 13                	je     0x403c92
  403c7f:	55                   	push   ebp
  403c80:	6a 02                	push   0x2
  403c82:	68 01 04 00 00       	push   0x401
  403c87:	57                   	push   edi
  403c88:	ff d3                	call   ebx
  403c8a:	ff 35 58 f4 41 00    	push   DWORD PTR ds:0x41f458
  403c90:	eb 06                	jmp    0x403c98
  403c92:	ff 35 90 04 42 00    	push   DWORD PTR ds:0x420490
  403c98:	e8 cf 01 00 00       	call   0x403e6c
  403c9d:	bb 98 04 42 00       	mov    ebx,0x420498
  403ca2:	68 a0 36 42 00       	push   0x4236a0
  403ca7:	53                   	push   ebx
  403ca8:	e8 d8 1d 00 00       	call   0x405a85
  403cad:	ff 76 18             	push   DWORD PTR [esi+0x18]
  403cb0:	53                   	push   ebx
  403cb1:	e8 e5 1d 00 00       	call   0x405a9b
  403cb6:	03 c3                	add    eax,ebx
  403cb8:	50                   	push   eax
  403cb9:	e8 e9 1d 00 00       	call   0x405aa7
  403cbe:	53                   	push   ebx
  403cbf:	57                   	push   edi
  403cc0:	ff 15 f4 71 40 00    	call   DWORD PTR ds:0x4071f4
  403cc6:	55                   	push   ebp
  403cc7:	ff 76 08             	push   DWORD PTR [esi+0x8]
  403cca:	e8 ba d6 ff ff       	call   0x401389
  403ccf:	85 c0                	test   eax,eax
  403cd1:	0f 85 9d fe ff ff    	jne    0x403b74
  403cd7:	39 2e                	cmp    DWORD PTR [esi],ebp
  403cd9:	0f 84 95 fe ff ff    	je     0x403b74
  403cdf:	83 7e 04 05          	cmp    DWORD PTR [esi+0x4],0x5
  403ce3:	75 1d                	jne    0x403d02
  403ce5:	39 2d 2c 3f 42 00    	cmp    DWORD PTR ds:0x423f2c,ebp
  403ceb:	0f 85 13 01 00 00    	jne    0x403e04
  403cf1:	39 2d 20 3f 42 00    	cmp    DWORD PTR ds:0x423f20,ebp
  403cf7:	0f 85 77 fe ff ff    	jne    0x403b74
  403cfd:	e9 02 01 00 00       	jmp    0x403e04
  403d02:	ff 35 78 36 42 00    	push   DWORD PTR ds:0x423678
  403d08:	ff 15 e8 71 40 00    	call   DWORD PTR ds:0x4071e8
  403d0e:	89 35 68 fc 41 00    	mov    DWORD PTR ds:0x41fc68,esi
  403d14:	39 2e                	cmp    DWORD PTR [esi],ebp
  403d16:	0f 8e c5 00 00 00    	jle    0x403de1
  403d1c:	8b 46 04             	mov    eax,DWORD PTR [esi+0x4]
  403d1f:	56                   	push   esi
  403d20:	ff 34 85 c0 91 40 00 	push   DWORD PTR [eax*4+0x4091c0]
  403d27:	66 8b 06             	mov    ax,WORD PTR [esi]
  403d2a:	66 03 05 80 36 42 00 	add    ax,WORD PTR ds:0x423680
  403d31:	57                   	push   edi
  403d32:	0f b7 c0             	movzx  eax,ax
  403d35:	50                   	push   eax
  403d36:	ff 35 a0 3e 42 00    	push   DWORD PTR ds:0x423ea0
  403d3c:	ff 15 ec 71 40 00    	call   DWORD PTR ds:0x4071ec
  403d42:	3b c5                	cmp    eax,ebp
  403d44:	a3 78 36 42 00       	mov    ds:0x423678,eax
  403d49:	0f 84 92 00 00 00    	je     0x403de1
  403d4f:	ff 76 2c             	push   DWORD PTR [esi+0x2c]
  403d52:	6a 06                	push   0x6
  403d54:	50                   	push   eax
  403d55:	e8 dd 00 00 00       	call   0x403e37
  403d5a:	8d 44 24 10          	lea    eax,[esp+0x10]
  403d5e:	50                   	push   eax
  403d5f:	68 fa 03 00 00       	push   0x3fa
  403d64:	57                   	push   edi
  403d65:	ff 15 2c 72 40 00    	call   DWORD PTR ds:0x40722c
  403d6b:	50                   	push   eax
  403d6c:	ff 15 74 71 40 00    	call   DWORD PTR ds:0x407174
  403d72:	8d 44 24 10          	lea    eax,[esp+0x10]
  403d76:	50                   	push   eax
  403d77:	57                   	push   edi
  403d78:	ff 15 70 71 40 00    	call   DWORD PTR ds:0x407170
  403d7e:	6a 15                	push   0x15
  403d80:	55                   	push   ebp
  403d81:	55                   	push   ebp
  403d82:	ff 74 24 20          	push   DWORD PTR [esp+0x20]
  403d86:	ff 74 24 20          	push   DWORD PTR [esp+0x20]
  403d8a:	55                   	push   ebp
  403d8b:	ff 35 78 36 42 00    	push   DWORD PTR ds:0x423678
  403d91:	ff 15 88 71 40 00    	call   DWORD PTR ds:0x407188
  403d97:	55                   	push   ebp
  403d98:	ff 76 0c             	push   DWORD PTR [esi+0xc]
  403d9b:	e8 e9 d5 ff ff       	call   0x401389
  403da0:	39 2d 6c 36 42 00    	cmp    DWORD PTR ds:0x42366c,ebp
  403da6:	75 5c                	jne    0x403e04
  403da8:	6a 08                	push   0x8
  403daa:	ff 35 78 36 42 00    	push   DWORD PTR ds:0x423678
  403db0:	ff 15 60 72 40 00    	call   DWORD PTR ds:0x407260
  403db6:	68 05 04 00 00       	push   0x405
  403dbb:	e8 c3 00 00 00       	call   0x403e83
  403dc0:	eb 1f                	jmp    0x403de1
  403dc2:	ff 35 78 36 42 00    	push   DWORD PTR ds:0x423678
  403dc8:	ff 15 e8 71 40 00    	call   DWORD PTR ds:0x4071e8
  403dce:	ff 35 60 f8 41 00    	push   DWORD PTR ds:0x41f860
  403dd4:	89 2d a8 3e 42 00    	mov    DWORD PTR ds:0x423ea8,ebp
  403dda:	57                   	push   edi
  403ddb:	ff 15 6c 71 40 00    	call   DWORD PTR ds:0x40716c
  403de1:	39 2d 98 14 42 00    	cmp    DWORD PTR ds:0x421498,ebp
  403de7:	75 1b                	jne    0x403e04
  403de9:	39 2d 78 36 42 00    	cmp    DWORD PTR ds:0x423678,ebp
  403def:	74 13                	je     0x403e04
  403df1:	6a 0a                	push   0xa
  403df3:	57                   	push   edi
  403df4:	ff 15 60 72 40 00    	call   DWORD PTR ds:0x407260
  403dfa:	c7 05 98 14 42 00 01 	mov    DWORD PTR ds:0x421498,0x1
  403e01:	00 00 00 
  403e04:	33 c0                	xor    eax,eax
  403e06:	5f                   	pop    edi
  403e07:	5e                   	pop    esi
  403e08:	5d                   	pop    ebp
  403e09:	5b                   	pop    ebx
  403e0a:	83 c4 10             	add    esp,0x10
  403e0d:	c2 10 00             	ret    0x10
  403e10:	83 7c 24 04 78       	cmp    DWORD PTR [esp+0x4],0x78
  403e15:	75 06                	jne    0x403e1d
  403e17:	ff 05 6c 36 42 00    	inc    DWORD PTR ds:0x42366c
  403e1d:	6a 00                	push   0x0
  403e1f:	ff 74 24 08          	push   DWORD PTR [esp+0x8]
  403e23:	68 08 04 00 00       	push   0x408
  403e28:	ff 35 a8 3e 42 00    	push   DWORD PTR ds:0x423ea8
  403e2e:	ff 15 44 72 40 00    	call   DWORD PTR ds:0x407244
  403e34:	c2 04 00             	ret    0x4
  403e37:	ff 74 24 0c          	push   DWORD PTR [esp+0xc]
  403e3b:	6a 00                	push   0x0
  403e3d:	e8 65 1c 00 00       	call   0x405aa7
  403e42:	50                   	push   eax
  403e43:	8b 44 24 0c          	mov    eax,DWORD PTR [esp+0xc]
  403e47:	05 e8 03 00 00       	add    eax,0x3e8
  403e4c:	50                   	push   eax
  403e4d:	ff 74 24 0c          	push   DWORD PTR [esp+0xc]
  403e51:	e8 ce 14 00 00       	call   0x405324
  403e56:	c2 0c 00             	ret    0xc
  403e59:	ff 74 24 04          	push   DWORD PTR [esp+0x4]
  403e5d:	ff 35 90 04 42 00    	push   DWORD PTR ds:0x420490
  403e63:	ff 15 3c 72 40 00    	call   DWORD PTR ds:0x40723c
  403e69:	c2 04 00             	ret    0x4
  403e6c:	6a 01                	push   0x1
  403e6e:	ff 74 24 08          	push   DWORD PTR [esp+0x8]
  403e72:	6a 28                	push   0x28
  403e74:	ff 35 a8 3e 42 00    	push   DWORD PTR ds:0x423ea8
  403e7a:	ff 15 44 72 40 00    	call   DWORD PTR ds:0x407244
  403e80:	c2 04 00             	ret    0x4
  403e83:	a1 78 36 42 00       	mov    eax,ds:0x423678
  403e88:	85 c0                	test   eax,eax
  403e8a:	74 0f                	je     0x403e9b
  403e8c:	6a 00                	push   0x0
  403e8e:	6a 00                	push   0x0
  403e90:	ff 74 24 0c          	push   DWORD PTR [esp+0xc]
  403e94:	50                   	push   eax
  403e95:	ff 15 44 72 40 00    	call   DWORD PTR ds:0x407244
  403e9b:	c2 04 00             	ret    0x4
  403e9e:	55                   	push   ebp
  403e9f:	8b ec                	mov    ebp,esp
  403ea1:	83 ec 0c             	sub    esp,0xc
  403ea4:	8b 45 08             	mov    eax,DWORD PTR [ebp+0x8]
  403ea7:	56                   	push   esi
  403ea8:	05 cd fe ff ff       	add    eax,0xfffffecd
  403ead:	83 f8 05             	cmp    eax,0x5
  403eb0:	0f 87 8e 00 00 00    	ja     0x403f44
  403eb6:	6a eb                	push   0xffffffeb
  403eb8:	ff 75 10             	push   DWORD PTR [ebp+0x10]
  403ebb:	ff 15 90 71 40 00    	call   DWORD PTR ds:0x407190
  403ec1:	8b f0                	mov    esi,eax
  403ec3:	85 f6                	test   esi,esi
  403ec5:	74 7d                	je     0x403f44
  403ec7:	f6 46 14 02          	test   BYTE PTR [esi+0x14],0x2
  403ecb:	8b 06                	mov    eax,DWORD PTR [esi]
  403ecd:	57                   	push   edi
  403ece:	8b 3d 8c 71 40 00    	mov    edi,DWORD PTR ds:0x40718c
  403ed4:	74 03                	je     0x403ed9
  403ed6:	50                   	push   eax
  403ed7:	ff d7                	call   edi
  403ed9:	f6 46 14 01          	test   BYTE PTR [esi+0x14],0x1
  403edd:	74 0a                	je     0x403ee9
  403edf:	50                   	push   eax
  403ee0:	ff 75 0c             	push   DWORD PTR [ebp+0xc]
  403ee3:	ff 15 54 70 40 00    	call   DWORD PTR ds:0x407054
  403ee9:	ff 76 10             	push   DWORD PTR [esi+0x10]
  403eec:	ff 75 0c             	push   DWORD PTR [ebp+0xc]
  403eef:	ff 15 50 70 40 00    	call   DWORD PTR ds:0x407050
  403ef5:	8b 46 04             	mov    eax,DWORD PTR [esi+0x4]
  403ef8:	f6 46 14 08          	test   BYTE PTR [esi+0x14],0x8
  403efc:	89 45 f8             	mov    DWORD PTR [ebp-0x8],eax
  403eff:	74 06                	je     0x403f07
  403f01:	50                   	push   eax
  403f02:	ff d7                	call   edi
  403f04:	89 45 f8             	mov    DWORD PTR [ebp-0x8],eax
  403f07:	f6 46 14 04          	test   BYTE PTR [esi+0x14],0x4
  403f0b:	5f                   	pop    edi
  403f0c:	74 0a                	je     0x403f18
  403f0e:	50                   	push   eax
  403f0f:	ff 75 0c             	push   DWORD PTR [ebp+0xc]
  403f12:	ff 15 3c 70 40 00    	call   DWORD PTR ds:0x40703c
  403f18:	f6 46 14 10          	test   BYTE PTR [esi+0x14],0x10
  403f1c:	74 21                	je     0x403f3f
  403f1e:	8b 46 08             	mov    eax,DWORD PTR [esi+0x8]
  403f21:	89 45 f4             	mov    DWORD PTR [ebp-0xc],eax
  403f24:	8b 46 0c             	mov    eax,DWORD PTR [esi+0xc]
  403f27:	85 c0                	test   eax,eax
  403f29:	74 07                	je     0x403f32
  403f2b:	50                   	push   eax
  403f2c:	ff 15 44 70 40 00    	call   DWORD PTR ds:0x407044
  403f32:	8d 45 f4             	lea    eax,[ebp-0xc]
  403f35:	50                   	push   eax
  403f36:	ff 15 48 70 40 00    	call   DWORD PTR ds:0x407048
  403f3c:	89 46 0c             	mov    DWORD PTR [esi+0xc],eax
  403f3f:	8b 46 0c             	mov    eax,DWORD PTR [esi+0xc]
  403f42:	eb 02                	jmp    0x403f46
  403f44:	33 c0                	xor    eax,eax
  403f46:	5e                   	pop    esi
  403f47:	c9                   	leave  
  403f48:	c2 0c 00             	ret    0xc
  403f4b:	55                   	push   ebp
  403f4c:	8b ec                	mov    ebp,esp
  403f4e:	8b 45 08             	mov    eax,DWORD PTR [ebp+0x8]
  403f51:	8b 0d 5c f4 41 00    	mov    ecx,DWORD PTR ds:0x41f45c
  403f57:	ff 75 10             	push   DWORD PTR [ebp+0x10]
  403f5a:	03 c8                	add    ecx,eax
  403f5c:	51                   	push   ecx
  403f5d:	ff 75 0c             	push   DWORD PTR [ebp+0xc]
  403f60:	ff 15 bc 70 40 00    	call   DWORD PTR ds:0x4070bc
  403f66:	ff 75 0c             	push   DWORD PTR [ebp+0xc]
  403f69:	e8 2d 1b 00 00       	call   0x405a9b
  403f6e:	8b 4d 14             	mov    ecx,DWORD PTR [ebp+0x14]
  403f71:	89 01                	mov    DWORD PTR [ecx],eax
  403f73:	01 05 5c f4 41 00    	add    DWORD PTR ds:0x41f45c,eax
  403f79:	33 c0                	xor    eax,eax
  403f7b:	5d                   	pop    ebp
  403f7c:	c2 10 00             	ret    0x10
  403f7f:	55                   	push   ebp
  403f80:	8b ec                	mov    ebp,esp
  403f82:	83 ec 0c             	sub    esp,0xc
  403f85:	81 7d 0c 10 01 00 00 	cmp    DWORD PTR [ebp+0xc],0x110
  403f8c:	53                   	push   ebx
  403f8d:	56                   	push   esi
  403f8e:	57                   	push   edi
  403f8f:	0f 85 0d 01 00 00    	jne    0x4040a2
  403f95:	8b 5d 14             	mov    ebx,DWORD PTR [ebp+0x14]
  403f98:	8b 7b 30             	mov    edi,DWORD PTR [ebx+0x30]
  403f9b:	85 ff                	test   edi,edi
  403f9d:	7d 11                	jge    0x403fb0
  403f9f:	8b 0d 7c 36 42 00    	mov    ecx,DWORD PTR ds:0x42367c
  403fa5:	8d 04 bd 04 00 00 00 	lea    eax,[edi*4+0x4]
  403fac:	2b c8                	sub    ecx,eax
  403fae:	8b 39                	mov    edi,DWORD PTR [ecx]
  403fb0:	a1 d8 3e 42 00       	mov    eax,ds:0x423ed8
  403fb5:	ff 73 34             	push   DWORD PTR [ebx+0x34]
  403fb8:	03 f8                	add    edi,eax
  403fba:	6a 22                	push   0x22
  403fbc:	0f be 07             	movsx  eax,BYTE PTR [edi]
  403fbf:	89 45 14             	mov    DWORD PTR [ebp+0x14],eax
  403fc2:	8b 43 14             	mov    eax,DWORD PTR [ebx+0x14]
  403fc5:	ff 75 08             	push   DWORD PTR [ebp+0x8]
  403fc8:	83 65 f8 00          	and    DWORD PTR [ebp-0x8],0x0
  403fcc:	8b f0                	mov    esi,eax
  403fce:	47                   	inc    edi
  403fcf:	f7 d6                	not    esi
  403fd1:	c1 ee 05             	shr    esi,0x5
  403fd4:	83 e6 01             	and    esi,0x1
  403fd7:	83 e0 01             	and    eax,0x1
  403fda:	89 7d f4             	mov    DWORD PTR [ebp-0xc],edi
  403fdd:	c7 45 fc 4b 3f 40 00 	mov    DWORD PTR [ebp-0x4],0x403f4b
  403fe4:	0b f0                	or     esi,eax
  403fe6:	e8 4c fe ff ff       	call   0x403e37
  403feb:	ff 73 38             	push   DWORD PTR [ebx+0x38]
  403fee:	6a 23                	push   0x23
  403ff0:	ff 75 08             	push   DWORD PTR [ebp+0x8]
  403ff3:	e8 3f fe ff ff       	call   0x403e37
  403ff8:	33 c0                	xor    eax,eax
  403ffa:	6a 01                	push   0x1
  403ffc:	85 f6                	test   esi,esi
  403ffe:	0f 94 c0             	sete   al
  404001:	05 0a 04 00 00       	add    eax,0x40a
  404006:	50                   	push   eax
  404007:	ff 75 08             	push   DWORD PTR [ebp+0x8]
  40400a:	ff 15 9c 71 40 00    	call   DWORD PTR ds:0x40719c
  404010:	56                   	push   esi
  404011:	e8 43 fe ff ff       	call   0x403e59
  404016:	68 e8 03 00 00       	push   0x3e8
  40401b:	ff 75 08             	push   DWORD PTR [ebp+0x8]
  40401e:	ff 15 2c 72 40 00    	call   DWORD PTR ds:0x40722c
  404024:	8b d8                	mov    ebx,eax
  404026:	53                   	push   ebx
  404027:	e8 40 fe ff ff       	call   0x403e6c
  40402c:	8b 35 44 72 40 00    	mov    esi,DWORD PTR ds:0x407244
  404032:	6a 00                	push   0x0
  404034:	6a 01                	push   0x1
  404036:	68 5b 04 00 00       	push   0x45b
  40403b:	53                   	push   ebx
  40403c:	ff d6                	call   esi
  40403e:	a1 b0 3e 42 00       	mov    eax,ds:0x423eb0
  404043:	8b 40 68             	mov    eax,DWORD PTR [eax+0x68]
  404046:	85 c0                	test   eax,eax
  404048:	7d 09                	jge    0x404053
  40404a:	f7 d8                	neg    eax
  40404c:	50                   	push   eax
  40404d:	ff 15 8c 71 40 00    	call   DWORD PTR ds:0x40718c
  404053:	50                   	push   eax
  404054:	6a 00                	push   0x0
  404056:	68 43 04 00 00       	push   0x443
  40405b:	53                   	push   ebx
  40405c:	ff d6                	call   esi
  40405e:	68 00 00 01 04       	push   0x4010000
  404063:	6a 00                	push   0x0
  404065:	68 45 04 00 00       	push   0x445
  40406a:	53                   	push   ebx
  40406b:	ff d6                	call   esi
  40406d:	83 25 5c f4 41 00 00 	and    DWORD PTR ds:0x41f45c,0x0
  404074:	57                   	push   edi
  404075:	e8 21 1a 00 00       	call   0x405a9b
  40407a:	50                   	push   eax
  40407b:	6a 00                	push   0x0
  40407d:	68 35 04 00 00       	push   0x435
  404082:	53                   	push   ebx
  404083:	ff d6                	call   esi
  404085:	8d 45 f4             	lea    eax,[ebp-0xc]
  404088:	50                   	push   eax
  404089:	ff 75 14             	push   DWORD PTR [ebp+0x14]
  40408c:	68 49 04 00 00       	push   0x449
  404091:	53                   	push   ebx
  404092:	ff d6                	call   esi
  404094:	83 25 78 04 42 00 00 	and    DWORD PTR ds:0x420478,0x0
  40409b:	33 c0                	xor    eax,eax
  40409d:	e9 61 01 00 00       	jmp    0x404203
  4040a2:	81 7d 0c 11 01 00 00 	cmp    DWORD PTR [ebp+0xc],0x111
  4040a9:	8b 1d 2c 72 40 00    	mov    ebx,DWORD PTR ds:0x40722c
  4040af:	8b 35 44 72 40 00    	mov    esi,DWORD PTR ds:0x407244
  4040b5:	75 5a                	jne    0x404111
  4040b7:	8b 45 10             	mov    eax,DWORD PTR [ebp+0x10]
  4040ba:	c1 e8 10             	shr    eax,0x10
  4040bd:	66 85 c0             	test   ax,ax
  4040c0:	0f 85 2e 01 00 00    	jne    0x4041f4
  4040c6:	33 c0                	xor    eax,eax
  4040c8:	39 05 78 04 42 00    	cmp    DWORD PTR ds:0x420478,eax
  4040ce:	0f 85 20 01 00 00    	jne    0x4041f4
  4040d4:	8b 0d 68 fc 41 00    	mov    ecx,DWORD PTR ds:0x41fc68
  4040da:	8d 79 14             	lea    edi,[ecx+0x14]
  4040dd:	f6 07 20             	test   BYTE PTR [edi],0x20
  4040e0:	0f 84 0e 01 00 00    	je     0x4041f4
  4040e6:	50                   	push   eax
  4040e7:	50                   	push   eax
  4040e8:	68 f0 00 00 00       	push   0xf0
  4040ed:	68 0a 04 00 00       	push   0x40a
  4040f2:	ff 75 08             	push   DWORD PTR [ebp+0x8]
  4040f5:	ff d3                	call   ebx
  4040f7:	50                   	push   eax
  4040f8:	ff d6                	call   esi
  4040fa:	8b 0f                	mov    ecx,DWORD PTR [edi]
  4040fc:	83 e0 01             	and    eax,0x1
  4040ff:	83 e1 fe             	and    ecx,0xfffffffe
  404102:	50                   	push   eax
  404103:	0b c8                	or     ecx,eax
  404105:	89 0f                	mov    DWORD PTR [edi],ecx
  404107:	e8 4d fd ff ff       	call   0x403e59
  40410c:	e8 f9 00 00 00       	call   0x40420a
  404111:	83 7d 0c 4e          	cmp    DWORD PTR [ebp+0xc],0x4e
  404115:	0f 85 ca 00 00 00    	jne    0x4041e5
  40411b:	68 e8 03 00 00       	push   0x3e8
  404120:	ff 75 08             	push   DWORD PTR [ebp+0x8]
  404123:	ff d3                	call   ebx
  404125:	8b 7d 14             	mov    edi,DWORD PTR [ebp+0x14]
  404128:	81 7f 08 0b 07 00 00 	cmp    DWORD PTR [edi+0x8],0x70b
  40412f:	75 72                	jne    0x4041a3
  404131:	81 7f 0c 01 02 00 00 	cmp    DWORD PTR [edi+0xc],0x201
  404138:	75 69                	jne    0x4041a3
  40413a:	8b 4f 1c             	mov    ecx,DWORD PTR [edi+0x1c]
  40413d:	8b 57 18             	mov    edx,DWORD PTR [edi+0x18]
  404140:	89 4d f8             	mov    DWORD PTR [ebp-0x8],ecx
  404143:	2b ca                	sub    ecx,edx
  404145:	81 f9 00 08 00 00    	cmp    ecx,0x800
  40414b:	89 55 f4             	mov    DWORD PTR [ebp-0xc],edx
  40414e:	c7 45 fc 40 2e 42 00 	mov    DWORD PTR [ebp-0x4],0x422e40
  404155:	73 4c                	jae    0x4041a3
  404157:	8d 4d f4             	lea    ecx,[ebp-0xc]
  40415a:	51                   	push   ecx
  40415b:	6a 00                	push   0x0
  40415d:	68 4b 04 00 00       	push   0x44b
  404162:	50                   	push   eax
  404163:	ff d6                	call   esi
  404165:	8b 3d 98 71 40 00    	mov    edi,DWORD PTR ds:0x407198
  40416b:	68 02 7f 00 00       	push   0x7f02
  404170:	6a 00                	push   0x0
  404172:	ff d7                	call   edi
  404174:	8b 1d 94 71 40 00    	mov    ebx,DWORD PTR ds:0x407194
  40417a:	50                   	push   eax
  40417b:	ff d3                	call   ebx
  40417d:	6a 01                	push   0x1
  40417f:	6a 00                	push   0x0
  404181:	6a 00                	push   0x0
  404183:	ff 75 fc             	push   DWORD PTR [ebp-0x4]
  404186:	68 dc 91 40 00       	push   0x4091dc
  40418b:	ff 75 08             	push   DWORD PTR [ebp+0x8]
  40418e:	ff 15 5c 71 40 00    	call   DWORD PTR ds:0x40715c
  404194:	68 00 7f 00 00       	push   0x7f00
  404199:	6a 00                	push   0x0
  40419b:	ff d7                	call   edi
  40419d:	50                   	push   eax
  40419e:	ff d3                	call   ebx
  4041a0:	8b 7d 14             	mov    edi,DWORD PTR [ebp+0x14]
  4041a3:	81 7f 08 00 07 00 00 	cmp    DWORD PTR [edi+0x8],0x700
  4041aa:	75 4b                	jne    0x4041f7
  4041ac:	81 7f 0c 00 01 00 00 	cmp    DWORD PTR [edi+0xc],0x100
  4041b3:	75 42                	jne    0x4041f7
  4041b5:	83 7f 10 0d          	cmp    DWORD PTR [edi+0x10],0xd
  4041b9:	75 11                	jne    0x4041cc
  4041bb:	6a 00                	push   0x0
  4041bd:	6a 01                	push   0x1
  4041bf:	68 11 01 00 00       	push   0x111
  4041c4:	ff 35 a8 3e 42 00    	push   DWORD PTR ds:0x423ea8
  4041ca:	ff d6                	call   esi
  4041cc:	83 7f 10 1b          	cmp    DWORD PTR [edi+0x10],0x1b
  4041d0:	75 0e                	jne    0x4041e0
  4041d2:	6a 00                	push   0x0
  4041d4:	6a 00                	push   0x0
  4041d6:	6a 10                	push   0x10
  4041d8:	ff 35 a8 3e 42 00    	push   DWORD PTR ds:0x423ea8
  4041de:	ff d6                	call   esi
  4041e0:	33 c0                	xor    eax,eax
  4041e2:	40                   	inc    eax
  4041e3:	eb 1e                	jmp    0x404203
  4041e5:	81 7d 0c 0b 04 00 00 	cmp    DWORD PTR [ebp+0xc],0x40b
  4041ec:	75 06                	jne    0x4041f4
  4041ee:	ff 05 78 04 42 00    	inc    DWORD PTR ds:0x420478
  4041f4:	8b 7d 14             	mov    edi,DWORD PTR [ebp+0x14]
  4041f7:	57                   	push   edi
  4041f8:	ff 75 10             	push   DWORD PTR [ebp+0x10]
  4041fb:	ff 75 0c             	push   DWORD PTR [ebp+0xc]
  4041fe:	e8 9b fc ff ff       	call   0x403e9e
  404203:	5f                   	pop    edi
  404204:	5e                   	pop    esi
  404205:	5b                   	pop    ebx
  404206:	c9                   	leave  
  404207:	c2 10 00             	ret    0x10
  40420a:	83 3d 2c 3f 42 00 00 	cmp    DWORD PTR ds:0x423f2c,0x0
  404211:	a1 58 f4 41 00       	mov    eax,ds:0x41f458
  404216:	75 05                	jne    0x40421d
  404218:	a1 90 04 42 00       	mov    eax,ds:0x420490
  40421d:	6a 01                	push   0x1
  40421f:	6a 01                	push   0x1
  404221:	68 f4 00 00 00       	push   0xf4
  404226:	50                   	push   eax
  404227:	ff 15 44 72 40 00    	call   DWORD PTR ds:0x407244
  40422d:	c3                   	ret    
  40422e:	55                   	push   ebp
  40422f:	8b ec                	mov    ebp,esp
  404231:	81 7d 0c 10 01 00 00 	cmp    DWORD PTR [ebp+0xc],0x110
  404238:	56                   	push   esi
  404239:	8b 75 14             	mov    esi,DWORD PTR [ebp+0x14]
  40423c:	75 26                	jne    0x404264
  40423e:	ff 76 30             	push   DWORD PTR [esi+0x30]
  404241:	6a 1d                	push   0x1d
  404243:	ff 75 08             	push   DWORD PTR [ebp+0x8]
  404246:	e8 ec fb ff ff       	call   0x403e37
  40424b:	8b 46 3c             	mov    eax,DWORD PTR [esi+0x3c]
  40424e:	c1 e0 0a             	shl    eax,0xa
  404251:	05 00 40 42 00       	add    eax,0x424000
  404256:	50                   	push   eax
  404257:	68 e8 03 00 00       	push   0x3e8
  40425c:	ff 75 08             	push   DWORD PTR [ebp+0x8]
  40425f:	e8 c0 10 00 00       	call   0x405324
  404264:	56                   	push   esi
  404265:	ff 75 10             	push   DWORD PTR [ebp+0x10]
  404268:	ff 75 0c             	push   DWORD PTR [ebp+0xc]
  40426b:	e8 2e fc ff ff       	call   0x403e9e
  404270:	5e                   	pop    esi
  404271:	5d                   	pop    ebp
  404272:	c2 10 00             	ret    0x10
  404275:	55                   	push   ebp
  404276:	8b ec                	mov    ebp,esp
  404278:	83 ec 48             	sub    esp,0x48
  40427b:	a1 68 fc 41 00       	mov    eax,ds:0x41fc68
  404280:	53                   	push   ebx
  404281:	56                   	push   esi
  404282:	89 45 e0             	mov    DWORD PTR [ebp-0x20],eax
  404285:	8b 70 3c             	mov    esi,DWORD PTR [eax+0x3c]
  404288:	8b 40 38             	mov    eax,DWORD PTR [eax+0x38]
  40428b:	c1 e6 0a             	shl    esi,0xa
  40428e:	81 c6 00 40 42 00    	add    esi,0x424000
  404294:	81 7d 0c 0b 04 00 00 	cmp    DWORD PTR [ebp+0xc],0x40b
  40429b:	57                   	push   edi
  40429c:	89 45 fc             	mov    DWORD PTR [ebp-0x4],eax
  40429f:	bb fb 03 00 00       	mov    ebx,0x3fb
  4042a4:	75 0d                	jne    0x4042b3
  4042a6:	56                   	push   esi
  4042a7:	53                   	push   ebx
  4042a8:	e8 7d 10 00 00       	call   0x40532a
  4042ad:	56                   	push   esi
  4042ae:	e8 30 1a 00 00       	call   0x405ce3
  4042b3:	81 7d 0c 10 01 00 00 	cmp    DWORD PTR [ebp+0xc],0x110
  4042ba:	75 72                	jne    0x40432e
  4042bc:	8b 7d 08             	mov    edi,DWORD PTR [ebp+0x8]
  4042bf:	53                   	push   ebx
  4042c0:	57                   	push   edi
  4042c1:	ff 15 2c 72 40 00    	call   DWORD PTR ds:0x40722c
  4042c7:	56                   	push   esi
  4042c8:	89 45 f8             	mov    DWORD PTR [ebp-0x8],eax
  4042cb:	e8 15 13 00 00       	call   0x4055e5
  4042d0:	85 c0                	test   eax,eax
  4042d2:	74 10                	je     0x4042e4
  4042d4:	56                   	push   esi
  4042d5:	e8 32 13 00 00       	call   0x40560c
  4042da:	85 c0                	test   eax,eax
  4042dc:	75 06                	jne    0x4042e4
  4042de:	56                   	push   esi
  4042df:	e8 94 12 00 00       	call   0x405578
  4042e4:	56                   	push   esi
  4042e5:	89 3d 78 36 42 00    	mov    DWORD PTR ds:0x423678,edi
  4042eb:	ff 75 f8             	push   DWORD PTR [ebp-0x8]
  4042ee:	ff 15 f4 71 40 00    	call   DWORD PTR ds:0x4071f4
  4042f4:	8b 45 14             	mov    eax,DWORD PTR [ebp+0x14]
  4042f7:	ff 70 34             	push   DWORD PTR [eax+0x34]
  4042fa:	6a 01                	push   0x1
  4042fc:	57                   	push   edi
  4042fd:	e8 35 fb ff ff       	call   0x403e37
  404302:	8b 45 14             	mov    eax,DWORD PTR [ebp+0x14]
  404305:	ff 70 30             	push   DWORD PTR [eax+0x30]
  404308:	6a 14                	push   0x14
  40430a:	57                   	push   edi
  40430b:	e8 27 fb ff ff       	call   0x403e37
  404310:	ff 75 f8             	push   DWORD PTR [ebp-0x8]
  404313:	e8 54 fb ff ff       	call   0x403e6c
  404318:	6a 07                	push   0x7
  40431a:	e8 84 1a 00 00       	call   0x405da3
  40431f:	85 c0                	test   eax,eax
  404321:	0f 84 6e 02 00 00    	je     0x404595
  404327:	6a 01                	push   0x1
  404329:	ff 75 f8             	push   DWORD PTR [ebp-0x8]
  40432c:	ff d0                	call   eax
  40432e:	81 7d 0c 11 01 00 00 	cmp    DWORD PTR [ebp+0xc],0x111
  404335:	0f 85 cf 00 00 00    	jne    0x40440a
  40433b:	0f b7 45 10          	movzx  eax,WORD PTR [ebp+0x10]
  40433f:	3b c3                	cmp    eax,ebx
  404341:	75 18                	jne    0x40435b
  404343:	8b 4d 10             	mov    ecx,DWORD PTR [ebp+0x10]
  404346:	c1 e9 10             	shr    ecx,0x10
  404349:	66 81 f9 00 03       	cmp    cx,0x300
  40434e:	0f 85 41 02 00 00    	jne    0x404595
  404354:	c7 45 0c 0f 04 00 00 	mov    DWORD PTR [ebp+0xc],0x40f
  40435b:	3d e9 03 00 00       	cmp    eax,0x3e9
  404360:	0f 85 a4 00 00 00    	jne    0x40440a
  404366:	6a 07                	push   0x7
  404368:	33 c0                	xor    eax,eax
  40436a:	59                   	pop    ecx
  40436b:	8d 7d bc             	lea    edi,[ebp-0x44]
  40436e:	ff 75 fc             	push   DWORD PTR [ebp-0x4]
  404371:	f3 ab                	rep stos DWORD PTR es:[edi],eax
  404373:	8b 45 08             	mov    eax,DWORD PTR [ebp+0x8]
  404376:	bf 98 04 42 00       	mov    edi,0x420498
  40437b:	68 68 f8 41 00       	push   0x41f868
  404380:	89 45 b8             	mov    DWORD PTR [ebp-0x48],eax
  404383:	89 7d c0             	mov    DWORD PTR [ebp-0x40],edi
  404386:	c7 45 cc aa 45 40 00 	mov    DWORD PTR [ebp-0x34],0x4045aa
  40438d:	89 75 d0             	mov    DWORD PTR [ebp-0x30],esi
  404390:	e8 12 17 00 00       	call   0x405aa7
  404395:	89 45 c4             	mov    DWORD PTR [ebp-0x3c],eax
  404398:	8d 45 b8             	lea    eax,[ebp-0x48]
  40439b:	50                   	push   eax
  40439c:	c7 45 c8 41 00 00 00 	mov    DWORD PTR [ebp-0x38],0x41
  4043a3:	ff 15 54 71 40 00    	call   DWORD PTR ds:0x407154
  4043a9:	85 c0                	test   eax,eax
  4043ab:	74 56                	je     0x404403
  4043ad:	50                   	push   eax
  4043ae:	ff 15 78 72 40 00    	call   DWORD PTR ds:0x407278
  4043b4:	56                   	push   esi
  4043b5:	e8 be 11 00 00       	call   0x405578
  4043ba:	a1 b0 3e 42 00       	mov    eax,ds:0x423eb0
  4043bf:	8b 80 1c 01 00 00    	mov    eax,DWORD PTR [eax+0x11c]
  4043c5:	85 c0                	test   eax,eax
  4043c7:	74 28                	je     0x4043f1
  4043c9:	81 fe 00 94 42 00    	cmp    esi,0x429400
  4043cf:	75 20                	jne    0x4043f1
  4043d1:	50                   	push   eax
  4043d2:	6a 00                	push   0x0
  4043d4:	e8 ce 16 00 00       	call   0x405aa7
  4043d9:	57                   	push   edi
  4043da:	bf 40 2e 42 00       	mov    edi,0x422e40
  4043df:	57                   	push   edi
  4043e0:	ff 15 f0 70 40 00    	call   DWORD PTR ds:0x4070f0
  4043e6:	85 c0                	test   eax,eax
  4043e8:	74 07                	je     0x4043f1
  4043ea:	57                   	push   edi
  4043eb:	56                   	push   esi
  4043ec:	e8 b0 16 00 00       	call   0x405aa1
  4043f1:	ff 05 84 04 42 00    	inc    DWORD PTR ds:0x420484
  4043f7:	56                   	push   esi
  4043f8:	53                   	push   ebx
  4043f9:	ff 75 08             	push   DWORD PTR [ebp+0x8]
  4043fc:	e8 23 0f 00 00       	call   0x405324
  404401:	eb 07                	jmp    0x40440a
  404403:	c7 45 0c 0f 04 00 00 	mov    DWORD PTR [ebp+0xc],0x40f
  40440a:	81 7d 0c 0f 04 00 00 	cmp    DWORD PTR [ebp+0xc],0x40f
  404411:	74 0d                	je     0x404420
  404413:	81 7d 0c 05 04 00 00 	cmp    DWORD PTR [ebp+0xc],0x405
  40441a:	0f 85 75 01 00 00    	jne    0x404595
  404420:	83 65 fc 00          	and    DWORD PTR [ebp-0x4],0x0
  404424:	83 65 f8 00          	and    DWORD PTR [ebp-0x8],0x0
  404428:	56                   	push   esi
  404429:	53                   	push   ebx
  40442a:	e8 fb 0e 00 00       	call   0x40532a
  40442f:	56                   	push   esi
  404430:	e8 24 12 00 00       	call   0x405659
  404435:	85 c0                	test   eax,eax
  404437:	75 07                	jne    0x404440
  404439:	c7 45 fc 01 00 00 00 	mov    DWORD PTR [ebp-0x4],0x1
  404440:	bf 60 f4 41 00       	mov    edi,0x41f460
  404445:	56                   	push   esi
  404446:	57                   	push   edi
  404447:	e8 39 16 00 00       	call   0x405a85
  40444c:	33 db                	xor    ebx,ebx
  40444e:	53                   	push   ebx
  40444f:	e8 4f 19 00 00       	call   0x405da3
  404454:	3b c3                	cmp    eax,ebx
  404456:	89 45 f4             	mov    DWORD PTR [ebp-0xc],eax
  404459:	74 35                	je     0x404490
  40445b:	33 c0                	xor    eax,eax
  40445d:	3b c7                	cmp    eax,edi
  40445f:	74 2d                	je     0x40448e
  404461:	8d 45 e4             	lea    eax,[ebp-0x1c]
  404464:	50                   	push   eax
  404465:	8d 45 ec             	lea    eax,[ebp-0x14]
  404468:	50                   	push   eax
  404469:	8d 45 d8             	lea    eax,[ebp-0x28]
  40446c:	50                   	push   eax
  40446d:	57                   	push   edi
  40446e:	ff 55 f4             	call   DWORD PTR [ebp-0xc]
  404471:	85 c0                	test   eax,eax
  404473:	75 6c                	jne    0x4044e1
  404475:	85 db                	test   ebx,ebx
  404477:	74 03                	je     0x40447c
  404479:	66 21 03             	and    WORD PTR [ebx],ax
  40447c:	57                   	push   edi
  40447d:	e8 3d 11 00 00       	call   0x4055bf
  404482:	8b d8                	mov    ebx,eax
  404484:	4b                   	dec    ebx
  404485:	3b df                	cmp    ebx,edi
  404487:	66 c7 03 5c 00       	mov    WORD PTR [ebx],0x5c
  40448c:	75 d3                	jne    0x404461
  40448e:	33 db                	xor    ebx,ebx
  404490:	56                   	push   esi
  404491:	57                   	push   edi
  404492:	e8 ee 15 00 00       	call   0x405a85
  404497:	57                   	push   edi
  404498:	e8 6f 11 00 00       	call   0x40560c
  40449d:	3b c3                	cmp    eax,ebx
  40449f:	74 03                	je     0x4044a4
  4044a1:	80 20 00             	and    BYTE PTR [eax],0x0
  4044a4:	8d 45 dc             	lea    eax,[ebp-0x24]
  4044a7:	50                   	push   eax
  4044a8:	8d 45 f4             	lea    eax,[ebp-0xc]
  4044ab:	50                   	push   eax
  4044ac:	8d 45 e8             	lea    eax,[ebp-0x18]
  4044af:	50                   	push   eax
  4044b0:	8d 45 f0             	lea    eax,[ebp-0x10]
  4044b3:	50                   	push   eax
  4044b4:	57                   	push   edi
  4044b5:	ff 15 c0 70 40 00    	call   DWORD PTR ds:0x4070c0
  4044bb:	85 c0                	test   eax,eax
  4044bd:	74 3a                	je     0x4044f9
  4044bf:	8b 45 f0             	mov    eax,DWORD PTR [ebp-0x10]
  4044c2:	be 00 04 00 00       	mov    esi,0x400
  4044c7:	0f af 45 e8          	imul   eax,DWORD PTR [ebp-0x18]
  4044cb:	56                   	push   esi
  4044cc:	ff 75 f4             	push   DWORD PTR [ebp-0xc]
  4044cf:	50                   	push   eax
  4044d0:	ff 15 30 71 40 00    	call   DWORD PTR ds:0x407130
  4044d6:	8b f8                	mov    edi,eax
  4044d8:	c7 45 f8 01 00 00 00 	mov    DWORD PTR [ebp-0x8],0x1
  4044df:	eb 20                	jmp    0x404501
  4044e1:	8b 7d d8             	mov    edi,DWORD PTR [ebp-0x28]
  4044e4:	8b 45 dc             	mov    eax,DWORD PTR [ebp-0x24]
  4044e7:	0f ac c7 0a          	shrd   edi,eax,0xa
  4044eb:	c1 e8 0a             	shr    eax,0xa
  4044ee:	c7 45 f8 01 00 00 00 	mov    DWORD PTR [ebp-0x8],0x1
  4044f5:	33 db                	xor    ebx,ebx
  4044f7:	eb 03                	jmp    0x4044fc
  4044f9:	8b 7d 0c             	mov    edi,DWORD PTR [ebp+0xc]
  4044fc:	be 00 04 00 00       	mov    esi,0x400
  404501:	6a 05                	push   0x5
  404503:	e8 bd 01 00 00       	call   0x4046c5
  404508:	39 5d f8             	cmp    DWORD PTR [ebp-0x8],ebx
  40450b:	74 0b                	je     0x404518
  40450d:	3b f8                	cmp    edi,eax
  40450f:	73 07                	jae    0x404518
  404511:	c7 45 fc 02 00 00 00 	mov    DWORD PTR [ebp-0x4],0x2
  404518:	8b 0d 7c 36 42 00    	mov    ecx,DWORD PTR ds:0x42367c
  40451e:	39 59 10             	cmp    DWORD PTR [ecx+0x10],ebx
  404521:	74 2b                	je     0x40454e
  404523:	50                   	push   eax
  404524:	6a fb                	push   0xfffffffb
  404526:	68 ff 03 00 00       	push   0x3ff
  40452b:	e8 e0 00 00 00       	call   0x404610
  404530:	39 5d f8             	cmp    DWORD PTR [ebp-0x8],ebx
  404533:	74 0b                	je     0x404540
  404535:	57                   	push   edi
  404536:	6a fc                	push   0xfffffffc
  404538:	56                   	push   esi
  404539:	e8 d2 00 00 00       	call   0x404610
  40453e:	eb 0e                	jmp    0x40454e
  404540:	68 50 f4 41 00       	push   0x41f450
  404545:	56                   	push   esi
  404546:	ff 75 08             	push   DWORD PTR [ebp+0x8]
  404549:	e8 d6 0d 00 00       	call   0x405324
  40454e:	8b 45 fc             	mov    eax,DWORD PTR [ebp-0x4]
  404551:	3b c3                	cmp    eax,ebx
  404553:	a3 44 3f 42 00       	mov    ds:0x423f44,eax
  404558:	75 0a                	jne    0x404564
  40455a:	6a 07                	push   0x7
  40455c:	e8 aa ce ff ff       	call   0x40140b
  404561:	89 45 fc             	mov    DWORD PTR [ebp-0x4],eax
  404564:	8b 45 e0             	mov    eax,DWORD PTR [ebp-0x20]
  404567:	85 70 14             	test   DWORD PTR [eax+0x14],esi
  40456a:	74 03                	je     0x40456f
  40456c:	89 5d fc             	mov    DWORD PTR [ebp-0x4],ebx
  40456f:	33 c0                	xor    eax,eax
  404571:	39 5d fc             	cmp    DWORD PTR [ebp-0x4],ebx
  404574:	0f 94 c0             	sete   al
  404577:	50                   	push   eax
  404578:	e8 dc f8 ff ff       	call   0x403e59
  40457d:	39 5d fc             	cmp    DWORD PTR [ebp-0x4],ebx
  404580:	75 0d                	jne    0x40458f
  404582:	39 1d 84 04 42 00    	cmp    DWORD PTR ds:0x420484,ebx
  404588:	75 05                	jne    0x40458f
  40458a:	e8 7b fc ff ff       	call   0x40420a
  40458f:	89 1d 84 04 42 00    	mov    DWORD PTR ds:0x420484,ebx
  404595:	ff 75 14             	push   DWORD PTR [ebp+0x14]
  404598:	ff 75 10             	push   DWORD PTR [ebp+0x10]
  40459b:	ff 75 0c             	push   DWORD PTR [ebp+0xc]
  40459e:	e8 fb f8 ff ff       	call   0x403e9e
  4045a3:	5f                   	pop    edi
  4045a4:	5e                   	pop    esi
  4045a5:	5b                   	pop    ebx
  4045a6:	c9                   	leave  
  4045a7:	c2 10 00             	ret    0x10
  4045aa:	55                   	push   ebp
  4045ab:	8b ec                	mov    ebp,esp
  4045ad:	83 7d 0c 01          	cmp    DWORD PTR [ebp+0xc],0x1
  4045b1:	56                   	push   esi
  4045b2:	8b 35 44 72 40 00    	mov    esi,DWORD PTR ds:0x407244
  4045b8:	75 1c                	jne    0x4045d6
  4045ba:	ff 75 14             	push   DWORD PTR [ebp+0x14]
  4045bd:	68 fb 03 00 00       	push   0x3fb
  4045c2:	e8 63 0d 00 00       	call   0x40532a
  4045c7:	ff 75 14             	push   DWORD PTR [ebp+0x14]
  4045ca:	6a 01                	push   0x1
  4045cc:	68 66 04 00 00       	push   0x466
  4045d1:	ff 75 08             	push   DWORD PTR [ebp+0x8]
  4045d4:	ff d6                	call   esi
  4045d6:	83 7d 0c 02          	cmp    DWORD PTR [ebp+0xc],0x2
  4045da:	75 2d                	jne    0x404609
  4045dc:	ff 75 14             	push   DWORD PTR [ebp+0x14]
  4045df:	ff 75 10             	push   DWORD PTR [ebp+0x10]
  4045e2:	ff 15 50 71 40 00    	call   DWORD PTR ds:0x407150
  4045e8:	85 c0                	test   eax,eax
  4045ea:	74 0e                	je     0x4045fa
  4045ec:	6a 07                	push   0x7
  4045ee:	e8 18 ce ff ff       	call   0x40140b
  4045f3:	85 c0                	test   eax,eax
  4045f5:	75 03                	jne    0x4045fa
  4045f7:	40                   	inc    eax
  4045f8:	eb 02                	jmp    0x4045fc
  4045fa:	33 c0                	xor    eax,eax
  4045fc:	50                   	push   eax
  4045fd:	6a 00                	push   0x0
  4045ff:	68 65 04 00 00       	push   0x465
  404604:	ff 75 08             	push   DWORD PTR [ebp+0x8]
  404607:	ff d6                	call   esi
  404609:	33 c0                	xor    eax,eax
  40460b:	5e                   	pop    esi
  40460c:	5d                   	pop    ebp
  40460d:	c2 10 00             	ret    0x10
  404610:	55                   	push   ebp
  404611:	8b ec                	mov    ebp,esp
  404613:	83 ec 40             	sub    esp,0x40
  404616:	53                   	push   ebx
  404617:	56                   	push   esi
  404618:	8b 75 10             	mov    esi,DWORD PTR [ebp+0x10]
  40461b:	57                   	push   edi
  40461c:	6a 14                	push   0x14
  40461e:	81 fe 00 00 10 00    	cmp    esi,0x100000
  404624:	5f                   	pop    edi
  404625:	6a dc                	push   0xffffffdc
  404627:	5b                   	pop    ebx
  404628:	73 06                	jae    0x404630
  40462a:	6a 0a                	push   0xa
  40462c:	5f                   	pop    edi
  40462d:	6a dd                	push   0xffffffdd
  40462f:	5b                   	pop    ebx
  404630:	81 fe 00 04 00 00    	cmp    esi,0x400
  404636:	73 05                	jae    0x40463d
  404638:	6a de                	push   0xffffffde
  40463a:	33 ff                	xor    edi,edi
  40463c:	5b                   	pop    ebx
  40463d:	81 fe 33 33 ff ff    	cmp    esi,0xffff3333
  404643:	73 0f                	jae    0x404654
  404645:	33 c0                	xor    eax,eax
  404647:	8b cf                	mov    ecx,edi
  404649:	40                   	inc    eax
  40464a:	6a 14                	push   0x14
  40464c:	d3 e0                	shl    eax,cl
  40464e:	59                   	pop    ecx
  40464f:	99                   	cdq    
  404650:	f7 f9                	idiv   ecx
  404652:	03 f0                	add    esi,eax
  404654:	8d 45 e0             	lea    eax,[ebp-0x20]
  404657:	6a df                	push   0xffffffdf
  404659:	50                   	push   eax
  40465a:	e8 48 14 00 00       	call   0x405aa7
  40465f:	50                   	push   eax
  404660:	8d 45 c0             	lea    eax,[ebp-0x40]
  404663:	53                   	push   ebx
  404664:	50                   	push   eax
  404665:	e8 3d 14 00 00       	call   0x405aa7
  40466a:	50                   	push   eax
  40466b:	8b c6                	mov    eax,esi
  40466d:	25 ff ff ff 00       	and    eax,0xffffff
  404672:	8b cf                	mov    ecx,edi
  404674:	6a 0a                	push   0xa
  404676:	33 d2                	xor    edx,edx
  404678:	8d 04 80             	lea    eax,[eax+eax*4]
  40467b:	03 c0                	add    eax,eax
  40467d:	d3 e8                	shr    eax,cl
  40467f:	59                   	pop    ecx
  404680:	f7 f1                	div    ecx
  404682:	8b cf                	mov    ecx,edi
  404684:	d3 ee                	shr    esi,cl
  404686:	52                   	push   edx
  404687:	56                   	push   esi
  404688:	68 e4 91 40 00       	push   0x4091e4
  40468d:	be 98 04 42 00       	mov    esi,0x420498
  404692:	ff 75 0c             	push   DWORD PTR [ebp+0xc]
  404695:	56                   	push   esi
  404696:	e8 0c 14 00 00       	call   0x405aa7
  40469b:	56                   	push   esi
  40469c:	8b f8                	mov    edi,eax
  40469e:	e8 f8 13 00 00       	call   0x405a9b
  4046a3:	03 f8                	add    edi,eax
  4046a5:	57                   	push   edi
  4046a6:	ff 15 00 72 40 00    	call   DWORD PTR ds:0x407200
  4046ac:	83 c4 18             	add    esp,0x18
  4046af:	56                   	push   esi
  4046b0:	ff 75 08             	push   DWORD PTR [ebp+0x8]
  4046b3:	ff 35 78 36 42 00    	push   DWORD PTR ds:0x423678
  4046b9:	e8 66 0c 00 00       	call   0x405324
  4046be:	5f                   	pop    edi
  4046bf:	5e                   	pop    esi
  4046c0:	5b                   	pop    ebx
  4046c1:	c9                   	leave  
  4046c2:	c2 0c 00             	ret    0xc
  4046c5:	8b 15 cc 3e 42 00    	mov    edx,DWORD PTR ds:0x423ecc
  4046cb:	8b 0d c8 3e 42 00    	mov    ecx,DWORD PTR ds:0x423ec8
  4046d1:	33 c0                	xor    eax,eax
  4046d3:	85 d2                	test   edx,edx
  4046d5:	74 18                	je     0x4046ef
  4046d7:	56                   	push   esi
  4046d8:	f6 41 08 01          	test   BYTE PTR [ecx+0x8],0x1
  4046dc:	74 07                	je     0x4046e5
  4046de:	8b 74 24 08          	mov    esi,DWORD PTR [esp+0x8]
  4046e2:	03 04 b1             	add    eax,DWORD PTR [ecx+esi*4]
  4046e5:	81 c1 18 04 00 00    	add    ecx,0x418
  4046eb:	4a                   	dec    edx
  4046ec:	75 ea                	jne    0x4046d8
  4046ee:	5e                   	pop    esi
  4046ef:	c2 04 00             	ret    0x4
  4046f2:	55                   	push   ebp
  4046f3:	8b ec                	mov    ebp,esp
  4046f5:	83 ec 38             	sub    esp,0x38
  4046f8:	56                   	push   esi
  4046f9:	8b 35 44 72 40 00    	mov    esi,DWORD PTR ds:0x407244
  4046ff:	57                   	push   edi
  404700:	8b 7d 08             	mov    edi,DWORD PTR [ebp+0x8]
  404703:	6a 00                	push   0x0
  404705:	6a 09                	push   0x9
  404707:	68 0a 11 00 00       	push   0x110a
  40470c:	57                   	push   edi
  40470d:	ff d6                	call   esi
  40470f:	83 7d 0c 00          	cmp    DWORD PTR [ebp+0xc],0x0
  404713:	74 3c                	je     0x404751
  404715:	ff 15 a0 71 40 00    	call   DWORD PTR ds:0x4071a0
  40471b:	0f bf c8             	movsx  ecx,ax
  40471e:	c1 e8 10             	shr    eax,0x10
  404721:	0f bf c0             	movsx  eax,ax
  404724:	89 45 f4             	mov    DWORD PTR [ebp-0xc],eax
  404727:	8d 45 f0             	lea    eax,[ebp-0x10]
  40472a:	50                   	push   eax
  40472b:	57                   	push   edi
  40472c:	89 4d f0             	mov    DWORD PTR [ebp-0x10],ecx
  40472f:	ff 15 70 71 40 00    	call   DWORD PTR ds:0x407170
  404735:	8d 45 f0             	lea    eax,[ebp-0x10]
  404738:	50                   	push   eax
  404739:	6a 00                	push   0x0
  40473b:	68 11 11 00 00       	push   0x1111
  404740:	57                   	push   edi
  404741:	ff d6                	call   esi
  404743:	f6 45 f8 66          	test   BYTE PTR [ebp-0x8],0x66
  404747:	75 05                	jne    0x40474e
  404749:	83 c8 ff             	or     eax,0xffffffff
  40474c:	eb 1e                	jmp    0x40476c
  40474e:	8b 45 fc             	mov    eax,DWORD PTR [ebp-0x4]
  404751:	89 45 cc             	mov    DWORD PTR [ebp-0x34],eax
  404754:	8d 45 c8             	lea    eax,[ebp-0x38]
  404757:	50                   	push   eax
  404758:	6a 00                	push   0x0
  40475a:	68 0c 11 00 00       	push   0x110c
  40475f:	57                   	push   edi
  404760:	c7 45 c8 04 00 00 00 	mov    DWORD PTR [ebp-0x38],0x4
  404767:	ff d6                	call   esi
  404769:	8b 45 ec             	mov    eax,DWORD PTR [ebp-0x14]
  40476c:	5f                   	pop    edi
  40476d:	5e                   	pop    esi
  40476e:	c9                   	leave  
  40476f:	c2 08 00             	ret    0x8
  404772:	55                   	push   ebp
  404773:	8b ec                	mov    ebp,esp
  404775:	83 ec 50             	sub    esp,0x50
  404778:	53                   	push   ebx
  404779:	56                   	push   esi
  40477a:	8b 35 2c 72 40 00    	mov    esi,DWORD PTR ds:0x40722c
  404780:	57                   	push   edi
  404781:	68 f9 03 00 00       	push   0x3f9
  404786:	ff 75 08             	push   DWORD PTR [ebp+0x8]
  404789:	ff d6                	call   esi
  40478b:	68 08 04 00 00       	push   0x408
  404790:	89 45 f8             	mov    DWORD PTR [ebp-0x8],eax
  404793:	ff 75 08             	push   DWORD PTR [ebp+0x8]
  404796:	ff d6                	call   esi
  404798:	8b 1d c8 3e 42 00    	mov    ebx,DWORD PTR ds:0x423ec8
  40479e:	8b 35 44 72 40 00    	mov    esi,DWORD PTR ds:0x407244
  4047a4:	89 45 fc             	mov    DWORD PTR [ebp-0x4],eax
  4047a7:	a1 b0 3e 42 00       	mov    eax,ds:0x423eb0
  4047ac:	05 94 00 00 00       	add    eax,0x94
  4047b1:	33 ff                	xor    edi,edi
  4047b3:	81 7d 0c 10 01 00 00 	cmp    DWORD PTR [ebp+0xc],0x110
  4047ba:	89 5d e4             	mov    DWORD PTR [ebp-0x1c],ebx
  4047bd:	89 45 f0             	mov    DWORD PTR [ebp-0x10],eax
  4047c0:	0f 85 22 02 00 00    	jne    0x4049e8
  4047c6:	8b 45 08             	mov    eax,DWORD PTR [ebp+0x8]
  4047c9:	6a 02                	push   0x2
  4047cb:	a3 00 3f 42 00       	mov    ds:0x423f00,eax
  4047d0:	a1 cc 3e 42 00       	mov    eax,ds:0x423ecc
  4047d5:	5b                   	pop    ebx
  4047d6:	89 7d e8             	mov    DWORD PTR [ebp-0x18],edi
  4047d9:	c1 e0 02             	shl    eax,0x2
  4047dc:	50                   	push   eax
  4047dd:	6a 40                	push   0x40
  4047df:	89 5d f4             	mov    DWORD PTR [ebp-0xc],ebx
  4047e2:	ff 15 00 71 40 00    	call   DWORD PTR ds:0x407100
  4047e8:	6a 6e                	push   0x6e
  4047ea:	a3 8c 04 42 00       	mov    ds:0x42048c,eax
  4047ef:	ff 35 a0 3e 42 00    	push   DWORD PTR ds:0x423ea0
  4047f5:	ff 15 a4 71 40 00    	call   DWORD PTR ds:0x4071a4
  4047fb:	83 0d 80 04 42 00 ff 	or     DWORD PTR ds:0x420480,0xffffffff
  404802:	68 73 4d 40 00       	push   0x404d73
  404807:	6a fc                	push   0xfffffffc
  404809:	89 45 ec             	mov    DWORD PTR [ebp-0x14],eax
  40480c:	ff 75 fc             	push   DWORD PTR [ebp-0x4]
  40480f:	ff 15 30 72 40 00    	call   DWORD PTR ds:0x407230
  404815:	57                   	push   edi
  404816:	6a 06                	push   0x6
  404818:	6a 21                	push   0x21
  40481a:	6a 10                	push   0x10
  40481c:	6a 10                	push   0x10
  40481e:	a3 88 04 42 00       	mov    ds:0x420488,eax
  404823:	ff 15 34 70 40 00    	call   DWORD PTR ds:0x407034
  404829:	68 ff 00 ff 00       	push   0xff00ff
  40482e:	a3 74 04 42 00       	mov    ds:0x420474,eax
  404833:	ff 75 ec             	push   DWORD PTR [ebp-0x14]
  404836:	50                   	push   eax
  404837:	ff 15 28 70 40 00    	call   DWORD PTR ds:0x407028
  40483d:	ff 35 74 04 42 00    	push   DWORD PTR ds:0x420474
  404843:	53                   	push   ebx
  404844:	68 09 11 00 00       	push   0x1109
  404849:	ff 75 fc             	push   DWORD PTR [ebp-0x4]
  40484c:	ff d6                	call   esi
  40484e:	57                   	push   edi
  40484f:	57                   	push   edi
  404850:	68 1c 11 00 00       	push   0x111c
  404855:	ff 75 fc             	push   DWORD PTR [ebp-0x4]
  404858:	ff d6                	call   esi
  40485a:	83 f8 10             	cmp    eax,0x10
  40485d:	7d 0d                	jge    0x40486c
  40485f:	57                   	push   edi
  404860:	6a 10                	push   0x10
  404862:	68 1b 11 00 00       	push   0x111b
  404867:	ff 75 fc             	push   DWORD PTR [ebp-0x4]
  40486a:	ff d6                	call   esi
  40486c:	ff 75 ec             	push   DWORD PTR [ebp-0x14]
  40486f:	ff 15 44 70 40 00    	call   DWORD PTR ds:0x407044
  404875:	33 db                	xor    ebx,ebx
  404877:	8b 45 f0             	mov    eax,DWORD PTR [ebp-0x10]
  40487a:	8b 04 98             	mov    eax,DWORD PTR [eax+ebx*4]
  40487d:	3b c7                	cmp    eax,edi
  40487f:	74 27                	je     0x4048a8
  404881:	83 fb 20             	cmp    ebx,0x20
  404884:	74 03                	je     0x404889
  404886:	89 7d f4             	mov    DWORD PTR [ebp-0xc],edi
  404889:	50                   	push   eax
  40488a:	57                   	push   edi
  40488b:	e8 17 12 00 00       	call   0x405aa7
  404890:	50                   	push   eax
  404891:	57                   	push   edi
  404892:	68 43 01 00 00       	push   0x143
  404897:	ff 75 f8             	push   DWORD PTR [ebp-0x8]
  40489a:	ff d6                	call   esi
  40489c:	53                   	push   ebx
  40489d:	50                   	push   eax
  40489e:	68 51 01 00 00       	push   0x151
  4048a3:	ff 75 f8             	push   DWORD PTR [ebp-0x8]
  4048a6:	ff d6                	call   esi
  4048a8:	43                   	inc    ebx
  4048a9:	83 fb 21             	cmp    ebx,0x21
  4048ac:	7c c9                	jl     0x404877
  4048ae:	8b 7d 14             	mov    edi,DWORD PTR [ebp+0x14]
  4048b1:	8b 5d f4             	mov    ebx,DWORD PTR [ebp-0xc]
  4048b4:	ff 74 9f 30          	push   DWORD PTR [edi+ebx*4+0x30]
  4048b8:	6a 15                	push   0x15
  4048ba:	ff 75 08             	push   DWORD PTR [ebp+0x8]
  4048bd:	e8 75 f5 ff ff       	call   0x403e37
  4048c2:	ff 74 9f 34          	push   DWORD PTR [edi+ebx*4+0x34]
  4048c6:	6a 16                	push   0x16
  4048c8:	ff 75 08             	push   DWORD PTR [ebp+0x8]
  4048cb:	e8 67 f5 ff ff       	call   0x403e37
  4048d0:	33 ff                	xor    edi,edi
  4048d2:	33 db                	xor    ebx,ebx
  4048d4:	39 3d cc 3e 42 00    	cmp    DWORD PTR ds:0x423ecc,edi
  4048da:	0f 8e c4 00 00 00    	jle    0x4049a4
  4048e0:	8b 45 e4             	mov    eax,DWORD PTR [ebp-0x1c]
  4048e3:	8d 50 08             	lea    edx,[eax+0x8]
  4048e6:	89 55 ec             	mov    DWORD PTR [ebp-0x14],edx
  4048e9:	8d 42 10             	lea    eax,[edx+0x10]
  4048ec:	80 38 00             	cmp    BYTE PTR [eax],0x0
  4048ef:	0f 84 90 00 00 00    	je     0x404985
  4048f5:	89 45 c8             	mov    DWORD PTR [ebp-0x38],eax
  4048f8:	8b 02                	mov    eax,DWORD PTR [edx]
  4048fa:	6a 20                	push   0x20
  4048fc:	8b d0                	mov    edx,eax
  4048fe:	59                   	pop    ecx
  4048ff:	89 5d b0             	mov    DWORD PTR [ebp-0x50],ebx
  404902:	23 d1                	and    edx,ecx
  404904:	c7 45 b4 02 00 ff ff 	mov    DWORD PTR [ebp-0x4c],0xffff0002
  40490b:	a8 02                	test   al,0x2
  40490d:	c7 45 b8 0d 00 00 00 	mov    DWORD PTR [ebp-0x48],0xd
  404914:	89 4d c4             	mov    DWORD PTR [ebp-0x3c],ecx
  404917:	89 7d dc             	mov    DWORD PTR [ebp-0x24],edi
  40491a:	89 55 c0             	mov    DWORD PTR [ebp-0x40],edx
  40491d:	74 38                	je     0x404957
  40491f:	8d 45 b0             	lea    eax,[ebp-0x50]
  404922:	c7 45 b8 4d 00 00 00 	mov    DWORD PTR [ebp-0x48],0x4d
  404929:	50                   	push   eax
  40492a:	6a 00                	push   0x0
  40492c:	68 00 11 00 00       	push   0x1100
  404931:	c7 45 d8 01 00 00 00 	mov    DWORD PTR [ebp-0x28],0x1
  404938:	ff 75 fc             	push   DWORD PTR [ebp-0x4]
  40493b:	ff d6                	call   esi
  40493d:	8b 0d 8c 04 42 00    	mov    ecx,DWORD PTR ds:0x42048c
  404943:	c7 45 e8 01 00 00 00 	mov    DWORD PTR [ebp-0x18],0x1
  40494a:	89 04 b9             	mov    DWORD PTR [ecx+edi*4],eax
  40494d:	a1 8c 04 42 00       	mov    eax,ds:0x42048c
  404952:	8b 1c b8             	mov    ebx,DWORD PTR [eax+edi*4]
  404955:	eb 2e                	jmp    0x404985
  404957:	a8 04                	test   al,0x4
  404959:	74 11                	je     0x40496c
  40495b:	53                   	push   ebx
  40495c:	6a 03                	push   0x3
  40495e:	68 0a 11 00 00       	push   0x110a
  404963:	ff 75 fc             	push   DWORD PTR [ebp-0x4]
  404966:	ff d6                	call   esi
  404968:	8b d8                	mov    ebx,eax
  40496a:	eb 19                	jmp    0x404985
  40496c:	8d 45 b0             	lea    eax,[ebp-0x50]
  40496f:	50                   	push   eax
  404970:	6a 00                	push   0x0
  404972:	68 00 11 00 00       	push   0x1100
  404977:	ff 75 fc             	push   DWORD PTR [ebp-0x4]
  40497a:	ff d6                	call   esi
  40497c:	8b 0d 8c 04 42 00    	mov    ecx,DWORD PTR ds:0x42048c
  404982:	89 04 b9             	mov    DWORD PTR [ecx+edi*4],eax
  404985:	8b 55 ec             	mov    edx,DWORD PTR [ebp-0x14]
  404988:	47                   	inc    edi
  404989:	81 c2 18 04 00 00    	add    edx,0x418
  40498f:	3b 3d cc 3e 42 00    	cmp    edi,DWORD PTR ds:0x423ecc
  404995:	89 55 ec             	mov    DWORD PTR [ebp-0x14],edx
  404998:	0f 8c 4b ff ff ff    	jl     0x4048e9
  40499e:	83 7d e8 00          	cmp    DWORD PTR [ebp-0x18],0x0
  4049a2:	75 19                	jne    0x4049bd
  4049a4:	6a f0                	push   0xfffffff0
  4049a6:	ff 75 fc             	push   DWORD PTR [ebp-0x4]
  4049a9:	ff 15 90 71 40 00    	call   DWORD PTR ds:0x407190
  4049af:	24 fb                	and    al,0xfb
  4049b1:	50                   	push   eax
  4049b2:	6a f0                	push   0xfffffff0
  4049b4:	ff 75 fc             	push   DWORD PTR [ebp-0x4]
  4049b7:	ff 15 30 72 40 00    	call   DWORD PTR ds:0x407230
  4049bd:	83 7d f4 00          	cmp    DWORD PTR [ebp-0xc],0x0
  4049c1:	75 18                	jne    0x4049db
  4049c3:	6a 05                	push   0x5
  4049c5:	ff 75 f8             	push   DWORD PTR [ebp-0x8]
  4049c8:	ff 15 60 72 40 00    	call   DWORD PTR ds:0x407260
  4049ce:	ff 75 f8             	push   DWORD PTR [ebp-0x8]
  4049d1:	e8 96 f4 ff ff       	call   0x403e6c
  4049d6:	e9 83 03 00 00       	jmp    0x404d5e
  4049db:	ff 75 fc             	push   DWORD PTR [ebp-0x4]
  4049de:	e8 89 f4 ff ff       	call   0x403e6c
  4049e3:	8b 5d e4             	mov    ebx,DWORD PTR [ebp-0x1c]
  4049e6:	33 ff                	xor    edi,edi
  4049e8:	81 7d 0c 05 04 00 00 	cmp    DWORD PTR [ebp+0xc],0x405
  4049ef:	75 12                	jne    0x404a03
  4049f1:	33 c9                	xor    ecx,ecx
  4049f3:	89 7d 10             	mov    DWORD PTR [ebp+0x10],edi
  4049f6:	41                   	inc    ecx
  4049f7:	c7 45 0c 0f 04 00 00 	mov    DWORD PTR [ebp+0xc],0x40f
  4049fe:	89 4d 14             	mov    DWORD PTR [ebp+0x14],ecx
  404a01:	eb 03                	jmp    0x404a06
  404a03:	8b 4d 14             	mov    ecx,DWORD PTR [ebp+0x14]
  404a06:	83 7d 0c 4e          	cmp    DWORD PTR [ebp+0xc],0x4e
  404a0a:	b8 13 04 00 00       	mov    eax,0x413
  404a0f:	74 09                	je     0x404a1a
  404a11:	39 45 0c             	cmp    DWORD PTR [ebp+0xc],eax
  404a14:	0f 85 e7 00 00 00    	jne    0x404b01
  404a1a:	39 45 0c             	cmp    DWORD PTR [ebp+0xc],eax
  404a1d:	89 4d f4             	mov    DWORD PTR [ebp-0xc],ecx
  404a20:	74 0d                	je     0x404a2f
  404a22:	81 79 04 08 04 00 00 	cmp    DWORD PTR [ecx+0x4],0x408
  404a29:	0f 85 d2 00 00 00    	jne    0x404b01
  404a2f:	f6 05 b9 3e 42 00 02 	test   BYTE PTR ds:0x423eb9,0x2
  404a36:	75 76                	jne    0x404aae
  404a38:	39 45 0c             	cmp    DWORD PTR [ebp+0xc],eax
  404a3b:	74 09                	je     0x404a46
  404a3d:	8b 4d 14             	mov    ecx,DWORD PTR [ebp+0x14]
  404a40:	83 79 08 fe          	cmp    DWORD PTR [ecx+0x8],0xfffffffe
  404a44:	75 68                	jne    0x404aae
  404a46:	33 c9                	xor    ecx,ecx
  404a48:	39 45 0c             	cmp    DWORD PTR [ebp+0xc],eax
  404a4b:	0f 95 c1             	setne  cl
  404a4e:	51                   	push   ecx
  404a4f:	ff 75 fc             	push   DWORD PTR [ebp-0x4]
  404a52:	e8 9b fc ff ff       	call   0x4046f2
  404a57:	3b c7                	cmp    eax,edi
  404a59:	7c 53                	jl     0x404aae
  404a5b:	8b c8                	mov    ecx,eax
  404a5d:	69 c9 18 04 00 00    	imul   ecx,ecx,0x418
  404a63:	8d 54 19 08          	lea    edx,[ecx+ebx*1+0x8]
  404a67:	8b 0a                	mov    ecx,DWORD PTR [edx]
  404a69:	f6 c1 10             	test   cl,0x10
  404a6c:	75 40                	jne    0x404aae
  404a6e:	f6 c1 40             	test   cl,0x40
  404a71:	74 14                	je     0x404a87
  404a73:	81 f1 80 00 00 00    	xor    ecx,0x80
  404a79:	84 c9                	test   cl,cl
  404a7b:	79 05                	jns    0x404a82
  404a7d:	83 c9 01             	or     ecx,0x1
  404a80:	eb 08                	jmp    0x404a8a
  404a82:	83 e1 fe             	and    ecx,0xfffffffe
  404a85:	eb 03                	jmp    0x404a8a
  404a87:	83 f1 01             	xor    ecx,0x1
  404a8a:	50                   	push   eax
  404a8b:	89 0a                	mov    DWORD PTR [edx],ecx
  404a8d:	e8 eb c6 ff ff       	call   0x40117d
  404a92:	a1 b8 3e 42 00       	mov    eax,ds:0x423eb8
  404a97:	33 c9                	xor    ecx,ecx
  404a99:	f7 d0                	not    eax
  404a9b:	41                   	inc    ecx
  404a9c:	c7 45 0c 0f 04 00 00 	mov    DWORD PTR [ebp+0xc],0x40f
  404aa3:	c1 e8 08             	shr    eax,0x8
  404aa6:	23 c1                	and    eax,ecx
  404aa8:	89 4d 10             	mov    DWORD PTR [ebp+0x10],ecx
  404aab:	89 45 14             	mov    DWORD PTR [ebp+0x14],eax
  404aae:	39 7d f4             	cmp    DWORD PTR [ebp-0xc],edi
  404ab1:	74 4e                	je     0x404b01
  404ab3:	8b 45 f4             	mov    eax,DWORD PTR [ebp-0xc]
  404ab6:	81 78 08 6e fe ff ff 	cmp    DWORD PTR [eax+0x8],0xfffffe6e
  404abd:	75 0e                	jne    0x404acd
  404abf:	ff 70 5c             	push   DWORD PTR [eax+0x5c]
  404ac2:	57                   	push   edi
  404ac3:	68 19 04 00 00       	push   0x419
  404ac8:	ff 75 fc             	push   DWORD PTR [ebp-0x4]
  404acb:	ff d6                	call   esi
  404acd:	8b 45 f4             	mov    eax,DWORD PTR [ebp-0xc]
  404ad0:	81 78 08 6a fe ff ff 	cmp    DWORD PTR [eax+0x8],0xfffffe6a
  404ad7:	75 28                	jne    0x404b01
  404ad9:	83 78 0c 02          	cmp    DWORD PTR [eax+0xc],0x2
  404add:	75 12                	jne    0x404af1
  404adf:	8b 40 5c             	mov    eax,DWORD PTR [eax+0x5c]
  404ae2:	69 c0 18 04 00 00    	imul   eax,eax,0x418
  404ae8:	8d 44 18 08          	lea    eax,[eax+ebx*1+0x8]
  404aec:	83 08 20             	or     DWORD PTR [eax],0x20
  404aef:	eb 10                	jmp    0x404b01
  404af1:	8b 40 5c             	mov    eax,DWORD PTR [eax+0x5c]
  404af4:	69 c0 18 04 00 00    	imul   eax,eax,0x418
  404afa:	8d 5c 18 08          	lea    ebx,[eax+ebx*1+0x8]
  404afe:	83 23 df             	and    DWORD PTR [ebx],0xffffffdf
  404b01:	81 7d 0c 11 01 00 00 	cmp    DWORD PTR [ebp+0xc],0x111
  404b08:	75 72                	jne    0x404b7c
  404b0a:	66 81 7d 10 f9 03    	cmp    WORD PTR [ebp+0x10],0x3f9
  404b10:	0f 85 48 02 00 00    	jne    0x404d5e
  404b16:	8b 45 10             	mov    eax,DWORD PTR [ebp+0x10]
  404b19:	c1 e8 10             	shr    eax,0x10
  404b1c:	66 3d 01 00          	cmp    ax,0x1
  404b20:	0f 85 38 02 00 00    	jne    0x404d5e
  404b26:	57                   	push   edi
  404b27:	57                   	push   edi
  404b28:	68 47 01 00 00       	push   0x147
  404b2d:	ff 75 f8             	push   DWORD PTR [ebp-0x8]
  404b30:	ff d6                	call   esi
  404b32:	83 f8 ff             	cmp    eax,0xffffffff
  404b35:	0f 84 23 02 00 00    	je     0x404d5e
  404b3b:	57                   	push   edi
  404b3c:	50                   	push   eax
  404b3d:	68 50 01 00 00       	push   0x150
  404b42:	ff 75 f8             	push   DWORD PTR [ebp-0x8]
  404b45:	ff d6                	call   esi
  404b47:	8b d8                	mov    ebx,eax
  404b49:	83 fb ff             	cmp    ebx,0xffffffff
  404b4c:	74 08                	je     0x404b56
  404b4e:	8b 45 f0             	mov    eax,DWORD PTR [ebp-0x10]
  404b51:	39 3c 98             	cmp    DWORD PTR [eax+ebx*4],edi
  404b54:	75 03                	jne    0x404b59
  404b56:	6a 20                	push   0x20
  404b58:	5b                   	pop    ebx
  404b59:	53                   	push   ebx
  404b5a:	e8 3a c7 ff ff       	call   0x401299
  404b5f:	53                   	push   ebx
  404b60:	57                   	push   edi
  404b61:	68 20 04 00 00       	push   0x420
  404b66:	ff 75 08             	push   DWORD PTR [ebp+0x8]
  404b69:	ff d6                	call   esi
  404b6b:	c7 45 10 01 00 00 00 	mov    DWORD PTR [ebp+0x10],0x1
  404b72:	89 7d 14             	mov    DWORD PTR [ebp+0x14],edi
  404b75:	c7 45 0c 0f 04 00 00 	mov    DWORD PTR [ebp+0xc],0x40f
  404b7c:	81 7d 0c 00 02 00 00 	cmp    DWORD PTR [ebp+0xc],0x200
  404b83:	75 0c                	jne    0x404b91
  404b85:	57                   	push   edi
  404b86:	57                   	push   edi
  404b87:	68 00 02 00 00       	push   0x200
  404b8c:	ff 75 fc             	push   DWORD PTR [ebp-0x4]
  404b8f:	ff d6                	call   esi
  404b91:	81 7d 0c 0b 04 00 00 	cmp    DWORD PTR [ebp+0xc],0x40b
  404b98:	75 32                	jne    0x404bcc
  404b9a:	a1 74 04 42 00       	mov    eax,ds:0x420474
  404b9f:	3b c7                	cmp    eax,edi
  404ba1:	74 07                	je     0x404baa
  404ba3:	50                   	push   eax
  404ba4:	ff 15 2c 70 40 00    	call   DWORD PTR ds:0x40702c
  404baa:	a1 8c 04 42 00       	mov    eax,ds:0x42048c
  404baf:	3b c7                	cmp    eax,edi
  404bb1:	74 07                	je     0x404bba
  404bb3:	50                   	push   eax
  404bb4:	ff 15 fc 70 40 00    	call   DWORD PTR ds:0x4070fc
  404bba:	89 3d 74 04 42 00    	mov    DWORD PTR ds:0x420474,edi
  404bc0:	89 3d 8c 04 42 00    	mov    DWORD PTR ds:0x42048c,edi
  404bc6:	89 3d 00 3f 42 00    	mov    DWORD PTR ds:0x423f00,edi
  404bcc:	81 7d 0c 0f 04 00 00 	cmp    DWORD PTR [ebp+0xc],0x40f
  404bd3:	0f 85 47 01 00 00    	jne    0x404d20
  404bd9:	57                   	push   edi
  404bda:	57                   	push   edi
  404bdb:	e8 0f c6 ff ff       	call   0x4011ef
  404be0:	39 7d 10             	cmp    DWORD PTR [ebp+0x10],edi
  404be3:	74 07                	je     0x404bec
  404be5:	6a 08                	push   0x8
  404be7:	e8 1f c8 ff ff       	call   0x40140b
  404bec:	39 7d 14             	cmp    DWORD PTR [ebp+0x14],edi
  404bef:	74 3f                	je     0x404c30
  404bf1:	ff 35 8c 04 42 00    	push   DWORD PTR ds:0x42048c
  404bf7:	e8 e6 c6 ff ff       	call   0x4012e2
  404bfc:	8b d8                	mov    ebx,eax
  404bfe:	53                   	push   ebx
  404bff:	e8 95 c6 ff ff       	call   0x401299
  404c04:	33 c0                	xor    eax,eax
  404c06:	33 c9                	xor    ecx,ecx
  404c08:	3b df                	cmp    ebx,edi
  404c0a:	7e 0e                	jle    0x404c1a
  404c0c:	8b 55 f0             	mov    edx,DWORD PTR [ebp-0x10]
  404c0f:	39 3c 82             	cmp    DWORD PTR [edx+eax*4],edi
  404c12:	74 01                	je     0x404c15
  404c14:	41                   	inc    ecx
  404c15:	40                   	inc    eax
  404c16:	3b c3                	cmp    eax,ebx
  404c18:	7c f2                	jl     0x404c0c
  404c1a:	57                   	push   edi
  404c1b:	51                   	push   ecx
  404c1c:	68 4e 01 00 00       	push   0x14e
  404c21:	ff 75 f8             	push   DWORD PTR [ebp-0x8]
  404c24:	ff d6                	call   esi
  404c26:	89 5d 14             	mov    DWORD PTR [ebp+0x14],ebx
  404c29:	c7 45 0c 20 04 00 00 	mov    DWORD PTR [ebp+0xc],0x420
  404c30:	57                   	push   edi
  404c31:	57                   	push   edi
  404c32:	e8 b8 c5 ff ff       	call   0x4011ef
  404c37:	a1 8c 04 42 00       	mov    eax,ds:0x42048c
  404c3c:	39 3d cc 3e 42 00    	cmp    DWORD PTR ds:0x423ecc,edi
  404c42:	89 45 e4             	mov    DWORD PTR [ebp-0x1c],eax
  404c45:	a1 c8 3e 42 00       	mov    eax,ds:0x423ec8
  404c4a:	c7 45 c8 30 f0 00 00 	mov    DWORD PTR [ebp-0x38],0xf030
  404c51:	89 7d f4             	mov    DWORD PTR [ebp-0xc],edi
  404c54:	0f 8e 9c 00 00 00    	jle    0x404cf6
  404c5a:	8d 58 08             	lea    ebx,[eax+0x8]
  404c5d:	8b 45 e4             	mov    eax,DWORD PTR [ebp-0x1c]
  404c60:	8b 4d f4             	mov    ecx,DWORD PTR [ebp-0xc]
  404c63:	8b 04 88             	mov    eax,DWORD PTR [eax+ecx*4]
  404c66:	3b c7                	cmp    eax,edi
  404c68:	74 74                	je     0x404cde
  404c6a:	8b 0b                	mov    ecx,DWORD PTR [ebx]
  404c6c:	89 45 c0             	mov    DWORD PTR [ebp-0x40],eax
  404c6f:	f6 c5 01             	test   ch,0x1
  404c72:	c7 45 bc 08 00 00 00 	mov    DWORD PTR [ebp-0x44],0x8
  404c79:	74 11                	je     0x404c8c
  404c7b:	8d 43 10             	lea    eax,[ebx+0x10]
  404c7e:	c7 45 bc 09 00 00 00 	mov    DWORD PTR [ebp-0x44],0x9
  404c85:	89 45 cc             	mov    DWORD PTR [ebp-0x34],eax
  404c88:	80 63 01 fe          	and    BYTE PTR [ebx+0x1],0xfe
  404c8c:	f6 c1 40             	test   cl,0x40
  404c8f:	74 05                	je     0x404c96
  404c91:	6a 03                	push   0x3
  404c93:	58                   	pop    eax
  404c94:	eb 0e                	jmp    0x404ca4
  404c96:	8b c1                	mov    eax,ecx
  404c98:	83 e0 01             	and    eax,0x1
  404c9b:	40                   	inc    eax
  404c9c:	f6 c1 10             	test   cl,0x10
  404c9f:	74 03                	je     0x404ca4
  404ca1:	83 c0 03             	add    eax,0x3
  404ca4:	8b d1                	mov    edx,ecx
  404ca6:	ff 75 c0             	push   DWORD PTR [ebp-0x40]
  404ca9:	c1 e0 0b             	shl    eax,0xb
  404cac:	83 e2 08             	and    edx,0x8
  404caf:	0b c2                	or     eax,edx
  404cb1:	8b d1                	mov    edx,ecx
  404cb3:	c1 f9 05             	sar    ecx,0x5
  404cb6:	03 c0                	add    eax,eax
  404cb8:	83 e2 20             	and    edx,0x20
  404cbb:	83 e1 01             	and    ecx,0x1
  404cbe:	0b c2                	or     eax,edx
  404cc0:	41                   	inc    ecx
  404cc1:	89 45 c4             	mov    DWORD PTR [ebp-0x3c],eax
  404cc4:	51                   	push   ecx
  404cc5:	68 02 11 00 00       	push   0x1102
  404cca:	ff 75 fc             	push   DWORD PTR [ebp-0x4]
  404ccd:	ff d6                	call   esi
  404ccf:	8d 45 bc             	lea    eax,[ebp-0x44]
  404cd2:	50                   	push   eax
  404cd3:	57                   	push   edi
  404cd4:	68 0d 11 00 00       	push   0x110d
  404cd9:	ff 75 fc             	push   DWORD PTR [ebp-0x4]
  404cdc:	ff d6                	call   esi
  404cde:	ff 45 f4             	inc    DWORD PTR [ebp-0xc]
  404ce1:	81 c3 18 04 00 00    	add    ebx,0x418
  404ce7:	8b 45 f4             	mov    eax,DWORD PTR [ebp-0xc]
  404cea:	3b 05 cc 3e 42 00    	cmp    eax,DWORD PTR ds:0x423ecc
  404cf0:	0f 8c 67 ff ff ff    	jl     0x404c5d
  404cf6:	6a 01                	push   0x1
  404cf8:	57                   	push   edi
  404cf9:	ff 75 fc             	push   DWORD PTR [ebp-0x4]
  404cfc:	ff 15 40 72 40 00    	call   DWORD PTR ds:0x407240
  404d02:	a1 7c 36 42 00       	mov    eax,ds:0x42367c
  404d07:	39 78 10             	cmp    DWORD PTR [eax+0x10],edi
  404d0a:	74 14                	je     0x404d20
  404d0c:	6a 05                	push   0x5
  404d0e:	e8 b2 f9 ff ff       	call   0x4046c5
  404d13:	50                   	push   eax
  404d14:	6a fb                	push   0xfffffffb
  404d16:	68 ff 03 00 00       	push   0x3ff
  404d1b:	e8 f0 f8 ff ff       	call   0x404610
  404d20:	81 7d 0c 20 04 00 00 	cmp    DWORD PTR [ebp+0xc],0x420
  404d27:	75 35                	jne    0x404d5e
  404d29:	f6 05 b9 3e 42 00 01 	test   BYTE PTR ds:0x423eb9,0x1
  404d30:	74 2c                	je     0x404d5e
  404d32:	33 c0                	xor    eax,eax
  404d34:	83 7d 14 20          	cmp    DWORD PTR [ebp+0x14],0x20
  404d38:	8b 35 60 72 40 00    	mov    esi,DWORD PTR ds:0x407260
  404d3e:	0f 94 c0             	sete   al
  404d41:	c1 e0 03             	shl    eax,0x3
  404d44:	8b f8                	mov    edi,eax
  404d46:	57                   	push   edi
  404d47:	ff 75 fc             	push   DWORD PTR [ebp-0x4]
  404d4a:	ff d6                	call   esi
  404d4c:	57                   	push   edi
  404d4d:	68 fe 03 00 00       	push   0x3fe
  404d52:	ff 75 08             	push   DWORD PTR [ebp+0x8]
  404d55:	ff 15 2c 72 40 00    	call   DWORD PTR ds:0x40722c
  404d5b:	50                   	push   eax
  404d5c:	ff d6                	call   esi
  404d5e:	ff 75 14             	push   DWORD PTR [ebp+0x14]
  404d61:	ff 75 10             	push   DWORD PTR [ebp+0x10]
  404d64:	ff 75 0c             	push   DWORD PTR [ebp+0xc]
  404d67:	e8 32 f1 ff ff       	call   0x403e9e
  404d6c:	5f                   	pop    edi
  404d6d:	5e                   	pop    esi
  404d6e:	5b                   	pop    ebx
  404d6f:	c9                   	leave  
  404d70:	c2 10 00             	ret    0x10
  404d73:	55                   	push   ebp
  404d74:	8b ec                	mov    ebp,esp
  404d76:	81 7d 0c 02 01 00 00 	cmp    DWORD PTR [ebp+0xc],0x102
  404d7d:	53                   	push   ebx
  404d7e:	56                   	push   esi
  404d7f:	75 17                	jne    0x404d98
  404d81:	83 7d 10 20          	cmp    DWORD PTR [ebp+0x10],0x20
  404d85:	75 7d                	jne    0x404e04
  404d87:	68 13 04 00 00       	push   0x413
  404d8c:	e8 f2 f0 ff ff       	call   0x403e83
  404d91:	33 c0                	xor    eax,eax
  404d93:	e9 85 00 00 00       	jmp    0x404e1d
  404d98:	81 7d 0c 00 02 00 00 	cmp    DWORD PTR [ebp+0xc],0x200
  404d9f:	be 19 04 00 00       	mov    esi,0x419
  404da4:	75 1e                	jne    0x404dc4
  404da6:	ff 75 08             	push   DWORD PTR [ebp+0x8]
  404da9:	ff 15 ac 71 40 00    	call   DWORD PTR ds:0x4071ac
  404daf:	85 c0                	test   eax,eax
  404db1:	74 51                	je     0x404e04
  404db3:	6a 01                	push   0x1
  404db5:	ff 75 08             	push   DWORD PTR [ebp+0x8]
  404db8:	e8 35 f9 ff ff       	call   0x4046f2
  404dbd:	8b d8                	mov    ebx,eax
  404dbf:	89 75 0c             	mov    DWORD PTR [ebp+0xc],esi
  404dc2:	eb 03                	jmp    0x404dc7
  404dc4:	8b 5d 14             	mov    ebx,DWORD PTR [ebp+0x14]
  404dc7:	39 75 0c             	cmp    DWORD PTR [ebp+0xc],esi
  404dca:	75 3b                	jne    0x404e07
  404dcc:	39 1d 80 04 42 00    	cmp    DWORD PTR ds:0x420480,ebx
  404dd2:	74 33                	je     0x404e07
  404dd4:	57                   	push   edi
  404dd5:	be 00 40 42 00       	mov    esi,0x424000
  404dda:	bf 98 04 42 00       	mov    edi,0x420498
  404ddf:	56                   	push   esi
  404de0:	57                   	push   edi
  404de1:	89 1d 80 04 42 00    	mov    DWORD PTR ds:0x420480,ebx
  404de7:	e8 99 0c 00 00       	call   0x405a85
  404dec:	53                   	push   ebx
  404ded:	56                   	push   esi
  404dee:	e8 f0 0b 00 00       	call   0x4059e3
  404df3:	6a 06                	push   0x6
  404df5:	e8 11 c6 ff ff       	call   0x40140b
  404dfa:	57                   	push   edi
  404dfb:	56                   	push   esi
  404dfc:	e8 84 0c 00 00       	call   0x405a85
  404e01:	5f                   	pop    edi
  404e02:	eb 03                	jmp    0x404e07
  404e04:	8b 5d 14             	mov    ebx,DWORD PTR [ebp+0x14]
  404e07:	53                   	push   ebx
  404e08:	ff 75 10             	push   DWORD PTR [ebp+0x10]
  404e0b:	ff 75 0c             	push   DWORD PTR [ebp+0xc]
  404e0e:	ff 75 08             	push   DWORD PTR [ebp+0x8]
  404e11:	ff 35 88 04 42 00    	push   DWORD PTR ds:0x420488
  404e17:	ff 15 a8 71 40 00    	call   DWORD PTR ds:0x4071a8
  404e1d:	5e                   	pop    esi
  404e1e:	5b                   	pop    ebx
  404e1f:	5d                   	pop    ebp
  404e20:	c2 10 00             	ret    0x10
  404e23:	55                   	push   ebp
  404e24:	8b ec                	mov    ebp,esp
  404e26:	83 ec 30             	sub    esp,0x30
  404e29:	a1 84 36 42 00       	mov    eax,ds:0x423684
  404e2e:	53                   	push   ebx
  404e2f:	33 db                	xor    ebx,ebx
  404e31:	56                   	push   esi
  404e32:	3b c3                	cmp    eax,ebx
  404e34:	57                   	push   edi
  404e35:	89 45 fc             	mov    DWORD PTR [ebp-0x4],eax
  404e38:	0f 84 b0 00 00 00    	je     0x404eee
  404e3e:	a1 54 3f 42 00       	mov    eax,ds:0x423f54
  404e43:	be 70 fc 41 00       	mov    esi,0x41fc70
  404e48:	8b f8                	mov    edi,eax
  404e4a:	89 45 f8             	mov    DWORD PTR [ebp-0x8],eax
  404e4d:	83 e7 01             	and    edi,0x1
  404e50:	75 09                	jne    0x404e5b
  404e52:	ff 75 08             	push   DWORD PTR [ebp+0x8]
  404e55:	56                   	push   esi
  404e56:	e8 4c 0c 00 00       	call   0x405aa7
  404e5b:	56                   	push   esi
  404e5c:	e8 3a 0c 00 00       	call   0x405a9b
  404e61:	39 5d 0c             	cmp    DWORD PTR [ebp+0xc],ebx
  404e64:	89 45 08             	mov    DWORD PTR [ebp+0x8],eax
  404e67:	74 1b                	je     0x404e84
  404e69:	ff 75 0c             	push   DWORD PTR [ebp+0xc]
  404e6c:	e8 2a 0c 00 00       	call   0x405a9b
  404e71:	03 45 08             	add    eax,DWORD PTR [ebp+0x8]
  404e74:	3d 00 08 00 00       	cmp    eax,0x800
  404e79:	73 73                	jae    0x404eee
  404e7b:	ff 75 0c             	push   DWORD PTR [ebp+0xc]
  404e7e:	56                   	push   esi
  404e7f:	e8 1d 0c 00 00       	call   0x405aa1
  404e84:	f6 45 f8 04          	test   BYTE PTR [ebp-0x8],0x4
  404e88:	75 0d                	jne    0x404e97
  404e8a:	56                   	push   esi
  404e8b:	ff 35 68 36 42 00    	push   DWORD PTR ds:0x423668
  404e91:	ff 15 f4 71 40 00    	call   DWORD PTR ds:0x4071f4
  404e97:	f6 45 f8 02          	test   BYTE PTR [ebp-0x8],0x2
  404e9b:	75 44                	jne    0x404ee1
  404e9d:	53                   	push   ebx
  404e9e:	53                   	push   ebx
  404e9f:	68 04 10 00 00       	push   0x1004
  404ea4:	89 75 e4             	mov    DWORD PTR [ebp-0x1c],esi
  404ea7:	ff 75 fc             	push   DWORD PTR [ebp-0x4]
  404eaa:	8b 35 44 72 40 00    	mov    esi,DWORD PTR ds:0x407244
  404eb0:	c7 45 d0 01 00 00 00 	mov    DWORD PTR [ebp-0x30],0x1
  404eb7:	ff d6                	call   esi
  404eb9:	2b c7                	sub    eax,edi
  404ebb:	89 5d d8             	mov    DWORD PTR [ebp-0x28],ebx
  404ebe:	89 45 d4             	mov    DWORD PTR [ebp-0x2c],eax
  404ec1:	8d 45 d0             	lea    eax,[ebp-0x30]
  404ec4:	50                   	push   eax
  404ec5:	b8 07 10 00 00       	mov    eax,0x1007
  404eca:	2b c7                	sub    eax,edi
  404ecc:	53                   	push   ebx
  404ecd:	50                   	push   eax
  404ece:	ff 75 fc             	push   DWORD PTR [ebp-0x4]
  404ed1:	ff d6                	call   esi
  404ed3:	53                   	push   ebx
  404ed4:	ff 75 d4             	push   DWORD PTR [ebp-0x2c]
  404ed7:	68 13 10 00 00       	push   0x1013
  404edc:	ff 75 fc             	push   DWORD PTR [ebp-0x4]
  404edf:	ff d6                	call   esi
  404ee1:	3b fb                	cmp    edi,ebx
  404ee3:	74 09                	je     0x404eee
  404ee5:	8b 45 08             	mov    eax,DWORD PTR [ebp+0x8]
  404ee8:	88 98 70 fc 41 00    	mov    BYTE PTR [eax+0x41fc70],bl
  404eee:	5f                   	pop    edi
  404eef:	5e                   	pop    esi
  404ef0:	5b                   	pop    ebx
  404ef1:	c9                   	leave  
  404ef2:	c2 08 00             	ret    0x8
  404ef5:	56                   	push   esi
  404ef6:	8b 35 c8 3e 42 00    	mov    esi,DWORD PTR ds:0x423ec8
  404efc:	57                   	push   edi
  404efd:	8b 3d cc 3e 42 00    	mov    edi,DWORD PTR ds:0x423ecc
  404f03:	6a 00                	push   0x0
  404f05:	ff 15 7c 72 40 00    	call   DWORD PTR ds:0x40727c
  404f0b:	09 05 58 3f 42 00    	or     DWORD PTR ds:0x423f58,eax
  404f11:	6a 00                	push   0x0
  404f13:	e8 6b ef ff ff       	call   0x403e83
  404f18:	85 ff                	test   edi,edi
  404f1a:	74 2b                	je     0x404f47
  404f1c:	83 c6 0c             	add    esi,0xc
  404f1f:	4f                   	dec    edi
  404f20:	f6 46 fc 01          	test   BYTE PTR [esi-0x4],0x1
  404f24:	74 0f                	je     0x404f35
  404f26:	ff 74 24 0c          	push   DWORD PTR [esp+0xc]
  404f2a:	ff 36                	push   DWORD PTR [esi]
  404f2c:	e8 58 c4 ff ff       	call   0x401389
  404f31:	85 c0                	test   eax,eax
  404f33:	75 0c                	jne    0x404f41
  404f35:	81 c6 18 04 00 00    	add    esi,0x418
  404f3b:	85 ff                	test   edi,edi
  404f3d:	75 e0                	jne    0x404f1f
  404f3f:	eb 06                	jmp    0x404f47
  404f41:	ff 05 2c 3f 42 00    	inc    DWORD PTR ds:0x423f2c
  404f47:	68 04 04 00 00       	push   0x404
  404f4c:	e8 32 ef ff ff       	call   0x403e83
  404f51:	ff 15 80 72 40 00    	call   DWORD PTR ds:0x407280
  404f57:	a1 2c 3f 42 00       	mov    eax,ds:0x423f2c
  404f5c:	5f                   	pop    edi
  404f5d:	5e                   	pop    esi
  404f5e:	c2 04 00             	ret    0x4
  404f61:	55                   	push   ebp
  404f62:	8b ec                	mov    ebp,esp
  404f64:	83 ec 40             	sub    esp,0x40
  404f67:	53                   	push   ebx
  404f68:	56                   	push   esi
  404f69:	57                   	push   edi
  404f6a:	8b 3d 84 36 42 00    	mov    edi,DWORD PTR ds:0x423684
  404f70:	33 db                	xor    ebx,ebx
  404f72:	81 7d 0c 10 01 00 00 	cmp    DWORD PTR [ebp+0xc],0x110
  404f79:	89 7d fc             	mov    DWORD PTR [ebp-0x4],edi
  404f7c:	0f 85 8b 01 00 00    	jne    0x40510d
  404f82:	83 4d d0 ff          	or     DWORD PTR [ebp-0x30],0xffffffff
  404f86:	83 4d dc ff          	or     DWORD PTR [ebp-0x24],0xffffffff
  404f8a:	33 c0                	xor    eax,eax
  404f8c:	8d 7d e0             	lea    edi,[ebp-0x20]
  404f8f:	c7 45 c8 02 00 00 00 	mov    DWORD PTR [ebp-0x38],0x2
  404f96:	89 5d cc             	mov    DWORD PTR [ebp-0x34],ebx
  404f99:	89 5d d4             	mov    DWORD PTR [ebp-0x2c],ebx
  404f9c:	89 5d d8             	mov    DWORD PTR [ebp-0x28],ebx
  404f9f:	ab                   	stos   DWORD PTR es:[edi],eax
  404fa0:	ab                   	stos   DWORD PTR es:[edi],eax
  404fa1:	a1 b0 3e 42 00       	mov    eax,ds:0x423eb0
  404fa6:	8b 3d 2c 72 40 00    	mov    edi,DWORD PTR ds:0x40722c
  404fac:	68 03 04 00 00       	push   0x403
  404fb1:	8b 48 5c             	mov    ecx,DWORD PTR [eax+0x5c]
  404fb4:	8b 40 60             	mov    eax,DWORD PTR [eax+0x60]
  404fb7:	ff 75 08             	push   DWORD PTR [ebp+0x8]
  404fba:	89 4d 0c             	mov    DWORD PTR [ebp+0xc],ecx
  404fbd:	89 45 10             	mov    DWORD PTR [ebp+0x10],eax
  404fc0:	ff d7                	call   edi
  404fc2:	68 ee 03 00 00       	push   0x3ee
  404fc7:	a3 70 36 42 00       	mov    ds:0x423670,eax
  404fcc:	ff 75 08             	push   DWORD PTR [ebp+0x8]
  404fcf:	ff d7                	call   edi
  404fd1:	68 f8 03 00 00       	push   0x3f8
  404fd6:	a3 68 36 42 00       	mov    ds:0x423668,eax
  404fdb:	ff 75 08             	push   DWORD PTR [ebp+0x8]
  404fde:	ff d7                	call   edi
  404fe0:	ff 35 70 36 42 00    	push   DWORD PTR ds:0x423670
  404fe6:	a3 84 36 42 00       	mov    ds:0x423684,eax
  404feb:	89 45 fc             	mov    DWORD PTR [ebp-0x4],eax
  404fee:	e8 79 ee ff ff       	call   0x403e6c
  404ff3:	6a 04                	push   0x4
  404ff5:	e8 cb f6 ff ff       	call   0x4046c5
  404ffa:	a3 74 36 42 00       	mov    ds:0x423674,eax
  404fff:	8d 45 e8             	lea    eax,[ebp-0x18]
  405002:	50                   	push   eax
  405003:	89 1d 8c 36 42 00    	mov    DWORD PTR ds:0x42368c,ebx
  405009:	ff 75 fc             	push   DWORD PTR [ebp-0x4]
  40500c:	ff 15 50 72 40 00    	call   DWORD PTR ds:0x407250
  405012:	6a 15                	push   0x15
  405014:	ff 15 cc 71 40 00    	call   DWORD PTR ds:0x4071cc
  40501a:	8b 4d f0             	mov    ecx,DWORD PTR [ebp-0x10]
  40501d:	8b 35 44 72 40 00    	mov    esi,DWORD PTR ds:0x407244
  405023:	2b c8                	sub    ecx,eax
  405025:	8d 45 c8             	lea    eax,[ebp-0x38]
  405028:	50                   	push   eax
  405029:	53                   	push   ebx
  40502a:	68 1b 10 00 00       	push   0x101b
  40502f:	89 4d d0             	mov    DWORD PTR [ebp-0x30],ecx
  405032:	ff 75 fc             	push   DWORD PTR [ebp-0x4]
  405035:	ff d6                	call   esi
  405037:	b8 00 40 00 00       	mov    eax,0x4000
  40503c:	50                   	push   eax
  40503d:	50                   	push   eax
  40503e:	68 36 10 00 00       	push   0x1036
  405043:	ff 75 fc             	push   DWORD PTR [ebp-0x4]
  405046:	ff d6                	call   esi
  405048:	39 5d 0c             	cmp    DWORD PTR [ebp+0xc],ebx
  40504b:	7c 1c                	jl     0x405069
  40504d:	ff 75 0c             	push   DWORD PTR [ebp+0xc]
  405050:	53                   	push   ebx
  405051:	68 01 10 00 00       	push   0x1001
  405056:	ff 75 fc             	push   DWORD PTR [ebp-0x4]
  405059:	ff d6                	call   esi
  40505b:	ff 75 0c             	push   DWORD PTR [ebp+0xc]
  40505e:	53                   	push   ebx
  40505f:	68 26 10 00 00       	push   0x1026
  405064:	ff 75 fc             	push   DWORD PTR [ebp-0x4]
  405067:	ff d6                	call   esi
  405069:	39 5d 10             	cmp    DWORD PTR [ebp+0x10],ebx
  40506c:	7c 0e                	jl     0x40507c
  40506e:	ff 75 10             	push   DWORD PTR [ebp+0x10]
  405071:	53                   	push   ebx
  405072:	68 24 10 00 00       	push   0x1024
  405077:	ff 75 fc             	push   DWORD PTR [ebp-0x4]
  40507a:	ff d6                	call   esi
  40507c:	8b 45 14             	mov    eax,DWORD PTR [ebp+0x14]
  40507f:	ff 70 30             	push   DWORD PTR [eax+0x30]
  405082:	6a 1b                	push   0x1b
  405084:	ff 75 08             	push   DWORD PTR [ebp+0x8]
  405087:	e8 ab ed ff ff       	call   0x403e37
  40508c:	f6 05 b8 3e 42 00 03 	test   BYTE PTR ds:0x423eb8,0x3
  405093:	74 34                	je     0x4050c9
  405095:	53                   	push   ebx
  405096:	ff 35 70 36 42 00    	push   DWORD PTR ds:0x423670
  40509c:	ff 15 60 72 40 00    	call   DWORD PTR ds:0x407260
  4050a2:	f6 05 b8 3e 42 00 02 	test   BYTE PTR ds:0x423eb8,0x2
  4050a9:	75 0d                	jne    0x4050b8
  4050ab:	6a 08                	push   0x8
  4050ad:	ff 75 fc             	push   DWORD PTR [ebp-0x4]
  4050b0:	ff 15 60 72 40 00    	call   DWORD PTR ds:0x407260
  4050b6:	eb 06                	jmp    0x4050be
  4050b8:	89 1d 70 36 42 00    	mov    DWORD PTR ds:0x423670,ebx
  4050be:	ff 35 68 36 42 00    	push   DWORD PTR ds:0x423668
  4050c4:	e8 a3 ed ff ff       	call   0x403e6c
  4050c9:	68 ec 03 00 00       	push   0x3ec
  4050ce:	ff 75 08             	push   DWORD PTR [ebp+0x8]
  4050d1:	ff d7                	call   edi
  4050d3:	68 00 00 30 75       	push   0x75300000
  4050d8:	8b f8                	mov    edi,eax
  4050da:	53                   	push   ebx
  4050db:	68 01 04 00 00       	push   0x401
  4050e0:	57                   	push   edi
  4050e1:	ff d6                	call   esi
  4050e3:	f6 05 b8 3e 42 00 04 	test   BYTE PTR ds:0x423eb8,0x4
  4050ea:	0f 84 ee 01 00 00    	je     0x4052de
  4050f0:	ff 75 10             	push   DWORD PTR [ebp+0x10]
  4050f3:	53                   	push   ebx
  4050f4:	68 09 04 00 00       	push   0x409
  4050f9:	57                   	push   edi
  4050fa:	ff d6                	call   esi
  4050fc:	ff 75 0c             	push   DWORD PTR [ebp+0xc]
  4050ff:	53                   	push   ebx
  405100:	68 01 20 00 00       	push   0x2001
  405105:	57                   	push   edi
  405106:	ff d6                	call   esi
  405108:	e9 d1 01 00 00       	jmp    0x4052de
  40510d:	81 7d 0c 05 04 00 00 	cmp    DWORD PTR [ebp+0xc],0x405
  405114:	75 28                	jne    0x40513e
  405116:	8d 45 f8             	lea    eax,[ebp-0x8]
  405119:	50                   	push   eax
  40511a:	53                   	push   ebx
  40511b:	68 ec 03 00 00       	push   0x3ec
  405120:	ff 75 08             	push   DWORD PTR [ebp+0x8]
  405123:	ff 15 2c 72 40 00    	call   DWORD PTR ds:0x40722c
  405129:	50                   	push   eax
  40512a:	68 f5 4e 40 00       	push   0x404ef5
  40512f:	53                   	push   ebx
  405130:	53                   	push   ebx
  405131:	ff 15 cc 70 40 00    	call   DWORD PTR ds:0x4070cc
  405137:	50                   	push   eax
  405138:	ff 15 ec 70 40 00    	call   DWORD PTR ds:0x4070ec
  40513e:	81 7d 0c 11 01 00 00 	cmp    DWORD PTR [ebp+0xc],0x111
  405145:	8b 35 60 72 40 00    	mov    esi,DWORD PTR ds:0x407260
  40514b:	75 1c                	jne    0x405169
  40514d:	66 81 7d 10 03 04    	cmp    WORD PTR [ebp+0x10],0x403
  405153:	75 36                	jne    0x40518b
  405155:	53                   	push   ebx
  405156:	ff 35 70 36 42 00    	push   DWORD PTR ds:0x423670
  40515c:	ff d6                	call   esi
  40515e:	6a 08                	push   0x8
  405160:	57                   	push   edi
  405161:	ff d6                	call   esi
  405163:	57                   	push   edi
  405164:	e8 03 ed ff ff       	call   0x403e6c
  405169:	81 7d 0c 04 04 00 00 	cmp    DWORD PTR [ebp+0xc],0x404
  405170:	75 55                	jne    0x4051c7
  405172:	39 1d 6c 36 42 00    	cmp    DWORD PTR ds:0x42366c,ebx
  405178:	74 26                	je     0x4051a0
  40517a:	6a 78                	push   0x78
  40517c:	c7 05 60 f8 41 00 02 	mov    DWORD PTR ds:0x41f860,0x2
  405183:	00 00 00 
  405186:	e8 85 ec ff ff       	call   0x403e10
  40518b:	ff 75 14             	push   DWORD PTR [ebp+0x14]
  40518e:	ff 75 10             	push   DWORD PTR [ebp+0x10]
  405191:	ff 75 0c             	push   DWORD PTR [ebp+0xc]
  405194:	e8 05 ed ff ff       	call   0x403e9e
  405199:	5f                   	pop    edi
  40519a:	5e                   	pop    esi
  40519b:	5b                   	pop    ebx
  40519c:	c9                   	leave  
  40519d:	c2 10 00             	ret    0x10
  4051a0:	6a 08                	push   0x8
  4051a2:	ff 35 a8 3e 42 00    	push   DWORD PTR ds:0x423ea8
  4051a8:	ff d6                	call   esi
  4051aa:	39 1d 2c 3f 42 00    	cmp    DWORD PTR ds:0x423f2c,ebx
  4051b0:	75 0e                	jne    0x4051c0
  4051b2:	a1 68 fc 41 00       	mov    eax,ds:0x41fc68
  4051b7:	53                   	push   ebx
  4051b8:	ff 70 34             	push   DWORD PTR [eax+0x34]
  4051bb:	e8 63 fc ff ff       	call   0x404e23
  4051c0:	6a 01                	push   0x1
  4051c2:	e8 49 ec ff ff       	call   0x403e10
  4051c7:	83 7d 0c 7b          	cmp    DWORD PTR [ebp+0xc],0x7b
  4051cb:	75 be                	jne    0x40518b
  4051cd:	39 7d 10             	cmp    DWORD PTR [ebp+0x10],edi
  4051d0:	75 b9                	jne    0x40518b
  4051d2:	53                   	push   ebx
  4051d3:	53                   	push   ebx
  4051d4:	68 04 10 00 00       	push   0x1004
  4051d9:	57                   	push   edi
  4051da:	ff 15 44 72 40 00    	call   DWORD PTR ds:0x407244
  4051e0:	3b c3                	cmp    eax,ebx
  4051e2:	89 45 0c             	mov    DWORD PTR [ebp+0xc],eax
  4051e5:	0f 8e f3 00 00 00    	jle    0x4052de
  4051eb:	ff 15 c8 71 40 00    	call   DWORD PTR ds:0x4071c8
  4051f1:	6a e1                	push   0xffffffe1
  4051f3:	53                   	push   ebx
  4051f4:	8b f0                	mov    esi,eax
  4051f6:	e8 ac 08 00 00       	call   0x405aa7
  4051fb:	50                   	push   eax
  4051fc:	6a 01                	push   0x1
  4051fe:	53                   	push   ebx
  4051ff:	56                   	push   esi
  405200:	ff 15 c4 71 40 00    	call   DWORD PTR ds:0x4071c4
  405206:	8b 45 14             	mov    eax,DWORD PTR [ebp+0x14]
  405209:	83 f8 ff             	cmp    eax,0xffffffff
  40520c:	75 13                	jne    0x405221
  40520e:	8d 45 e8             	lea    eax,[ebp-0x18]
  405211:	50                   	push   eax
  405212:	57                   	push   edi
  405213:	ff 15 74 71 40 00    	call   DWORD PTR ds:0x407174
  405219:	8b 4d e8             	mov    ecx,DWORD PTR [ebp-0x18]
  40521c:	8b 45 ec             	mov    eax,DWORD PTR [ebp-0x14]
  40521f:	eb 09                	jmp    0x40522a
  405221:	0f bf c8             	movsx  ecx,ax
  405224:	c1 e8 10             	shr    eax,0x10
  405227:	0f bf c0             	movsx  eax,ax
  40522a:	53                   	push   ebx
  40522b:	ff 75 08             	push   DWORD PTR [ebp+0x8]
  40522e:	53                   	push   ebx
  40522f:	50                   	push   eax
  405230:	51                   	push   ecx
  405231:	68 80 01 00 00       	push   0x180
  405236:	56                   	push   esi
  405237:	ff 15 c0 71 40 00    	call   DWORD PTR ds:0x4071c0
  40523d:	33 f6                	xor    esi,esi
  40523f:	46                   	inc    esi
  405240:	3b c6                	cmp    eax,esi
  405242:	0f 85 96 00 00 00    	jne    0x4052de
  405248:	8b 45 0c             	mov    eax,DWORD PTR [ebp+0xc]
  40524b:	89 5d c8             	mov    DWORD PTR [ebp-0x38],ebx
  40524e:	c7 45 d4 98 04 42 00 	mov    DWORD PTR [ebp-0x2c],0x420498
  405255:	c7 45 d8 ff 0f 00 00 	mov    DWORD PTR [ebp-0x28],0xfff
  40525c:	89 45 08             	mov    DWORD PTR [ebp+0x8],eax
  40525f:	bf 2d 10 00 00       	mov    edi,0x102d
  405264:	ff 4d 08             	dec    DWORD PTR [ebp+0x8]
  405267:	8d 45 c0             	lea    eax,[ebp-0x40]
  40526a:	50                   	push   eax
  40526b:	ff 75 08             	push   DWORD PTR [ebp+0x8]
  40526e:	57                   	push   edi
  40526f:	ff 75 fc             	push   DWORD PTR [ebp-0x4]
  405272:	ff 15 44 72 40 00    	call   DWORD PTR ds:0x407244
  405278:	39 5d 08             	cmp    DWORD PTR [ebp+0x8],ebx
  40527b:	8d 74 06 02          	lea    esi,[esi+eax*1+0x2]
  40527f:	75 e3                	jne    0x405264
  405281:	53                   	push   ebx
  405282:	ff 15 20 72 40 00    	call   DWORD PTR ds:0x407220
  405288:	ff 15 b8 71 40 00    	call   DWORD PTR ds:0x4071b8
  40528e:	56                   	push   esi
  40528f:	6a 42                	push   0x42
  405291:	ff 15 00 71 40 00    	call   DWORD PTR ds:0x407100
  405297:	50                   	push   eax
  405298:	89 45 08             	mov    DWORD PTR [ebp+0x8],eax
  40529b:	ff 15 c8 70 40 00    	call   DWORD PTR ds:0x4070c8
  4052a1:	8b f0                	mov    esi,eax
  4052a3:	8d 45 c0             	lea    eax,[ebp-0x40]
  4052a6:	89 75 d4             	mov    DWORD PTR [ebp-0x2c],esi
  4052a9:	50                   	push   eax
  4052aa:	53                   	push   ebx
  4052ab:	57                   	push   edi
  4052ac:	ff 75 fc             	push   DWORD PTR [ebp-0x4]
  4052af:	ff 15 44 72 40 00    	call   DWORD PTR ds:0x407244
  4052b5:	03 f0                	add    esi,eax
  4052b7:	66 c7 06 0d 0a       	mov    WORD PTR [esi],0xa0d
  4052bc:	46                   	inc    esi
  4052bd:	46                   	inc    esi
  4052be:	43                   	inc    ebx
  4052bf:	3b 5d 0c             	cmp    ebx,DWORD PTR [ebp+0xc]
  4052c2:	7c df                	jl     0x4052a3
  4052c4:	ff 75 08             	push   DWORD PTR [ebp+0x8]
  4052c7:	ff 15 c4 70 40 00    	call   DWORD PTR ds:0x4070c4
  4052cd:	ff 75 08             	push   DWORD PTR [ebp+0x8]
  4052d0:	6a 01                	push   0x1
  4052d2:	ff 15 b4 71 40 00    	call   DWORD PTR ds:0x4071b4
  4052d8:	ff 15 b0 71 40 00    	call   DWORD PTR ds:0x4071b0
  4052de:	33 c0                	xor    eax,eax
  4052e0:	e9 b4 fe ff ff       	jmp    0x405199
  4052e5:	55                   	push   ebp
  4052e6:	8b ec                	mov    ebp,esp
  4052e8:	83 ec 10             	sub    esp,0x10
  4052eb:	8d 45 f0             	lea    eax,[ebp-0x10]
  4052ee:	c7 05 a0 24 42 00 44 	mov    DWORD PTR ds:0x4224a0,0x44
  4052f5:	00 00 00 
  4052f8:	50                   	push   eax
  4052f9:	33 c0                	xor    eax,eax
  4052fb:	68 a0 24 42 00       	push   0x4224a0
  405300:	50                   	push   eax
  405301:	50                   	push   eax
  405302:	50                   	push   eax
  405303:	50                   	push   eax
  405304:	50                   	push   eax
  405305:	50                   	push   eax
  405306:	ff 75 08             	push   DWORD PTR [ebp+0x8]
  405309:	50                   	push   eax
  40530a:	ff 15 d0 70 40 00    	call   DWORD PTR ds:0x4070d0
  405310:	85 c0                	test   eax,eax
  405312:	74 0c                	je     0x405320
  405314:	ff 75 f4             	push   DWORD PTR [ebp-0xc]
  405317:	ff 15 ec 70 40 00    	call   DWORD PTR ds:0x4070ec
  40531d:	8b 45 f0             	mov    eax,DWORD PTR [ebp-0x10]
  405320:	c9                   	leave  
  405321:	c2 04 00             	ret    0x4
  405324:	ff 25 d0 71 40 00    	jmp    DWORD PTR ds:0x4071d0
  40532a:	68 00 04 00 00       	push   0x400
  40532f:	ff 74 24 0c          	push   DWORD PTR [esp+0xc]
  405333:	ff 74 24 0c          	push   DWORD PTR [esp+0xc]
  405337:	ff 35 78 36 42 00    	push   DWORD PTR ds:0x423678
  40533d:	ff 15 d4 71 40 00    	call   DWORD PTR ds:0x4071d4
  405343:	c2 08 00             	ret    0x8
  405346:	8b 44 24 08          	mov    eax,DWORD PTR [esp+0x8]
  40534a:	8b c8                	mov    ecx,eax
  40534c:	81 e1 ff ff 1f 00    	and    ecx,0x1fffff
  405352:	83 3d 40 3f 42 00 00 	cmp    DWORD PTR ds:0x423f40,0x0
  405359:	74 05                	je     0x405360
  40535b:	c1 e8 15             	shr    eax,0x15
  40535e:	75 47                	jne    0x4053a7
  405360:	83 3d 48 3f 42 00 00 	cmp    DWORD PTR ds:0x423f48,0x0
  405367:	74 06                	je     0x40536f
  405369:	81 f1 00 00 18 00    	xor    ecx,0x180000
  40536f:	a1 a8 3e 42 00       	mov    eax,ds:0x423ea8
  405374:	68 f0 91 40 00       	push   0x4091f0
  405379:	a3 f4 91 40 00       	mov    ds:0x4091f4,eax
  40537e:	a1 a0 3e 42 00       	mov    eax,ds:0x423ea0
  405383:	a3 f8 91 40 00       	mov    ds:0x4091f8,eax
  405388:	8b 44 24 08          	mov    eax,DWORD PTR [esp+0x8]
  40538c:	a3 fc 91 40 00       	mov    ds:0x4091fc,eax
  405391:	c7 05 00 92 40 00 a0 	mov    DWORD PTR ds:0x409200,0x4236a0
  405398:	36 42 00 
  40539b:	89 0d 04 92 40 00    	mov    DWORD PTR ds:0x409204,ecx
  4053a1:	ff 15 d8 71 40 00    	call   DWORD PTR ds:0x4071d8
  4053a7:	c2 08 00             	ret    0x8
  4053aa:	55                   	push   ebp
  4053ab:	8b ec                	mov    ebp,esp
  4053ad:	81 ec 48 01 00 00    	sub    esp,0x148
  4053b3:	56                   	push   esi
  4053b4:	57                   	push   edi
  4053b5:	8b 7d 08             	mov    edi,DWORD PTR [ebp+0x8]
  4053b8:	57                   	push   edi
  4053b9:	e8 9b 02 00 00       	call   0x405659
  4053be:	f6 45 0c 08          	test   BYTE PTR [ebp+0xc],0x8
  4053c2:	89 45 f8             	mov    DWORD PTR [ebp-0x8],eax
  4053c5:	74 17                	je     0x4053de
  4053c7:	57                   	push   edi
  4053c8:	ff 15 44 71 40 00    	call   DWORD PTR ds:0x407144
  4053ce:	f7 d8                	neg    eax
  4053d0:	1b c0                	sbb    eax,eax
  4053d2:	40                   	inc    eax
  4053d3:	01 05 28 3f 42 00    	add    DWORD PTR ds:0x423f28,eax
  4053d9:	e9 94 01 00 00       	jmp    0x405572
  4053de:	53                   	push   ebx
  4053df:	8b 5d 0c             	mov    ebx,DWORD PTR [ebp+0xc]
  4053e2:	83 e3 01             	and    ebx,0x1
  4053e5:	89 5d fc             	mov    DWORD PTR [ebp-0x4],ebx
  4053e8:	74 12                	je     0x4053fc
  4053ea:	85 c0                	test   eax,eax
  4053ec:	0f 84 2b 01 00 00    	je     0x40551d
  4053f2:	f6 45 0c 02          	test   BYTE PTR [ebp+0xc],0x2
  4053f6:	0f 84 21 01 00 00    	je     0x40551d
  4053fc:	be a0 14 42 00       	mov    esi,0x4214a0
  405401:	57                   	push   edi
  405402:	56                   	push   esi
  405403:	e8 7d 06 00 00       	call   0x405a85
  405408:	85 db                	test   ebx,ebx
  40540a:	74 0d                	je     0x405419
  40540c:	68 40 93 40 00       	push   0x409340
  405411:	56                   	push   esi
  405412:	e8 8a 06 00 00       	call   0x405aa1
  405417:	eb 06                	jmp    0x40541f
  405419:	57                   	push   edi
  40541a:	e8 a0 01 00 00       	call   0x4055bf
  40541f:	80 3f 00             	cmp    BYTE PTR [edi],0x0
  405422:	75 09                	jne    0x40542d
  405424:	80 3d a0 14 42 00 5c 	cmp    BYTE PTR ds:0x4214a0,0x5c
  40542b:	75 0b                	jne    0x405438
  40542d:	68 0c 90 40 00       	push   0x40900c
  405432:	57                   	push   edi
  405433:	e8 69 06 00 00       	call   0x405aa1
  405438:	57                   	push   edi
  405439:	e8 5d 06 00 00       	call   0x405a9b
  40543e:	8b d8                	mov    ebx,eax
  405440:	8d 85 b8 fe ff ff    	lea    eax,[ebp-0x148]
  405446:	50                   	push   eax
  405447:	56                   	push   esi
  405448:	03 df                	add    ebx,edi
  40544a:	ff 15 40 71 40 00    	call   DWORD PTR ds:0x407140
  405450:	83 f8 ff             	cmp    eax,0xffffffff
  405453:	89 45 08             	mov    DWORD PTR [ebp+0x8],eax
  405456:	0f 84 b7 00 00 00    	je     0x405513
  40545c:	8d 85 e4 fe ff ff    	lea    eax,[ebp-0x11c]
  405462:	6a 3f                	push   0x3f
  405464:	50                   	push   eax
  405465:	8d b5 e4 fe ff ff    	lea    esi,[ebp-0x11c]
  40546b:	e8 33 01 00 00       	call   0x4055a3
  405470:	80 38 00             	cmp    BYTE PTR [eax],0x0
  405473:	74 09                	je     0x40547e
  405475:	80 7d e8 00          	cmp    BYTE PTR [ebp-0x18],0x0
  405479:	74 03                	je     0x40547e
  40547b:	8d 75 e8             	lea    esi,[ebp-0x18]
  40547e:	80 3e 2e             	cmp    BYTE PTR [esi],0x2e
  405481:	75 11                	jne    0x405494
  405483:	8a 46 01             	mov    al,BYTE PTR [esi+0x1]
  405486:	84 c0                	test   al,al
  405488:	74 68                	je     0x4054f2
  40548a:	3c 2e                	cmp    al,0x2e
  40548c:	75 06                	jne    0x405494
  40548e:	80 7e 02 00          	cmp    BYTE PTR [esi+0x2],0x0
  405492:	74 5e                	je     0x4054f2
  405494:	56                   	push   esi
  405495:	53                   	push   ebx
  405496:	e8 ea 05 00 00       	call   0x405a85
  40549b:	f6 85 b8 fe ff ff 10 	test   BYTE PTR [ebp-0x148],0x10
  4054a2:	74 15                	je     0x4054b9
  4054a4:	8b 45 0c             	mov    eax,DWORD PTR [ebp+0xc]
  4054a7:	83 e0 03             	and    eax,0x3
  4054aa:	3c 03                	cmp    al,0x3
  4054ac:	75 44                	jne    0x4054f2
  4054ae:	ff 75 0c             	push   DWORD PTR [ebp+0xc]
  4054b1:	57                   	push   edi
  4054b2:	e8 f3 fe ff ff       	call   0x4053aa
  4054b7:	eb 39                	jmp    0x4054f2
  4054b9:	57                   	push   edi
  4054ba:	e8 7e 02 00 00       	call   0x40573d
  4054bf:	57                   	push   edi
  4054c0:	ff 15 44 71 40 00    	call   DWORD PTR ds:0x407144
  4054c6:	85 c0                	test   eax,eax
  4054c8:	75 20                	jne    0x4054ea
  4054ca:	f6 45 0c 04          	test   BYTE PTR [ebp+0xc],0x4
  4054ce:	74 12                	je     0x4054e2
  4054d0:	57                   	push   edi
  4054d1:	6a f1                	push   0xfffffff1
  4054d3:	e8 4b f9 ff ff       	call   0x404e23
  4054d8:	6a 00                	push   0x0
  4054da:	57                   	push   edi
  4054db:	e8 f3 02 00 00       	call   0x4057d3
  4054e0:	eb 10                	jmp    0x4054f2
  4054e2:	ff 05 28 3f 42 00    	inc    DWORD PTR ds:0x423f28
  4054e8:	eb 08                	jmp    0x4054f2
  4054ea:	57                   	push   edi
  4054eb:	6a f2                	push   0xfffffff2
  4054ed:	e8 31 f9 ff ff       	call   0x404e23
  4054f2:	8d 85 b8 fe ff ff    	lea    eax,[ebp-0x148]
  4054f8:	50                   	push   eax
  4054f9:	ff 75 08             	push   DWORD PTR [ebp+0x8]
  4054fc:	ff 15 3c 71 40 00    	call   DWORD PTR ds:0x40713c
  405502:	85 c0                	test   eax,eax
  405504:	0f 85 52 ff ff ff    	jne    0x40545c
  40550a:	ff 75 08             	push   DWORD PTR [ebp+0x8]
  40550d:	ff 15 38 71 40 00    	call   DWORD PTR ds:0x407138
  405513:	83 7d fc 00          	cmp    DWORD PTR [ebp-0x4],0x0
  405517:	74 04                	je     0x40551d
  405519:	80 63 ff 00          	and    BYTE PTR [ebx-0x1],0x0
  40551d:	33 f6                	xor    esi,esi
  40551f:	5b                   	pop    ebx
  405520:	39 75 fc             	cmp    DWORD PTR [ebp-0x4],esi
  405523:	74 4d                	je     0x405572
  405525:	39 75 f8             	cmp    DWORD PTR [ebp-0x8],esi
  405528:	75 08                	jne    0x405532
  40552a:	ff 05 28 3f 42 00    	inc    DWORD PTR ds:0x423f28
  405530:	eb 40                	jmp    0x405572
  405532:	57                   	push   edi
  405533:	e8 44 08 00 00       	call   0x405d7c
  405538:	85 c0                	test   eax,eax
  40553a:	74 36                	je     0x405572
  40553c:	57                   	push   edi
  40553d:	e8 36 00 00 00       	call   0x405578
  405542:	57                   	push   edi
  405543:	e8 f5 01 00 00       	call   0x40573d
  405548:	57                   	push   edi
  405549:	ff 15 d4 70 40 00    	call   DWORD PTR ds:0x4070d4
  40554f:	85 c0                	test   eax,eax
  405551:	75 17                	jne    0x40556a
  405553:	f6 45 0c 04          	test   BYTE PTR [ebp+0xc],0x4
  405557:	74 d1                	je     0x40552a
  405559:	57                   	push   edi
  40555a:	6a f1                	push   0xfffffff1
  40555c:	e8 c2 f8 ff ff       	call   0x404e23
  405561:	56                   	push   esi
  405562:	57                   	push   edi
  405563:	e8 6b 02 00 00       	call   0x4057d3
  405568:	eb 08                	jmp    0x405572
  40556a:	57                   	push   edi
  40556b:	6a e5                	push   0xffffffe5
  40556d:	e8 b1 f8 ff ff       	call   0x404e23
  405572:	5f                   	pop    edi
  405573:	5e                   	pop    esi
  405574:	c9                   	leave  
  405575:	c2 08 00             	ret    0x8
  405578:	56                   	push   esi
  405579:	8b 74 24 08          	mov    esi,DWORD PTR [esp+0x8]
  40557d:	56                   	push   esi
  40557e:	e8 18 05 00 00       	call   0x405a9b
  405583:	03 c6                	add    eax,esi
  405585:	50                   	push   eax
  405586:	56                   	push   esi
  405587:	ff 15 dc 71 40 00    	call   DWORD PTR ds:0x4071dc
  40558d:	80 38 5c             	cmp    BYTE PTR [eax],0x5c
  405590:	74 0b                	je     0x40559d
  405592:	68 0c 90 40 00       	push   0x40900c
  405597:	56                   	push   esi
  405598:	e8 04 05 00 00       	call   0x405aa1
  40559d:	8b c6                	mov    eax,esi
  40559f:	5e                   	pop    esi
  4055a0:	c2 04 00             	ret    0x4
  4055a3:	8b 44 24 04          	mov    eax,DWORD PTR [esp+0x4]
  4055a7:	eb 0d                	jmp    0x4055b6
  4055a9:	3a 4c 24 08          	cmp    cl,BYTE PTR [esp+0x8]
  4055ad:	74 0d                	je     0x4055bc
  4055af:	50                   	push   eax
  4055b0:	ff 15 1c 72 40 00    	call   DWORD PTR ds:0x40721c
  4055b6:	8a 08                	mov    cl,BYTE PTR [eax]
  4055b8:	84 c9                	test   cl,cl
  4055ba:	75 ed                	jne    0x4055a9
  4055bc:	c2 08 00             	ret    0x8
  4055bf:	56                   	push   esi
  4055c0:	8b 74 24 08          	mov    esi,DWORD PTR [esp+0x8]
  4055c4:	56                   	push   esi
  4055c5:	e8 d1 04 00 00       	call   0x405a9b
  4055ca:	03 c6                	add    eax,esi
  4055cc:	80 38 5c             	cmp    BYTE PTR [eax],0x5c
  4055cf:	74 0c                	je     0x4055dd
  4055d1:	50                   	push   eax
  4055d2:	56                   	push   esi
  4055d3:	ff 15 dc 71 40 00    	call   DWORD PTR ds:0x4071dc
  4055d9:	3b c6                	cmp    eax,esi
  4055db:	77 ef                	ja     0x4055cc
  4055dd:	80 20 00             	and    BYTE PTR [eax],0x0
  4055e0:	40                   	inc    eax
  4055e1:	5e                   	pop    esi
  4055e2:	c2 04 00             	ret    0x4
  4055e5:	8b 4c 24 04          	mov    ecx,DWORD PTR [esp+0x4]
  4055e9:	8a 01                	mov    al,BYTE PTR [ecx]
  4055eb:	0c 20                	or     al,0x20
  4055ed:	66 81 39 5c 5c       	cmp    WORD PTR [ecx],0x5c5c
  4055f2:	74 12                	je     0x405606
  4055f4:	3c 61                	cmp    al,0x61
  4055f6:	7c 0a                	jl     0x405602
  4055f8:	3c 7a                	cmp    al,0x7a
  4055fa:	7f 06                	jg     0x405602
  4055fc:	80 79 01 3a          	cmp    BYTE PTR [ecx+0x1],0x3a
  405600:	74 04                	je     0x405606
  405602:	33 c0                	xor    eax,eax
  405604:	eb 03                	jmp    0x405609
  405606:	33 c0                	xor    eax,eax
  405608:	40                   	inc    eax
  405609:	c2 04 00             	ret    0x4
  40560c:	53                   	push   ebx
  40560d:	56                   	push   esi
  40560e:	8b 35 1c 72 40 00    	mov    esi,DWORD PTR ds:0x40721c
  405614:	57                   	push   edi
  405615:	8b 7c 24 10          	mov    edi,DWORD PTR [esp+0x10]
  405619:	57                   	push   edi
  40561a:	ff d6                	call   esi
  40561c:	8b d8                	mov    ebx,eax
  40561e:	53                   	push   ebx
  40561f:	ff d6                	call   esi
  405621:	80 3f 00             	cmp    BYTE PTR [edi],0x0
  405624:	74 0c                	je     0x405632
  405626:	66 81 3b 3a 5c       	cmp    WORD PTR [ebx],0x5c3a
  40562b:	75 05                	jne    0x405632
  40562d:	50                   	push   eax
  40562e:	ff d6                	call   esi
  405630:	eb 21                	jmp    0x405653
  405632:	66 81 3f 5c 5c       	cmp    WORD PTR [edi],0x5c5c
  405637:	75 18                	jne    0x405651
  405639:	6a 02                	push   0x2
  40563b:	5e                   	pop    esi
  40563c:	6a 5c                	push   0x5c
  40563e:	50                   	push   eax
  40563f:	4e                   	dec    esi
  405640:	e8 5e ff ff ff       	call   0x4055a3
  405645:	80 38 00             	cmp    BYTE PTR [eax],0x0
  405648:	74 07                	je     0x405651
  40564a:	40                   	inc    eax
  40564b:	85 f6                	test   esi,esi
  40564d:	75 ed                	jne    0x40563c
  40564f:	eb 02                	jmp    0x405653
  405651:	33 c0                	xor    eax,eax
  405653:	5f                   	pop    edi
  405654:	5e                   	pop    esi
  405655:	5b                   	pop    ebx
  405656:	c2 04 00             	ret    0x4
  405659:	56                   	push   esi
  40565a:	57                   	push   edi
  40565b:	ff 74 24 0c          	push   DWORD PTR [esp+0xc]
  40565f:	be a0 18 42 00       	mov    esi,0x4218a0
  405664:	56                   	push   esi
  405665:	e8 1b 04 00 00       	call   0x405a85
  40566a:	56                   	push   esi
  40566b:	e8 9c ff ff ff       	call   0x40560c
  405670:	8b f8                	mov    edi,eax
  405672:	85 ff                	test   edi,edi
  405674:	75 04                	jne    0x40567a
  405676:	33 c0                	xor    eax,eax
  405678:	eb 52                	jmp    0x4056cc
  40567a:	57                   	push   edi
  40567b:	e8 63 06 00 00       	call   0x405ce3
  405680:	f6 05 b8 3e 42 00 80 	test   BYTE PTR ds:0x423eb8,0x80
  405687:	74 0a                	je     0x405693
  405689:	8a 07                	mov    al,BYTE PTR [edi]
  40568b:	84 c0                	test   al,al
  40568d:	74 e7                	je     0x405676
  40568f:	3c 5c                	cmp    al,0x5c
  405691:	74 e3                	je     0x405676
  405693:	2b fe                	sub    edi,esi
  405695:	eb 14                	jmp    0x4056ab
  405697:	e8 e0 06 00 00       	call   0x405d7c
  40569c:	85 c0                	test   eax,eax
  40569e:	74 05                	je     0x4056a5
  4056a0:	f6 00 10             	test   BYTE PTR [eax],0x10
  4056a3:	74 d1                	je     0x405676
  4056a5:	56                   	push   esi
  4056a6:	e8 14 ff ff ff       	call   0x4055bf
  4056ab:	56                   	push   esi
  4056ac:	e8 ea 03 00 00       	call   0x405a9b
  4056b1:	3b c7                	cmp    eax,edi
  4056b3:	56                   	push   esi
  4056b4:	7f e1                	jg     0x405697
  4056b6:	e8 bd fe ff ff       	call   0x405578
  4056bb:	56                   	push   esi
  4056bc:	ff 15 78 70 40 00    	call   DWORD PTR ds:0x407078
  4056c2:	33 c9                	xor    ecx,ecx
  4056c4:	83 f8 ff             	cmp    eax,0xffffffff
  4056c7:	0f 95 c1             	setne  cl
  4056ca:	8b c1                	mov    eax,ecx
  4056cc:	5f                   	pop    edi
  4056cd:	5e                   	pop    esi
  4056ce:	c2 04 00             	ret    0x4
  4056d1:	53                   	push   ebx
  4056d2:	56                   	push   esi
  4056d3:	57                   	push   edi
  4056d4:	ff 74 24 14          	push   DWORD PTR [esp+0x14]
  4056d8:	e8 be 03 00 00       	call   0x405a9b
  4056dd:	8b f8                	mov    edi,eax
  4056df:	8b 74 24 10          	mov    esi,DWORD PTR [esp+0x10]
  4056e3:	eb 22                	jmp    0x405707
  4056e5:	ff 74 24 14          	push   DWORD PTR [esp+0x14]
  4056e9:	8a 1c 37             	mov    bl,BYTE PTR [edi+esi*1]
  4056ec:	80 24 37 00          	and    BYTE PTR [edi+esi*1],0x0
  4056f0:	56                   	push   esi
  4056f1:	ff 15 f0 70 40 00    	call   DWORD PTR ds:0x4070f0
  4056f7:	85 c0                	test   eax,eax
  4056f9:	88 1c 37             	mov    BYTE PTR [edi+esi*1],bl
  4056fc:	74 1b                	je     0x405719
  4056fe:	56                   	push   esi
  4056ff:	ff 15 1c 72 40 00    	call   DWORD PTR ds:0x40721c
  405705:	8b f0                	mov    esi,eax
  405707:	56                   	push   esi
  405708:	e8 8e 03 00 00       	call   0x405a9b
  40570d:	3b c7                	cmp    eax,edi
  40570f:	7d d4                	jge    0x4056e5
  405711:	33 c0                	xor    eax,eax
  405713:	5f                   	pop    edi
  405714:	5e                   	pop    esi
  405715:	5b                   	pop    ebx
  405716:	c2 08 00             	ret    0x8
  405719:	8b c6                	mov    eax,esi
  40571b:	eb f6                	jmp    0x405713
  40571d:	8b 4c 24 04          	mov    ecx,DWORD PTR [esp+0x4]
  405721:	56                   	push   esi
  405722:	8b 74 24 10          	mov    esi,DWORD PTR [esp+0x10]
  405726:	85 f6                	test   esi,esi
  405728:	7e 0f                	jle    0x405739
  40572a:	8b 44 24 0c          	mov    eax,DWORD PTR [esp+0xc]
  40572e:	2b c1                	sub    eax,ecx
  405730:	8a 14 08             	mov    dl,BYTE PTR [eax+ecx*1]
  405733:	88 11                	mov    BYTE PTR [ecx],dl
  405735:	41                   	inc    ecx
  405736:	4e                   	dec    esi
  405737:	75 f7                	jne    0x405730
  405739:	5e                   	pop    esi
  40573a:	c2 0c 00             	ret    0xc
  40573d:	ff 74 24 04          	push   DWORD PTR [esp+0x4]
  405741:	ff 15 78 70 40 00    	call   DWORD PTR ds:0x407078
  405747:	83 f8 ff             	cmp    eax,0xffffffff
  40574a:	74 0d                	je     0x405759
  40574c:	24 fe                	and    al,0xfe
  40574e:	50                   	push   eax
  40574f:	ff 74 24 08          	push   DWORD PTR [esp+0x8]
  405753:	ff 15 84 70 40 00    	call   DWORD PTR ds:0x407084
  405759:	c2 04 00             	ret    0x4
  40575c:	ff 74 24 04          	push   DWORD PTR [esp+0x4]
  405760:	ff 15 78 70 40 00    	call   DWORD PTR ds:0x407078
  405766:	8b c8                	mov    ecx,eax
  405768:	6a 00                	push   0x0
  40576a:	41                   	inc    ecx
  40576b:	f7 d9                	neg    ecx
  40576d:	1b c9                	sbb    ecx,ecx
  40576f:	23 c8                	and    ecx,eax
  405771:	51                   	push   ecx
  405772:	ff 74 24 14          	push   DWORD PTR [esp+0x14]
  405776:	6a 00                	push   0x0
  405778:	6a 01                	push   0x1
  40577a:	ff 74 24 1c          	push   DWORD PTR [esp+0x1c]
  40577e:	ff 74 24 1c          	push   DWORD PTR [esp+0x1c]
  405782:	ff 15 90 70 40 00    	call   DWORD PTR ds:0x407090
  405788:	c2 0c 00             	ret    0xc
  40578b:	55                   	push   ebp
  40578c:	8b ec                	mov    ebp,esp
  40578e:	56                   	push   esi
  40578f:	8b 75 08             	mov    esi,DWORD PTR [ebp+0x8]
  405792:	57                   	push   edi
  405793:	6a 64                	push   0x64
  405795:	5f                   	pop    edi
  405796:	4f                   	dec    edi
  405797:	c7 45 08 6e 73 61 00 	mov    DWORD PTR [ebp+0x8],0x61736e
  40579e:	ff 15 8c 70 40 00    	call   DWORD PTR ds:0x40708c
  4057a4:	6a 1a                	push   0x1a
  4057a6:	33 d2                	xor    edx,edx
  4057a8:	59                   	pop    ecx
  4057a9:	f7 f1                	div    ecx
  4057ab:	56                   	push   esi
  4057ac:	8d 45 08             	lea    eax,[ebp+0x8]
  4057af:	6a 00                	push   0x0
  4057b1:	50                   	push   eax
  4057b2:	ff 75 0c             	push   DWORD PTR [ebp+0xc]
  4057b5:	00 55 0a             	add    BYTE PTR [ebp+0xa],dl
  4057b8:	ff 15 d8 70 40 00    	call   DWORD PTR ds:0x4070d8
  4057be:	85 c0                	test   eax,eax
  4057c0:	75 0d                	jne    0x4057cf
  4057c2:	85 ff                	test   edi,edi
  4057c4:	75 d0                	jne    0x405796
  4057c6:	80 26 00             	and    BYTE PTR [esi],0x0
  4057c9:	5f                   	pop    edi
  4057ca:	5e                   	pop    esi
  4057cb:	5d                   	pop    ebp
  4057cc:	c2 08 00             	ret    0x8
  4057cf:	8b c6                	mov    eax,esi
  4057d1:	eb f6                	jmp    0x4057c9
  4057d3:	53                   	push   ebx
  4057d4:	55                   	push   ebp
  4057d5:	56                   	push   esi
  4057d6:	57                   	push   edi
  4057d7:	6a 01                	push   0x1
  4057d9:	e8 c5 05 00 00       	call   0x405da3
  4057de:	85 c0                	test   eax,eax
  4057e0:	8b 74 24 18          	mov    esi,DWORD PTR [esp+0x18]
  4057e4:	74 11                	je     0x4057f7
  4057e6:	6a 05                	push   0x5
  4057e8:	56                   	push   esi
  4057e9:	ff 74 24 1c          	push   DWORD PTR [esp+0x1c]
  4057ed:	ff d0                	call   eax
  4057ef:	85 c0                	test   eax,eax
  4057f1:	0f 85 39 01 00 00    	jne    0x405930
  4057f7:	8b 1d 68 70 40 00    	mov    ebx,DWORD PTR ds:0x407068
  4057fd:	c7 05 28 26 42 00 4e 	mov    DWORD PTR ds:0x422628,0x4c554e
  405804:	55 4c 00 
  405807:	85 f6                	test   esi,esi
  405809:	bf 00 04 00 00       	mov    edi,0x400
  40580e:	bd 28 26 42 00       	mov    ebp,0x422628
  405813:	74 26                	je     0x40583b
  405815:	6a 01                	push   0x1
  405817:	6a 00                	push   0x0
  405819:	56                   	push   esi
  40581a:	e8 3d ff ff ff       	call   0x40575c
  40581f:	50                   	push   eax
  405820:	ff 15 ec 70 40 00    	call   DWORD PTR ds:0x4070ec
  405826:	57                   	push   edi
  405827:	55                   	push   ebp
  405828:	56                   	push   esi
  405829:	ff d3                	call   ebx
  40582b:	85 c0                	test   eax,eax
  40582d:	0f 84 03 01 00 00    	je     0x405936
  405833:	3b c7                	cmp    eax,edi
  405835:	0f 8f fb 00 00 00    	jg     0x405936
  40583b:	be a0 20 42 00       	mov    esi,0x4220a0
  405840:	57                   	push   edi
  405841:	56                   	push   esi
  405842:	ff 74 24 1c          	push   DWORD PTR [esp+0x1c]
  405846:	ff d3                	call   ebx
  405848:	85 c0                	test   eax,eax
  40584a:	0f 84 e6 00 00 00    	je     0x405936
  405850:	3b c7                	cmp    eax,edi
  405852:	0f 8f de 00 00 00    	jg     0x405936
  405858:	56                   	push   esi
  405859:	55                   	push   ebp
  40585a:	68 4c 93 40 00       	push   0x40934c
  40585f:	68 a0 1c 42 00       	push   0x421ca0
  405864:	ff 15 00 72 40 00    	call   DWORD PTR ds:0x407200
  40586a:	8b d8                	mov    ebx,eax
  40586c:	a1 b0 3e 42 00       	mov    eax,ds:0x423eb0
  405871:	83 c4 10             	add    esp,0x10
  405874:	ff b0 28 01 00 00    	push   DWORD PTR [eax+0x128]
  40587a:	56                   	push   esi
  40587b:	e8 27 02 00 00       	call   0x405aa7
  405880:	6a 04                	push   0x4
  405882:	68 00 00 00 c0       	push   0xc0000000
  405887:	56                   	push   esi
  405888:	e8 cf fe ff ff       	call   0x40575c
  40588d:	8b e8                	mov    ebp,eax
  40588f:	83 fd ff             	cmp    ebp,0xffffffff
  405892:	89 6c 24 14          	mov    DWORD PTR [esp+0x14],ebp
  405896:	0f 84 94 00 00 00    	je     0x405930
  40589c:	6a 00                	push   0x0
  40589e:	55                   	push   ebp
  40589f:	ff 15 94 70 40 00    	call   DWORD PTR ds:0x407094
  4058a5:	8b f8                	mov    edi,eax
  4058a7:	8d 44 1f 0a          	lea    eax,[edi+ebx*1+0xa]
  4058ab:	50                   	push   eax
  4058ac:	6a 40                	push   0x40
  4058ae:	ff 15 00 71 40 00    	call   DWORD PTR ds:0x407100
  4058b4:	8b f0                	mov    esi,eax
  4058b6:	85 f6                	test   esi,esi
  4058b8:	74 6f                	je     0x405929
  4058ba:	8d 44 24 18          	lea    eax,[esp+0x18]
  4058be:	6a 00                	push   0x0
  4058c0:	50                   	push   eax
  4058c1:	57                   	push   edi
  4058c2:	56                   	push   esi
  4058c3:	55                   	push   ebp
  4058c4:	ff 15 2c 71 40 00    	call   DWORD PTR ds:0x40712c
  4058ca:	85 c0                	test   eax,eax
  4058cc:	74 5b                	je     0x405929
  4058ce:	3b 7c 24 18          	cmp    edi,DWORD PTR [esp+0x18]
  4058d2:	75 55                	jne    0x405929
  4058d4:	68 0c 73 40 00       	push   0x40730c
  4058d9:	56                   	push   esi
  4058da:	e8 f2 fd ff ff       	call   0x4056d1
  4058df:	85 c0                	test   eax,eax
  4058e1:	75 5a                	jne    0x40593d
  4058e3:	8d 04 3e             	lea    eax,[esi+edi*1]
  4058e6:	68 0c 73 40 00       	push   0x40730c
  4058eb:	50                   	push   eax
  4058ec:	e8 94 01 00 00       	call   0x405a85
  4058f1:	83 c7 0a             	add    edi,0xa
  4058f4:	8b c7                	mov    eax,edi
  4058f6:	53                   	push   ebx
  4058f7:	03 c6                	add    eax,esi
  4058f9:	68 a0 1c 42 00       	push   0x421ca0
  4058fe:	50                   	push   eax
  4058ff:	e8 19 fe ff ff       	call   0x40571d
  405904:	33 c0                	xor    eax,eax
  405906:	50                   	push   eax
  405907:	50                   	push   eax
  405908:	50                   	push   eax
  405909:	55                   	push   ebp
  40590a:	ff 15 34 71 40 00    	call   DWORD PTR ds:0x407134
  405910:	8d 44 24 18          	lea    eax,[esp+0x18]
  405914:	6a 00                	push   0x0
  405916:	03 fb                	add    edi,ebx
  405918:	50                   	push   eax
  405919:	57                   	push   edi
  40591a:	56                   	push   esi
  40591b:	55                   	push   ebp
  40591c:	ff 15 28 71 40 00    	call   DWORD PTR ds:0x407128
  405922:	56                   	push   esi
  405923:	ff 15 fc 70 40 00    	call   DWORD PTR ds:0x4070fc
  405929:	55                   	push   ebp
  40592a:	ff 15 ec 70 40 00    	call   DWORD PTR ds:0x4070ec
  405930:	ff 05 30 3f 42 00    	inc    DWORD PTR ds:0x423f30
  405936:	5f                   	pop    edi
  405937:	5e                   	pop    esi
  405938:	5d                   	pop    ebp
  405939:	5b                   	pop    ebx
  40593a:	c2 08 00             	ret    0x8
  40593d:	83 c0 0a             	add    eax,0xa
  405940:	68 48 93 40 00       	push   0x409348
  405945:	50                   	push   eax
  405946:	e8 86 fd ff ff       	call   0x4056d1
  40594b:	85 c0                	test   eax,eax
  40594d:	74 a5                	je     0x4058f4
  40594f:	40                   	inc    eax
  405950:	8d 0c 3e             	lea    ecx,[esi+edi*1]
  405953:	3b c1                	cmp    eax,ecx
  405955:	8b e8                	mov    ebp,eax
  405957:	73 0b                	jae    0x405964
  405959:	8a 55 00             	mov    dl,BYTE PTR [ebp+0x0]
  40595c:	88 14 2b             	mov    BYTE PTR [ebx+ebp*1],dl
  40595f:	45                   	inc    ebp
  405960:	3b e9                	cmp    ebp,ecx
  405962:	72 f5                	jb     0x405959
  405964:	8b 6c 24 14          	mov    ebp,DWORD PTR [esp+0x14]
  405968:	2b c6                	sub    eax,esi
  40596a:	eb 8a                	jmp    0x4058f6
  40596c:	55                   	push   ebp
  40596d:	8b ec                	mov    ebp,esp
  40596f:	53                   	push   ebx
  405970:	8d 45 18             	lea    eax,[ebp+0x18]
  405973:	56                   	push   esi
  405974:	50                   	push   eax
  405975:	8b 45 18             	mov    eax,DWORD PTR [ebp+0x18]
  405978:	33 db                	xor    ebx,ebx
  40597a:	f7 d8                	neg    eax
  40597c:	1b c0                	sbb    eax,eax
  40597e:	8b 75 14             	mov    esi,DWORD PTR [ebp+0x14]
  405981:	25 00 01 00 00       	and    eax,0x100
  405986:	0d 19 00 02 00       	or     eax,0x20019
  40598b:	88 1e                	mov    BYTE PTR [esi],bl
  40598d:	50                   	push   eax
  40598e:	53                   	push   ebx
  40598f:	ff 75 0c             	push   DWORD PTR [ebp+0xc]
  405992:	ff 75 08             	push   DWORD PTR [ebp+0x8]
  405995:	ff 15 10 70 40 00    	call   DWORD PTR ds:0x407010
  40599b:	85 c0                	test   eax,eax
  40599d:	75 3e                	jne    0x4059dd
  40599f:	8d 45 0c             	lea    eax,[ebp+0xc]
  4059a2:	c7 45 0c 00 04 00 00 	mov    DWORD PTR [ebp+0xc],0x400
  4059a9:	50                   	push   eax
  4059aa:	8d 45 14             	lea    eax,[ebp+0x14]
  4059ad:	56                   	push   esi
  4059ae:	50                   	push   eax
  4059af:	53                   	push   ebx
  4059b0:	ff 75 10             	push   DWORD PTR [ebp+0x10]
  4059b3:	ff 75 18             	push   DWORD PTR [ebp+0x18]
  4059b6:	ff 15 00 70 40 00    	call   DWORD PTR ds:0x407000
  4059bc:	85 c0                	test   eax,eax
  4059be:	75 0c                	jne    0x4059cc
  4059c0:	83 7d 14 01          	cmp    DWORD PTR [ebp+0x14],0x1
  4059c4:	74 08                	je     0x4059ce
  4059c6:	83 7d 14 02          	cmp    DWORD PTR [ebp+0x14],0x2
  4059ca:	74 02                	je     0x4059ce
  4059cc:	88 1e                	mov    BYTE PTR [esi],bl
  4059ce:	ff 75 18             	push   DWORD PTR [ebp+0x18]
  4059d1:	88 9e ff 03 00 00    	mov    BYTE PTR [esi+0x3ff],bl
  4059d7:	ff 15 1c 70 40 00    	call   DWORD PTR ds:0x40701c
  4059dd:	5e                   	pop    esi
  4059de:	5b                   	pop    ebx
  4059df:	5d                   	pop    ebp
  4059e0:	c2 14 00             	ret    0x14
  4059e3:	ff 74 24 08          	push   DWORD PTR [esp+0x8]
  4059e7:	68 18 73 40 00       	push   0x407318
  4059ec:	ff 74 24 0c          	push   DWORD PTR [esp+0xc]
  4059f0:	ff 15 00 72 40 00    	call   DWORD PTR ds:0x407200
  4059f6:	83 c4 0c             	add    esp,0xc
  4059f9:	c2 08 00             	ret    0x8
  4059fc:	55                   	push   ebp
  4059fd:	8b ec                	mov    ebp,esp
  4059ff:	51                   	push   ecx
  405a00:	8b 4d 08             	mov    ecx,DWORD PTR [ebp+0x8]
  405a03:	53                   	push   ebx
  405a04:	56                   	push   esi
  405a05:	57                   	push   edi
  405a06:	33 ff                	xor    edi,edi
  405a08:	80 39 2d             	cmp    BYTE PTR [ecx],0x2d
  405a0b:	c7 45 fc 01 00 00 00 	mov    DWORD PTR [ebp-0x4],0x1
  405a12:	b0 0a                	mov    al,0xa
  405a14:	b3 39                	mov    bl,0x39
  405a16:	75 05                	jne    0x405a1d
  405a18:	41                   	inc    ecx
  405a19:	83 4d fc ff          	or     DWORD PTR [ebp-0x4],0xffffffff
  405a1d:	80 39 30             	cmp    BYTE PTR [ecx],0x30
  405a20:	75 1c                	jne    0x405a3e
  405a22:	41                   	inc    ecx
  405a23:	8a 11                	mov    dl,BYTE PTR [ecx]
  405a25:	80 fa 30             	cmp    dl,0x30
  405a28:	7c 09                	jl     0x405a33
  405a2a:	80 fa 37             	cmp    dl,0x37
  405a2d:	7f 04                	jg     0x405a33
  405a2f:	b0 08                	mov    al,0x8
  405a31:	b3 37                	mov    bl,0x37
  405a33:	80 e2 df             	and    dl,0xdf
  405a36:	80 fa 58             	cmp    dl,0x58
  405a39:	75 03                	jne    0x405a3e
  405a3b:	b0 10                	mov    al,0x10
  405a3d:	41                   	inc    ecx
  405a3e:	0f be 11             	movsx  edx,BYTE PTR [ecx]
  405a41:	41                   	inc    ecx
  405a42:	83 fa 30             	cmp    edx,0x30
  405a45:	7c 0c                	jl     0x405a53
  405a47:	0f be f3             	movsx  esi,bl
  405a4a:	3b d6                	cmp    edx,esi
  405a4c:	7f 05                	jg     0x405a53
  405a4e:	83 ea 30             	sub    edx,0x30
  405a51:	eb 19                	jmp    0x405a6c
  405a53:	3c 10                	cmp    al,0x10
  405a55:	75 21                	jne    0x405a78
  405a57:	8b f2                	mov    esi,edx
  405a59:	83 e6 df             	and    esi,0xffffffdf
  405a5c:	83 fe 41             	cmp    esi,0x41
  405a5f:	7c 17                	jl     0x405a78
  405a61:	83 fe 46             	cmp    esi,0x46
  405a64:	7f 12                	jg     0x405a78
  405a66:	83 e2 07             	and    edx,0x7
  405a69:	83 c2 09             	add    edx,0x9
  405a6c:	0f be f0             	movsx  esi,al
  405a6f:	0f af f7             	imul   esi,edi
  405a72:	03 f2                	add    esi,edx
  405a74:	8b fe                	mov    edi,esi
  405a76:	eb c6                	jmp    0x405a3e
  405a78:	8b 45 fc             	mov    eax,DWORD PTR [ebp-0x4]
  405a7b:	0f af c7             	imul   eax,edi
  405a7e:	5f                   	pop    edi
  405a7f:	5e                   	pop    esi
  405a80:	5b                   	pop    ebx
  405a81:	c9                   	leave  
  405a82:	c2 04 00             	ret    0x4
  405a85:	68 00 04 00 00       	push   0x400
  405a8a:	ff 74 24 0c          	push   DWORD PTR [esp+0xc]
  405a8e:	ff 74 24 0c          	push   DWORD PTR [esp+0xc]
  405a92:	ff 15 bc 70 40 00    	call   DWORD PTR ds:0x4070bc
  405a98:	c2 08 00             	ret    0x8
  405a9b:	ff 25 dc 70 40 00    	jmp    DWORD PTR ds:0x4070dc
  405aa1:	ff 25 e0 70 40 00    	jmp    DWORD PTR ds:0x4070e0
  405aa7:	55                   	push   ebp
  405aa8:	8b ec                	mov    ebp,esp
  405aaa:	83 ec 18             	sub    esp,0x18
  405aad:	8b 45 0c             	mov    eax,DWORD PTR [ebp+0xc]
  405ab0:	85 c0                	test   eax,eax
  405ab2:	7d 11                	jge    0x405ac5
  405ab4:	8b 0d 7c 36 42 00    	mov    ecx,DWORD PTR ds:0x42367c
  405aba:	8d 04 85 04 00 00 00 	lea    eax,[eax*4+0x4]
  405ac1:	2b c8                	sub    ecx,eax
  405ac3:	8b 01                	mov    eax,DWORD PTR [ecx]
  405ac5:	8b 0d d8 3e 42 00    	mov    ecx,DWORD PTR ds:0x423ed8
  405acb:	8b 55 08             	mov    edx,DWORD PTR [ebp+0x8]
  405ace:	03 c8                	add    ecx,eax
  405ad0:	b8 40 2e 42 00       	mov    eax,0x422e40
  405ad5:	53                   	push   ebx
  405ad6:	2b d0                	sub    edx,eax
  405ad8:	56                   	push   esi
  405ad9:	57                   	push   edi
  405ada:	81 fa 00 08 00 00    	cmp    edx,0x800
  405ae0:	8b f8                	mov    edi,eax
  405ae2:	0f 83 d8 01 00 00    	jae    0x405cc0
  405ae8:	8b 7d 08             	mov    edi,DWORD PTR [ebp+0x8]
  405aeb:	83 65 08 00          	and    DWORD PTR [ebp+0x8],0x0
  405aef:	e9 cc 01 00 00       	jmp    0x405cc0
  405af4:	8b f7                	mov    esi,edi
  405af6:	2b f0                	sub    esi,eax
  405af8:	81 fe 00 04 00 00    	cmp    esi,0x400
  405afe:	0f 8d c6 01 00 00    	jge    0x405cca
  405b04:	41                   	inc    ecx
  405b05:	80 fa fc             	cmp    dl,0xfc
  405b08:	89 4d 0c             	mov    DWORD PTR [ebp+0xc],ecx
  405b0b:	0f 86 a2 01 00 00    	jbe    0x405cb3
  405b11:	0f be 41 01          	movsx  eax,BYTE PTR [ecx+0x1]
  405b15:	0f be 09             	movsx  ecx,BYTE PTR [ecx]
  405b18:	8b f0                	mov    esi,eax
  405b1a:	83 45 0c 02          	add    DWORD PTR [ebp+0xc],0x2
  405b1e:	83 e6 7f             	and    esi,0x7f
  405b21:	8b d9                	mov    ebx,ecx
  405b23:	c1 e6 07             	shl    esi,0x7
  405b26:	83 e3 7f             	and    ebx,0x7f
  405b29:	89 45 f0             	mov    DWORD PTR [ebp-0x10],eax
  405b2c:	0b f3                	or     esi,ebx
  405b2e:	8b d9                	mov    ebx,ecx
  405b30:	80 cd 80             	or     ch,0x80
  405b33:	80 cc 80             	or     ah,0x80
  405b36:	80 fa fe             	cmp    dl,0xfe
  405b39:	89 5d e8             	mov    DWORD PTR [ebp-0x18],ebx
  405b3c:	89 4d ec             	mov    DWORD PTR [ebp-0x14],ecx
  405b3f:	89 45 f4             	mov    DWORD PTR [ebp-0xc],eax
  405b42:	0f 85 15 01 00 00    	jne    0x405c5d
  405b48:	6a 02                	push   0x2
  405b4a:	5e                   	pop    esi
  405b4b:	ff 15 e8 70 40 00    	call   DWORD PTR ds:0x4070e8
  405b51:	85 c0                	test   eax,eax
  405b53:	79 18                	jns    0x405b6d
  405b55:	66 3d 04 5a          	cmp    ax,0x5a04
  405b59:	74 12                	je     0x405b6d
  405b5b:	83 7d f0 23          	cmp    DWORD PTR [ebp-0x10],0x23
  405b5f:	74 0c                	je     0x405b6d
  405b61:	83 7d f0 2e          	cmp    DWORD PTR [ebp-0x10],0x2e
  405b65:	74 06                	je     0x405b6d
  405b67:	83 65 fc 00          	and    DWORD PTR [ebp-0x4],0x0
  405b6b:	eb 07                	jmp    0x405b74
  405b6d:	c7 45 fc 01 00 00 00 	mov    DWORD PTR [ebp-0x4],0x1
  405b74:	83 3d 24 3f 42 00 00 	cmp    DWORD PTR ds:0x423f24,0x0
  405b7b:	74 03                	je     0x405b80
  405b7d:	6a 04                	push   0x4
  405b7f:	5e                   	pop    esi
  405b80:	84 db                	test   bl,bl
  405b82:	79 37                	jns    0x405bbb
  405b84:	8b c3                	mov    eax,ebx
  405b86:	83 e3 3f             	and    ebx,0x3f
  405b89:	03 1d d8 3e 42 00    	add    ebx,DWORD PTR ds:0x423ed8
  405b8f:	83 e0 40             	and    eax,0x40
  405b92:	50                   	push   eax
  405b93:	57                   	push   edi
  405b94:	53                   	push   ebx
  405b95:	68 1c 73 40 00       	push   0x40731c
  405b9a:	68 02 00 00 80       	push   0x80000002
  405b9f:	e8 c8 fd ff ff       	call   0x40596c
  405ba4:	80 3f 00             	cmp    BYTE PTR [edi],0x0
  405ba7:	0f 85 97 00 00 00    	jne    0x405c44
  405bad:	ff 75 f0             	push   DWORD PTR [ebp-0x10]
  405bb0:	57                   	push   edi
  405bb1:	e8 f1 fe ff ff       	call   0x405aa7
  405bb6:	e9 84 00 00 00       	jmp    0x405c3f
  405bbb:	83 fb 25             	cmp    ebx,0x25
  405bbe:	75 0e                	jne    0x405bce
  405bc0:	68 00 04 00 00       	push   0x400
  405bc5:	57                   	push   edi
  405bc6:	ff 15 e4 70 40 00    	call   DWORD PTR ds:0x4070e4
  405bcc:	eb 71                	jmp    0x405c3f
  405bce:	83 fb 24             	cmp    ebx,0x24
  405bd1:	75 68                	jne    0x405c3b
  405bd3:	68 00 04 00 00       	push   0x400
  405bd8:	57                   	push   edi
  405bd9:	ff 15 48 71 40 00    	call   DWORD PTR ds:0x407148
  405bdf:	33 f6                	xor    esi,esi
  405be1:	eb 58                	jmp    0x405c3b
  405be3:	a1 a4 3e 42 00       	mov    eax,ds:0x423ea4
  405be8:	33 c9                	xor    ecx,ecx
  405bea:	4e                   	dec    esi
  405beb:	3b c1                	cmp    eax,ecx
  405bed:	74 18                	je     0x405c07
  405bef:	39 4d fc             	cmp    DWORD PTR [ebp-0x4],ecx
  405bf2:	74 13                	je     0x405c07
  405bf4:	57                   	push   edi
  405bf5:	51                   	push   ecx
  405bf6:	51                   	push   ecx
  405bf7:	ff 74 b5 e8          	push   DWORD PTR [ebp+esi*4-0x18]
  405bfb:	ff 35 a8 3e 42 00    	push   DWORD PTR ds:0x423ea8
  405c01:	ff d0                	call   eax
  405c03:	85 c0                	test   eax,eax
  405c05:	74 38                	je     0x405c3f
  405c07:	8d 45 f8             	lea    eax,[ebp-0x8]
  405c0a:	50                   	push   eax
  405c0b:	ff 74 b5 e8          	push   DWORD PTR [ebp+esi*4-0x18]
  405c0f:	ff 35 a8 3e 42 00    	push   DWORD PTR ds:0x423ea8
  405c15:	ff 15 64 71 40 00    	call   DWORD PTR ds:0x407164
  405c1b:	85 c0                	test   eax,eax
  405c1d:	75 19                	jne    0x405c38
  405c1f:	57                   	push   edi
  405c20:	ff 75 f8             	push   DWORD PTR [ebp-0x8]
  405c23:	ff 15 50 71 40 00    	call   DWORD PTR ds:0x407150
  405c29:	ff 75 f8             	push   DWORD PTR [ebp-0x8]
  405c2c:	8b d8                	mov    ebx,eax
  405c2e:	ff 15 78 72 40 00    	call   DWORD PTR ds:0x407278
  405c34:	85 db                	test   ebx,ebx
  405c36:	75 07                	jne    0x405c3f
  405c38:	80 27 00             	and    BYTE PTR [edi],0x0
  405c3b:	85 f6                	test   esi,esi
  405c3d:	75 a4                	jne    0x405be3
  405c3f:	80 3f 00             	cmp    BYTE PTR [edi],0x0
  405c42:	74 11                	je     0x405c55
  405c44:	83 7d f0 1a          	cmp    DWORD PTR [ebp-0x10],0x1a
  405c48:	75 0b                	jne    0x405c55
  405c4a:	68 48 73 40 00       	push   0x407348
  405c4f:	57                   	push   edi
  405c50:	e8 4c fe ff ff       	call   0x405aa1
  405c55:	57                   	push   edi
  405c56:	e8 88 00 00 00       	call   0x405ce3
  405c5b:	eb 44                	jmp    0x405ca1
  405c5d:	80 fa fd             	cmp    dl,0xfd
  405c60:	75 2e                	jne    0x405c90
  405c62:	83 fe 1d             	cmp    esi,0x1d
  405c65:	75 0e                	jne    0x405c75
  405c67:	ff 35 a8 3e 42 00    	push   DWORD PTR ds:0x423ea8
  405c6d:	57                   	push   edi
  405c6e:	e8 70 fd ff ff       	call   0x4059e3
  405c73:	eb 11                	jmp    0x405c86
  405c75:	8b c6                	mov    eax,esi
  405c77:	c1 e0 0a             	shl    eax,0xa
  405c7a:	05 00 40 42 00       	add    eax,0x424000
  405c7f:	50                   	push   eax
  405c80:	57                   	push   edi
  405c81:	e8 ff fd ff ff       	call   0x405a85
  405c86:	83 c6 eb             	add    esi,0xffffffeb
  405c89:	83 fe 07             	cmp    esi,0x7
  405c8c:	73 13                	jae    0x405ca1
  405c8e:	eb c5                	jmp    0x405c55
  405c90:	80 fa ff             	cmp    dl,0xff
  405c93:	75 0c                	jne    0x405ca1
  405c95:	83 c8 ff             	or     eax,0xffffffff
  405c98:	2b c6                	sub    eax,esi
  405c9a:	50                   	push   eax
  405c9b:	57                   	push   edi
  405c9c:	e8 06 fe ff ff       	call   0x405aa7
  405ca1:	57                   	push   edi
  405ca2:	e8 f4 fd ff ff       	call   0x405a9b
  405ca7:	8b 4d 0c             	mov    ecx,DWORD PTR [ebp+0xc]
  405caa:	03 f8                	add    edi,eax
  405cac:	b8 40 2e 42 00       	mov    eax,0x422e40
  405cb1:	eb 0d                	jmp    0x405cc0
  405cb3:	75 08                	jne    0x405cbd
  405cb5:	8a 11                	mov    dl,BYTE PTR [ecx]
  405cb7:	88 17                	mov    BYTE PTR [edi],dl
  405cb9:	47                   	inc    edi
  405cba:	41                   	inc    ecx
  405cbb:	eb 03                	jmp    0x405cc0
  405cbd:	88 17                	mov    BYTE PTR [edi],dl
  405cbf:	47                   	inc    edi
  405cc0:	8a 11                	mov    dl,BYTE PTR [ecx]
  405cc2:	84 d2                	test   dl,dl
  405cc4:	0f 85 2a fe ff ff    	jne    0x405af4
  405cca:	80 27 00             	and    BYTE PTR [edi],0x0
  405ccd:	83 7d 08 00          	cmp    DWORD PTR [ebp+0x8],0x0
  405cd1:	5f                   	pop    edi
  405cd2:	5e                   	pop    esi
  405cd3:	5b                   	pop    ebx
  405cd4:	74 09                	je     0x405cdf
  405cd6:	50                   	push   eax
  405cd7:	ff 75 08             	push   DWORD PTR [ebp+0x8]
  405cda:	e8 a6 fd ff ff       	call   0x405a85
  405cdf:	c9                   	leave  
  405ce0:	c2 08 00             	ret    0x8
  405ce3:	53                   	push   ebx
  405ce4:	56                   	push   esi
  405ce5:	8b 74 24 0c          	mov    esi,DWORD PTR [esp+0xc]
  405ce9:	57                   	push   edi
  405cea:	80 3e 5c             	cmp    BYTE PTR [esi],0x5c
  405ced:	75 15                	jne    0x405d04
  405cef:	80 7e 01 5c          	cmp    BYTE PTR [esi+0x1],0x5c
  405cf3:	75 0f                	jne    0x405d04
  405cf5:	80 7e 02 3f          	cmp    BYTE PTR [esi+0x2],0x3f
  405cf9:	75 09                	jne    0x405d04
  405cfb:	80 7e 03 5c          	cmp    BYTE PTR [esi+0x3],0x5c
  405cff:	75 03                	jne    0x405d04
  405d01:	83 c6 04             	add    esi,0x4
  405d04:	80 3e 00             	cmp    BYTE PTR [esi],0x0
  405d07:	74 0c                	je     0x405d15
  405d09:	56                   	push   esi
  405d0a:	e8 d6 f8 ff ff       	call   0x4055e5
  405d0f:	85 c0                	test   eax,eax
  405d11:	74 02                	je     0x405d15
  405d13:	46                   	inc    esi
  405d14:	46                   	inc    esi
  405d15:	8a 06                	mov    al,BYTE PTR [esi]
  405d17:	8b de                	mov    ebx,esi
  405d19:	84 c0                	test   al,al
  405d1b:	8b fe                	mov    edi,esi
  405d1d:	74 39                	je     0x405d58
  405d1f:	55                   	push   ebp
  405d20:	8b 2d 1c 72 40 00    	mov    ebp,DWORD PTR ds:0x40721c
  405d26:	3c 1f                	cmp    al,0x1f
  405d28:	76 22                	jbe    0x405d4c
  405d2a:	50                   	push   eax
  405d2b:	68 54 93 40 00       	push   0x409354
  405d30:	e8 6e f8 ff ff       	call   0x4055a3
  405d35:	80 38 00             	cmp    BYTE PTR [eax],0x0
  405d38:	75 12                	jne    0x405d4c
  405d3a:	56                   	push   esi
  405d3b:	ff d5                	call   ebp
  405d3d:	2b c6                	sub    eax,esi
  405d3f:	50                   	push   eax
  405d40:	56                   	push   esi
  405d41:	57                   	push   edi
  405d42:	e8 d6 f9 ff ff       	call   0x40571d
  405d47:	57                   	push   edi
  405d48:	ff d5                	call   ebp
  405d4a:	8b f8                	mov    edi,eax
  405d4c:	56                   	push   esi
  405d4d:	ff d5                	call   ebp
  405d4f:	8b f0                	mov    esi,eax
  405d51:	8a 06                	mov    al,BYTE PTR [esi]
  405d53:	84 c0                	test   al,al
  405d55:	75 cf                	jne    0x405d26
  405d57:	5d                   	pop    ebp
  405d58:	80 27 00             	and    BYTE PTR [edi],0x0
  405d5b:	57                   	push   edi
  405d5c:	53                   	push   ebx
  405d5d:	ff 15 dc 71 40 00    	call   DWORD PTR ds:0x4071dc
  405d63:	8b f8                	mov    edi,eax
  405d65:	8a 07                	mov    al,BYTE PTR [edi]
  405d67:	3c 20                	cmp    al,0x20
  405d69:	74 04                	je     0x405d6f
  405d6b:	3c 5c                	cmp    al,0x5c
  405d6d:	75 07                	jne    0x405d76
  405d6f:	80 27 00             	and    BYTE PTR [edi],0x0
  405d72:	3b df                	cmp    ebx,edi
  405d74:	72 e5                	jb     0x405d5b
  405d76:	5f                   	pop    edi
  405d77:	5e                   	pop    esi
  405d78:	5b                   	pop    ebx
  405d79:	c2 04 00             	ret    0x4
  405d7c:	56                   	push   esi
  405d7d:	be e8 24 42 00       	mov    esi,0x4224e8
  405d82:	56                   	push   esi
  405d83:	ff 74 24 0c          	push   DWORD PTR [esp+0xc]
  405d87:	ff 15 40 71 40 00    	call   DWORD PTR ds:0x407140
  405d8d:	83 f8 ff             	cmp    eax,0xffffffff
  405d90:	74 0b                	je     0x405d9d
  405d92:	50                   	push   eax
  405d93:	ff 15 38 71 40 00    	call   DWORD PTR ds:0x407138
  405d99:	8b c6                	mov    eax,esi
  405d9b:	eb 02                	jmp    0x405d9f
  405d9d:	33 c0                	xor    eax,eax
  405d9f:	5e                   	pop    esi
  405da0:	c2 04 00             	ret    0x4
  405da3:	8b 44 24 04          	mov    eax,DWORD PTR [esp+0x4]
  405da7:	56                   	push   esi
  405da8:	8b f0                	mov    esi,eax
  405daa:	57                   	push   edi
  405dab:	c1 e6 03             	shl    esi,0x3
  405dae:	8b be 18 92 40 00    	mov    edi,DWORD PTR [esi+0x409218]
  405db4:	57                   	push   edi
  405db5:	ff 15 0c 71 40 00    	call   DWORD PTR ds:0x40710c
  405dbb:	85 c0                	test   eax,eax
  405dbd:	75 0b                	jne    0x405dca
  405dbf:	57                   	push   edi
  405dc0:	ff 15 b8 70 40 00    	call   DWORD PTR ds:0x4070b8
  405dc6:	85 c0                	test   eax,eax
  405dc8:	74 0d                	je     0x405dd7
  405dca:	ff b6 1c 92 40 00    	push   DWORD PTR [esi+0x40921c]
  405dd0:	50                   	push   eax
  405dd1:	ff 15 14 71 40 00    	call   DWORD PTR ds:0x407114
  405dd7:	5f                   	pop    edi
  405dd8:	5e                   	pop    esi
  405dd9:	c2 04 00             	ret    0x4
  405ddc:	55                   	push   ebp
  405ddd:	8b ec                	mov    ebp,esp
  405ddf:	83 ec 1c             	sub    esp,0x1c
  405de2:	56                   	push   esi
  405de3:	8b 75 08             	mov    esi,DWORD PTR [ebp+0x8]
  405de6:	57                   	push   edi
  405de7:	8b 3d e4 71 40 00    	mov    edi,DWORD PTR ds:0x4071e4
  405ded:	eb 0a                	jmp    0x405df9
  405def:	8d 45 e4             	lea    eax,[ebp-0x1c]
  405df2:	50                   	push   eax
  405df3:	ff 15 e0 71 40 00    	call   DWORD PTR ds:0x4071e0
  405df9:	6a 01                	push   0x1
  405dfb:	56                   	push   esi
  405dfc:	56                   	push   esi
  405dfd:	8d 45 e4             	lea    eax,[ebp-0x1c]
  405e00:	6a 00                	push   0x0
  405e02:	50                   	push   eax
  405e03:	ff d7                	call   edi
  405e05:	85 c0                	test   eax,eax
  405e07:	75 e6                	jne    0x405def
  405e09:	5f                   	pop    edi
  405e0a:	5e                   	pop    esi
  405e0b:	c9                   	leave  
  405e0c:	c2 04 00             	ret    0x4
  405e0f:	83 3d 2c 2a 42 00 00 	cmp    DWORD PTR ds:0x422a2c,0x0
  405e16:	56                   	push   esi
  405e17:	75 2d                	jne    0x405e46
  405e19:	33 c9                	xor    ecx,ecx
  405e1b:	6a 08                	push   0x8
  405e1d:	8b c1                	mov    eax,ecx
  405e1f:	5e                   	pop    esi
  405e20:	8b d0                	mov    edx,eax
  405e22:	80 e2 01             	and    dl,0x1
  405e25:	f6 da                	neg    dl
  405e27:	1b d2                	sbb    edx,edx
  405e29:	81 e2 20 83 b8 ed    	and    edx,0xedb88320
  405e2f:	d1 e8                	shr    eax,1
  405e31:	33 c2                	xor    eax,edx
  405e33:	4e                   	dec    esi
  405e34:	75 ea                	jne    0x405e20
  405e36:	89 04 8d 28 2a 42 00 	mov    DWORD PTR [ecx*4+0x422a28],eax
  405e3d:	41                   	inc    ecx
  405e3e:	81 f9 00 01 00 00    	cmp    ecx,0x100
  405e44:	7c d5                	jl     0x405e1b
  405e46:	8b 54 24 10          	mov    edx,DWORD PTR [esp+0x10]
  405e4a:	8b 44 24 08          	mov    eax,DWORD PTR [esp+0x8]
  405e4e:	85 d2                	test   edx,edx
  405e50:	f7 d0                	not    eax
  405e52:	76 23                	jbe    0x405e77
  405e54:	8b 4c 24 0c          	mov    ecx,DWORD PTR [esp+0xc]
  405e58:	57                   	push   edi
  405e59:	0f b6 39             	movzx  edi,BYTE PTR [ecx]
  405e5c:	8b f0                	mov    esi,eax
  405e5e:	81 e6 ff 00 00 00    	and    esi,0xff
  405e64:	33 f7                	xor    esi,edi
  405e66:	c1 e8 08             	shr    eax,0x8
  405e69:	8b 34 b5 28 2a 42 00 	mov    esi,DWORD PTR [esi*4+0x422a28]
  405e70:	33 c6                	xor    eax,esi
  405e72:	41                   	inc    ecx
  405e73:	4a                   	dec    edx
  405e74:	75 e3                	jne    0x405e59
  405e76:	5f                   	pop    edi
  405e77:	f7 d0                	not    eax
  405e79:	5e                   	pop    esi
  405e7a:	c2 0c 00             	ret    0xc
  405e7d:	b8 80 00 00 00       	mov    eax,0x80
  405e82:	48                   	dec    eax
  405e83:	c6 04 08 00          	mov    BYTE PTR [eax+ecx*1],0x0
  405e87:	75 f9                	jne    0x405e82
  405e89:	83 49 78 ff          	or     DWORD PTR [ecx+0x78],0xffffffff
  405e8d:	33 c0                	xor    eax,eax
  405e8f:	40                   	inc    eax
  405e90:	89 41 68             	mov    DWORD PTR [ecx+0x68],eax
  405e93:	89 41 64             	mov    DWORD PTR [ecx+0x64],eax
  405e96:	89 41 60             	mov    DWORD PTR [ecx+0x60],eax
  405e99:	89 41 5c             	mov    DWORD PTR [ecx+0x5c],eax
  405e9c:	c3                   	ret    
  405e9d:	55                   	push   ebp
  405e9e:	8b ec                	mov    ebp,esp
  405ea0:	81 ec 90 00 00 00    	sub    esp,0x90
  405ea6:	53                   	push   ebx
  405ea7:	56                   	push   esi
  405ea8:	57                   	push   edi
  405ea9:	6a 22                	push   0x22
  405eab:	8b f1                	mov    esi,ecx
  405ead:	59                   	pop    ecx
  405eae:	8d bd 78 ff ff ff    	lea    edi,[ebp-0x88]
  405eb4:	89 b5 70 ff ff ff    	mov    DWORD PTR [ebp-0x90],esi
  405eba:	f3 a5                	rep movs DWORD PTR es:[edi],DWORD PTR ds:[esi]
  405ebc:	83 7d d0 ff          	cmp    DWORD PTR [ebp-0x30],0xffffffff
  405ec0:	75 08                	jne    0x405eca
  405ec2:	33 c0                	xor    eax,eax
  405ec4:	40                   	inc    eax
  405ec5:	e9 20 0a 00 00       	jmp    0x4068ea
  405eca:	8b 5d bc             	mov    ebx,DWORD PTR [ebp-0x44]
  405ecd:	8b 75 ac             	mov    esi,DWORD PTR [ebp-0x54]
  405ed0:	8b 85 78 ff ff ff    	mov    eax,DWORD PTR [ebp-0x88]
  405ed6:	83 f8 1c             	cmp    eax,0x1c
  405ed9:	0f 87 08 0a 00 00    	ja     0x4068e7
  405edf:	ff 24 85 ef 68 40 00 	jmp    DWORD PTR [eax*4+0x4068ef]
  405ee6:	83 7d 94 00          	cmp    DWORD PTR [ebp-0x6c],0x0
  405eea:	0f 84 e2 09 00 00    	je     0x4068d2
  405ef0:	8b 45 90             	mov    eax,DWORD PTR [ebp-0x70]
  405ef3:	ff 4d 94             	dec    DWORD PTR [ebp-0x6c]
  405ef6:	ff 45 90             	inc    DWORD PTR [ebp-0x70]
  405ef9:	8a 00                	mov    al,BYTE PTR [eax]
  405efb:	3c e1                	cmp    al,0xe1
  405efd:	0f 87 e4 09 00 00    	ja     0x4068e7
  405f03:	0f b6 c0             	movzx  eax,al
  405f06:	6a 2d                	push   0x2d
  405f08:	99                   	cdq    
  405f09:	59                   	pop    ecx
  405f0a:	f7 f9                	idiv   ecx
  405f0c:	6a 09                	push   0x9
  405f0e:	59                   	pop    ecx
  405f0f:	8b f0                	mov    esi,eax
  405f11:	0f b6 c2             	movzx  eax,dl
  405f14:	99                   	cdq    
  405f15:	f7 f9                	idiv   ecx
  405f17:	8b ce                	mov    ecx,esi
  405f19:	0f b6 fa             	movzx  edi,dl
  405f1c:	33 d2                	xor    edx,edx
  405f1e:	89 7d c4             	mov    DWORD PTR [ebp-0x3c],edi
  405f21:	42                   	inc    edx
  405f22:	d3 e2                	shl    edx,cl
  405f24:	8b c8                	mov    ecx,eax
  405f26:	4a                   	dec    edx
  405f27:	89 55 e4             	mov    DWORD PTR [ebp-0x1c],edx
  405f2a:	33 d2                	xor    edx,edx
  405f2c:	42                   	inc    edx
  405f2d:	d3 e2                	shl    edx,cl
  405f2f:	8d 0c 37             	lea    ecx,[edi+esi*1]
  405f32:	be 00 03 00 00       	mov    esi,0x300
  405f37:	d3 e6                	shl    esi,cl
  405f39:	4a                   	dec    edx
  405f3a:	89 55 e8             	mov    DWORD PTR [ebp-0x18],edx
  405f3d:	81 c6 36 07 00 00    	add    esi,0x736
  405f43:	8d 3c 36             	lea    edi,[esi+esi*1]
  405f46:	3b 7d 88             	cmp    edi,DWORD PTR [ebp-0x78]
  405f49:	74 26                	je     0x405f71
  405f4b:	83 7d fc 00          	cmp    DWORD PTR [ebp-0x4],0x0
  405f4f:	74 09                	je     0x405f5a
  405f51:	ff 75 fc             	push   DWORD PTR [ebp-0x4]
  405f54:	ff 15 fc 70 40 00    	call   DWORD PTR ds:0x4070fc
  405f5a:	57                   	push   edi
  405f5b:	6a 40                	push   0x40
  405f5d:	ff 15 00 71 40 00    	call   DWORD PTR ds:0x407100
  405f63:	85 c0                	test   eax,eax
  405f65:	89 45 fc             	mov    DWORD PTR [ebp-0x4],eax
  405f68:	0f 84 79 09 00 00    	je     0x4068e7
  405f6e:	89 7d 88             	mov    DWORD PTR [ebp-0x78],edi
  405f71:	85 f6                	test   esi,esi
  405f73:	74 0c                	je     0x405f81
  405f75:	8b 45 fc             	mov    eax,DWORD PTR [ebp-0x4]
  405f78:	4e                   	dec    esi
  405f79:	66 c7 04 70 00 04    	mov    WORD PTR [eax+esi*2],0x400
  405f7f:	75 f4                	jne    0x405f75
  405f81:	83 65 b8 00          	and    DWORD PTR [ebp-0x48],0x0
  405f85:	83 65 c0 00          	and    DWORD PTR [ebp-0x40],0x0
  405f89:	eb 26                	jmp    0x405fb1
  405f8b:	83 7d 94 00          	cmp    DWORD PTR [ebp-0x6c],0x0
  405f8f:	0f 84 a6 08 00 00    	je     0x40683b
  405f95:	8b 45 b8             	mov    eax,DWORD PTR [ebp-0x48]
  405f98:	ff 4d 94             	dec    DWORD PTR [ebp-0x6c]
  405f9b:	8b c8                	mov    ecx,eax
  405f9d:	8b 45 90             	mov    eax,DWORD PTR [ebp-0x70]
  405fa0:	c1 e1 03             	shl    ecx,0x3
  405fa3:	0f b6 00             	movzx  eax,BYTE PTR [eax]
  405fa6:	d3 e0                	shl    eax,cl
  405fa8:	09 45 c0             	or     DWORD PTR [ebp-0x40],eax
  405fab:	ff 45 90             	inc    DWORD PTR [ebp-0x70]
  405fae:	ff 45 b8             	inc    DWORD PTR [ebp-0x48]
  405fb1:	83 7d b8 04          	cmp    DWORD PTR [ebp-0x48],0x4
  405fb5:	7c d4                	jl     0x405f8b
  405fb7:	8b 45 c0             	mov    eax,DWORD PTR [ebp-0x40]
  405fba:	3b 45 8c             	cmp    eax,DWORD PTR [ebp-0x74]
  405fbd:	74 28                	je     0x405fe7
  405fbf:	83 7d f8 00          	cmp    DWORD PTR [ebp-0x8],0x0
  405fc3:	89 45 8c             	mov    DWORD PTR [ebp-0x74],eax
  405fc6:	74 09                	je     0x405fd1
  405fc8:	ff 75 f8             	push   DWORD PTR [ebp-0x8]
  405fcb:	ff 15 fc 70 40 00    	call   DWORD PTR ds:0x4070fc
  405fd1:	ff 75 c0             	push   DWORD PTR [ebp-0x40]
  405fd4:	6a 40                	push   0x40
  405fd6:	ff 15 00 71 40 00    	call   DWORD PTR ds:0x407100
  405fdc:	85 c0                	test   eax,eax
  405fde:	89 45 f8             	mov    DWORD PTR [ebp-0x8],eax
  405fe1:	0f 84 00 09 00 00    	je     0x4068e7
  405fe7:	8b 45 f8             	mov    eax,DWORD PTR [ebp-0x8]
  405fea:	8b 4d 8c             	mov    ecx,DWORD PTR [ebp-0x74]
  405fed:	c7 45 b8 05 00 00 00 	mov    DWORD PTR [ebp-0x48],0x5
  405ff4:	80 64 08 ff 00       	and    BYTE PTR [eax+ecx*1-0x1],0x0
  405ff9:	eb 21                	jmp    0x40601c
  405ffb:	83 7d 94 00          	cmp    DWORD PTR [ebp-0x6c],0x0
  405fff:	0f 84 45 08 00 00    	je     0x40684a
  406005:	8b 4d 90             	mov    ecx,DWORD PTR [ebp-0x70]
  406008:	8b 45 f4             	mov    eax,DWORD PTR [ebp-0xc]
  40600b:	ff 4d 94             	dec    DWORD PTR [ebp-0x6c]
  40600e:	0f b6 09             	movzx  ecx,BYTE PTR [ecx]
  406011:	c1 e0 08             	shl    eax,0x8
  406014:	0b c1                	or     eax,ecx
  406016:	ff 45 90             	inc    DWORD PTR [ebp-0x70]
  406019:	89 45 f4             	mov    DWORD PTR [ebp-0xc],eax
  40601c:	8b 45 b8             	mov    eax,DWORD PTR [ebp-0x48]
  40601f:	ff 4d b8             	dec    DWORD PTR [ebp-0x48]
  406022:	85 c0                	test   eax,eax
  406024:	75 d5                	jne    0x405ffb
  406026:	8b 45 a0             	mov    eax,DWORD PTR [ebp-0x60]
  406029:	8b 4d c8             	mov    ecx,DWORD PTR [ebp-0x38]
  40602c:	23 45 e4             	and    eax,DWORD PTR [ebp-0x1c]
  40602f:	c7 85 7c ff ff ff 06 	mov    DWORD PTR [ebp-0x84],0x6
  406036:	00 00 00 
  406039:	c1 e1 04             	shl    ecx,0x4
  40603c:	89 45 b4             	mov    DWORD PTR [ebp-0x4c],eax
  40603f:	03 c8                	add    ecx,eax
  406041:	8b 45 fc             	mov    eax,DWORD PTR [ebp-0x4]
  406044:	8d 34 48             	lea    esi,[eax+ecx*2]
  406047:	e9 6c 06 00 00       	jmp    0x4066b8
  40604c:	33 d2                	xor    edx,edx
  40604e:	39 55 c0             	cmp    DWORD PTR [ebp-0x40],edx
  406051:	75 6f                	jne    0x4060c2
  406053:	0f b6 45 a4          	movzx  eax,BYTE PTR [ebp-0x5c]
  406057:	8b 75 a0             	mov    esi,DWORD PTR [ebp-0x60]
  40605a:	b1 08                	mov    cl,0x8
  40605c:	2a 4d c4             	sub    cl,BYTE PTR [ebp-0x3c]
  40605f:	23 75 e8             	and    esi,DWORD PTR [ebp-0x18]
  406062:	d3 e8                	shr    eax,cl
  406064:	8b 4d c4             	mov    ecx,DWORD PTR [ebp-0x3c]
  406067:	d3 e6                	shl    esi,cl
  406069:	8b 4d fc             	mov    ecx,DWORD PTR [ebp-0x4]
  40606c:	03 c6                	add    eax,esi
  40606e:	8d 04 40             	lea    eax,[eax+eax*2]
  406071:	c1 e0 09             	shl    eax,0x9
  406074:	83 7d c8 04          	cmp    DWORD PTR [ebp-0x38],0x4
  406078:	8d 84 08 6c 0e 00 00 	lea    eax,[eax+ecx*1+0xe6c]
  40607f:	89 45 a8             	mov    DWORD PTR [ebp-0x58],eax
  406082:	7d 05                	jge    0x406089
  406084:	89 55 c8             	mov    DWORD PTR [ebp-0x38],edx
  406087:	eb 10                	jmp    0x406099
  406089:	83 7d c8 0a          	cmp    DWORD PTR [ebp-0x38],0xa
  40608d:	7d 06                	jge    0x406095
  40608f:	83 6d c8 03          	sub    DWORD PTR [ebp-0x38],0x3
  406093:	eb 04                	jmp    0x406099
  406095:	83 6d c8 06          	sub    DWORD PTR [ebp-0x38],0x6
  406099:	39 55 cc             	cmp    DWORD PTR [ebp-0x34],edx
  40609c:	74 1c                	je     0x4060ba
  40609e:	8b 45 ec             	mov    eax,DWORD PTR [ebp-0x14]
  4060a1:	2b 45 d4             	sub    eax,DWORD PTR [ebp-0x2c]
  4060a4:	3b 45 8c             	cmp    eax,DWORD PTR [ebp-0x74]
  4060a7:	72 03                	jb     0x4060ac
  4060a9:	03 45 8c             	add    eax,DWORD PTR [ebp-0x74]
  4060ac:	8b 4d f8             	mov    ecx,DWORD PTR [ebp-0x8]
  4060af:	33 db                	xor    ebx,ebx
  4060b1:	43                   	inc    ebx
  4060b2:	8a 04 08             	mov    al,BYTE PTR [eax+ecx*1]
  4060b5:	88 45 a5             	mov    BYTE PTR [ebp-0x5b],al
  4060b8:	eb 68                	jmp    0x406122
  4060ba:	33 db                	xor    ebx,ebx
  4060bc:	43                   	inc    ebx
  4060bd:	e9 cd 01 00 00       	jmp    0x40628f
  4060c2:	8b 45 fc             	mov    eax,DWORD PTR [ebp-0x4]
  4060c5:	8b 4d c8             	mov    ecx,DWORD PTR [ebp-0x38]
  4060c8:	c7 45 cc 01 00 00 00 	mov    DWORD PTR [ebp-0x34],0x1
  4060cf:	c7 85 7c ff ff ff 07 	mov    DWORD PTR [ebp-0x84],0x7
  4060d6:	00 00 00 
  4060d9:	8d b4 48 80 01 00 00 	lea    esi,[eax+ecx*2+0x180]
  4060e0:	e9 d3 05 00 00       	jmp    0x4066b8
  4060e5:	83 7d 94 00          	cmp    DWORD PTR [ebp-0x6c],0x0
  4060e9:	0f 84 67 07 00 00    	je     0x406856
  4060ef:	8b 4d 90             	mov    ecx,DWORD PTR [ebp-0x70]
  4060f2:	8b 45 f4             	mov    eax,DWORD PTR [ebp-0xc]
  4060f5:	c1 65 f0 08          	shl    DWORD PTR [ebp-0x10],0x8
  4060f9:	0f b6 09             	movzx  ecx,BYTE PTR [ecx]
  4060fc:	ff 4d 94             	dec    DWORD PTR [ebp-0x6c]
  4060ff:	c1 e0 08             	shl    eax,0x8
  406102:	0b c1                	or     eax,ecx
  406104:	ff 45 90             	inc    DWORD PTR [ebp-0x70]
  406107:	89 45 f4             	mov    DWORD PTR [ebp-0xc],eax
  40610a:	8b 45 c0             	mov    eax,DWORD PTR [ebp-0x40]
  40610d:	39 45 b8             	cmp    DWORD PTR [ebp-0x48],eax
  406110:	0f 85 ad 00 00 00    	jne    0x4061c3
  406116:	81 fb 00 01 00 00    	cmp    ebx,0x100
  40611c:	0f 8d 05 01 00 00    	jge    0x406227
  406122:	0f b6 45 a5          	movzx  eax,BYTE PTR [ebp-0x5b]
  406126:	d0 65 a5             	shl    BYTE PTR [ebp-0x5b],1
  406129:	8b 4d a8             	mov    ecx,DWORD PTR [ebp-0x58]
  40612c:	c1 e8 07             	shr    eax,0x7
  40612f:	89 45 b8             	mov    DWORD PTR [ebp-0x48],eax
  406132:	40                   	inc    eax
  406133:	c1 e0 08             	shl    eax,0x8
  406136:	03 c3                	add    eax,ebx
  406138:	8d 34 41             	lea    esi,[ecx+eax*2]
  40613b:	8b 4d f0             	mov    ecx,DWORD PTR [ebp-0x10]
  40613e:	c1 e9 0b             	shr    ecx,0xb
  406141:	66 8b 06             	mov    ax,WORD PTR [esi]
  406144:	89 75 ac             	mov    DWORD PTR [ebp-0x54],esi
  406147:	0f b7 d0             	movzx  edx,ax
  40614a:	0f af ca             	imul   ecx,edx
  40614d:	39 4d f4             	cmp    DWORD PTR [ebp-0xc],ecx
  406150:	73 1a                	jae    0x40616c
  406152:	83 65 c0 00          	and    DWORD PTR [ebp-0x40],0x0
  406156:	89 4d f0             	mov    DWORD PTR [ebp-0x10],ecx
  406159:	b9 00 08 00 00       	mov    ecx,0x800
  40615e:	2b ca                	sub    ecx,edx
  406160:	c1 f9 05             	sar    ecx,0x5
  406163:	03 c8                	add    ecx,eax
  406165:	03 db                	add    ebx,ebx
  406167:	66 89 0e             	mov    WORD PTR [esi],cx
  40616a:	eb 1d                	jmp    0x406189
  40616c:	29 4d f0             	sub    DWORD PTR [ebp-0x10],ecx
  40616f:	29 4d f4             	sub    DWORD PTR [ebp-0xc],ecx
  406172:	66 8b c8             	mov    cx,ax
  406175:	c7 45 c0 01 00 00 00 	mov    DWORD PTR [ebp-0x40],0x1
  40617c:	66 c1 e9 05          	shr    cx,0x5
  406180:	2b c1                	sub    eax,ecx
  406182:	8d 5c 1b 01          	lea    ebx,[ebx+ebx*1+0x1]
  406186:	66 89 06             	mov    WORD PTR [esi],ax
  406189:	81 7d f0 00 00 00 01 	cmp    DWORD PTR [ebp-0x10],0x1000000
  406190:	89 5d bc             	mov    DWORD PTR [ebp-0x44],ebx
  406193:	0f 83 71 ff ff ff    	jae    0x40610a
  406199:	e9 47 ff ff ff       	jmp    0x4060e5
  40619e:	83 7d 94 00          	cmp    DWORD PTR [ebp-0x6c],0x0
  4061a2:	0f 84 ba 06 00 00    	je     0x406862
  4061a8:	8b 4d 90             	mov    ecx,DWORD PTR [ebp-0x70]
  4061ab:	8b 45 f4             	mov    eax,DWORD PTR [ebp-0xc]
  4061ae:	c1 65 f0 08          	shl    DWORD PTR [ebp-0x10],0x8
  4061b2:	0f b6 09             	movzx  ecx,BYTE PTR [ecx]
  4061b5:	ff 4d 94             	dec    DWORD PTR [ebp-0x6c]
  4061b8:	c1 e0 08             	shl    eax,0x8
  4061bb:	0b c1                	or     eax,ecx
  4061bd:	ff 45 90             	inc    DWORD PTR [ebp-0x70]
  4061c0:	89 45 f4             	mov    DWORD PTR [ebp-0xc],eax
  4061c3:	81 fb 00 01 00 00    	cmp    ebx,0x100
  4061c9:	7d 5c                	jge    0x406227
  4061cb:	8b 45 a8             	mov    eax,DWORD PTR [ebp-0x58]
  4061ce:	8d 14 1b             	lea    edx,[ebx+ebx*1]
  4061d1:	8b 4d f0             	mov    ecx,DWORD PTR [ebp-0x10]
  4061d4:	8d 34 02             	lea    esi,[edx+eax*1]
  4061d7:	c1 e9 0b             	shr    ecx,0xb
  4061da:	66 8b 06             	mov    ax,WORD PTR [esi]
  4061dd:	89 75 ac             	mov    DWORD PTR [ebp-0x54],esi
  4061e0:	0f b7 f8             	movzx  edi,ax
  4061e3:	0f af cf             	imul   ecx,edi
  4061e6:	39 4d f4             	cmp    DWORD PTR [ebp-0xc],ecx
  4061e9:	73 16                	jae    0x406201
  4061eb:	89 4d f0             	mov    DWORD PTR [ebp-0x10],ecx
  4061ee:	b9 00 08 00 00       	mov    ecx,0x800
  4061f3:	2b cf                	sub    ecx,edi
  4061f5:	c1 f9 05             	sar    ecx,0x5
  4061f8:	03 c8                	add    ecx,eax
  4061fa:	03 db                	add    ebx,ebx
  4061fc:	66 89 0e             	mov    WORD PTR [esi],cx
  4061ff:	eb 15                	jmp    0x406216
  406201:	29 4d f0             	sub    DWORD PTR [ebp-0x10],ecx
  406204:	29 4d f4             	sub    DWORD PTR [ebp-0xc],ecx
  406207:	66 8b c8             	mov    cx,ax
  40620a:	8d 5a 01             	lea    ebx,[edx+0x1]
  40620d:	66 c1 e9 05          	shr    cx,0x5
  406211:	2b c1                	sub    eax,ecx
  406213:	66 89 06             	mov    WORD PTR [esi],ax
  406216:	81 7d f0 00 00 00 01 	cmp    DWORD PTR [ebp-0x10],0x1000000
  40621d:	89 5d bc             	mov    DWORD PTR [ebp-0x44],ebx
  406220:	73 a1                	jae    0x4061c3
  406222:	e9 77 ff ff ff       	jmp    0x40619e
  406227:	83 65 cc 00          	and    DWORD PTR [ebp-0x34],0x0
  40622b:	8a 45 bc             	mov    al,BYTE PTR [ebp-0x44]
  40622e:	88 45 a4             	mov    BYTE PTR [ebp-0x5c],al
  406231:	83 7d 9c 00          	cmp    DWORD PTR [ebp-0x64],0x0
  406235:	0f 84 3f 06 00 00    	je     0x40687a
  40623b:	8b 4d 98             	mov    ecx,DWORD PTR [ebp-0x68]
  40623e:	8a 45 a4             	mov    al,BYTE PTR [ebp-0x5c]
  406241:	8b 55 f8             	mov    edx,DWORD PTR [ebp-0x8]
  406244:	ff 45 a0             	inc    DWORD PTR [ebp-0x60]
  406247:	ff 45 98             	inc    DWORD PTR [ebp-0x68]
  40624a:	ff 4d 9c             	dec    DWORD PTR [ebp-0x64]
  40624d:	88 01                	mov    BYTE PTR [ecx],al
  40624f:	8b 4d ec             	mov    ecx,DWORD PTR [ebp-0x14]
  406252:	88 04 11             	mov    BYTE PTR [ecx+edx*1],al
  406255:	8d 41 01             	lea    eax,[ecx+0x1]
  406258:	33 d2                	xor    edx,edx
  40625a:	f7 75 8c             	div    DWORD PTR [ebp-0x74]
  40625d:	e9 95 01 00 00       	jmp    0x4063f7
  406262:	83 7d 94 00          	cmp    DWORD PTR [ebp-0x6c],0x0
  406266:	0f 84 02 06 00 00    	je     0x40686e
  40626c:	8b 4d 90             	mov    ecx,DWORD PTR [ebp-0x70]
  40626f:	8b 45 f4             	mov    eax,DWORD PTR [ebp-0xc]
  406272:	c1 65 f0 08          	shl    DWORD PTR [ebp-0x10],0x8
  406276:	0f b6 09             	movzx  ecx,BYTE PTR [ecx]
  406279:	ff 4d 94             	dec    DWORD PTR [ebp-0x6c]
  40627c:	c1 e0 08             	shl    eax,0x8
  40627f:	0b c1                	or     eax,ecx
  406281:	ff 45 90             	inc    DWORD PTR [ebp-0x70]
  406284:	89 45 f4             	mov    DWORD PTR [ebp-0xc],eax
  406287:	81 fb 00 01 00 00    	cmp    ebx,0x100
  40628d:	7d 9c                	jge    0x40622b
  40628f:	8b 45 a8             	mov    eax,DWORD PTR [ebp-0x58]
  406292:	8d 14 1b             	lea    edx,[ebx+ebx*1]
  406295:	8b 4d f0             	mov    ecx,DWORD PTR [ebp-0x10]
  406298:	8d 34 02             	lea    esi,[edx+eax*1]
  40629b:	c1 e9 0b             	shr    ecx,0xb
  40629e:	66 8b 06             	mov    ax,WORD PTR [esi]
  4062a1:	89 75 ac             	mov    DWORD PTR [ebp-0x54],esi
  4062a4:	0f b7 f8             	movzx  edi,ax
  4062a7:	0f af cf             	imul   ecx,edi
  4062aa:	39 4d f4             	cmp    DWORD PTR [ebp-0xc],ecx
  4062ad:	73 16                	jae    0x4062c5
  4062af:	89 4d f0             	mov    DWORD PTR [ebp-0x10],ecx
  4062b2:	b9 00 08 00 00       	mov    ecx,0x800
  4062b7:	2b cf                	sub    ecx,edi
  4062b9:	c1 f9 05             	sar    ecx,0x5
  4062bc:	03 c8                	add    ecx,eax
  4062be:	03 db                	add    ebx,ebx
  4062c0:	66 89 0e             	mov    WORD PTR [esi],cx
  4062c3:	eb 15                	jmp    0x4062da
  4062c5:	29 4d f0             	sub    DWORD PTR [ebp-0x10],ecx
  4062c8:	29 4d f4             	sub    DWORD PTR [ebp-0xc],ecx
  4062cb:	66 8b c8             	mov    cx,ax
  4062ce:	8d 5a 01             	lea    ebx,[edx+0x1]
  4062d1:	66 c1 e9 05          	shr    cx,0x5
  4062d5:	2b c1                	sub    eax,ecx
  4062d7:	66 89 06             	mov    WORD PTR [esi],ax
  4062da:	81 7d f0 00 00 00 01 	cmp    DWORD PTR [ebp-0x10],0x1000000
  4062e1:	89 5d bc             	mov    DWORD PTR [ebp-0x44],ebx
  4062e4:	73 a1                	jae    0x406287
  4062e6:	e9 77 ff ff ff       	jmp    0x406262
  4062eb:	83 7d c0 01          	cmp    DWORD PTR [ebp-0x40],0x1
  4062ef:	75 1c                	jne    0x40630d
  4062f1:	8b 45 fc             	mov    eax,DWORD PTR [ebp-0x4]
  4062f4:	8b 4d c8             	mov    ecx,DWORD PTR [ebp-0x38]
  4062f7:	c7 85 7c ff ff ff 08 	mov    DWORD PTR [ebp-0x84],0x8
  4062fe:	00 00 00 
  406301:	8d b4 48 98 01 00 00 	lea    esi,[eax+ecx*2+0x198]
  406308:	e9 ab 03 00 00       	jmp    0x4066b8
  40630d:	8b 45 dc             	mov    eax,DWORD PTR [ebp-0x24]
  406310:	c7 45 80 16 00 00 00 	mov    DWORD PTR [ebp-0x80],0x16
  406317:	89 45 e0             	mov    DWORD PTR [ebp-0x20],eax
  40631a:	8b 45 d8             	mov    eax,DWORD PTR [ebp-0x28]
  40631d:	89 45 dc             	mov    DWORD PTR [ebp-0x24],eax
  406320:	8b 45 d4             	mov    eax,DWORD PTR [ebp-0x2c]
  406323:	89 45 d8             	mov    DWORD PTR [ebp-0x28],eax
  406326:	33 c0                	xor    eax,eax
  406328:	83 7d c8 07          	cmp    DWORD PTR [ebp-0x38],0x7
  40632c:	0f 9d c0             	setge  al
  40632f:	48                   	dec    eax
  406330:	24 fd                	and    al,0xfd
  406332:	83 c0 0a             	add    eax,0xa
  406335:	89 45 c8             	mov    DWORD PTR [ebp-0x38],eax
  406338:	8b 45 fc             	mov    eax,DWORD PTR [ebp-0x4]
  40633b:	05 64 06 00 00       	add    eax,0x664
  406340:	89 45 a8             	mov    DWORD PTR [ebp-0x58],eax
  406343:	8b 75 a8             	mov    esi,DWORD PTR [ebp-0x58]
  406346:	c7 85 7c ff ff ff 12 	mov    DWORD PTR [ebp-0x84],0x12
  40634d:	00 00 00 
  406350:	e9 63 03 00 00       	jmp    0x4066b8
  406355:	83 7d c0 00          	cmp    DWORD PTR [ebp-0x40],0x0
  406359:	75 21                	jne    0x40637c
  40635b:	8b 45 c8             	mov    eax,DWORD PTR [ebp-0x38]
  40635e:	8b 4d fc             	mov    ecx,DWORD PTR [ebp-0x4]
  406361:	83 c0 0f             	add    eax,0xf
  406364:	c7 85 7c ff ff ff 09 	mov    DWORD PTR [ebp-0x84],0x9
  40636b:	00 00 00 
  40636e:	c1 e0 04             	shl    eax,0x4
  406371:	03 45 b4             	add    eax,DWORD PTR [ebp-0x4c]
  406374:	8d 34 41             	lea    esi,[ecx+eax*2]
  406377:	e9 3c 03 00 00       	jmp    0x4066b8
  40637c:	8b 45 fc             	mov    eax,DWORD PTR [ebp-0x4]
  40637f:	8b 4d c8             	mov    ecx,DWORD PTR [ebp-0x38]
  406382:	c7 85 7c ff ff ff 0a 	mov    DWORD PTR [ebp-0x84],0xa
  406389:	00 00 00 
  40638c:	8d b4 48 b0 01 00 00 	lea    esi,[eax+ecx*2+0x1b0]
  406393:	e9 20 03 00 00       	jmp    0x4066b8
  406398:	83 7d c0 00          	cmp    DWORD PTR [ebp-0x40],0x0
  40639c:	0f 85 b1 00 00 00    	jne    0x406453
  4063a2:	83 7d a0 00          	cmp    DWORD PTR [ebp-0x60],0x0
  4063a6:	0f 84 3b 05 00 00    	je     0x4068e7
  4063ac:	33 c0                	xor    eax,eax
  4063ae:	83 7d c8 07          	cmp    DWORD PTR [ebp-0x38],0x7
  4063b2:	0f 9d c0             	setge  al
  4063b5:	8d 44 00 09          	lea    eax,[eax+eax*1+0x9]
  4063b9:	89 45 c8             	mov    DWORD PTR [ebp-0x38],eax
  4063bc:	83 7d 9c 00          	cmp    DWORD PTR [ebp-0x64],0x0
  4063c0:	0f 84 c0 04 00 00    	je     0x406886
  4063c6:	8b 45 ec             	mov    eax,DWORD PTR [ebp-0x14]
  4063c9:	2b 45 d4             	sub    eax,DWORD PTR [ebp-0x2c]
  4063cc:	3b 45 8c             	cmp    eax,DWORD PTR [ebp-0x74]
  4063cf:	72 03                	jb     0x4063d4
  4063d1:	03 45 8c             	add    eax,DWORD PTR [ebp-0x74]
  4063d4:	8b 55 f8             	mov    edx,DWORD PTR [ebp-0x8]
  4063d7:	8a 0c 10             	mov    cl,BYTE PTR [eax+edx*1]
  4063da:	8b 45 ec             	mov    eax,DWORD PTR [ebp-0x14]
  4063dd:	88 4d a4             	mov    BYTE PTR [ebp-0x5c],cl
  4063e0:	88 0c 10             	mov    BYTE PTR [eax+edx*1],cl
  4063e3:	40                   	inc    eax
  4063e4:	33 d2                	xor    edx,edx
  4063e6:	f7 75 8c             	div    DWORD PTR [ebp-0x74]
  4063e9:	8b 45 98             	mov    eax,DWORD PTR [ebp-0x68]
  4063ec:	ff 45 a0             	inc    DWORD PTR [ebp-0x60]
  4063ef:	ff 45 98             	inc    DWORD PTR [ebp-0x68]
  4063f2:	ff 4d 9c             	dec    DWORD PTR [ebp-0x64]
  4063f5:	88 08                	mov    BYTE PTR [eax],cl
  4063f7:	89 55 ec             	mov    DWORD PTR [ebp-0x14],edx
  4063fa:	c7 85 78 ff ff ff 02 	mov    DWORD PTR [ebp-0x88],0x2
  406401:	00 00 00 
  406404:	e9 c7 fa ff ff       	jmp    0x405ed0
  406409:	83 7d c0 00          	cmp    DWORD PTR [ebp-0x40],0x0
  40640d:	75 05                	jne    0x406414
  40640f:	8b 45 d8             	mov    eax,DWORD PTR [ebp-0x28]
  406412:	eb 36                	jmp    0x40644a
  406414:	8b 45 fc             	mov    eax,DWORD PTR [ebp-0x4]
  406417:	8b 4d c8             	mov    ecx,DWORD PTR [ebp-0x38]
  40641a:	c7 85 7c ff ff ff 0b 	mov    DWORD PTR [ebp-0x84],0xb
  406421:	00 00 00 
  406424:	8d b4 48 c8 01 00 00 	lea    esi,[eax+ecx*2+0x1c8]
  40642b:	e9 88 02 00 00       	jmp    0x4066b8
  406430:	83 7d c0 00          	cmp    DWORD PTR [ebp-0x40],0x0
  406434:	75 05                	jne    0x40643b
  406436:	8b 45 dc             	mov    eax,DWORD PTR [ebp-0x24]
  406439:	eb 09                	jmp    0x406444
  40643b:	8b 4d dc             	mov    ecx,DWORD PTR [ebp-0x24]
  40643e:	8b 45 e0             	mov    eax,DWORD PTR [ebp-0x20]
  406441:	89 4d e0             	mov    DWORD PTR [ebp-0x20],ecx
  406444:	8b 4d d8             	mov    ecx,DWORD PTR [ebp-0x28]
  406447:	89 4d dc             	mov    DWORD PTR [ebp-0x24],ecx
  40644a:	8b 4d d4             	mov    ecx,DWORD PTR [ebp-0x2c]
  40644d:	89 45 d4             	mov    DWORD PTR [ebp-0x2c],eax
  406450:	89 4d d8             	mov    DWORD PTR [ebp-0x28],ecx
  406453:	8b 45 fc             	mov    eax,DWORD PTR [ebp-0x4]
  406456:	c7 45 80 15 00 00 00 	mov    DWORD PTR [ebp-0x80],0x15
  40645d:	05 68 0a 00 00       	add    eax,0xa68
  406462:	89 45 a8             	mov    DWORD PTR [ebp-0x58],eax
  406465:	e9 d9 fe ff ff       	jmp    0x406343
  40646a:	33 c0                	xor    eax,eax
  40646c:	83 7d c8 07          	cmp    DWORD PTR [ebp-0x38],0x7
  406470:	0f 9d c0             	setge  al
  406473:	48                   	dec    eax
  406474:	24 fd                	and    al,0xfd
  406476:	83 c0 0b             	add    eax,0xb
  406479:	89 45 c8             	mov    DWORD PTR [ebp-0x38],eax
  40647c:	e9 9a 01 00 00       	jmp    0x40661b
  406481:	8b 45 d0             	mov    eax,DWORD PTR [ebp-0x30]
  406484:	83 f8 04             	cmp    eax,0x4
  406487:	7c 03                	jl     0x40648c
  406489:	6a 03                	push   0x3
  40648b:	58                   	pop    eax
  40648c:	8b 4d fc             	mov    ecx,DWORD PTR [ebp-0x4]
  40648f:	c7 45 c0 06 00 00 00 	mov    DWORD PTR [ebp-0x40],0x6
  406496:	c1 e0 07             	shl    eax,0x7
  406499:	c7 45 84 19 00 00 00 	mov    DWORD PTR [ebp-0x7c],0x19
  4064a0:	8d 84 08 60 03 00 00 	lea    eax,[eax+ecx*1+0x360]
  4064a7:	89 45 a8             	mov    DWORD PTR [ebp-0x58],eax
  4064aa:	e9 ce 02 00 00       	jmp    0x40677d
  4064af:	83 fb 04             	cmp    ebx,0x4
  4064b2:	7c 34                	jl     0x4064e8
  4064b4:	8b cb                	mov    ecx,ebx
  4064b6:	8b c3                	mov    eax,ebx
  4064b8:	d1 f9                	sar    ecx,1
  4064ba:	83 e0 01             	and    eax,0x1
  4064bd:	49                   	dec    ecx
  4064be:	0c 02                	or     al,0x2
  4064c0:	d3 e0                	shl    eax,cl
  4064c2:	83 fb 0e             	cmp    ebx,0xe
  4064c5:	89 45 d4             	mov    DWORD PTR [ebp-0x2c],eax
  4064c8:	7d 14                	jge    0x4064de
  4064ca:	8b 55 fc             	mov    edx,DWORD PTR [ebp-0x4]
  4064cd:	2b c3                	sub    eax,ebx
  4064cf:	89 4d c0             	mov    DWORD PTR [ebp-0x40],ecx
  4064d2:	8d 84 42 5e 05 00 00 	lea    eax,[edx+eax*2+0x55e]
  4064d9:	e9 81 00 00 00       	jmp    0x40655f
  4064de:	33 db                	xor    ebx,ebx
  4064e0:	83 c1 fc             	add    ecx,0xfffffffc
  4064e3:	89 4d b8             	mov    DWORD PTR [ebp-0x48],ecx
  4064e6:	eb 33                	jmp    0x40651b
  4064e8:	89 5d d4             	mov    DWORD PTR [ebp-0x2c],ebx
  4064eb:	e9 28 01 00 00       	jmp    0x406618
  4064f0:	83 7d 94 00          	cmp    DWORD PTR [ebp-0x6c],0x0
  4064f4:	0f 84 98 03 00 00    	je     0x406892
  4064fa:	8b 4d 90             	mov    ecx,DWORD PTR [ebp-0x70]
  4064fd:	8b 45 f4             	mov    eax,DWORD PTR [ebp-0xc]
  406500:	c1 65 f0 08          	shl    DWORD PTR [ebp-0x10],0x8
  406504:	0f b6 09             	movzx  ecx,BYTE PTR [ecx]
  406507:	ff 4d 94             	dec    DWORD PTR [ebp-0x6c]
  40650a:	c1 e0 08             	shl    eax,0x8
  40650d:	0b c1                	or     eax,ecx
  40650f:	ff 45 90             	inc    DWORD PTR [ebp-0x70]
  406512:	89 45 f4             	mov    DWORD PTR [ebp-0xc],eax
  406515:	8b 45 d4             	mov    eax,DWORD PTR [ebp-0x2c]
  406518:	ff 4d b8             	dec    DWORD PTR [ebp-0x48]
  40651b:	83 7d b8 00          	cmp    DWORD PTR [ebp-0x48],0x0
  40651f:	7e 27                	jle    0x406548
  406521:	8b 4d f4             	mov    ecx,DWORD PTR [ebp-0xc]
  406524:	03 db                	add    ebx,ebx
  406526:	d1 6d f0             	shr    DWORD PTR [ebp-0x10],1
  406529:	3b 4d f0             	cmp    ecx,DWORD PTR [ebp-0x10]
  40652c:	89 5d bc             	mov    DWORD PTR [ebp-0x44],ebx
  40652f:	72 0c                	jb     0x40653d
  406531:	8b 4d f0             	mov    ecx,DWORD PTR [ebp-0x10]
  406534:	29 4d f4             	sub    DWORD PTR [ebp-0xc],ecx
  406537:	83 cb 01             	or     ebx,0x1
  40653a:	89 5d bc             	mov    DWORD PTR [ebp-0x44],ebx
  40653d:	81 7d f0 00 00 00 01 	cmp    DWORD PTR [ebp-0x10],0x1000000
  406544:	73 d2                	jae    0x406518
  406546:	eb a8                	jmp    0x4064f0
  406548:	c1 e3 04             	shl    ebx,0x4
  40654b:	03 c3                	add    eax,ebx
  40654d:	c7 45 c0 04 00 00 00 	mov    DWORD PTR [ebp-0x40],0x4
  406554:	89 45 d4             	mov    DWORD PTR [ebp-0x2c],eax
  406557:	8b 45 fc             	mov    eax,DWORD PTR [ebp-0x4]
  40655a:	05 44 06 00 00       	add    eax,0x644
  40655f:	33 db                	xor    ebx,ebx
  406561:	89 45 a8             	mov    DWORD PTR [ebp-0x58],eax
  406564:	c7 45 b0 01 00 00 00 	mov    DWORD PTR [ebp-0x50],0x1
  40656b:	89 5d bc             	mov    DWORD PTR [ebp-0x44],ebx
  40656e:	89 5d b8             	mov    DWORD PTR [ebp-0x48],ebx
  406571:	eb 28                	jmp    0x40659b
  406573:	83 7d 94 00          	cmp    DWORD PTR [ebp-0x6c],0x0
  406577:	0f 84 21 03 00 00    	je     0x40689e
  40657d:	8b 4d 90             	mov    ecx,DWORD PTR [ebp-0x70]
  406580:	8b 45 f4             	mov    eax,DWORD PTR [ebp-0xc]
  406583:	c1 65 f0 08          	shl    DWORD PTR [ebp-0x10],0x8
  406587:	0f b6 09             	movzx  ecx,BYTE PTR [ecx]
  40658a:	ff 4d 94             	dec    DWORD PTR [ebp-0x6c]
  40658d:	c1 e0 08             	shl    eax,0x8
  406590:	0b c1                	or     eax,ecx
  406592:	ff 45 90             	inc    DWORD PTR [ebp-0x70]
  406595:	89 45 f4             	mov    DWORD PTR [ebp-0xc],eax
  406598:	ff 45 b8             	inc    DWORD PTR [ebp-0x48]
  40659b:	8b 45 c0             	mov    eax,DWORD PTR [ebp-0x40]
  40659e:	39 45 b8             	cmp    DWORD PTR [ebp-0x48],eax
  4065a1:	7d 72                	jge    0x406615
  4065a3:	8b 45 b0             	mov    eax,DWORD PTR [ebp-0x50]
  4065a6:	8b 55 f0             	mov    edx,DWORD PTR [ebp-0x10]
  4065a9:	c1 ea 0b             	shr    edx,0xb
  4065ac:	8d 3c 00             	lea    edi,[eax+eax*1]
  4065af:	8b 45 a8             	mov    eax,DWORD PTR [ebp-0x58]
  4065b2:	8d 34 07             	lea    esi,[edi+eax*1]
  4065b5:	89 75 ac             	mov    DWORD PTR [ebp-0x54],esi
  4065b8:	66 8b 06             	mov    ax,WORD PTR [esi]
  4065bb:	0f b7 c8             	movzx  ecx,ax
  4065be:	0f af d1             	imul   edx,ecx
  4065c1:	39 55 f4             	cmp    DWORD PTR [ebp-0xc],edx
  4065c4:	73 17                	jae    0x4065dd
  4065c6:	89 55 f0             	mov    DWORD PTR [ebp-0x10],edx
  4065c9:	ba 00 08 00 00       	mov    edx,0x800
  4065ce:	2b d1                	sub    edx,ecx
  4065d0:	c1 fa 05             	sar    edx,0x5
  4065d3:	03 d0                	add    edx,eax
  4065d5:	d1 65 b0             	shl    DWORD PTR [ebp-0x50],1
  4065d8:	66 89 16             	mov    WORD PTR [esi],dx
  4065db:	eb 2a                	jmp    0x406607
  4065dd:	33 c9                	xor    ecx,ecx
  4065df:	29 55 f0             	sub    DWORD PTR [ebp-0x10],edx
  4065e2:	41                   	inc    ecx
  4065e3:	29 55 f4             	sub    DWORD PTR [ebp-0xc],edx
  4065e6:	8b d9                	mov    ebx,ecx
  4065e8:	8b 4d b8             	mov    ecx,DWORD PTR [ebp-0x48]
  4065eb:	d3 e3                	shl    ebx,cl
  4065ed:	8b cb                	mov    ecx,ebx
  4065ef:	8b 5d bc             	mov    ebx,DWORD PTR [ebp-0x44]
  4065f2:	0b d9                	or     ebx,ecx
  4065f4:	66 8b c8             	mov    cx,ax
  4065f7:	66 c1 e9 05          	shr    cx,0x5
  4065fb:	2b c1                	sub    eax,ecx
  4065fd:	47                   	inc    edi
  4065fe:	89 5d bc             	mov    DWORD PTR [ebp-0x44],ebx
  406601:	66 89 06             	mov    WORD PTR [esi],ax
  406604:	89 7d b0             	mov    DWORD PTR [ebp-0x50],edi
  406607:	81 7d f0 00 00 00 01 	cmp    DWORD PTR [ebp-0x10],0x1000000
  40660e:	73 88                	jae    0x406598
  406610:	e9 5e ff ff ff       	jmp    0x406573
  406615:	01 5d d4             	add    DWORD PTR [ebp-0x2c],ebx
  406618:	ff 45 d4             	inc    DWORD PTR [ebp-0x2c]
  40661b:	8b 45 d4             	mov    eax,DWORD PTR [ebp-0x2c]
  40661e:	85 c0                	test   eax,eax
  406620:	0f 84 84 02 00 00    	je     0x4068aa
  406626:	3b 45 a0             	cmp    eax,DWORD PTR [ebp-0x60]
  406629:	0f 87 b8 02 00 00    	ja     0x4068e7
  40662f:	83 45 d0 02          	add    DWORD PTR [ebp-0x30],0x2
  406633:	8b 45 d0             	mov    eax,DWORD PTR [ebp-0x30]
  406636:	01 45 a0             	add    DWORD PTR [ebp-0x60],eax
  406639:	83 7d 9c 00          	cmp    DWORD PTR [ebp-0x64],0x0
  40663d:	0f 84 6d 02 00 00    	je     0x4068b0
  406643:	8b 45 ec             	mov    eax,DWORD PTR [ebp-0x14]
  406646:	2b 45 d4             	sub    eax,DWORD PTR [ebp-0x2c]
  406649:	3b 45 8c             	cmp    eax,DWORD PTR [ebp-0x74]
  40664c:	72 03                	jb     0x406651
  40664e:	03 45 8c             	add    eax,DWORD PTR [ebp-0x74]
  406651:	8b 55 f8             	mov    edx,DWORD PTR [ebp-0x8]
  406654:	8a 0c 10             	mov    cl,BYTE PTR [eax+edx*1]
  406657:	8b 45 ec             	mov    eax,DWORD PTR [ebp-0x14]
  40665a:	88 4d a4             	mov    BYTE PTR [ebp-0x5c],cl
  40665d:	88 0c 10             	mov    BYTE PTR [eax+edx*1],cl
  406660:	40                   	inc    eax
  406661:	33 d2                	xor    edx,edx
  406663:	f7 75 8c             	div    DWORD PTR [ebp-0x74]
  406666:	8b 45 98             	mov    eax,DWORD PTR [ebp-0x68]
  406669:	ff 45 98             	inc    DWORD PTR [ebp-0x68]
  40666c:	ff 4d 9c             	dec    DWORD PTR [ebp-0x64]
  40666f:	ff 4d d0             	dec    DWORD PTR [ebp-0x30]
  406672:	83 7d d0 00          	cmp    DWORD PTR [ebp-0x30],0x0
  406676:	88 08                	mov    BYTE PTR [eax],cl
  406678:	89 55 ec             	mov    DWORD PTR [ebp-0x14],edx
  40667b:	7f bc                	jg     0x406639
  40667d:	e9 78 fd ff ff       	jmp    0x4063fa
  406682:	83 7d c0 00          	cmp    DWORD PTR [ebp-0x40],0x0
  406686:	75 20                	jne    0x4066a8
  406688:	8b 45 b4             	mov    eax,DWORD PTR [ebp-0x4c]
  40668b:	83 65 d0 00          	and    DWORD PTR [ebp-0x30],0x0
  40668f:	8b 4d a8             	mov    ecx,DWORD PTR [ebp-0x58]
  406692:	c1 e0 04             	shl    eax,0x4
  406695:	8d 44 01 04          	lea    eax,[ecx+eax*1+0x4]
  406699:	89 45 a8             	mov    DWORD PTR [ebp-0x58],eax
  40669c:	c7 45 c0 03 00 00 00 	mov    DWORD PTR [ebp-0x40],0x3
  4066a3:	e9 ce 00 00 00       	jmp    0x406776
  4066a8:	8b 45 a8             	mov    eax,DWORD PTR [ebp-0x58]
  4066ab:	c7 85 7c ff ff ff 13 	mov    DWORD PTR [ebp-0x84],0x13
  4066b2:	00 00 00 
  4066b5:	8d 70 02             	lea    esi,[eax+0x2]
  4066b8:	89 75 ac             	mov    DWORD PTR [ebp-0x54],esi
  4066bb:	66 8b 06             	mov    ax,WORD PTR [esi]
  4066be:	8b 4d f0             	mov    ecx,DWORD PTR [ebp-0x10]
  4066c1:	0f b7 d0             	movzx  edx,ax
  4066c4:	c1 e9 0b             	shr    ecx,0xb
  4066c7:	0f af ca             	imul   ecx,edx
  4066ca:	39 4d f4             	cmp    DWORD PTR [ebp-0xc],ecx
  4066cd:	73 18                	jae    0x4066e7
  4066cf:	89 4d f0             	mov    DWORD PTR [ebp-0x10],ecx
  4066d2:	b9 00 08 00 00       	mov    ecx,0x800
  4066d7:	2b ca                	sub    ecx,edx
  4066d9:	c1 f9 05             	sar    ecx,0x5
  4066dc:	03 c8                	add    ecx,eax
  4066de:	83 65 c0 00          	and    DWORD PTR [ebp-0x40],0x0
  4066e2:	66 89 0e             	mov    WORD PTR [esi],cx
  4066e5:	eb 19                	jmp    0x406700
  4066e7:	29 4d f0             	sub    DWORD PTR [ebp-0x10],ecx
  4066ea:	29 4d f4             	sub    DWORD PTR [ebp-0xc],ecx
  4066ed:	66 8b c8             	mov    cx,ax
  4066f0:	c7 45 c0 01 00 00 00 	mov    DWORD PTR [ebp-0x40],0x1
  4066f7:	66 c1 e9 05          	shr    cx,0x5
  4066fb:	2b c1                	sub    eax,ecx
  4066fd:	66 89 06             	mov    WORD PTR [esi],ax
  406700:	81 7d f0 00 00 00 01 	cmp    DWORD PTR [ebp-0x10],0x1000000
  406707:	73 25                	jae    0x40672e
  406709:	83 7d 94 00          	cmp    DWORD PTR [ebp-0x6c],0x0
  40670d:	0f 84 a9 01 00 00    	je     0x4068bc
  406713:	8b 4d 90             	mov    ecx,DWORD PTR [ebp-0x70]
  406716:	8b 45 f4             	mov    eax,DWORD PTR [ebp-0xc]
  406719:	c1 65 f0 08          	shl    DWORD PTR [ebp-0x10],0x8
  40671d:	0f b6 09             	movzx  ecx,BYTE PTR [ecx]
  406720:	ff 4d 94             	dec    DWORD PTR [ebp-0x6c]
  406723:	c1 e0 08             	shl    eax,0x8
  406726:	0b c1                	or     eax,ecx
  406728:	ff 45 90             	inc    DWORD PTR [ebp-0x70]
  40672b:	89 45 f4             	mov    DWORD PTR [ebp-0xc],eax
  40672e:	8b 85 7c ff ff ff    	mov    eax,DWORD PTR [ebp-0x84]
  406734:	89 85 78 ff ff ff    	mov    DWORD PTR [ebp-0x88],eax
  40673a:	e9 91 f7 ff ff       	jmp    0x405ed0
  40673f:	83 7d c0 00          	cmp    DWORD PTR [ebp-0x40],0x0
  406743:	75 1c                	jne    0x406761
  406745:	8b 45 b4             	mov    eax,DWORD PTR [ebp-0x4c]
  406748:	8b 4d a8             	mov    ecx,DWORD PTR [ebp-0x58]
  40674b:	c1 e0 04             	shl    eax,0x4
  40674e:	c7 45 d0 08 00 00 00 	mov    DWORD PTR [ebp-0x30],0x8
  406755:	8d 84 01 04 01 00 00 	lea    eax,[ecx+eax*1+0x104]
  40675c:	e9 38 ff ff ff       	jmp    0x406699
  406761:	81 45 a8 04 02 00 00 	add    DWORD PTR [ebp-0x58],0x204
  406768:	c7 45 d0 10 00 00 00 	mov    DWORD PTR [ebp-0x30],0x10
  40676f:	c7 45 c0 08 00 00 00 	mov    DWORD PTR [ebp-0x40],0x8
  406776:	c7 45 84 14 00 00 00 	mov    DWORD PTR [ebp-0x7c],0x14
  40677d:	8b 45 c0             	mov    eax,DWORD PTR [ebp-0x40]
  406780:	c7 45 b0 01 00 00 00 	mov    DWORD PTR [ebp-0x50],0x1
  406787:	89 45 b8             	mov    DWORD PTR [ebp-0x48],eax
  40678a:	eb 28                	jmp    0x4067b4
  40678c:	83 7d 94 00          	cmp    DWORD PTR [ebp-0x6c],0x0
  406790:	0f 84 32 01 00 00    	je     0x4068c8
  406796:	8b 4d 90             	mov    ecx,DWORD PTR [ebp-0x70]
  406799:	8b 45 f4             	mov    eax,DWORD PTR [ebp-0xc]
  40679c:	c1 65 f0 08          	shl    DWORD PTR [ebp-0x10],0x8
  4067a0:	0f b6 09             	movzx  ecx,BYTE PTR [ecx]
  4067a3:	ff 4d 94             	dec    DWORD PTR [ebp-0x6c]
  4067a6:	c1 e0 08             	shl    eax,0x8
  4067a9:	0b c1                	or     eax,ecx
  4067ab:	ff 45 90             	inc    DWORD PTR [ebp-0x70]
  4067ae:	89 45 f4             	mov    DWORD PTR [ebp-0xc],eax
  4067b1:	ff 4d b8             	dec    DWORD PTR [ebp-0x48]
  4067b4:	83 7d b8 00          	cmp    DWORD PTR [ebp-0x48],0x0
  4067b8:	7e 5e                	jle    0x406818
  4067ba:	8b 45 b0             	mov    eax,DWORD PTR [ebp-0x50]
  4067bd:	8b 4d f0             	mov    ecx,DWORD PTR [ebp-0x10]
  4067c0:	c1 e9 0b             	shr    ecx,0xb
  4067c3:	8d 14 00             	lea    edx,[eax+eax*1]
  4067c6:	8b 45 a8             	mov    eax,DWORD PTR [ebp-0x58]
  4067c9:	8d 34 02             	lea    esi,[edx+eax*1]
  4067cc:	89 75 ac             	mov    DWORD PTR [ebp-0x54],esi
  4067cf:	66 8b 06             	mov    ax,WORD PTR [esi]
  4067d2:	0f b7 f8             	movzx  edi,ax
  4067d5:	0f af cf             	imul   ecx,edi
  4067d8:	39 4d f4             	cmp    DWORD PTR [ebp-0xc],ecx
  4067db:	73 17                	jae    0x4067f4
  4067dd:	89 4d f0             	mov    DWORD PTR [ebp-0x10],ecx
  4067e0:	b9 00 08 00 00       	mov    ecx,0x800
  4067e5:	2b cf                	sub    ecx,edi
  4067e7:	c1 f9 05             	sar    ecx,0x5
  4067ea:	03 c8                	add    ecx,eax
  4067ec:	d1 65 b0             	shl    DWORD PTR [ebp-0x50],1
  4067ef:	66 89 0e             	mov    WORD PTR [esi],cx
  4067f2:	eb 16                	jmp    0x40680a
  4067f4:	29 4d f0             	sub    DWORD PTR [ebp-0x10],ecx
  4067f7:	29 4d f4             	sub    DWORD PTR [ebp-0xc],ecx
  4067fa:	66 8b c8             	mov    cx,ax
  4067fd:	66 c1 e9 05          	shr    cx,0x5
  406801:	2b c1                	sub    eax,ecx
  406803:	42                   	inc    edx
  406804:	66 89 06             	mov    WORD PTR [esi],ax
  406807:	89 55 b0             	mov    DWORD PTR [ebp-0x50],edx
  40680a:	81 7d f0 00 00 00 01 	cmp    DWORD PTR [ebp-0x10],0x1000000
  406811:	73 9e                	jae    0x4067b1
  406813:	e9 74 ff ff ff       	jmp    0x40678c
  406818:	8b 4d c0             	mov    ecx,DWORD PTR [ebp-0x40]
  40681b:	8b 5d b0             	mov    ebx,DWORD PTR [ebp-0x50]
  40681e:	33 c0                	xor    eax,eax
  406820:	40                   	inc    eax
  406821:	d3 e0                	shl    eax,cl
  406823:	2b d8                	sub    ebx,eax
  406825:	8b 45 84             	mov    eax,DWORD PTR [ebp-0x7c]
  406828:	89 5d bc             	mov    DWORD PTR [ebp-0x44],ebx
  40682b:	e9 04 ff ff ff       	jmp    0x406734
  406830:	01 5d d0             	add    DWORD PTR [ebp-0x30],ebx
  406833:	8b 45 80             	mov    eax,DWORD PTR [ebp-0x80]
  406836:	e9 f9 fe ff ff       	jmp    0x406734
  40683b:	c7 85 78 ff ff ff 01 	mov    DWORD PTR [ebp-0x88],0x1
  406842:	00 00 00 
  406845:	e9 88 00 00 00       	jmp    0x4068d2
  40684a:	c7 85 78 ff ff ff 03 	mov    DWORD PTR [ebp-0x88],0x3
  406851:	00 00 00 
  406854:	eb 7c                	jmp    0x4068d2
  406856:	c7 85 78 ff ff ff 0d 	mov    DWORD PTR [ebp-0x88],0xd
  40685d:	00 00 00 
  406860:	eb 70                	jmp    0x4068d2
  406862:	c7 85 78 ff ff ff 0e 	mov    DWORD PTR [ebp-0x88],0xe
  406869:	00 00 00 
  40686c:	eb 64                	jmp    0x4068d2
  40686e:	c7 85 78 ff ff ff 0f 	mov    DWORD PTR [ebp-0x88],0xf
  406875:	00 00 00 
  406878:	eb 58                	jmp    0x4068d2
  40687a:	c7 85 78 ff ff ff 1a 	mov    DWORD PTR [ebp-0x88],0x1a
  406881:	00 00 00 
  406884:	eb 4c                	jmp    0x4068d2
  406886:	c7 85 78 ff ff ff 1b 	mov    DWORD PTR [ebp-0x88],0x1b
  40688d:	00 00 00 
  406890:	eb 40                	jmp    0x4068d2
  406892:	c7 85 78 ff ff ff 0c 	mov    DWORD PTR [ebp-0x88],0xc
  406899:	00 00 00 
  40689c:	eb 34                	jmp    0x4068d2
  40689e:	c7 85 78 ff ff ff 10 	mov    DWORD PTR [ebp-0x88],0x10
  4068a5:	00 00 00 
  4068a8:	eb 28                	jmp    0x4068d2
  4068aa:	83 4d d0 ff          	or     DWORD PTR [ebp-0x30],0xffffffff
  4068ae:	eb 22                	jmp    0x4068d2
  4068b0:	c7 85 78 ff ff ff 1c 	mov    DWORD PTR [ebp-0x88],0x1c
  4068b7:	00 00 00 
  4068ba:	eb 16                	jmp    0x4068d2
  4068bc:	c7 85 78 ff ff ff 05 	mov    DWORD PTR [ebp-0x88],0x5
  4068c3:	00 00 00 
  4068c6:	eb 0a                	jmp    0x4068d2
  4068c8:	c7 85 78 ff ff ff 18 	mov    DWORD PTR [ebp-0x88],0x18
  4068cf:	00 00 00 
  4068d2:	8b bd 70 ff ff ff    	mov    edi,DWORD PTR [ebp-0x90]
  4068d8:	6a 22                	push   0x22
  4068da:	59                   	pop    ecx
  4068db:	8d b5 78 ff ff ff    	lea    esi,[ebp-0x88]
  4068e1:	f3 a5                	rep movs DWORD PTR es:[edi],DWORD PTR ds:[esi]
  4068e3:	33 c0                	xor    eax,eax
  4068e5:	eb 03                	jmp    0x4068ea
  4068e7:	83 c8 ff             	or     eax,0xffffffff
  4068ea:	5f                   	pop    edi
  4068eb:	5e                   	pop    esi
  4068ec:	5b                   	pop    ebx
  4068ed:	c9                   	leave  
  4068ee:	c3                   	ret    
  4068ef:	e6 5e                	out    0x5e,al
  4068f1:	40                   	inc    eax
  4068f2:	00 8b 5f 40 00 26    	add    BYTE PTR [ebx+0x2600405f],cl
  4068f8:	60                   	pusha  
  4068f9:	40                   	inc    eax
  4068fa:	00 fb                	add    bl,bh
  4068fc:	5f                   	pop    edi
  4068fd:	40                   	inc    eax
  4068fe:	00 bb 66 40 00 09    	add    BYTE PTR [ebx+0x9004066],bh
  406904:	67 40                	addr16 inc eax
  406906:	00 4c 60 40          	add    BYTE PTR [eax+eiz*2+0x40],cl
  40690a:	00 eb                	add    bl,ch
  40690c:	62 40 00             	bound  eax,QWORD PTR [eax+0x0]
  40690f:	55                   	push   ebp
  406910:	63 40 00             	arpl   WORD PTR [eax+0x0],ax
  406913:	98                   	cwde   
  406914:	63 40 00             	arpl   WORD PTR [eax+0x0],ax
  406917:	09 64 40 00          	or     DWORD PTR [eax+eax*2+0x0],esp
  40691b:	30 64 40 00          	xor    BYTE PTR [eax+eax*2+0x0],ah
  40691f:	f0 64 40             	lock fs inc eax
  406922:	00 e5                	add    ch,ah
  406924:	60                   	pusha  
  406925:	40                   	inc    eax
  406926:	00 9e 61 40 00 62    	add    BYTE PTR [esi+0x62004061],bl
  40692c:	62 40 00             	bound  eax,QWORD PTR [eax+0x0]
  40692f:	73 65                	jae    0x406996
  406931:	40                   	inc    eax
  406932:	00 43 63             	add    BYTE PTR [ebx+0x63],al
  406935:	40                   	inc    eax
  406936:	00 82 66 40 00 3f    	add    BYTE PTR [edx+0x3f004066],al
  40693c:	67 40                	addr16 inc eax
  40693e:	00 30                	add    BYTE PTR [eax],dh
  406940:	68 40 00 6a 64       	push   0x646a0040
  406945:	40                   	inc    eax
  406946:	00 81 64 40 00 7d    	add    BYTE PTR [ecx+0x7d004064],al
  40694c:	67 40                	addr16 inc eax
  40694e:	00 8c 67 40 00 af 64 	add    BYTE PTR [edi+eiz*2+0x64af0040],cl
  406955:	40                   	inc    eax
  406956:	00 31                	add    BYTE PTR [ecx],dh
  406958:	62 40 00             	bound  eax,QWORD PTR [eax+0x0]
  40695b:	bc 63 40 00 39       	mov    esp,0x39004063
  406960:	66 40                	inc    ax
  406962:	00 cc                	add    ah,cl
  406964:	ff 25 70 72 40 00    	jmp    DWORD PTR ds:0x407270
  40696a:	ff 25 6c 72 40 00    	jmp    DWORD PTR ds:0x40726c
  406970:	ff 25 68 72 40 00    	jmp    DWORD PTR ds:0x407268

