/Users/dylanlarks/Desktop/Capstone/MalwareAnalysisCapstone/FlaskWebsite/virtual/instance/uploads/Adware-exe-00add513540a700c1a3ec638576d80dd56f124d1fe030ae7d37ca06f791f3164

md5
3dba528511b993ef57cd80d8ea26118b

sha1
24b6cebd739015379f43b42eea3bd67bc54bc338

sha256
00add513540a700c1a3ec638576d80dd56f124d1fe030ae7d37ca06f791f3164

strings
[Strings]
nth paddr      vaddr      len size section type    string
―――――――――――――――――――――――――――――――――――――――――――――――――――――――――
0   0x00006c98 0x00408298 7   8    .rdata  ascii   UXTHEME
1   0x00006ca0 0x004082a0 7   8    .rdata  ascii   USERENV
2   0x00006ca8 0x004082a8 8   9    .rdata  ascii   SETUPAPI
3   0x00006cb1 0x004082b1 7   8    .rdata  ascii   APPHELP
4   0x00006cb9 0x004082b9 7   8    .rdata  ascii   PROPSYS
5   0x00006cc1 0x004082c1 6   7    .rdata  ascii   DWMAPI
6   0x00006cc8 0x004082c8 9   10   .rdata  ascii   CRYPTBASE
7   0x00006cd2 0x004082d2 6   7    .rdata  ascii   OLEACC
8   0x00006cd9 0x004082d9 7   8    .rdata  ascii   CLBCATQ
9   0x00006ce1 0x004082e1 7   8    .rdata  ascii   NTMARTA
10  0x00006cec 0x004082ec 8   9    .rdata  ascii   RichEdit
11  0x00006cf8 0x004082f8 11  12   .rdata  ascii   RichEdit20A
12  0x00006d04 0x00408304 8   9    .rdata  ascii   RichEd32
13  0x00006d10 0x00408310 8   9    .rdata  ascii   RichEd20
14  0x00006d1c 0x0040831c 36  37   .rdata  ascii   .DEFAULT\Control Panel\International
15  0x00006d44 0x00408344 36  37   .rdata  ascii   Control Panel\Desktop\ResourceLocale
16  0x00006da8 0x004083a8 41  42   .rdata  ascii   Software\Microsoft\Windows\CurrentVersion
17  0x00006dd4 0x004083d4 41  42   .rdata  ascii   \Microsoft\Internet Explorer\Quick Launch
18  0x00006e1c 0x0040841c 6   14   .rdata  utf16le \a\b\t\n\v\r
19  0x00006e34 0x00408434 8   18   .rdata  utf16le #+3;CScs
20  0x00006ea8 0x004084a8 4   10   .rdata  utf16le !1Aa
21  0x00006ef0 0x004084f0 14  29   .rdata  utf16le \a\a\b\b\t\t\n\n\v\v\f\f\r\r
22  0x00007272 0x00408872 6   7    .rdata  ascii   MulDiv
23  0x0000727c 0x0040887c 11  12   .rdata  ascii   DeleteFileA
24  0x0000728a 0x0040888a 14  15   .rdata  ascii   FindFirstFileA
25  0x0000729c 0x0040889c 13  14   .rdata  ascii   FindNextFileA
26  0x000072ac 0x004088ac 9   10   .rdata  ascii   FindClose
27  0x000072b8 0x004088b8 14  15   .rdata  ascii   SetFilePointer
28  0x000072ca 0x004088ca 24  25   .rdata  ascii   GetPrivateProfileStringA
29  0x000072e6 0x004088e6 26  27   .rdata  ascii   WritePrivateProfileStringA
30  0x00007304 0x00408904 19  20   .rdata  ascii   MultiByteToWideChar
31  0x0000731a 0x0040891a 11  12   .rdata  ascii   FreeLibrary
32  0x00007328 0x00408928 14  15   .rdata  ascii   LoadLibraryExA
33  0x0000733a 0x0040893a 16  17   .rdata  ascii   GetModuleHandleA
34  0x0000734e 0x0040894e 11  12   .rdata  ascii   GlobalAlloc
35  0x0000735c 0x0040895c 10  11   .rdata  ascii   GlobalFree
36  0x0000736a 0x0040896a 25  26   .rdata  ascii   ExpandEnvironmentStringsA
37  0x00007386 0x00408986 8   9    .rdata  ascii   lstrcmpA
38  0x00007392 0x00408992 9   10   .rdata  ascii   lstrcmpiA
39  0x0000739e 0x0040899e 11  12   .rdata  ascii   CloseHandle
40  0x000073ac 0x004089ac 11  12   .rdata  ascii   SetFileTime
41  0x000073ba 0x004089ba 15  16   .rdata  ascii   CompareFileTime
42  0x000073cc 0x004089cc 11  12   .rdata  ascii   SearchPathA
43  0x000073da 0x004089da 17  18   .rdata  ascii   GetShortPathNameA
44  0x000073ee 0x004089ee 16  17   .rdata  ascii   GetFullPathNameA
45  0x00007402 0x00408a02 9   10   .rdata  ascii   MoveFileA
46  0x0000740e 0x00408a0e 20  21   .rdata  ascii   SetCurrentDirectoryA
47  0x00007426 0x00408a26 18  19   .rdata  ascii   GetFileAttributesA
48  0x0000743c 0x00408a3c 18  19   .rdata  ascii   SetFileAttributesA
49  0x00007452 0x00408a52 5   6    .rdata  ascii   Sleep
50  0x0000745a 0x00408a5a 12  13   .rdata  ascii   GetTickCount
51  0x0000746a 0x00408a6a 11  12   .rdata  ascii   CreateFileA
52  0x00007478 0x00408a78 11  12   .rdata  ascii   GetFileSize
53  0x00007486 0x00408a86 18  19   .rdata  ascii   GetModuleFileNameA
54  0x0000749c 0x00408a9c 8   9    .rdata  ascii   ReadFile
55  0x000074a8 0x00408aa8 17  18   .rdata  ascii   GetCurrentProcess
56  0x000074bc 0x00408abc 9   10   .rdata  ascii   CopyFileA
57  0x000074c8 0x00408ac8 11  12   .rdata  ascii   ExitProcess
58  0x000074d6 0x00408ad6 23  24   .rdata  ascii   SetEnvironmentVariableA
59  0x000074f0 0x00408af0 20  21   .rdata  ascii   GetWindowsDirectoryA
60  0x00007508 0x00408b08 12  13   .rdata  ascii   GetTempPathA
61  0x00007518 0x00408b18 15  16   .rdata  ascii   GetCommandLineA
62  0x0000752a 0x00408b2a 8   9    .rdata  ascii   lstrlenA
63  0x00007536 0x00408b36 10  11   .rdata  ascii   GetVersion
64  0x00007544 0x00408b44 12  13   .rdata  ascii   SetErrorMode
65  0x00007554 0x00408b54 9   10   .rdata  ascii   lstrcpynA
66  0x00007560 0x00408b60 17  18   .rdata  ascii   GetDiskFreeSpaceA
67  0x00007574 0x00408b74 12  13   .rdata  ascii   GlobalUnlock
68  0x00007584 0x00408b84 10  11   .rdata  ascii   GlobalLock
69  0x00007592 0x00408b92 12  13   .rdata  ascii   CreateThread
70  0x000075a2 0x00408ba2 12  13   .rdata  ascii   GetLastError
71  0x000075b2 0x00408bb2 16  17   .rdata  ascii   CreateDirectoryA
72  0x000075c6 0x00408bc6 14  15   .rdata  ascii   CreateProcessA
73  0x000075d8 0x00408bd8 16  17   .rdata  ascii   RemoveDirectoryA
74  0x000075ec 0x00408bec 16  17   .rdata  ascii   GetTempFileNameA
75  0x00007600 0x00408c00 9   10   .rdata  ascii   WriteFile
76  0x0000760c 0x00408c0c 8   9    .rdata  ascii   lstrcpyA
77  0x00007618 0x00408c18 11  12   .rdata  ascii   MoveFileExA
78  0x00007626 0x00408c26 8   9    .rdata  ascii   lstrcatA
79  0x00007632 0x00408c32 19  20   .rdata  ascii   GetSystemDirectoryA
80  0x00007648 0x00408c48 14  15   .rdata  ascii   GetProcAddress
81  0x0000765a 0x00408c5a 18  19   .rdata  ascii   GetExitCodeProcess
82  0x00007670 0x00408c70 19  20   .rdata  ascii   WaitForSingleObject
83  0x00007684 0x00408c84 12  13   .rdata  ascii   KERNEL32.dll
84  0x00007694 0x00408c94 8   9    .rdata  ascii   EndPaint
85  0x000076a0 0x00408ca0 9   10   .rdata  ascii   DrawTextA
86  0x000076ac 0x00408cac 8   9    .rdata  ascii   FillRect
87  0x000076b8 0x00408cb8 13  14   .rdata  ascii   GetClientRect
88  0x000076c8 0x00408cc8 10  11   .rdata  ascii   BeginPaint
89  0x000076d6 0x00408cd6 14  15   .rdata  ascii   DefWindowProcA
90  0x000076e8 0x00408ce8 12  13   .rdata  ascii   SendMessageA
91  0x000076f8 0x00408cf8 14  15   .rdata  ascii   InvalidateRect
92  0x0000770a 0x00408d0a 12  13   .rdata  ascii   EnableWindow
93  0x0000771a 0x00408d1a 9   10   .rdata  ascii   ReleaseDC
94  0x00007726 0x00408d26 5   6    .rdata  ascii   GetDC
95  0x0000772e 0x00408d2e 10  11   .rdata  ascii   LoadImageA
96  0x0000773c 0x00408d3c 14  15   .rdata  ascii   SetWindowLongA
97  0x0000774e 0x00408d4e 10  11   .rdata  ascii   GetDlgItem
98  0x0000775c 0x00408d5c 8   9    .rdata  ascii   IsWindow
99  0x00007768 0x00408d68 13  14   .rdata  ascii   FindWindowExA
100 0x00007778 0x00408d78 19  20   .rdata  ascii   SendMessageTimeoutA
101 0x0000778e 0x00408d8e 9   10   .rdata  ascii   wsprintfA
102 0x0000779a 0x00408d9a 10  11   .rdata  ascii   ShowWindow
103 0x000077a8 0x00408da8 19  20   .rdata  ascii   SetForegroundWindow
104 0x000077be 0x00408dbe 15  16   .rdata  ascii   PostQuitMessage
105 0x000077d0 0x00408dd0 14  15   .rdata  ascii   SetWindowTextA
106 0x000077e2 0x00408de2 8   9    .rdata  ascii   SetTimer
107 0x000077ee 0x00408dee 18  19   .rdata  ascii   CreateDialogParamA
108 0x00007804 0x00408e04 13  14   .rdata  ascii   DestroyWindow
109 0x00007814 0x00408e14 13  14   .rdata  ascii   ExitWindowsEx
110 0x00007824 0x00408e24 9   10   .rdata  ascii   CharNextA
111 0x00007830 0x00408e30 15  16   .rdata  ascii   DialogBoxParamA
112 0x00007842 0x00408e42 13  14   .rdata  ascii   GetClassInfoA
113 0x00007852 0x00408e52 15  16   .rdata  ascii   CreateWindowExA
114 0x00007864 0x00408e64 21  22   .rdata  ascii   SystemParametersInfoA
115 0x0000787c 0x00408e7c 14  15   .rdata  ascii   RegisterClassA
116 0x0000788e 0x00408e8e 9   10   .rdata  ascii   EndDialog
117 0x0000789a 0x00408e9a 14  15   .rdata  ascii   ScreenToClient
118 0x000078ac 0x00408eac 13  14   .rdata  ascii   GetWindowRect
119 0x000078bc 0x00408ebc 14  15   .rdata  ascii   EnableMenuItem
120 0x000078ce 0x00408ece 13  14   .rdata  ascii   GetSystemMenu
121 0x000078de 0x00408ede 13  14   .rdata  ascii   SetClassLongA
122 0x000078ee 0x00408eee 15  16   .rdata  ascii   IsWindowEnabled
123 0x00007900 0x00408f00 12  13   .rdata  ascii   SetWindowPos
124 0x00007910 0x00408f10 11  12   .rdata  ascii   GetSysColor
125 0x0000791e 0x00408f1e 14  15   .rdata  ascii   GetWindowLongA
126 0x00007930 0x00408f30 9   10   .rdata  ascii   SetCursor
127 0x0000793c 0x00408f3c 11  12   .rdata  ascii   LoadCursorA
128 0x0000794a 0x00408f4a 14  15   .rdata  ascii   CheckDlgButton
129 0x0000795c 0x00408f5c 13  14   .rdata  ascii   GetMessagePos
130 0x0000796c 0x00408f6c 15  16   .rdata  ascii   CallWindowProcA
131 0x0000797e 0x00408f7e 15  16   .rdata  ascii   IsWindowVisible
132 0x00007990 0x00408f90 14  15   .rdata  ascii   CloseClipboard
133 0x000079a2 0x00408fa2 16  17   .rdata  ascii   SetClipboardData
134 0x000079b6 0x00408fb6 14  15   .rdata  ascii   EmptyClipboard
135 0x000079c8 0x00408fc8 13  14   .rdata  ascii   OpenClipboard
136 0x000079d8 0x00408fd8 14  15   .rdata  ascii   TrackPopupMenu
137 0x000079ea 0x00408fea 11  12   .rdata  ascii   AppendMenuA
138 0x000079f8 0x00408ff8 15  16   .rdata  ascii   CreatePopupMenu
139 0x00007a0a 0x0040900a 16  17   .rdata  ascii   GetSystemMetrics
140 0x00007a1e 0x0040901e 15  16   .rdata  ascii   SetDlgItemTextA
141 0x00007a30 0x00409030 15  16   .rdata  ascii   GetDlgItemTextA
142 0x00007a42 0x00409042 19  20   .rdata  ascii   MessageBoxIndirectA
143 0x00007a58 0x00409058 9   10   .rdata  ascii   CharPrevA
144 0x00007a64 0x00409064 16  17   .rdata  ascii   DispatchMessageA
145 0x00007a78 0x00409078 12  13   .rdata  ascii   PeekMessageA
146 0x00007a86 0x00409086 10  11   .rdata  ascii   USER32.dll
147 0x00007a94 0x00409094 12  13   .rdata  ascii   SelectObject
148 0x00007aa4 0x004090a4 12  13   .rdata  ascii   SetTextColor
149 0x00007ab4 0x004090b4 9   10   .rdata  ascii   SetBkMode
150 0x00007ac0 0x004090c0 19  20   .rdata  ascii   CreateFontIndirectA
151 0x00007ad6 0x004090d6 19  20   .rdata  ascii   CreateBrushIndirect
152 0x00007aec 0x004090ec 12  13   .rdata  ascii   DeleteObject
153 0x00007afc 0x004090fc 13  14   .rdata  ascii   GetDeviceCaps
154 0x00007b0c 0x0040910c 10  11   .rdata  ascii   SetBkColor
155 0x00007b18 0x00409118 9   10   .rdata  ascii   GDI32.dll
156 0x00007b24 0x00409124 16  17   .rdata  ascii   SHFileOperationA
157 0x00007b38 0x00409138 14  15   .rdata  ascii   SHGetFileInfoA
158 0x00007b4a 0x0040914a 18  19   .rdata  ascii   SHBrowseForFolderA
159 0x00007b60 0x00409160 20  21   .rdata  ascii   SHGetPathFromIDListA
160 0x00007b78 0x00409178 15  16   .rdata  ascii   ShellExecuteExA
161 0x00007b8a 0x0040918a 26  27   .rdata  ascii   SHGetSpecialFolderLocation
162 0x00007ba6 0x004091a6 11  12   .rdata  ascii   SHELL32.dll
163 0x00007bb4 0x004091b4 13  14   .rdata  ascii   RegEnumValueA
164 0x00007bc4 0x004091c4 11  12   .rdata  ascii   RegEnumKeyA
165 0x00007bd2 0x004091d2 16  17   .rdata  ascii   RegQueryValueExA
166 0x00007be6 0x004091e6 14  15   .rdata  ascii   RegSetValueExA
167 0x00007bf8 0x004091f8 11  12   .rdata  ascii   RegCloseKey
168 0x00007c06 0x00409206 15  16   .rdata  ascii   RegDeleteValueA
169 0x00007c18 0x00409218 13  14   .rdata  ascii   RegDeleteKeyA
170 0x00007c28 0x00409228 21  22   .rdata  ascii   AdjustTokenPrivileges
171 0x00007c40 0x00409240 21  22   .rdata  ascii   LookupPrivilegeValueA
172 0x00007c58 0x00409258 16  17   .rdata  ascii   OpenProcessToken
173 0x00007c6c 0x0040926c 16  17   .rdata  ascii   SetFileSecurityA
174 0x00007c80 0x00409280 13  14   .rdata  ascii   RegOpenKeyExA
175 0x00007c90 0x00409290 15  16   .rdata  ascii   RegCreateKeyExA
176 0x00007ca0 0x004092a0 12  13   .rdata  ascii   ADVAPI32.dll
177 0x00007cb0 0x004092b0 17  18   .rdata  ascii   ImageList_Destroy
178 0x00007cc4 0x004092c4 19  20   .rdata  ascii   ImageList_AddMasked
179 0x00007cda 0x004092da 16  17   .rdata  ascii   ImageList_Create
180 0x00007cec 0x004092ec 12  13   .rdata  ascii   COMCTL32.dll
181 0x00007cfc 0x004092fc 16  17   .rdata  ascii   CoCreateInstance
182 0x00007d10 0x00409310 15  16   .rdata  ascii   OleUninitialize
183 0x00007d22 0x00409322 13  14   .rdata  ascii   OleInitialize
184 0x00007d32 0x00409332 13  14   .rdata  ascii   CoTaskMemFree
185 0x00007d40 0x00409340 9   10   .rdata  ascii   ole32.dll
0   0x00007e20 0x0040a020 25  26   .data   ascii   verifying installer: %d%%
1   0x00007e3c 0x0040a03c 20  21   .data   ascii   unpacking data: %d%%
2   0x00007e54 0x0040a054 8   9    .data   ascii   ... %d%%
3   0x00007e60 0x0040a060 203 204  .data   ascii   Installer integrity check has failed. Common causes include\nincomplete download and damaged media. Contact the\ninstaller's author to obtain a new copy.\n\nMore information at:\nhttp://nsis.sf.net/NSIS_Error
4   0x00007f30 0x0040a130 66  67   .data   ascii   Error writing temporary file. Make sure your temp folder is valid.
5   0x00007f74 0x0040a174 25  26   .data   ascii   Error launching installer
6   0x00007f90 0x0040a190 19  20   .data   ascii   SeShutdownPrivilege
7   0x00007fa8 0x0040a1a8 4   5    .data   ascii   .tmp
8   0x00007fb4 0x0040a1b4 4   5    .data   ascii   ~nsu
9   0x00007fbc 0x0040a1bc 4   5    .data   ascii    _?=
10  0x00007fc8 0x0040a1c8 4   5    .data   ascii   TEMP
11  0x00007fd4 0x0040a1d4 5   6    .data   ascii   \Temp
12  0x00007fdc 0x0040a1dc 4   5    .data   ascii    /D=
13  0x00007fe4 0x0040a1e4 4   5    .data   ascii   NCRC
14  0x00007fec 0x0040a1ec 10  11   .data   ascii   NSIS Error
15  0x00008014 0x0040a214 4   5    .data   ascii   .exe
16  0x0000801c 0x0040a21c 4   5    .data   ascii   open
17  0x00008024 0x0040a224 9   10   .data   ascii   %u.%u%s%s
18  0x000080b8 0x0040a2b8 14  15   .data   ascii   VerQueryValueA
19  0x000080c8 0x0040a2c8 19  20   .data   ascii   GetFileVersionInfoA
20  0x000080dc 0x0040a2dc 23  24   .data   ascii   GetFileVersionInfoSizeA
21  0x000080f4 0x0040a2f4 7   8    .data   ascii   VERSION
22  0x000080fc 0x0040a2fc 16  17   .data   ascii   SHGetFolderPathA
23  0x00008110 0x0040a310 8   9    .data   ascii   SHFOLDER
24  0x0000811c 0x0040a31c 14  15   .data   ascii   SHAutoComplete
25  0x0000812c 0x0040a32c 7   8    .data   ascii   SHLWAPI
26  0x00008134 0x0040a334 7   8    .data   ascii   SHELL32
27  0x0000813c 0x0040a33c 17  18   .data   ascii   InitiateShutdownA
28  0x00008150 0x0040a350 15  16   .data   ascii   RegDeleteKeyExA
29  0x00008160 0x0040a360 8   9    .data   ascii   ADVAPI32
30  0x0000816c 0x0040a36c 24  25   .data   ascii   GetUserDefaultUILanguage
31  0x00008188 0x0040a388 19  20   .data   ascii   GetDiskFreeSpaceExA
32  0x0000819c 0x0040a39c 24  25   .data   ascii   SetDefaultDllDirectories
33  0x000081b8 0x0040a3b8 8   9    .data   ascii   KERNEL32
34  0x000081c4 0x0040a3c4 4   5    .data   ascii   \*.*
35  0x000081d4 0x0040a3d4 10  11   .data   ascii   [Rename]\r\n
36  0x000081e0 0x0040a3e0 7   8    .data   ascii   %s=%s\r\n
37  0x000081e8 0x0040a3e8 8   9    .data   ascii   *?|<>/":
38  0x000081f4 0x0040a3f4 8   9    .data   ascii   %s%s.dll
0   0x0000c0fe 0x0043fcfe 12  26   .rsrc   utf16le MS Shell Dlg
1   0x0000c1a8 0x0043fda8 4   9    .rsrc   utf16le \bGv\n
2   0x0000c246 0x0043fe46 12  26   .rsrc   utf16le MS Shell Dlg
3   0x0000c346 0x0043ff46 12  26   .rsrc   utf16le MS Shell Dlg
4   0x0000c378 0x0043ff78 17  36   .rsrc   utf16le msctls_progress32
5   0x0000c3d8 0x0043ffd8 13  28   .rsrc   utf16le SysListView32
6   0x0000c466 0x00440066 12  26   .rsrc   utf16le MS Shell Dlg
7   0x0000c4d0 0x004400d0 830 831  .rsrc   ascii   <?xml version="1.0" encoding="UTF-8" standalone="yes"?><assembly xmlns="urn:schemas-microsoft-com:asm.v1" manifestVersion="1.0"><assemblyIdentity version="1.0.0.0" processorArchitecture="*" name="Nullsoft.NSIS.exehead" type="win32"/><description>Nullsoft Install System v3.05</description><trustInfo xmlns="urn:schemas-microsoft-com:asm.v3"><security><requestedPrivileges><requestedExecutionLevel level="asInvoker" uiAccess="false"/></requestedPrivileges></security></trustInfo><compatibility xmlns="urn:schemas-microsoft-com:compatibility.v1"><application><supportedOS Id="{8e0f7a12-bfb3-4fe8-b9a5-48fd50a15a9a}"/><supportedOS Id="{1f676c76-80e1-4239-95bb-83d0f6d0da78}"/><supportedOS Id="{4a2f28e3-53b9-4441-ba9c-d69d4a4a6e38}"/><supportedOS Id="{35138b9a-5d96-4fbd-8e2d-a2440225f93a}"/></application></compatibility></assembly>


funcs
0x004033a9   70 1256         entry0
0x004011ef   19 170          fcn.004011ef
0x004060dd   17 137          fcn.004060dd
0x00401434  377 5526         fcn.00401434
0x0040528d   13 210          fcn.0040528d
0x0040136d    3 28           fcn.0040136d
0x00401389   12 130          fcn.00401389
0x00402b0a    1 34           fcn.00402b0a
0x00406188   50 584          fcn.00406188
0x00402b2c    5 64           fcn.00402b2c
0x00405b97   12 85           fcn.00405b97
0x00405b29    5 28           fcn.00405b29
0x004057ed    4 24           fcn.004057ed
0x004064fe    5 60           fcn.004064fe
0x00405753    6 125          fcn.00405753
0x004057d0    4 29           fcn.004057d0
0x00401423    1 17           fcn.00401423
0x00406166    1 22           fcn.00406166
0x00406469    4 39           fcn.00406469
0x00405f45    3 44           fcn.00405f45
0x00405dd5   20 368          fcn.00405dd5
0x00405d2e    6 73           fcn.00405d2e
0x00405b6b    8 44           fcn.00405b6b
0x00405afe    3 43           fcn.00405afe
0x0040617c    1 6            sub.KERNEL32.dll_lstrlenA
0x00406182    1 6            sub.KERNEL32.dll_lstrcatA
0x004063d0   20 153          fcn.004063d0
0x00405cda    3 37           fcn.00405cda
0x00405cff    1 47           fcn.00405cff
0x00405882    6 100          fcn.00405882
0x004030da   23 264          fcn.004030da
0x0040592e   40 464          fcn.0040592e
0x00405848    1 24           fcn.00405848
0x00406573    4 66           fcn.00406573
0x00405805    3 67           fcn.00405805
0x004060c4    1 25           fcn.004060c4
0x0040656d    1 6            sub.KERNEL32.dll_GetProcAddress
0x00403923    7 30           fcn.00403923
0x00402b6c    1 56           fcn.00402b6c
0x00402ba4    3 24           fcn.00402ba4
0x00405fec    4 46           fcn.00405fec
0x00402bea    6 68           fcn.00402bea
0x00402bbc    1 46           fcn.00402bbc
0x0040601a    4 51           fcn.0040601a
0x00405da6    5 47           fcn.00405da6
0x00405d77    5 47           fcn.00405d77
0x00403361    1 23           fcn.00403361
0x0040334b    1 22           fcn.0040334b
0x00405cba    4 32           fcn.00405cba
0x0040117d   12 114          fcn.0040117d
0x00401299   11 73           fcn.00401299
0x004012e2   13 139          fcn.004012e2
0x00405f71    8 123          fcn.00405f71
0x00402c2e   10 175          fcn.00402c2e
0x00402d59    3 28           fcn.00402d59
0x00405860    1 6            sub.USER32.dll_SetDlgItemTextA
0x0040653a    4 51           fcn.0040653a
0x00405b45    4 38           fcn.00405b45
0x00402d75   12 159          fcn.00402d75
0x004065b5   10 110          fcn.004065b5
0x004031e2   24 361          fcn.004031e2
0x00406623  189 2639         fcn.00406623
0x00406490    7 110          fcn.00406490
0x00403378    3 49           fcn.00403378
0x00402e14   37 710          fcn.00402e14
0x00405bec   12 120          fcn.00405bec
0x00403983   35 709          fcn.00403983
0x00403891    5 66           fcn.00403891
0x0040140b    1 24           fcn.0040140b
0x004038ee    5 53           fcn.004038ee
0x004038d3    4 27           fcn.004038d3
0x0040604d    6 119          fcn.0040604d
0x00403c48   16 185          fcn.00403c48
0x0040535f    8 108          fcn.0040535f
0x00403d01    1 31           fcn.00403d01
0x004041cd    3 39           fcn.004041cd
0x0040425b   20 207          fcn.0040425b
0x004041f4    1 34           fcn.004041f4
0x00404240    3 27           fcn.00404240
0x00404216    1 19           fcn.00404216
0x00404229    1 23           fcn.00404229
0x004045df    3 36           fcn.004045df
0x00404603    1 60           fcn.00404603
0x00405866    1 28           fcn.00405866
0x00404b1a    7 45           fcn.00404b1a
0x00404b02    1 24           fcn.00404b02
0x00404a3d   10 197          fcn.00404a3d
0x00404b47    6 128          fcn.00404b47
0x00404bc7    1 50           fcn.00404bc7
0x004058e6   10 72           fcn.004058e6
0x00405c64    7 86           fcn.00405c64
0x004070b2    9 104          fcn.004070b2
0x0040711a   66 827          fcn.0040711a
0x00401000   12 381          fcn.00401000
0x00402cdd    7 124          fcn.00402cdd
0x0040432a    1 53           fcn.0040432a
0x0040435f   28 640          fcn.0040435f
0x0040463f    3 71           fcn.0040463f
0x00404686   54 849          fcn.00404686
0x004049d7    9 102          fcn.004049d7
0x00404bf9   92 1544         fcn.00404bf9
0x00405201   13 140          fcn.00405201
0x004053cb   37 904          fcn.004053cb


arch
x86

size
408689

bintype
pe

opsystem
windows

file
PE32 executable (GUI) Intel 80386, for MS Windows, Nullsoft Installer self-extracting archive


objdump

/Users/dylanlarks/Desktop/Capstone/MalwareAnalysisCapstone/FlaskWebsite/virtual/instance/uploads/Adware-exe-00add513540a700c1a3ec638576d80dd56f124d1fe030ae7d37ca06f791f3164:     file format pei-i386
architecture: i386, flags 0x0000010a:
EXEC_P, HAS_DEBUG, D_PAGED
start address 0x004033a9


Disassembly of section .text:

00401000 <.text>:
  401000:	55                   	push   ebp
  401001:	8b ec                	mov    ebp,esp
  401003:	83 ec 5c             	sub    esp,0x5c
  401006:	83 7d 0c 0f          	cmp    DWORD PTR [ebp+0xc],0xf
  40100a:	74 2b                	je     0x401037
  40100c:	83 7d 0c 46          	cmp    DWORD PTR [ebp+0xc],0x46
  401010:	8b 45 14             	mov    eax,DWORD PTR [ebp+0x14]
  401013:	75 0d                	jne    0x401022
  401015:	83 48 18 10          	or     DWORD PTR [eax+0x18],0x10
  401019:	8b 0d 28 f4 42 00    	mov    ecx,DWORD PTR ds:0x42f428
  40101f:	89 48 04             	mov    DWORD PTR [eax+0x4],ecx
  401022:	50                   	push   eax
  401023:	ff 75 10             	push   DWORD PTR [ebp+0x10]
  401026:	ff 75 0c             	push   DWORD PTR [ebp+0xc]
  401029:	ff 75 08             	push   DWORD PTR [ebp+0x8]
  40102c:	ff 15 04 82 40 00    	call   DWORD PTR ds:0x408204
  401032:	e9 42 01 00 00       	jmp    0x401179
  401037:	53                   	push   ebx
  401038:	56                   	push   esi
  401039:	8b 35 34 f4 42 00    	mov    esi,DWORD PTR ds:0x42f434
  40103f:	8d 45 a4             	lea    eax,[ebp-0x5c]
  401042:	57                   	push   edi
  401043:	50                   	push   eax
  401044:	ff 75 08             	push   DWORD PTR [ebp+0x8]
  401047:	ff 15 08 82 40 00    	call   DWORD PTR ds:0x408208
  40104d:	83 65 f4 00          	and    DWORD PTR [ebp-0xc],0x0
  401051:	89 45 0c             	mov    DWORD PTR [ebp+0xc],eax
  401054:	8d 45 e4             	lea    eax,[ebp-0x1c]
  401057:	50                   	push   eax
  401058:	ff 75 08             	push   DWORD PTR [ebp+0x8]
  40105b:	ff 15 0c 82 40 00    	call   DWORD PTR ds:0x40820c
  401061:	8b 7d f0             	mov    edi,DWORD PTR [ebp-0x10]
  401064:	83 65 f0 00          	and    DWORD PTR [ebp-0x10],0x0
  401068:	8b 1d 60 80 40 00    	mov    ebx,DWORD PTR ds:0x408060
  40106e:	e9 80 00 00 00       	jmp    0x4010f3
  401073:	0f b6 46 52          	movzx  eax,BYTE PTR [esi+0x52]
  401077:	0f b6 56 56          	movzx  edx,BYTE PTR [esi+0x56]
  40107b:	0f af 55 e8          	imul   edx,DWORD PTR [ebp-0x18]
  40107f:	8b cf                	mov    ecx,edi
  401081:	2b 4d e8             	sub    ecx,DWORD PTR [ebp-0x18]
  401084:	0f af c1             	imul   eax,ecx
  401087:	03 c2                	add    eax,edx
  401089:	89 4d 10             	mov    DWORD PTR [ebp+0x10],ecx
  40108c:	99                   	cdq    
  40108d:	f7 ff                	idiv   edi
  40108f:	33 d2                	xor    edx,edx
  401091:	8a f0                	mov    dh,al
  401093:	0f b6 46 51          	movzx  eax,BYTE PTR [esi+0x51]
  401097:	0f af c1             	imul   eax,ecx
  40109a:	0f b6 4e 55          	movzx  ecx,BYTE PTR [esi+0x55]
  40109e:	0f af 4d e8          	imul   ecx,DWORD PTR [ebp-0x18]
  4010a2:	03 c1                	add    eax,ecx
  4010a4:	8b ca                	mov    ecx,edx
  4010a6:	99                   	cdq    
  4010a7:	f7 ff                	idiv   edi
  4010a9:	0f b6 56 54          	movzx  edx,BYTE PTR [esi+0x54]
  4010ad:	0f af 55 e8          	imul   edx,DWORD PTR [ebp-0x18]
  4010b1:	8a c8                	mov    cl,al
  4010b3:	0f b6 46 50          	movzx  eax,BYTE PTR [esi+0x50]
  4010b7:	0f af 45 10          	imul   eax,DWORD PTR [ebp+0x10]
  4010bb:	03 c2                	add    eax,edx
  4010bd:	99                   	cdq    
  4010be:	f7 ff                	idiv   edi
  4010c0:	c1 e1 08             	shl    ecx,0x8
  4010c3:	0f b6 c0             	movzx  eax,al
  4010c6:	0b c8                	or     ecx,eax
  4010c8:	8d 45 f4             	lea    eax,[ebp-0xc]
  4010cb:	50                   	push   eax
  4010cc:	89 4d f8             	mov    DWORD PTR [ebp-0x8],ecx
  4010cf:	ff 15 5c 80 40 00    	call   DWORD PTR ds:0x40805c
  4010d5:	83 45 f0 04          	add    DWORD PTR [ebp-0x10],0x4
  4010d9:	89 45 14             	mov    DWORD PTR [ebp+0x14],eax
  4010dc:	50                   	push   eax
  4010dd:	8d 45 e4             	lea    eax,[ebp-0x1c]
  4010e0:	50                   	push   eax
  4010e1:	ff 75 0c             	push   DWORD PTR [ebp+0xc]
  4010e4:	ff 15 10 82 40 00    	call   DWORD PTR ds:0x408210
  4010ea:	ff 75 14             	push   DWORD PTR [ebp+0x14]
  4010ed:	ff d3                	call   ebx
  4010ef:	83 45 e8 04          	add    DWORD PTR [ebp-0x18],0x4
  4010f3:	39 7d e8             	cmp    DWORD PTR [ebp-0x18],edi
  4010f6:	0f 8c 77 ff ff ff    	jl     0x401073
  4010fc:	83 7e 58 ff          	cmp    DWORD PTR [esi+0x58],0xffffffff
  401100:	74 65                	je     0x401167
  401102:	ff 76 34             	push   DWORD PTR [esi+0x34]
  401105:	ff 15 58 80 40 00    	call   DWORD PTR ds:0x408058
  40110b:	85 c0                	test   eax,eax
  40110d:	89 45 14             	mov    DWORD PTR [ebp+0x14],eax
  401110:	74 55                	je     0x401167
  401112:	8b 7d 0c             	mov    edi,DWORD PTR [ebp+0xc]
  401115:	6a 01                	push   0x1
  401117:	57                   	push   edi
  401118:	c7 45 e4 10 00 00 00 	mov    DWORD PTR [ebp-0x1c],0x10
  40111f:	c7 45 e8 08 00 00 00 	mov    DWORD PTR [ebp-0x18],0x8
  401126:	ff 15 54 80 40 00    	call   DWORD PTR ds:0x408054
  40112c:	ff 76 58             	push   DWORD PTR [esi+0x58]
  40112f:	57                   	push   edi
  401130:	ff 15 50 80 40 00    	call   DWORD PTR ds:0x408050
  401136:	ff 75 14             	push   DWORD PTR [ebp+0x14]
  401139:	8b 35 4c 80 40 00    	mov    esi,DWORD PTR ds:0x40804c
  40113f:	57                   	push   edi
  401140:	ff d6                	call   esi
  401142:	89 45 0c             	mov    DWORD PTR [ebp+0xc],eax
  401145:	8d 45 e4             	lea    eax,[ebp-0x1c]
  401148:	68 20 08 00 00       	push   0x820
  40114d:	50                   	push   eax
  40114e:	6a ff                	push   0xffffffff
  401150:	68 20 ec 42 00       	push   0x42ec20
  401155:	57                   	push   edi
  401156:	ff 15 68 82 40 00    	call   DWORD PTR ds:0x408268
  40115c:	ff 75 0c             	push   DWORD PTR [ebp+0xc]
  40115f:	57                   	push   edi
  401160:	ff d6                	call   esi
  401162:	ff 75 14             	push   DWORD PTR [ebp+0x14]
  401165:	ff d3                	call   ebx
  401167:	8d 45 a4             	lea    eax,[ebp-0x5c]
  40116a:	50                   	push   eax
  40116b:	ff 75 08             	push   DWORD PTR [ebp+0x8]
  40116e:	ff 15 6c 82 40 00    	call   DWORD PTR ds:0x40826c
  401174:	5f                   	pop    edi
  401175:	5e                   	pop    esi
  401176:	33 c0                	xor    eax,eax
  401178:	5b                   	pop    ebx
  401179:	c9                   	leave  
  40117a:	c2 10 00             	ret    0x10
  40117d:	8b 4c 24 04          	mov    ecx,DWORD PTR [esp+0x4]
  401181:	a1 68 f4 42 00       	mov    eax,ds:0x42f468
  401186:	8b d1                	mov    edx,ecx
  401188:	53                   	push   ebx
  401189:	69 d2 18 04 00 00    	imul   edx,edx,0x418
  40118f:	56                   	push   esi
  401190:	57                   	push   edi
  401191:	8b 54 02 08          	mov    edx,DWORD PTR [edx+eax*1+0x8]
  401195:	f6 c2 02             	test   dl,0x2
  401198:	74 4f                	je     0x4011e9
  40119a:	8d 71 01             	lea    esi,[ecx+0x1]
  40119d:	33 ff                	xor    edi,edi
  40119f:	3b 35 6c f4 42 00    	cmp    esi,DWORD PTR ds:0x42f46c
  4011a5:	73 42                	jae    0x4011e9
  4011a7:	8b ce                	mov    ecx,esi
  4011a9:	69 c9 18 04 00 00    	imul   ecx,ecx,0x418
  4011af:	8d 44 01 08          	lea    eax,[ecx+eax*1+0x8]
  4011b3:	8b 08                	mov    ecx,DWORD PTR [eax]
  4011b5:	f6 c1 02             	test   cl,0x2
  4011b8:	74 03                	je     0x4011bd
  4011ba:	47                   	inc    edi
  4011bb:	eb 1e                	jmp    0x4011db
  4011bd:	f6 c1 04             	test   cl,0x4
  4011c0:	74 09                	je     0x4011cb
  4011c2:	8b cf                	mov    ecx,edi
  4011c4:	4f                   	dec    edi
  4011c5:	85 c9                	test   ecx,ecx
  4011c7:	74 20                	je     0x4011e9
  4011c9:	eb 10                	jmp    0x4011db
  4011cb:	f6 c1 10             	test   cl,0x10
  4011ce:	75 0b                	jne    0x4011db
  4011d0:	8b d9                	mov    ebx,ecx
  4011d2:	33 da                	xor    ebx,edx
  4011d4:	83 e3 01             	and    ebx,0x1
  4011d7:	33 d9                	xor    ebx,ecx
  4011d9:	89 18                	mov    DWORD PTR [eax],ebx
  4011db:	46                   	inc    esi
  4011dc:	05 18 04 00 00       	add    eax,0x418
  4011e1:	3b 35 6c f4 42 00    	cmp    esi,DWORD PTR ds:0x42f46c
  4011e7:	72 ca                	jb     0x4011b3
  4011e9:	5f                   	pop    edi
  4011ea:	5e                   	pop    esi
  4011eb:	5b                   	pop    ebx
  4011ec:	c2 04 00             	ret    0x4
  4011ef:	55                   	push   ebp
  4011f0:	8b ec                	mov    ebp,esp
  4011f2:	51                   	push   ecx
  4011f3:	51                   	push   ecx
  4011f4:	8b 55 08             	mov    edx,DWORD PTR [ebp+0x8]
  4011f7:	53                   	push   ebx
  4011f8:	56                   	push   esi
  4011f9:	8b f2                	mov    esi,edx
  4011fb:	69 f6 18 04 00 00    	imul   esi,esi,0x418
  401201:	8b 1d 68 f4 42 00    	mov    ebx,DWORD PTR ds:0x42f468
  401207:	33 c9                	xor    ecx,ecx
  401209:	03 f3                	add    esi,ebx
  40120b:	57                   	push   edi
  40120c:	89 4d fc             	mov    DWORD PTR [ebp-0x4],ecx
  40120f:	89 4d f8             	mov    DWORD PTR [ebp-0x8],ecx
  401212:	8b 46 08             	mov    eax,DWORD PTR [esi+0x8]
  401215:	a8 02                	test   al,0x2
  401217:	74 0b                	je     0x401224
  401219:	39 4d 0c             	cmp    DWORD PTR [ebp+0xc],ecx
  40121c:	74 06                	je     0x401224
  40121e:	24 be                	and    al,0xbe
  401220:	42                   	inc    edx
  401221:	89 46 08             	mov    DWORD PTR [esi+0x8],eax
  401224:	3b 15 6c f4 42 00    	cmp    edx,DWORD PTR ds:0x42f46c
  40122a:	73 44                	jae    0x401270
  40122c:	8b c2                	mov    eax,edx
  40122e:	69 c0 18 04 00 00    	imul   eax,eax,0x418
  401234:	8d 7c 18 08          	lea    edi,[eax+ebx*1+0x8]
  401238:	8d 42 01             	lea    eax,[edx+0x1]
  40123b:	8b 0f                	mov    ecx,DWORD PTR [edi]
  40123d:	f6 c1 02             	test   cl,0x2
  401240:	74 0a                	je     0x40124c
  401242:	6a 01                	push   0x1
  401244:	52                   	push   edx
  401245:	e8 a5 ff ff ff       	call   0x4011ef
  40124a:	8b 0f                	mov    ecx,DWORD PTR [edi]
  40124c:	f6 c1 04             	test   cl,0x4
  40124f:	75 28                	jne    0x401279
  401251:	f6 c1 40             	test   cl,0x40
  401254:	74 03                	je     0x401259
  401256:	ff 45 fc             	inc    DWORD PTR [ebp-0x4]
  401259:	f6 c1 01             	test   cl,0x1
  40125c:	74 05                	je     0x401263
  40125e:	ff 45 fc             	inc    DWORD PTR [ebp-0x4]
  401261:	eb 03                	jmp    0x401266
  401263:	ff 45 f8             	inc    DWORD PTR [ebp-0x8]
  401266:	3b 05 6c f4 42 00    	cmp    eax,DWORD PTR ds:0x42f46c
  40126c:	8b d0                	mov    edx,eax
  40126e:	72 bc                	jb     0x40122c
  401270:	33 c0                	xor    eax,eax
  401272:	5f                   	pop    edi
  401273:	5e                   	pop    esi
  401274:	5b                   	pop    ebx
  401275:	c9                   	leave  
  401276:	c2 08 00             	ret    0x8
  401279:	83 7d fc 00          	cmp    DWORD PTR [ebp-0x4],0x0
  40127d:	74 f3                	je     0x401272
  40127f:	83 7d f8 00          	cmp    DWORD PTR [ebp-0x8],0x0
  401283:	74 06                	je     0x40128b
  401285:	83 4e 08 40          	or     DWORD PTR [esi+0x8],0x40
  401289:	eb e7                	jmp    0x401272
  40128b:	8b 4e 08             	mov    ecx,DWORD PTR [esi+0x8]
  40128e:	80 e1 7f             	and    cl,0x7f
  401291:	83 c9 01             	or     ecx,0x1
  401294:	89 4e 08             	mov    DWORD PTR [esi+0x8],ecx
  401297:	eb d9                	jmp    0x401272
  401299:	8b 4c 24 04          	mov    ecx,DWORD PTR [esp+0x4]
  40129d:	a1 68 f4 42 00       	mov    eax,ds:0x42f468
  4012a2:	56                   	push   esi
  4012a3:	33 f6                	xor    esi,esi
  4012a5:	83 f9 20             	cmp    ecx,0x20
  4012a8:	73 34                	jae    0x4012de
  4012aa:	39 35 6c f4 42 00    	cmp    DWORD PTR ds:0x42f46c,esi
  4012b0:	76 2c                	jbe    0x4012de
  4012b2:	8d 50 08             	lea    edx,[eax+0x8]
  4012b5:	57                   	push   edi
  4012b6:	8b 02                	mov    eax,DWORD PTR [edx]
  4012b8:	a8 06                	test   al,0x6
  4012ba:	75 12                	jne    0x4012ce
  4012bc:	33 ff                	xor    edi,edi
  4012be:	47                   	inc    edi
  4012bf:	d3 e7                	shl    edi,cl
  4012c1:	85 7a fc             	test   DWORD PTR [edx-0x4],edi
  4012c4:	74 04                	je     0x4012ca
  4012c6:	0c 01                	or     al,0x1
  4012c8:	eb 02                	jmp    0x4012cc
  4012ca:	24 fe                	and    al,0xfe
  4012cc:	89 02                	mov    DWORD PTR [edx],eax
  4012ce:	46                   	inc    esi
  4012cf:	81 c2 18 04 00 00    	add    edx,0x418
  4012d5:	3b 35 6c f4 42 00    	cmp    esi,DWORD PTR ds:0x42f46c
  4012db:	72 d9                	jb     0x4012b6
  4012dd:	5f                   	pop    edi
  4012de:	5e                   	pop    esi
  4012df:	c2 04 00             	ret    0x4
  4012e2:	55                   	push   ebp
  4012e3:	8b ec                	mov    ebp,esp
  4012e5:	83 ec 0c             	sub    esp,0xc
  4012e8:	a1 34 f4 42 00       	mov    eax,ds:0x42f434
  4012ed:	83 65 fc 00          	and    DWORD PTR [ebp-0x4],0x0
  4012f1:	53                   	push   ebx
  4012f2:	56                   	push   esi
  4012f3:	05 94 00 00 00       	add    eax,0x94
  4012f8:	57                   	push   edi
  4012f9:	8b 3d 6c f4 42 00    	mov    edi,DWORD PTR ds:0x42f46c
  4012ff:	89 45 f8             	mov    DWORD PTR [ebp-0x8],eax
  401302:	8b 45 f8             	mov    eax,DWORD PTR [ebp-0x8]
  401305:	33 db                	xor    ebx,ebx
  401307:	39 18                	cmp    DWORD PTR [eax],ebx
  401309:	74 4b                	je     0x401356
  40130b:	3b df                	cmp    ebx,edi
  40130d:	73 45                	jae    0x401354
  40130f:	8b 35 68 f4 42 00    	mov    esi,DWORD PTR ds:0x42f468
  401315:	83 c6 08             	add    esi,0x8
  401318:	8b 16                	mov    edx,DWORD PTR [esi]
  40131a:	f6 c2 06             	test   dl,0x6
  40131d:	75 28                	jne    0x401347
  40131f:	8b 45 08             	mov    eax,DWORD PTR [ebp+0x8]
  401322:	85 c0                	test   eax,eax
  401324:	74 06                	je     0x40132c
  401326:	83 3c 98 00          	cmp    DWORD PTR [eax+ebx*4],0x0
  40132a:	74 1b                	je     0x401347
  40132c:	8b 4d fc             	mov    ecx,DWORD PTR [ebp-0x4]
  40132f:	33 c0                	xor    eax,eax
  401331:	40                   	inc    eax
  401332:	83 e2 01             	and    edx,0x1
  401335:	d3 e0                	shl    eax,cl
  401337:	8b 4e fc             	mov    ecx,DWORD PTR [esi-0x4]
  40133a:	23 c8                	and    ecx,eax
  40133c:	8b c1                	mov    eax,ecx
  40133e:	8b 4d fc             	mov    ecx,DWORD PTR [ebp-0x4]
  401341:	d3 e2                	shl    edx,cl
  401343:	3b c2                	cmp    eax,edx
  401345:	75 0b                	jne    0x401352
  401347:	43                   	inc    ebx
  401348:	81 c6 18 04 00 00    	add    esi,0x418
  40134e:	3b df                	cmp    ebx,edi
  401350:	72 c6                	jb     0x401318
  401352:	3b df                	cmp    ebx,edi
  401354:	74 0d                	je     0x401363
  401356:	ff 45 fc             	inc    DWORD PTR [ebp-0x4]
  401359:	83 45 f8 04          	add    DWORD PTR [ebp-0x8],0x4
  40135d:	83 7d fc 20          	cmp    DWORD PTR [ebp-0x4],0x20
  401361:	72 9f                	jb     0x401302
  401363:	8b 45 fc             	mov    eax,DWORD PTR [ebp-0x4]
  401366:	5f                   	pop    edi
  401367:	5e                   	pop    esi
  401368:	5b                   	pop    ebx
  401369:	c9                   	leave  
  40136a:	c2 04 00             	ret    0x4
  40136d:	8b 44 24 04          	mov    eax,DWORD PTR [esp+0x4]
  401371:	85 c0                	test   eax,eax
  401373:	7d 11                	jge    0x401386
  401375:	40                   	inc    eax
  401376:	b9 00 00 43 00       	mov    ecx,0x430000
  40137b:	c1 e0 0a             	shl    eax,0xa
  40137e:	2b c8                	sub    ecx,eax
  401380:	51                   	push   ecx
  401381:	e8 57 4d 00 00       	call   0x4060dd
  401386:	c2 04 00             	ret    0x4
  401389:	56                   	push   esi
  40138a:	8b 74 24 08          	mov    esi,DWORD PTR [esp+0x8]
  40138e:	eb 6a                	jmp    0x4013fa
  401390:	8b c6                	mov    eax,esi
  401392:	8b 0d 70 f4 42 00    	mov    ecx,DWORD PTR ds:0x42f470
  401398:	6b c0 1c             	imul   eax,eax,0x1c
  40139b:	03 c1                	add    eax,ecx
  40139d:	83 38 01             	cmp    DWORD PTR [eax],0x1
  4013a0:	74 5c                	je     0x4013fe
  4013a2:	50                   	push   eax
  4013a3:	e8 8c 00 00 00       	call   0x401434
  4013a8:	3d ff ff ff 7f       	cmp    eax,0x7fffffff
  4013ad:	74 55                	je     0x401404
  4013af:	50                   	push   eax
  4013b0:	e8 b8 ff ff ff       	call   0x40136d
  4013b5:	85 c0                	test   eax,eax
  4013b7:	75 04                	jne    0x4013bd
  4013b9:	40                   	inc    eax
  4013ba:	46                   	inc    esi
  4013bb:	eb 07                	jmp    0x4013c4
  4013bd:	48                   	dec    eax
  4013be:	8b ce                	mov    ecx,esi
  4013c0:	8b f0                	mov    esi,eax
  4013c2:	2b c1                	sub    eax,ecx
  4013c4:	83 7c 24 0c 00       	cmp    DWORD PTR [esp+0xc],0x0
  4013c9:	74 2f                	je     0x4013fa
  4013cb:	01 05 0c ec 42 00    	add    DWORD PTR ds:0x42ec0c,eax
  4013d1:	6a 00                	push   0x0
  4013d3:	ff 35 f4 eb 42 00    	push   DWORD PTR ds:0x42ebf4
  4013d9:	68 30 75 00 00       	push   0x7530
  4013de:	ff 35 0c ec 42 00    	push   DWORD PTR ds:0x42ec0c
  4013e4:	ff 15 44 81 40 00    	call   DWORD PTR ds:0x408144
  4013ea:	50                   	push   eax
  4013eb:	68 02 04 00 00       	push   0x402
  4013f0:	ff 74 24 18          	push   DWORD PTR [esp+0x18]
  4013f4:	ff 15 00 82 40 00    	call   DWORD PTR ds:0x408200
  4013fa:	85 f6                	test   esi,esi
  4013fc:	7d 92                	jge    0x401390
  4013fe:	33 c0                	xor    eax,eax
  401400:	5e                   	pop    esi
  401401:	c2 08 00             	ret    0x8
  401404:	b8 ff ff ff 7f       	mov    eax,0x7fffffff
  401409:	eb f5                	jmp    0x401400
  40140b:	8b 44 24 04          	mov    eax,DWORD PTR [esp+0x4]
  40140f:	8b 0d 34 f4 42 00    	mov    ecx,DWORD PTR ds:0x42f434
  401415:	6a 00                	push   0x0
  401417:	ff 74 81 6c          	push   DWORD PTR [ecx+eax*4+0x6c]
  40141b:	e8 69 ff ff ff       	call   0x401389
  401420:	c2 04 00             	ret    0x4
  401423:	68 30 a8 40 00       	push   0x40a830
  401428:	ff 74 24 08          	push   DWORD PTR [esp+0x8]
  40142c:	e8 5c 3e 00 00       	call   0x40528d
  401431:	c2 04 00             	ret    0x4
  401434:	55                   	push   ebp
  401435:	8b ec                	mov    ebp,esp
  401437:	81 ec c8 01 00 00    	sub    esp,0x1c8
  40143d:	a1 28 f4 42 00       	mov    eax,ds:0x42f428
  401442:	53                   	push   ebx
  401443:	56                   	push   esi
  401444:	8b 75 08             	mov    esi,DWORD PTR [ebp+0x8]
  401447:	57                   	push   edi
  401448:	6a 07                	push   0x7
  40144a:	59                   	pop    ecx
  40144b:	8d 7d c8             	lea    edi,[ebp-0x38]
  40144e:	89 45 f8             	mov    DWORD PTR [ebp-0x8],eax
  401451:	33 db                	xor    ebx,ebx
  401453:	f3 a5                	rep movs DWORD PTR es:[edi],DWORD PTR ds:[esi]
  401455:	8b 45 cc             	mov    eax,DWORD PTR [ebp-0x34]
  401458:	8b 55 d0             	mov    edx,DWORD PTR [ebp-0x30]
  40145b:	8b f0                	mov    esi,eax
  40145d:	8b fa                	mov    edi,edx
  40145f:	c1 e6 0a             	shl    esi,0xa
  401462:	b9 00 00 43 00       	mov    ecx,0x430000
  401467:	89 5d fc             	mov    DWORD PTR [ebp-0x4],ebx
  40146a:	c1 e7 0a             	shl    edi,0xa
  40146d:	03 f1                	add    esi,ecx
  40146f:	03 f9                	add    edi,ecx
  401471:	8d 4d cc             	lea    ecx,[ebp-0x34]
  401474:	89 0d 6c b8 40 00    	mov    DWORD PTR ds:0x40b86c,ecx
  40147a:	8b 4d c8             	mov    ecx,DWORD PTR [ebp-0x38]
  40147d:	83 c1 fe             	add    ecx,0xfffffffe
  401480:	83 f9 41             	cmp    ecx,0x41
  401483:	0f 87 2f 15 00 00    	ja     0x4029b8
  401489:	ff 24 8d ca 29 40 00 	jmp    DWORD PTR [ecx*4+0x4029ca]
  401490:	53                   	push   ebx
  401491:	50                   	push   eax
  401492:	e8 f6 3d 00 00       	call   0x40528d
  401497:	e9 b2 0e 00 00       	jmp    0x40234e
  40149c:	ff 05 ec eb 42 00    	inc    DWORD PTR ds:0x42ebec
  4014a2:	39 5d f8             	cmp    DWORD PTR [ebp-0x8],ebx
  4014a5:	0f 84 a3 0e 00 00    	je     0x40234e
  4014ab:	53                   	push   ebx
  4014ac:	ff 15 78 82 40 00    	call   DWORD PTR ds:0x408278
  4014b2:	e9 97 0e 00 00       	jmp    0x40234e
  4014b7:	50                   	push   eax
  4014b8:	e8 b0 fe ff ff       	call   0x40136d
  4014bd:	48                   	dec    eax
  4014be:	53                   	push   ebx
  4014bf:	50                   	push   eax
  4014c0:	e8 c4 fe ff ff       	call   0x401389
  4014c5:	e9 f9 14 00 00       	jmp    0x4029c3
  4014ca:	53                   	push   ebx
  4014cb:	50                   	push   eax
  4014cc:	e8 bc 3d 00 00       	call   0x40528d
  4014d1:	e9 e2 14 00 00       	jmp    0x4029b8
  4014d6:	53                   	push   ebx
  4014d7:	e8 2e 16 00 00       	call   0x402b0a
  4014dc:	83 f8 01             	cmp    eax,0x1
  4014df:	59                   	pop    ecx
  4014e0:	89 55 f0             	mov    DWORD PTR [ebp-0x10],edx
  4014e3:	7f 03                	jg     0x4014e8
  4014e5:	33 c0                	xor    eax,eax
  4014e7:	40                   	inc    eax
  4014e8:	50                   	push   eax
  4014e9:	ff 15 8c 80 40 00    	call   DWORD PTR ds:0x40808c
  4014ef:	e9 c4 14 00 00       	jmp    0x4029b8
  4014f4:	ff 75 f8             	push   DWORD PTR [ebp-0x8]
  4014f7:	ff 15 44 82 40 00    	call   DWORD PTR ds:0x408244
  4014fd:	e9 b6 14 00 00       	jmp    0x4029b8
  401502:	c1 e0 02             	shl    eax,0x2
  401505:	39 5d d4             	cmp    DWORD PTR [ebp-0x2c],ebx
  401508:	75 26                	jne    0x401530
  40150a:	8b 88 c0 f4 42 00    	mov    ecx,DWORD PTR [eax+0x42f4c0]
  401510:	6a 01                	push   0x1
  401512:	89 88 00 f5 42 00    	mov    DWORD PTR [eax+0x42f500],ecx
  401518:	e8 ed 15 00 00       	call   0x402b0a
  40151d:	59                   	pop    ecx
  40151e:	89 55 f0             	mov    DWORD PTR [ebp-0x10],edx
  401521:	8b 4d cc             	mov    ecx,DWORD PTR [ebp-0x34]
  401524:	89 04 8d c0 f4 42 00 	mov    DWORD PTR [ecx*4+0x42f4c0],eax
  40152b:	e9 88 14 00 00       	jmp    0x4029b8
  401530:	8b 88 00 f5 42 00    	mov    ecx,DWORD PTR [eax+0x42f500]
  401536:	89 88 c0 f4 42 00    	mov    DWORD PTR [eax+0x42f4c0],ecx
  40153c:	e9 77 14 00 00       	jmp    0x4029b8
  401541:	8b 45 d4             	mov    eax,DWORD PTR [ebp-0x2c]
  401544:	8d 34 85 c0 f4 42 00 	lea    esi,[eax*4+0x42f4c0]
  40154b:	33 c0                	xor    eax,eax
  40154d:	8b 0e                	mov    ecx,DWORD PTR [esi]
  40154f:	3b cb                	cmp    ecx,ebx
  401551:	0f 94 c0             	sete   al
  401554:	23 4d d8             	and    ecx,DWORD PTR [ebp-0x28]
  401557:	8b 44 85 cc          	mov    eax,DWORD PTR [ebp+eax*4-0x34]
  40155b:	89 0e                	mov    DWORD PTR [esi],ecx
  40155d:	e9 61 14 00 00       	jmp    0x4029c3
  401562:	ff 34 95 c0 f4 42 00 	push   DWORD PTR [edx*4+0x42f4c0]
  401569:	56                   	push   esi
  40156a:	e9 f1 13 00 00       	jmp    0x402960
  40156f:	8b 0d f0 eb 42 00    	mov    ecx,DWORD PTR ds:0x42ebf0
  401575:	8b 35 48 82 40 00    	mov    esi,DWORD PTR ds:0x408248
  40157b:	3b cb                	cmp    ecx,ebx
  40157d:	74 07                	je     0x401586
  40157f:	52                   	push   edx
  401580:	51                   	push   ecx
  401581:	ff d6                	call   esi
  401583:	8b 45 cc             	mov    eax,DWORD PTR [ebp-0x34]
  401586:	8b 0d 04 ec 42 00    	mov    ecx,DWORD PTR ds:0x42ec04
  40158c:	3b cb                	cmp    ecx,ebx
  40158e:	0f 84 24 14 00 00    	je     0x4029b8
  401594:	50                   	push   eax
  401595:	51                   	push   ecx
  401596:	ff d6                	call   esi
  401598:	e9 1b 14 00 00       	jmp    0x4029b8
  40159d:	6a f0                	push   0xfffffff0
  40159f:	e8 88 15 00 00       	call   0x402b2c
  4015a4:	ff 75 d0             	push   DWORD PTR [ebp-0x30]
  4015a7:	50                   	push   eax
  4015a8:	ff 15 b4 80 40 00    	call   DWORD PTR ds:0x4080b4
  4015ae:	85 c0                	test   eax,eax
  4015b0:	0f 85 02 14 00 00    	jne    0x4029b8
  4015b6:	e9 c8 11 00 00       	jmp    0x402783
  4015bb:	6a f0                	push   0xfffffff0
  4015bd:	e8 6a 15 00 00       	call   0x402b2c
  4015c2:	8b f8                	mov    edi,eax
  4015c4:	57                   	push   edi
  4015c5:	e8 cd 45 00 00       	call   0x405b97
  4015ca:	8b f0                	mov    esi,eax
  4015cc:	3b f3                	cmp    esi,ebx
  4015ce:	74 54                	je     0x401624
  4015d0:	6a 5c                	push   0x5c
  4015d2:	56                   	push   esi
  4015d3:	e8 51 45 00 00       	call   0x405b29
  4015d8:	8b f0                	mov    esi,eax
  4015da:	8a 06                	mov    al,BYTE PTR [esi]
  4015dc:	88 1e                	mov    BYTE PTR [esi],bl
  4015de:	3a c3                	cmp    al,bl
  4015e0:	88 45 0b             	mov    BYTE PTR [ebp+0xb],al
  4015e3:	75 16                	jne    0x4015fb
  4015e5:	39 5d d4             	cmp    DWORD PTR [ebp-0x2c],ebx
  4015e8:	74 11                	je     0x4015fb
  4015ea:	e8 fe 41 00 00       	call   0x4057ed
  4015ef:	85 c0                	test   eax,eax
  4015f1:	74 08                	je     0x4015fb
  4015f3:	57                   	push   edi
  4015f4:	e8 5a 41 00 00       	call   0x405753
  4015f9:	eb 06                	jmp    0x401601
  4015fb:	57                   	push   edi
  4015fc:	e8 cf 41 00 00       	call   0x4057d0
  401601:	3b c3                	cmp    eax,ebx
  401603:	74 15                	je     0x40161a
  401605:	3d b7 00 00 00       	cmp    eax,0xb7
  40160a:	75 0b                	jne    0x401617
  40160c:	57                   	push   edi
  40160d:	ff 15 fc 80 40 00    	call   DWORD PTR ds:0x4080fc
  401613:	a8 10                	test   al,0x10
  401615:	75 03                	jne    0x40161a
  401617:	ff 45 fc             	inc    DWORD PTR [ebp-0x4]
  40161a:	8a 45 0b             	mov    al,BYTE PTR [ebp+0xb]
  40161d:	88 06                	mov    BYTE PTR [esi],al
  40161f:	46                   	inc    esi
  401620:	3a c3                	cmp    al,bl
  401622:	75 ac                	jne    0x4015d0
  401624:	39 5d d0             	cmp    DWORD PTR [ebp-0x30],ebx
  401627:	74 29                	je     0x401652
  401629:	6a e6                	push   0xffffffe6
  40162b:	e8 f3 fd ff ff       	call   0x401423
  401630:	57                   	push   edi
  401631:	68 00 58 43 00       	push   0x435800
  401636:	e8 2b 4b 00 00       	call   0x406166
  40163b:	57                   	push   edi
  40163c:	ff 15 00 81 40 00    	call   DWORD PTR ds:0x408100
  401642:	85 c0                	test   eax,eax
  401644:	0f 85 6e 13 00 00    	jne    0x4029b8
  40164a:	ff 45 fc             	inc    DWORD PTR [ebp-0x4]
  40164d:	e9 66 13 00 00       	jmp    0x4029b8
  401652:	6a f5                	push   0xfffffff5
  401654:	e9 4b 0c 00 00       	jmp    0x4022a4
  401659:	53                   	push   ebx
  40165a:	e8 cd 14 00 00       	call   0x402b2c
  40165f:	50                   	push   eax
  401660:	e8 04 4e 00 00       	call   0x406469
  401665:	e9 81 06 00 00       	jmp    0x401ceb
  40166a:	6a d0                	push   0xffffffd0
  40166c:	e8 bb 14 00 00       	call   0x402b2c
  401671:	6a df                	push   0xffffffdf
  401673:	8b f0                	mov    esi,eax
  401675:	e8 b2 14 00 00       	call   0x402b2c
  40167a:	6a 13                	push   0x13
  40167c:	8b f8                	mov    edi,eax
  40167e:	e8 a9 14 00 00       	call   0x402b2c
  401683:	57                   	push   edi
  401684:	56                   	push   esi
  401685:	ff 15 04 81 40 00    	call   DWORD PTR ds:0x408104
  40168b:	85 c0                	test   eax,eax
  40168d:	74 07                	je     0x401696
  40168f:	6a e3                	push   0xffffffe3
  401691:	e9 0e 0c 00 00       	jmp    0x4022a4
  401696:	39 5d d4             	cmp    DWORD PTR [ebp-0x2c],ebx
  401699:	0f 84 e4 10 00 00    	je     0x402783
  40169f:	56                   	push   esi
  4016a0:	e8 c4 4d 00 00       	call   0x406469
  4016a5:	85 c0                	test   eax,eax
  4016a7:	0f 84 d6 10 00 00    	je     0x402783
  4016ad:	57                   	push   edi
  4016ae:	56                   	push   esi
  4016af:	e8 91 48 00 00       	call   0x405f45
  4016b4:	6a e4                	push   0xffffffe4
  4016b6:	e9 e9 0b 00 00       	jmp    0x4022a4
  4016bb:	53                   	push   ebx
  4016bc:	e8 6b 14 00 00       	call   0x402b2c
  4016c1:	8b f0                	mov    esi,eax
  4016c3:	8d 45 08             	lea    eax,[ebp+0x8]
  4016c6:	50                   	push   eax
  4016c7:	57                   	push   edi
  4016c8:	68 00 04 00 00       	push   0x400
  4016cd:	56                   	push   esi
  4016ce:	ff 15 08 81 40 00    	call   DWORD PTR ds:0x408108
  4016d4:	85 c0                	test   eax,eax
  4016d6:	74 23                	je     0x4016fb
  4016d8:	8b 45 08             	mov    eax,DWORD PTR [ebp+0x8]
  4016db:	3b c6                	cmp    eax,esi
  4016dd:	76 25                	jbe    0x401704
  4016df:	38 18                	cmp    BYTE PTR [eax],bl
  4016e1:	74 21                	je     0x401704
  4016e3:	56                   	push   esi
  4016e4:	e8 80 4d 00 00       	call   0x406469
  4016e9:	3b c3                	cmp    eax,ebx
  4016eb:	74 0e                	je     0x4016fb
  4016ed:	83 c0 2c             	add    eax,0x2c
  4016f0:	50                   	push   eax
  4016f1:	ff 75 08             	push   DWORD PTR [ebp+0x8]
  4016f4:	e8 6d 4a 00 00       	call   0x406166
  4016f9:	eb 09                	jmp    0x401704
  4016fb:	c7 45 fc 01 00 00 00 	mov    DWORD PTR [ebp-0x4],0x1
  401702:	88 1f                	mov    BYTE PTR [edi],bl
  401704:	39 5d d4             	cmp    DWORD PTR [ebp-0x2c],ebx
  401707:	0f 85 ab 12 00 00    	jne    0x4029b8
  40170d:	68 00 04 00 00       	push   0x400
  401712:	57                   	push   edi
  401713:	57                   	push   edi
  401714:	ff 15 0c 81 40 00    	call   DWORD PTR ds:0x40810c
  40171a:	e9 99 12 00 00       	jmp    0x4029b8
  40171f:	6a ff                	push   0xffffffff
  401721:	e8 06 14 00 00       	call   0x402b2c
  401726:	8d 4d 08             	lea    ecx,[ebp+0x8]
  401729:	51                   	push   ecx
  40172a:	56                   	push   esi
  40172b:	68 00 04 00 00       	push   0x400
  401730:	53                   	push   ebx
  401731:	50                   	push   eax
  401732:	53                   	push   ebx
  401733:	ff 15 10 81 40 00    	call   DWORD PTR ds:0x408110
  401739:	85 c0                	test   eax,eax
  40173b:	0f 85 77 12 00 00    	jne    0x4029b8
  401741:	e9 11 10 00 00       	jmp    0x402757
  401746:	6a ef                	push   0xffffffef
  401748:	e8 df 13 00 00       	call   0x402b2c
  40174d:	50                   	push   eax
  40174e:	56                   	push   esi
  40174f:	e8 da 45 00 00       	call   0x405d2e
  401754:	e9 55 fe ff ff       	jmp    0x4015ae
  401759:	6a 31                	push   0x31
  40175b:	e8 cc 13 00 00       	call   0x402b2c
  401760:	8b f0                	mov    esi,eax
  401762:	8b 45 cc             	mov    eax,DWORD PTR [ebp-0x34]
  401765:	83 e0 07             	and    eax,0x7
  401768:	56                   	push   esi
  401769:	89 75 f8             	mov    DWORD PTR [ebp-0x8],esi
  40176c:	89 45 08             	mov    DWORD PTR [ebp+0x8],eax
  40176f:	e8 f7 43 00 00       	call   0x405b6b
  401774:	56                   	push   esi
  401775:	be 30 a4 40 00       	mov    esi,0x40a430
  40177a:	85 c0                	test   eax,eax
  40177c:	74 08                	je     0x401786
  40177e:	56                   	push   esi
  40177f:	e8 e2 49 00 00       	call   0x406166
  401784:	eb 17                	jmp    0x40179d
  401786:	68 00 58 43 00       	push   0x435800
  40178b:	56                   	push   esi
  40178c:	e8 d5 49 00 00       	call   0x406166
  401791:	50                   	push   eax
  401792:	e8 67 43 00 00       	call   0x405afe
  401797:	50                   	push   eax
  401798:	e8 e5 49 00 00       	call   0x406182
  40179d:	56                   	push   esi
  40179e:	e8 2d 4c 00 00       	call   0x4063d0
  4017a3:	bf 30 ac 40 00       	mov    edi,0x40ac30
  4017a8:	83 7d 08 03          	cmp    DWORD PTR [ebp+0x8],0x3
  4017ac:	7c 31                	jl     0x4017df
  4017ae:	56                   	push   esi
  4017af:	e8 b5 4c 00 00       	call   0x406469
  4017b4:	33 c9                	xor    ecx,ecx
  4017b6:	3b c3                	cmp    eax,ebx
  4017b8:	74 10                	je     0x4017ca
  4017ba:	8d 4d d8             	lea    ecx,[ebp-0x28]
  4017bd:	83 c0 14             	add    eax,0x14
  4017c0:	51                   	push   ecx
  4017c1:	50                   	push   eax
  4017c2:	ff 15 f4 80 40 00    	call   DWORD PTR ds:0x4080f4
  4017c8:	8b c8                	mov    ecx,eax
  4017ca:	8b 45 08             	mov    eax,DWORD PTR [ebp+0x8]
  4017cd:	83 c0 fd             	add    eax,0xfffffffd
  4017d0:	0d 00 00 00 80       	or     eax,0x80000000
  4017d5:	23 c1                	and    eax,ecx
  4017d7:	f7 d8                	neg    eax
  4017d9:	1b c0                	sbb    eax,eax
  4017db:	40                   	inc    eax
  4017dc:	89 45 08             	mov    DWORD PTR [ebp+0x8],eax
  4017df:	39 5d 08             	cmp    DWORD PTR [ebp+0x8],ebx
  4017e2:	75 06                	jne    0x4017ea
  4017e4:	56                   	push   esi
  4017e5:	e8 f0 44 00 00       	call   0x405cda
  4017ea:	33 c0                	xor    eax,eax
  4017ec:	83 7d 08 01          	cmp    DWORD PTR [ebp+0x8],0x1
  4017f0:	0f 95 c0             	setne  al
  4017f3:	40                   	inc    eax
  4017f4:	50                   	push   eax
  4017f5:	68 00 00 00 40       	push   0x40000000
  4017fa:	56                   	push   esi
  4017fb:	e8 ff 44 00 00       	call   0x405cff
  401800:	83 f8 ff             	cmp    eax,0xffffffff
  401803:	89 45 f4             	mov    DWORD PTR [ebp-0xc],eax
  401806:	75 76                	jne    0x40187e
  401808:	39 5d 08             	cmp    DWORD PTR [ebp+0x8],ebx
  40180b:	75 53                	jne    0x401860
  40180d:	68 00 00 43 00       	push   0x430000
  401812:	57                   	push   edi
  401813:	e8 4e 49 00 00       	call   0x406166
  401818:	56                   	push   esi
  401819:	68 00 00 43 00       	push   0x430000
  40181e:	e8 43 49 00 00       	call   0x406166
  401823:	ff 75 e0             	push   DWORD PTR [ebp-0x20]
  401826:	68 30 a8 40 00       	push   0x40a830
  40182b:	e8 58 49 00 00       	call   0x406188
  401830:	57                   	push   edi
  401831:	68 00 00 43 00       	push   0x430000
  401836:	e8 2b 49 00 00       	call   0x406166
  40183b:	8b 45 cc             	mov    eax,DWORD PTR [ebp-0x34]
  40183e:	c1 f8 03             	sar    eax,0x3
  401841:	50                   	push   eax
  401842:	68 30 a8 40 00       	push   0x40a830
  401847:	e8 36 40 00 00       	call   0x405882
  40184c:	83 e8 04             	sub    eax,0x4
  40184f:	0f 84 53 ff ff ff    	je     0x4017a8
  401855:	48                   	dec    eax
  401856:	74 1b                	je     0x401873
  401858:	56                   	push   esi
  401859:	6a fa                	push   0xfffffffa
  40185b:	e9 32 fc ff ff       	jmp    0x401492
  401860:	ff 75 f8             	push   DWORD PTR [ebp-0x8]
  401863:	6a e2                	push   0xffffffe2
  401865:	e8 23 3a 00 00       	call   0x40528d
  40186a:	83 7d 08 02          	cmp    DWORD PTR [ebp+0x8],0x2
  40186e:	e9 3d fd ff ff       	jmp    0x4015b0
  401873:	ff 05 c8 f4 42 00    	inc    DWORD PTR ds:0x42f4c8
  401879:	e9 43 11 00 00       	jmp    0x4029c1
  40187e:	ff 75 f8             	push   DWORD PTR [ebp-0x8]
  401881:	6a ea                	push   0xffffffea
  401883:	e8 05 3a 00 00       	call   0x40528d
  401888:	ff 05 f4 f4 42 00    	inc    DWORD PTR ds:0x42f4f4
  40188e:	53                   	push   ebx
  40188f:	53                   	push   ebx
  401890:	ff 75 f4             	push   DWORD PTR [ebp-0xc]
  401893:	ff 75 d4             	push   DWORD PTR [ebp-0x2c]
  401896:	e8 3f 18 00 00       	call   0x4030da
  40189b:	ff 0d f4 f4 42 00    	dec    DWORD PTR ds:0x42f4f4
  4018a1:	83 7d d8 ff          	cmp    DWORD PTR [ebp-0x28],0xffffffff
  4018a5:	8b f8                	mov    edi,eax
  4018a7:	75 06                	jne    0x4018af
  4018a9:	83 7d dc ff          	cmp    DWORD PTR [ebp-0x24],0xffffffff
  4018ad:	74 12                	je     0x4018c1
  4018af:	8d 45 d8             	lea    eax,[ebp-0x28]
  4018b2:	50                   	push   eax
  4018b3:	8d 45 d8             	lea    eax,[ebp-0x28]
  4018b6:	53                   	push   ebx
  4018b7:	50                   	push   eax
  4018b8:	ff 75 f4             	push   DWORD PTR [ebp-0xc]
  4018bb:	ff 15 f8 80 40 00    	call   DWORD PTR ds:0x4080f8
  4018c1:	ff 75 f4             	push   DWORD PTR [ebp-0xc]
  4018c4:	ff 15 14 81 40 00    	call   DWORD PTR ds:0x408114
  4018ca:	3b fb                	cmp    edi,ebx
  4018cc:	0f 8d e6 10 00 00    	jge    0x4029b8
  4018d2:	83 ff fe             	cmp    edi,0xfffffffe
  4018d5:	75 13                	jne    0x4018ea
  4018d7:	6a e9                	push   0xffffffe9
  4018d9:	56                   	push   esi
  4018da:	e8 a9 48 00 00       	call   0x406188
  4018df:	ff 75 f8             	push   DWORD PTR [ebp-0x8]
  4018e2:	56                   	push   esi
  4018e3:	e8 9a 48 00 00       	call   0x406182
  4018e8:	eb 08                	jmp    0x4018f2
  4018ea:	6a ee                	push   0xffffffee
  4018ec:	56                   	push   esi
  4018ed:	e8 96 48 00 00       	call   0x406188
  4018f2:	68 10 00 20 00       	push   0x200010
  4018f7:	56                   	push   esi
  4018f8:	e9 4c 0a 00 00       	jmp    0x402349
  4018fd:	53                   	push   ebx
  4018fe:	eb 34                	jmp    0x401934
  401900:	6a 31                	push   0x31
  401902:	e8 25 12 00 00       	call   0x402b2c
  401907:	ff 75 cc             	push   DWORD PTR [ebp-0x34]
  40190a:	50                   	push   eax
  40190b:	e8 72 3f 00 00       	call   0x405882
  401910:	3b c3                	cmp    eax,ebx
  401912:	0f 84 6b 0e 00 00    	je     0x402783
  401918:	3b 45 d4             	cmp    eax,DWORD PTR [ebp-0x2c]
  40191b:	0f 84 67 01 00 00    	je     0x401a88
  401921:	3b 45 dc             	cmp    eax,DWORD PTR [ebp-0x24]
  401924:	0f 85 8e 10 00 00    	jne    0x4029b8
  40192a:	8b 45 e0             	mov    eax,DWORD PTR [ebp-0x20]
  40192d:	e9 91 10 00 00       	jmp    0x4029c3
  401932:	6a f0                	push   0xfffffff0
  401934:	e8 f3 11 00 00       	call   0x402b2c
  401939:	ff 75 d0             	push   DWORD PTR [ebp-0x30]
  40193c:	50                   	push   eax
  40193d:	e8 ec 3f 00 00       	call   0x40592e
  401942:	e9 71 10 00 00       	jmp    0x4029b8
  401947:	6a 01                	push   0x1
  401949:	e8 de 11 00 00       	call   0x402b2c
  40194e:	50                   	push   eax
  40194f:	e8 28 48 00 00       	call   0x40617c
  401954:	e9 8b 0c 00 00       	jmp    0x4025e4
  401959:	6a 02                	push   0x2
  40195b:	e8 aa 11 00 00       	call   0x402b0a
  401960:	6a 03                	push   0x3
  401962:	89 45 ec             	mov    DWORD PTR [ebp-0x14],eax
  401965:	89 55 f0             	mov    DWORD PTR [ebp-0x10],edx
  401968:	e8 9d 11 00 00       	call   0x402b0a
  40196d:	59                   	pop    ecx
  40196e:	8b f8                	mov    edi,eax
  401970:	8b 45 ec             	mov    eax,DWORD PTR [ebp-0x14]
  401973:	59                   	pop    ecx
  401974:	6a 01                	push   0x1
  401976:	89 7d b0             	mov    DWORD PTR [ebp-0x50],edi
  401979:	89 55 b4             	mov    DWORD PTR [ebp-0x4c],edx
  40197c:	89 45 08             	mov    DWORD PTR [ebp+0x8],eax
  40197f:	e8 a8 11 00 00       	call   0x402b2c
  401984:	50                   	push   eax
  401985:	89 45 e4             	mov    DWORD PTR [ebp-0x1c],eax
  401988:	e8 ef 47 00 00       	call   0x40617c
  40198d:	39 5d f0             	cmp    DWORD PTR [ebp-0x10],ebx
  401990:	88 1e                	mov    BYTE PTR [esi],bl
  401992:	75 03                	jne    0x401997
  401994:	89 45 08             	mov    DWORD PTR [ebp+0x8],eax
  401997:	39 5d 08             	cmp    DWORD PTR [ebp+0x8],ebx
  40199a:	0f 84 18 10 00 00    	je     0x4029b8
  4019a0:	8b 4d b0             	mov    ecx,DWORD PTR [ebp-0x50]
  4019a3:	3b cb                	cmp    ecx,ebx
  4019a5:	7d 0b                	jge    0x4019b2
  4019a7:	8d 3c 08             	lea    edi,[eax+ecx*1]
  4019aa:	3b fb                	cmp    edi,ebx
  4019ac:	0f 8c 06 10 00 00    	jl     0x4029b8
  4019b2:	3b f8                	cmp    edi,eax
  4019b4:	7e 02                	jle    0x4019b8
  4019b6:	8b f8                	mov    edi,eax
  4019b8:	8b 45 e4             	mov    eax,DWORD PTR [ebp-0x1c]
  4019bb:	03 c7                	add    eax,edi
  4019bd:	50                   	push   eax
  4019be:	56                   	push   esi
  4019bf:	e8 a2 47 00 00       	call   0x406166
  4019c4:	39 5d 08             	cmp    DWORD PTR [ebp+0x8],ebx
  4019c7:	7d 0e                	jge    0x4019d7
  4019c9:	56                   	push   esi
  4019ca:	e8 ad 47 00 00       	call   0x40617c
  4019cf:	01 45 08             	add    DWORD PTR [ebp+0x8],eax
  4019d2:	79 03                	jns    0x4019d7
  4019d4:	89 5d 08             	mov    DWORD PTR [ebp+0x8],ebx
  4019d7:	8b 45 08             	mov    eax,DWORD PTR [ebp+0x8]
  4019da:	3d 00 04 00 00       	cmp    eax,0x400
  4019df:	0f 8d d3 0f 00 00    	jge    0x4029b8
  4019e5:	88 1c 30             	mov    BYTE PTR [eax+esi*1],bl
  4019e8:	e9 cb 0f 00 00       	jmp    0x4029b8
  4019ed:	6a 20                	push   0x20
  4019ef:	e8 38 11 00 00       	call   0x402b2c
  4019f4:	6a 31                	push   0x31
  4019f6:	8b f0                	mov    esi,eax
  4019f8:	e8 2f 11 00 00       	call   0x402b2c
  4019fd:	39 5d dc             	cmp    DWORD PTR [ebp-0x24],ebx
  401a00:	50                   	push   eax
  401a01:	56                   	push   esi
  401a02:	75 12                	jne    0x401a16
  401a04:	ff 15 18 81 40 00    	call   DWORD PTR ds:0x408118
  401a0a:	85 c0                	test   eax,eax
  401a0c:	75 7a                	jne    0x401a88
  401a0e:	8b 45 d4             	mov    eax,DWORD PTR [ebp-0x2c]
  401a11:	e9 ad 0f 00 00       	jmp    0x4029c3
  401a16:	ff 15 24 81 40 00    	call   DWORD PTR ds:0x408124
  401a1c:	eb ec                	jmp    0x401a0a
  401a1e:	33 ff                	xor    edi,edi
  401a20:	47                   	inc    edi
  401a21:	57                   	push   edi
  401a22:	e8 05 11 00 00       	call   0x402b2c
  401a27:	68 00 04 00 00       	push   0x400
  401a2c:	56                   	push   esi
  401a2d:	50                   	push   eax
  401a2e:	89 45 08             	mov    DWORD PTR [ebp+0x8],eax
  401a31:	ff 15 60 81 40 00    	call   DWORD PTR ds:0x408160
  401a37:	85 c0                	test   eax,eax
  401a39:	74 13                	je     0x401a4e
  401a3b:	39 5d d4             	cmp    DWORD PTR [ebp-0x2c],ebx
  401a3e:	74 13                	je     0x401a53
  401a40:	56                   	push   esi
  401a41:	ff 75 08             	push   DWORD PTR [ebp+0x8]
  401a44:	ff 15 24 81 40 00    	call   DWORD PTR ds:0x408124
  401a4a:	85 c0                	test   eax,eax
  401a4c:	75 05                	jne    0x401a53
  401a4e:	89 7d fc             	mov    DWORD PTR [ebp-0x4],edi
  401a51:	88 1e                	mov    BYTE PTR [esi],bl
  401a53:	88 9e ff 03 00 00    	mov    BYTE PTR [esi+0x3ff],bl
  401a59:	e9 5a 0f 00 00       	jmp    0x4029b8
  401a5e:	8b 75 e0             	mov    esi,DWORD PTR [ebp-0x20]
  401a61:	53                   	push   ebx
  401a62:	e8 a3 10 00 00       	call   0x402b0a
  401a67:	6a 01                	push   0x1
  401a69:	8b f8                	mov    edi,eax
  401a6b:	89 55 f0             	mov    DWORD PTR [ebp-0x10],edx
  401a6e:	e8 97 10 00 00       	call   0x402b0a
  401a73:	59                   	pop    ecx
  401a74:	3b f3                	cmp    esi,ebx
  401a76:	59                   	pop    ecx
  401a77:	89 55 f0             	mov    DWORD PTR [ebp-0x10],edx
  401a7a:	75 08                	jne    0x401a84
  401a7c:	3b f8                	cmp    edi,eax
  401a7e:	7c 08                	jl     0x401a88
  401a80:	7e 8c                	jle    0x401a0e
  401a82:	eb 12                	jmp    0x401a96
  401a84:	3b f8                	cmp    edi,eax
  401a86:	73 08                	jae    0x401a90
  401a88:	8b 45 d8             	mov    eax,DWORD PTR [ebp-0x28]
  401a8b:	e9 33 0f 00 00       	jmp    0x4029c3
  401a90:	0f 86 78 ff ff ff    	jbe    0x401a0e
  401a96:	8b 45 dc             	mov    eax,DWORD PTR [ebp-0x24]
  401a99:	e9 25 0f 00 00       	jmp    0x4029c3
  401a9e:	6a 01                	push   0x1
  401aa0:	e8 65 10 00 00       	call   0x402b0a
  401aa5:	8b f8                	mov    edi,eax
  401aa7:	6a 02                	push   0x2
  401aa9:	89 55 f0             	mov    DWORD PTR [ebp-0x10],edx
  401aac:	89 7d 08             	mov    DWORD PTR [ebp+0x8],edi
  401aaf:	e8 56 10 00 00       	call   0x402b0a
  401ab4:	59                   	pop    ecx
  401ab5:	89 55 f0             	mov    DWORD PTR [ebp-0x10],edx
  401ab8:	59                   	pop    ecx
  401ab9:	8b c8                	mov    ecx,eax
  401abb:	8b 45 d8             	mov    eax,DWORD PTR [ebp-0x28]
  401abe:	83 f8 0d             	cmp    eax,0xd
  401ac1:	77 73                	ja     0x401b36
  401ac3:	ff 24 85 d2 2a 40 00 	jmp    DWORD PTR [eax*4+0x402ad2]
  401aca:	03 f9                	add    edi,ecx
  401acc:	eb 6b                	jmp    0x401b39
  401ace:	2b f9                	sub    edi,ecx
  401ad0:	eb 67                	jmp    0x401b39
  401ad2:	0f af cf             	imul   ecx,edi
  401ad5:	eb 17                	jmp    0x401aee
  401ad7:	3b cb                	cmp    ecx,ebx
  401ad9:	74 44                	je     0x401b1f
  401adb:	8b c7                	mov    eax,edi
  401add:	99                   	cdq    
  401ade:	f7 f9                	idiv   ecx
  401ae0:	8b f8                	mov    edi,eax
  401ae2:	eb 55                	jmp    0x401b39
  401ae4:	0b cf                	or     ecx,edi
  401ae6:	eb 06                	jmp    0x401aee
  401ae8:	23 cf                	and    ecx,edi
  401aea:	eb 02                	jmp    0x401aee
  401aec:	33 cf                	xor    ecx,edi
  401aee:	8b f9                	mov    edi,ecx
  401af0:	eb 47                	jmp    0x401b39
  401af2:	33 c0                	xor    eax,eax
  401af4:	3b fb                	cmp    edi,ebx
  401af6:	0f 94 c0             	sete   al
  401af9:	eb e5                	jmp    0x401ae0
  401afb:	3b fb                	cmp    edi,ebx
  401afd:	75 0e                	jne    0x401b0d
  401aff:	eb 08                	jmp    0x401b09
  401b01:	33 ff                	xor    edi,edi
  401b03:	eb 34                	jmp    0x401b39
  401b05:	3b fb                	cmp    edi,ebx
  401b07:	74 f8                	je     0x401b01
  401b09:	3b cb                	cmp    ecx,ebx
  401b0b:	74 f4                	je     0x401b01
  401b0d:	33 ff                	xor    edi,edi
  401b0f:	47                   	inc    edi
  401b10:	eb 27                	jmp    0x401b39
  401b12:	3b cb                	cmp    ecx,ebx
  401b14:	74 09                	je     0x401b1f
  401b16:	8b c7                	mov    eax,edi
  401b18:	99                   	cdq    
  401b19:	f7 f9                	idiv   ecx
  401b1b:	8b fa                	mov    edi,edx
  401b1d:	eb 1a                	jmp    0x401b39
  401b1f:	33 ff                	xor    edi,edi
  401b21:	c7 45 fc 01 00 00 00 	mov    DWORD PTR [ebp-0x4],0x1
  401b28:	eb 0f                	jmp    0x401b39
  401b2a:	d3 e7                	shl    edi,cl
  401b2c:	eb 0b                	jmp    0x401b39
  401b2e:	d3 ff                	sar    edi,cl
  401b30:	eb 07                	jmp    0x401b39
  401b32:	d3 ef                	shr    edi,cl
  401b34:	eb 03                	jmp    0x401b39
  401b36:	8b 7d 08             	mov    edi,DWORD PTR [ebp+0x8]
  401b39:	57                   	push   edi
  401b3a:	e9 2a fa ff ff       	jmp    0x401569
  401b3f:	6a 01                	push   0x1
  401b41:	e8 e6 0f 00 00       	call   0x402b2c
  401b46:	6a 02                	push   0x2
  401b48:	8b f8                	mov    edi,eax
  401b4a:	e8 bb 0f 00 00       	call   0x402b0a
  401b4f:	50                   	push   eax
  401b50:	57                   	push   edi
  401b51:	56                   	push   esi
  401b52:	89 55 f0             	mov    DWORD PTR [ebp-0x10],edx
  401b55:	ff 15 74 82 40 00    	call   DWORD PTR ds:0x408274
  401b5b:	83 c4 10             	add    esp,0x10
  401b5e:	e9 55 0e 00 00       	jmp    0x4029b8
  401b63:	8b 45 d4             	mov    eax,DWORD PTR [ebp-0x2c]
  401b66:	8b 3d 70 b8 40 00    	mov    edi,DWORD PTR ds:0x40b870
  401b6c:	3b c3                	cmp    eax,ebx
  401b6e:	74 44                	je     0x401bb4
  401b70:	48                   	dec    eax
  401b71:	3b fb                	cmp    edi,ebx
  401b73:	0f 84 c2 07 00 00    	je     0x40233b
  401b79:	8b 3f                	mov    edi,DWORD PTR [edi]
  401b7b:	3b c3                	cmp    eax,ebx
  401b7d:	75 f1                	jne    0x401b70
  401b7f:	3b fb                	cmp    edi,ebx
  401b81:	0f 84 b4 07 00 00    	je     0x40233b
  401b87:	83 c7 04             	add    edi,0x4
  401b8a:	be 30 a4 40 00       	mov    esi,0x40a430
  401b8f:	57                   	push   edi
  401b90:	56                   	push   esi
  401b91:	e8 d0 45 00 00       	call   0x406166
  401b96:	a1 70 b8 40 00       	mov    eax,ds:0x40b870
  401b9b:	83 c0 04             	add    eax,0x4
  401b9e:	50                   	push   eax
  401b9f:	57                   	push   edi
  401ba0:	e8 c1 45 00 00       	call   0x406166
  401ba5:	a1 70 b8 40 00       	mov    eax,ds:0x40b870
  401baa:	56                   	push   esi
  401bab:	83 c0 04             	add    eax,0x4
  401bae:	50                   	push   eax
  401baf:	e9 22 0d 00 00       	jmp    0x4028d6
  401bb4:	3b d3                	cmp    edx,ebx
  401bb6:	74 25                	je     0x401bdd
  401bb8:	3b fb                	cmp    edi,ebx
  401bba:	0f 84 c3 0b 00 00    	je     0x402783
  401bc0:	8d 47 04             	lea    eax,[edi+0x4]
  401bc3:	50                   	push   eax
  401bc4:	56                   	push   esi
  401bc5:	e8 9c 45 00 00       	call   0x406166
  401bca:	8b 07                	mov    eax,DWORD PTR [edi]
  401bcc:	57                   	push   edi
  401bcd:	a3 70 b8 40 00       	mov    ds:0x40b870,eax
  401bd2:	ff 15 5c 81 40 00    	call   DWORD PTR ds:0x40815c
  401bd8:	e9 db 0d 00 00       	jmp    0x4029b8
  401bdd:	68 04 04 00 00       	push   0x404
  401be2:	6a 40                	push   0x40
  401be4:	ff 15 58 81 40 00    	call   DWORD PTR ds:0x408158
  401bea:	ff 75 cc             	push   DWORD PTR [ebp-0x34]
  401bed:	8b f0                	mov    esi,eax
  401bef:	8d 46 04             	lea    eax,[esi+0x4]
  401bf2:	50                   	push   eax
  401bf3:	e8 90 45 00 00       	call   0x406188
  401bf8:	a1 70 b8 40 00       	mov    eax,ds:0x40b870
  401bfd:	89 06                	mov    DWORD PTR [esi],eax
  401bff:	89 35 70 b8 40 00    	mov    DWORD PTR ds:0x40b870,esi
  401c05:	e9 ae 0d 00 00       	jmp    0x4029b8
  401c0a:	6a 03                	push   0x3
  401c0c:	e8 f9 0e 00 00       	call   0x402b0a
  401c11:	6a 04                	push   0x4
  401c13:	89 55 f0             	mov    DWORD PTR [ebp-0x10],edx
  401c16:	89 45 f8             	mov    DWORD PTR [ebp-0x8],eax
  401c19:	e8 ec 0e 00 00       	call   0x402b0a
  401c1e:	f6 45 e0 01          	test   BYTE PTR [ebp-0x20],0x1
  401c22:	59                   	pop    ecx
  401c23:	89 55 f0             	mov    DWORD PTR [ebp-0x10],edx
  401c26:	59                   	pop    ecx
  401c27:	89 45 08             	mov    DWORD PTR [ebp+0x8],eax
  401c2a:	74 0a                	je     0x401c36
  401c2c:	6a 33                	push   0x33
  401c2e:	e8 f9 0e 00 00       	call   0x402b2c
  401c33:	89 45 f8             	mov    DWORD PTR [ebp-0x8],eax
  401c36:	f6 45 e0 02          	test   BYTE PTR [ebp-0x20],0x2
  401c3a:	74 0a                	je     0x401c46
  401c3c:	6a 44                	push   0x44
  401c3e:	e8 e9 0e 00 00       	call   0x402b2c
  401c43:	89 45 08             	mov    DWORD PTR [ebp+0x8],eax
  401c46:	83 7d c8 21          	cmp    DWORD PTR [ebp-0x38],0x21
  401c4a:	6a 01                	push   0x1
  401c4c:	75 4c                	jne    0x401c9a
  401c4e:	e8 b7 0e 00 00       	call   0x402b0a
  401c53:	6a 02                	push   0x2
  401c55:	8b f8                	mov    edi,eax
  401c57:	89 55 f0             	mov    DWORD PTR [ebp-0x10],edx
  401c5a:	e8 ab 0e 00 00       	call   0x402b0a
  401c5f:	59                   	pop    ecx
  401c60:	89 55 f0             	mov    DWORD PTR [ebp-0x10],edx
  401c63:	59                   	pop    ecx
  401c64:	8b 4d e0             	mov    ecx,DWORD PTR [ebp-0x20]
  401c67:	c1 f9 02             	sar    ecx,0x2
  401c6a:	74 1e                	je     0x401c8a
  401c6c:	8d 55 f4             	lea    edx,[ebp-0xc]
  401c6f:	52                   	push   edx
  401c70:	51                   	push   ecx
  401c71:	53                   	push   ebx
  401c72:	ff 75 08             	push   DWORD PTR [ebp+0x8]
  401c75:	ff 75 f8             	push   DWORD PTR [ebp-0x8]
  401c78:	50                   	push   eax
  401c79:	57                   	push   edi
  401c7a:	ff 15 50 82 40 00    	call   DWORD PTR ds:0x408250
  401c80:	f7 d8                	neg    eax
  401c82:	1b c0                	sbb    eax,eax
  401c84:	40                   	inc    eax
  401c85:	89 45 fc             	mov    DWORD PTR [ebp-0x4],eax
  401c88:	eb 3f                	jmp    0x401cc9
  401c8a:	ff 75 08             	push   DWORD PTR [ebp+0x8]
  401c8d:	ff 75 f8             	push   DWORD PTR [ebp-0x8]
  401c90:	50                   	push   eax
  401c91:	57                   	push   edi
  401c92:	ff 15 00 82 40 00    	call   DWORD PTR ds:0x408200
  401c98:	eb 2c                	jmp    0x401cc6
  401c9a:	e8 8d 0e 00 00       	call   0x402b2c
  401c9f:	6a 12                	push   0x12
  401ca1:	8b f8                	mov    edi,eax
  401ca3:	e8 84 0e 00 00       	call   0x402b2c
  401ca8:	8a 08                	mov    cl,BYTE PTR [eax]
  401caa:	f6 d9                	neg    cl
  401cac:	1b c9                	sbb    ecx,ecx
  401cae:	23 c8                	and    ecx,eax
  401cb0:	8a 07                	mov    al,BYTE PTR [edi]
  401cb2:	f6 d8                	neg    al
  401cb4:	1b c0                	sbb    eax,eax
  401cb6:	51                   	push   ecx
  401cb7:	23 c7                	and    eax,edi
  401cb9:	50                   	push   eax
  401cba:	ff 75 08             	push   DWORD PTR [ebp+0x8]
  401cbd:	ff 75 f8             	push   DWORD PTR [ebp-0x8]
  401cc0:	ff 15 54 82 40 00    	call   DWORD PTR ds:0x408254
  401cc6:	89 45 f4             	mov    DWORD PTR [ebp-0xc],eax
  401cc9:	39 5d cc             	cmp    DWORD PTR [ebp-0x34],ebx
  401ccc:	0f 8c e6 0c 00 00    	jl     0x4029b8
  401cd2:	ff 75 f4             	push   DWORD PTR [ebp-0xc]
  401cd5:	e9 8f f8 ff ff       	jmp    0x401569
  401cda:	53                   	push   ebx
  401cdb:	e8 2a 0e 00 00       	call   0x402b0a
  401ce0:	59                   	pop    ecx
  401ce1:	89 55 f0             	mov    DWORD PTR [ebp-0x10],edx
  401ce4:	50                   	push   eax
  401ce5:	ff 15 58 82 40 00    	call   DWORD PTR ds:0x408258
  401ceb:	85 c0                	test   eax,eax
  401ced:	0f 84 1b fd ff ff    	je     0x401a0e
  401cf3:	8b 45 d0             	mov    eax,DWORD PTR [ebp-0x30]
  401cf6:	e9 c8 0c 00 00       	jmp    0x4029c3
  401cfb:	6a 02                	push   0x2
  401cfd:	e8 08 0e 00 00       	call   0x402b0a
  401d02:	6a 01                	push   0x1
  401d04:	8b f8                	mov    edi,eax
  401d06:	89 55 f0             	mov    DWORD PTR [ebp-0x10],edx
  401d09:	e8 fc 0d 00 00       	call   0x402b0a
  401d0e:	59                   	pop    ecx
  401d0f:	89 55 f0             	mov    DWORD PTR [ebp-0x10],edx
  401d12:	59                   	pop    ecx
  401d13:	57                   	push   edi
  401d14:	50                   	push   eax
  401d15:	ff 15 d0 81 40 00    	call   DWORD PTR ds:0x4081d0
  401d1b:	e9 c4 08 00 00       	jmp    0x4025e4
  401d20:	a1 88 f4 42 00       	mov    eax,ds:0x42f488
  401d25:	53                   	push   ebx
  401d26:	8d 34 10             	lea    esi,[eax+edx*1]
  401d29:	e8 dc 0d 00 00       	call   0x402b0a
  401d2e:	59                   	pop    ecx
  401d2f:	89 55 f0             	mov    DWORD PTR [ebp-0x10],edx
  401d32:	56                   	push   esi
  401d33:	6a eb                	push   0xffffffeb
  401d35:	50                   	push   eax
  401d36:	ff 15 4c 82 40 00    	call   DWORD PTR ds:0x40824c
  401d3c:	e9 77 0c 00 00       	jmp    0x4029b8
  401d41:	f6 45 d5 01          	test   BYTE PTR [ebp-0x2b],0x1
  401d45:	74 0d                	je     0x401d54
  401d47:	6a 01                	push   0x1
  401d49:	e8 bc 0d 00 00       	call   0x402b0a
  401d4e:	59                   	pop    ecx
  401d4f:	89 55 f0             	mov    DWORD PTR [ebp-0x10],edx
  401d52:	eb 0a                	jmp    0x401d5e
  401d54:	52                   	push   edx
  401d55:	ff 75 f8             	push   DWORD PTR [ebp-0x8]
  401d58:	ff 15 d0 81 40 00    	call   DWORD PTR ds:0x4081d0
  401d5e:	8b 4d d4             	mov    ecx,DWORD PTR [ebp-0x2c]
  401d61:	89 45 08             	mov    DWORD PTR [ebp+0x8],eax
  401d64:	8b c1                	mov    eax,ecx
  401d66:	8b f9                	mov    edi,ecx
  401d68:	c1 e8 1f             	shr    eax,0x1f
  401d6b:	89 45 f8             	mov    DWORD PTR [ebp-0x8],eax
  401d6e:	8b c1                	mov    eax,ecx
  401d70:	8b f1                	mov    esi,ecx
  401d72:	83 e7 03             	and    edi,0x3
  401d75:	c1 e8 1e             	shr    eax,0x1e
  401d78:	83 e6 04             	and    esi,0x4
  401d7b:	83 e0 01             	and    eax,0x1
  401d7e:	f7 c1 00 00 01 00    	test   ecx,0x10000
  401d84:	89 45 e4             	mov    DWORD PTR [ebp-0x1c],eax
  401d87:	74 08                	je     0x401d91
  401d89:	53                   	push   ebx
  401d8a:	e8 9d 0d 00 00       	call   0x402b2c
  401d8f:	eb 04                	jmp    0x401d95
  401d91:	0f b7 45 cc          	movzx  eax,WORD PTR [ebp-0x34]
  401d95:	89 45 f4             	mov    DWORD PTR [ebp-0xc],eax
  401d98:	8d 45 a8             	lea    eax,[ebp-0x58]
  401d9b:	50                   	push   eax
  401d9c:	ff 75 08             	push   DWORD PTR [ebp+0x8]
  401d9f:	ff 15 0c 82 40 00    	call   DWORD PTR ds:0x40820c
  401da5:	8b 45 d4             	mov    eax,DWORD PTR [ebp-0x2c]
  401da8:	25 f0 fe 00 00       	and    eax,0xfef0
  401dad:	50                   	push   eax
  401dae:	8b 45 b4             	mov    eax,DWORD PTR [ebp-0x4c]
  401db1:	0f af 45 e4          	imul   eax,DWORD PTR [ebp-0x1c]
  401db5:	50                   	push   eax
  401db6:	8b 45 b0             	mov    eax,DWORD PTR [ebp-0x50]
  401db9:	0f af 45 f8          	imul   eax,DWORD PTR [ebp-0x8]
  401dbd:	f7 de                	neg    esi
  401dbf:	50                   	push   eax
  401dc0:	57                   	push   edi
  401dc1:	ff 75 f4             	push   DWORD PTR [ebp-0xc]
  401dc4:	1b f6                	sbb    esi,esi
  401dc6:	23 35 20 f4 42 00    	and    esi,DWORD PTR ds:0x42f420
  401dcc:	56                   	push   esi
  401dcd:	ff 15 34 82 40 00    	call   DWORD PTR ds:0x408234
  401dd3:	50                   	push   eax
  401dd4:	57                   	push   edi
  401dd5:	68 72 01 00 00       	push   0x172
  401dda:	ff 75 08             	push   DWORD PTR [ebp+0x8]
  401ddd:	ff 15 00 82 40 00    	call   DWORD PTR ds:0x408200
  401de3:	3b c3                	cmp    eax,ebx
  401de5:	0f 84 cd 0b 00 00    	je     0x4029b8
  401deb:	3b fb                	cmp    edi,ebx
  401ded:	0f 85 c5 0b 00 00    	jne    0x4029b8
  401df3:	50                   	push   eax
  401df4:	ff 15 60 80 40 00    	call   DWORD PTR ds:0x408060
  401dfa:	e9 b9 0b 00 00       	jmp    0x4029b8
  401dff:	ff 75 f8             	push   DWORD PTR [ebp-0x8]
  401e02:	ff 15 f0 81 40 00    	call   DWORD PTR ds:0x4081f0
  401e08:	6a 02                	push   0x2
  401e0a:	8b f8                	mov    edi,eax
  401e0c:	e8 f9 0c 00 00       	call   0x402b0a
  401e11:	59                   	pop    ecx
  401e12:	8b d8                	mov    ebx,eax
  401e14:	6a 48                	push   0x48
  401e16:	6a 5a                	push   0x5a
  401e18:	57                   	push   edi
  401e19:	89 55 f0             	mov    DWORD PTR [ebp-0x10],edx
  401e1c:	ff 15 64 80 40 00    	call   DWORD PTR ds:0x408064
  401e22:	50                   	push   eax
  401e23:	53                   	push   ebx
  401e24:	ff 15 44 81 40 00    	call   DWORD PTR ds:0x408144
  401e2a:	57                   	push   edi
  401e2b:	ff 75 f8             	push   DWORD PTR [ebp-0x8]
  401e2e:	f7 d8                	neg    eax
  401e30:	a3 30 b8 40 00       	mov    ds:0x40b830,eax
  401e35:	ff 15 f4 81 40 00    	call   DWORD PTR ds:0x4081f4
  401e3b:	6a 03                	push   0x3
  401e3d:	e8 c8 0c 00 00       	call   0x402b0a
  401e42:	a3 40 b8 40 00       	mov    ds:0x40b840,eax
  401e47:	8a 45 dc             	mov    al,BYTE PTR [ebp-0x24]
  401e4a:	59                   	pop    ecx
  401e4b:	89 55 f0             	mov    DWORD PTR [ebp-0x10],edx
  401e4e:	ff 75 d0             	push   DWORD PTR [ebp-0x30]
  401e51:	8a c8                	mov    cl,al
  401e53:	80 e1 01             	and    cl,0x1
  401e56:	c6 05 47 b8 40 00 01 	mov    BYTE PTR ds:0x40b847,0x1
  401e5d:	88 0d 44 b8 40 00    	mov    BYTE PTR ds:0x40b844,cl
  401e63:	8a c8                	mov    cl,al
  401e65:	80 e1 02             	and    cl,0x2
  401e68:	24 04                	and    al,0x4
  401e6a:	68 4c b8 40 00       	push   0x40b84c
  401e6f:	88 0d 45 b8 40 00    	mov    BYTE PTR ds:0x40b845,cl
  401e75:	a2 46 b8 40 00       	mov    ds:0x40b846,al
  401e7a:	e8 09 43 00 00       	call   0x406188
  401e7f:	68 30 b8 40 00       	push   0x40b830
  401e84:	ff 15 58 80 40 00    	call   DWORD PTR ds:0x408058
  401e8a:	e9 55 07 00 00       	jmp    0x4025e4
  401e8f:	53                   	push   ebx
  401e90:	e8 75 0c 00 00       	call   0x402b0a
  401e95:	6a 01                	push   0x1
  401e97:	8b f0                	mov    esi,eax
  401e99:	89 55 f0             	mov    DWORD PTR [ebp-0x10],edx
  401e9c:	e8 69 0c 00 00       	call   0x402b0a
  401ea1:	39 5d d8             	cmp    DWORD PTR [ebp-0x28],ebx
  401ea4:	59                   	pop    ecx
  401ea5:	59                   	pop    ecx
  401ea6:	89 55 f0             	mov    DWORD PTR [ebp-0x10],edx
  401ea9:	50                   	push   eax
  401eaa:	56                   	push   esi
  401eab:	75 0b                	jne    0x401eb8
  401ead:	ff 15 48 82 40 00    	call   DWORD PTR ds:0x408248
  401eb3:	e9 00 0b 00 00       	jmp    0x4029b8
  401eb8:	ff 15 f8 81 40 00    	call   DWORD PTR ds:0x4081f8
  401ebe:	e9 f5 0a 00 00       	jmp    0x4029b8
  401ec3:	53                   	push   ebx
  401ec4:	e8 63 0c 00 00       	call   0x402b2c
  401ec9:	6a 31                	push   0x31
  401ecb:	8b f0                	mov    esi,eax
  401ecd:	e8 5a 0c 00 00       	call   0x402b2c
  401ed2:	6a 22                	push   0x22
  401ed4:	8b d8                	mov    ebx,eax
  401ed6:	e8 51 0c 00 00       	call   0x402b2c
  401edb:	6a 15                	push   0x15
  401edd:	8b f8                	mov    edi,eax
  401edf:	e8 48 0c 00 00       	call   0x402b2c
  401ee4:	6a ec                	push   0xffffffec
  401ee6:	e8 38 f5 ff ff       	call   0x401423
  401eeb:	8b 45 dc             	mov    eax,DWORD PTR [ebp-0x24]
  401eee:	89 45 80             	mov    DWORD PTR [ebp-0x80],eax
  401ef1:	8b 45 f8             	mov    eax,DWORD PTR [ebp-0x8]
  401ef4:	89 45 84             	mov    DWORD PTR [ebp-0x7c],eax
  401ef7:	8b 45 d8             	mov    eax,DWORD PTR [ebp-0x28]
  401efa:	89 45 98             	mov    DWORD PTR [ebp-0x68],eax
  401efd:	8a 06                	mov    al,BYTE PTR [esi]
  401eff:	f6 d8                	neg    al
  401f01:	1b c0                	sbb    eax,eax
  401f03:	89 5d 8c             	mov    DWORD PTR [ebp-0x74],ebx
  401f06:	23 c6                	and    eax,esi
  401f08:	89 45 88             	mov    DWORD PTR [ebp-0x78],eax
  401f0b:	8a 07                	mov    al,BYTE PTR [edi]
  401f0d:	f6 d8                	neg    al
  401f0f:	1b c0                	sbb    eax,eax
  401f11:	c7 45 94 00 58 43 00 	mov    DWORD PTR [ebp-0x6c],0x435800
  401f18:	23 c7                	and    eax,edi
  401f1a:	89 45 90             	mov    DWORD PTR [ebp-0x70],eax
  401f1d:	8d 85 7c ff ff ff    	lea    eax,[ebp-0x84]
  401f23:	50                   	push   eax
  401f24:	e8 1f 39 00 00       	call   0x405848
  401f29:	85 c0                	test   eax,eax
  401f2b:	0f 84 52 08 00 00    	je     0x402783
  401f31:	f6 45 80 40          	test   BYTE PTR [ebp-0x80],0x40
  401f35:	0f 84 7d 0a 00 00    	je     0x4029b8
  401f3b:	ff 75 b4             	push   DWORD PTR [ebp-0x4c]
  401f3e:	e8 30 46 00 00       	call   0x406573
  401f43:	ff 75 b4             	push   DWORD PTR [ebp-0x4c]
  401f46:	eb 45                	jmp    0x401f8d
  401f48:	53                   	push   ebx
  401f49:	e8 de 0b 00 00       	call   0x402b2c
  401f4e:	8b f0                	mov    esi,eax
  401f50:	56                   	push   esi
  401f51:	6a eb                	push   0xffffffeb
  401f53:	e8 35 33 00 00       	call   0x40528d
  401f58:	56                   	push   esi
  401f59:	e8 a7 38 00 00       	call   0x405805
  401f5e:	8b f0                	mov    esi,eax
  401f60:	3b f3                	cmp    esi,ebx
  401f62:	0f 84 1b 08 00 00    	je     0x402783
  401f68:	39 5d d4             	cmp    DWORD PTR [ebp-0x2c],ebx
  401f6b:	74 1f                	je     0x401f8c
  401f6d:	56                   	push   esi
  401f6e:	e8 00 46 00 00       	call   0x406573
  401f73:	39 5d d0             	cmp    DWORD PTR [ebp-0x30],ebx
  401f76:	7c 09                	jl     0x401f81
  401f78:	50                   	push   eax
  401f79:	57                   	push   edi
  401f7a:	e8 45 41 00 00       	call   0x4060c4
  401f7f:	eb 0b                	jmp    0x401f8c
  401f81:	3b c3                	cmp    eax,ebx
  401f83:	74 07                	je     0x401f8c
  401f85:	c7 45 fc 01 00 00 00 	mov    DWORD PTR [ebp-0x4],0x1
  401f8c:	56                   	push   esi
  401f8d:	ff 15 14 81 40 00    	call   DWORD PTR ds:0x408114
  401f93:	e9 20 0a 00 00       	jmp    0x4029b8
  401f98:	6a 02                	push   0x2
  401f9a:	e8 8d 0b 00 00       	call   0x402b2c
  401f9f:	50                   	push   eax
  401fa0:	e8 c4 44 00 00       	call   0x406469
  401fa5:	3b c3                	cmp    eax,ebx
  401fa7:	89 45 08             	mov    DWORD PTR [ebp+0x8],eax
  401faa:	74 13                	je     0x401fbf
  401fac:	8b d8                	mov    ebx,eax
  401fae:	ff 73 14             	push   DWORD PTR [ebx+0x14]
  401fb1:	57                   	push   edi
  401fb2:	e8 0d 41 00 00       	call   0x4060c4
  401fb7:	ff 73 18             	push   DWORD PTR [ebx+0x18]
  401fba:	e9 aa f5 ff ff       	jmp    0x401569
  401fbf:	88 1e                	mov    BYTE PTR [esi],bl
  401fc1:	88 1f                	mov    BYTE PTR [edi],bl
  401fc3:	e9 bb 07 00 00       	jmp    0x402783
  401fc8:	6a ee                	push   0xffffffee
  401fca:	e8 5d 0b 00 00       	call   0x402b2c
  401fcf:	8d 4d f0             	lea    ecx,[ebp-0x10]
  401fd2:	89 45 e4             	mov    DWORD PTR [ebp-0x1c],eax
  401fd5:	51                   	push   ecx
  401fd6:	50                   	push   eax
  401fd7:	6a 09                	push   0x9
  401fd9:	e8 20 45 00 00       	call   0x4064fe
  401fde:	ff d0                	call   eax
  401fe0:	88 1e                	mov    BYTE PTR [esi],bl
  401fe2:	3b c3                	cmp    eax,ebx
  401fe4:	89 45 f4             	mov    DWORD PTR [ebp-0xc],eax
  401fe7:	88 1f                	mov    BYTE PTR [edi],bl
  401fe9:	c7 45 fc 01 00 00 00 	mov    DWORD PTR [ebp-0x4],0x1
  401ff0:	0f 84 c2 09 00 00    	je     0x4029b8
  401ff6:	50                   	push   eax
  401ff7:	6a 40                	push   0x40
  401ff9:	ff 15 58 81 40 00    	call   DWORD PTR ds:0x408158
  401fff:	3b c3                	cmp    eax,ebx
  402001:	89 45 08             	mov    DWORD PTR [ebp+0x8],eax
  402004:	0f 84 ae 09 00 00    	je     0x4029b8
  40200a:	6a 0a                	push   0xa
  40200c:	e8 ed 44 00 00       	call   0x4064fe
  402011:	6a 0b                	push   0xb
  402013:	89 45 c0             	mov    DWORD PTR [ebp-0x40],eax
  402016:	e8 e3 44 00 00       	call   0x4064fe
  40201b:	ff 75 08             	push   DWORD PTR [ebp+0x8]
  40201e:	89 45 c4             	mov    DWORD PTR [ebp-0x3c],eax
  402021:	ff 75 f4             	push   DWORD PTR [ebp-0xc]
  402024:	53                   	push   ebx
  402025:	ff 75 e4             	push   DWORD PTR [ebp-0x1c]
  402028:	ff 55 c0             	call   DWORD PTR [ebp-0x40]
  40202b:	85 c0                	test   eax,eax
  40202d:	74 32                	je     0x402061
  40202f:	8d 45 b4             	lea    eax,[ebp-0x4c]
  402032:	50                   	push   eax
  402033:	8d 45 f8             	lea    eax,[ebp-0x8]
  402036:	50                   	push   eax
  402037:	68 14 a0 40 00       	push   0x40a014
  40203c:	ff 75 08             	push   DWORD PTR [ebp+0x8]
  40203f:	ff 55 c4             	call   DWORD PTR [ebp-0x3c]
  402042:	85 c0                	test   eax,eax
  402044:	74 1b                	je     0x402061
  402046:	8b 45 f8             	mov    eax,DWORD PTR [ebp-0x8]
  402049:	ff 70 08             	push   DWORD PTR [eax+0x8]
  40204c:	56                   	push   esi
  40204d:	e8 72 40 00 00       	call   0x4060c4
  402052:	8b 45 f8             	mov    eax,DWORD PTR [ebp-0x8]
  402055:	ff 70 0c             	push   DWORD PTR [eax+0xc]
  402058:	57                   	push   edi
  402059:	e8 66 40 00 00       	call   0x4060c4
  40205e:	89 5d fc             	mov    DWORD PTR [ebp-0x4],ebx
  402061:	ff 75 08             	push   DWORD PTR [ebp+0x8]
  402064:	e9 69 fb ff ff       	jmp    0x401bd2
  402069:	39 1d f8 f4 42 00    	cmp    DWORD PTR ds:0x42f4f8,ebx
  40206f:	c7 45 fc 01 00 00 00 	mov    DWORD PTR [ebp-0x4],0x1
  402076:	0f 8c b5 00 00 00    	jl     0x402131
  40207c:	6a f0                	push   0xfffffff0
  40207e:	e8 a9 0a 00 00       	call   0x402b2c
  402083:	6a 01                	push   0x1
  402085:	8b f0                	mov    esi,eax
  402087:	e8 a0 0a 00 00       	call   0x402b2c
  40208c:	39 5d dc             	cmp    DWORD PTR [ebp-0x24],ebx
  40208f:	89 45 08             	mov    DWORD PTR [ebp+0x8],eax
  402092:	74 0d                	je     0x4020a1
  402094:	56                   	push   esi
  402095:	ff 15 54 81 40 00    	call   DWORD PTR ds:0x408154
  40209b:	8b f8                	mov    edi,eax
  40209d:	3b fb                	cmp    edi,ebx
  40209f:	75 10                	jne    0x4020b1
  4020a1:	6a 08                	push   0x8
  4020a3:	53                   	push   ebx
  4020a4:	56                   	push   esi
  4020a5:	ff 15 50 81 40 00    	call   DWORD PTR ds:0x408150
  4020ab:	8b f8                	mov    edi,eax
  4020ad:	3b fb                	cmp    edi,ebx
  4020af:	74 79                	je     0x40212a
  4020b1:	ff 75 08             	push   DWORD PTR [ebp+0x8]
  4020b4:	57                   	push   edi
  4020b5:	e8 b3 44 00 00       	call   0x40656d
  4020ba:	8b f0                	mov    esi,eax
  4020bc:	3b f3                	cmp    esi,ebx
  4020be:	74 3d                	je     0x4020fd
  4020c0:	39 5d d4             	cmp    DWORD PTR [ebp-0x2c],ebx
  4020c3:	89 5d fc             	mov    DWORD PTR [ebp-0x4],ebx
  4020c6:	74 17                	je     0x4020df
  4020c8:	ff 75 d4             	push   DWORD PTR [ebp-0x2c]
  4020cb:	e8 53 f3 ff ff       	call   0x401423
  4020d0:	ff d6                	call   esi
  4020d2:	85 c0                	test   eax,eax
  4020d4:	74 31                	je     0x402107
  4020d6:	c7 45 fc 01 00 00 00 	mov    DWORD PTR [ebp-0x4],0x1
  4020dd:	eb 28                	jmp    0x402107
  4020df:	68 00 a0 40 00       	push   0x40a000
  4020e4:	68 70 b8 40 00       	push   0x40b870
  4020e9:	68 00 00 43 00       	push   0x430000
  4020ee:	68 00 04 00 00       	push   0x400
  4020f3:	ff 75 f8             	push   DWORD PTR [ebp-0x8]
  4020f6:	ff d6                	call   esi
  4020f8:	83 c4 14             	add    esp,0x14
  4020fb:	eb 0a                	jmp    0x402107
  4020fd:	ff 75 08             	push   DWORD PTR [ebp+0x8]
  402100:	6a f7                	push   0xfffffff7
  402102:	e8 86 31 00 00       	call   0x40528d
  402107:	39 5d d8             	cmp    DWORD PTR [ebp-0x28],ebx
  40210a:	0f 85 a8 08 00 00    	jne    0x4029b8
  402110:	57                   	push   edi
  402111:	e8 0d 18 00 00       	call   0x403923
  402116:	85 c0                	test   eax,eax
  402118:	0f 84 9a 08 00 00    	je     0x4029b8
  40211e:	57                   	push   edi
  40211f:	ff 15 4c 81 40 00    	call   DWORD PTR ds:0x40814c
  402125:	e9 8e 08 00 00       	jmp    0x4029b8
  40212a:	6a f6                	push   0xfffffff6
  40212c:	e9 73 01 00 00       	jmp    0x4022a4
  402131:	6a e7                	push   0xffffffe7
  402133:	e9 6c 01 00 00       	jmp    0x4022a4
  402138:	6a f0                	push   0xfffffff0
  40213a:	e8 ed 09 00 00       	call   0x402b2c
  40213f:	6a df                	push   0xffffffdf
  402141:	89 45 f0             	mov    DWORD PTR [ebp-0x10],eax
  402144:	e8 e3 09 00 00       	call   0x402b2c
  402149:	6a 02                	push   0x2
  40214b:	89 45 f4             	mov    DWORD PTR [ebp-0xc],eax
  40214e:	e8 d9 09 00 00       	call   0x402b2c
  402153:	6a cd                	push   0xffffffcd
  402155:	89 45 bc             	mov    DWORD PTR [ebp-0x44],eax
  402158:	e8 cf 09 00 00       	call   0x402b2c
  40215d:	6a 45                	push   0x45
  40215f:	89 45 c0             	mov    DWORD PTR [ebp-0x40],eax
  402162:	e8 c5 09 00 00       	call   0x402b2c
  402167:	ff 75 f4             	push   DWORD PTR [ebp-0xc]
  40216a:	89 45 b4             	mov    DWORD PTR [ebp-0x4c],eax
  40216d:	8b 45 dc             	mov    eax,DWORD PTR [ebp-0x24]
  402170:	8b c8                	mov    ecx,eax
  402172:	8b f8                	mov    edi,eax
  402174:	8b f0                	mov    esi,eax
  402176:	81 e1 ff 0f 00 00    	and    ecx,0xfff
  40217c:	c1 f8 10             	sar    eax,0x10
  40217f:	c1 fe 0c             	sar    esi,0xc
  402182:	25 ff ff 00 00       	and    eax,0xffff
  402187:	89 8d 78 ff ff ff    	mov    DWORD PTR [ebp-0x88],ecx
  40218d:	81 e7 00 80 00 00    	and    edi,0x8000
  402193:	83 e6 07             	and    esi,0x7
  402196:	89 45 c4             	mov    DWORD PTR [ebp-0x3c],eax
  402199:	e8 cd 39 00 00       	call   0x405b6b
  40219e:	85 c0                	test   eax,eax
  4021a0:	75 07                	jne    0x4021a9
  4021a2:	6a 21                	push   0x21
  4021a4:	e8 83 09 00 00       	call   0x402b2c
  4021a9:	8d 45 08             	lea    eax,[ebp+0x8]
  4021ac:	50                   	push   eax
  4021ad:	68 0c 85 40 00       	push   0x40850c
  4021b2:	6a 01                	push   0x1
  4021b4:	53                   	push   ebx
  4021b5:	68 1c 85 40 00       	push   0x40851c
  4021ba:	ff 15 8c 82 40 00    	call   DWORD PTR ds:0x40828c
  4021c0:	3b c3                	cmp    eax,ebx
  4021c2:	0f 8c d3 00 00 00    	jl     0x40229b
  4021c8:	8b 45 08             	mov    eax,DWORD PTR [ebp+0x8]
  4021cb:	8d 55 e4             	lea    edx,[ebp-0x1c]
  4021ce:	52                   	push   edx
  4021cf:	68 2c 85 40 00       	push   0x40852c
  4021d4:	8b 08                	mov    ecx,DWORD PTR [eax]
  4021d6:	50                   	push   eax
  4021d7:	ff 11                	call   DWORD PTR [ecx]
  4021d9:	3b c3                	cmp    eax,ebx
  4021db:	89 45 f8             	mov    DWORD PTR [ebp-0x8],eax
  4021de:	0f 8c a9 00 00 00    	jl     0x40228d
  4021e4:	8b 45 08             	mov    eax,DWORD PTR [ebp+0x8]
  4021e7:	ff 75 f4             	push   DWORD PTR [ebp-0xc]
  4021ea:	8b 08                	mov    ecx,DWORD PTR [eax]
  4021ec:	50                   	push   eax
  4021ed:	ff 51 50             	call   DWORD PTR [ecx+0x50]
  4021f0:	3b fb                	cmp    edi,ebx
  4021f2:	89 45 f8             	mov    DWORD PTR [ebp-0x8],eax
  4021f5:	75 0e                	jne    0x402205
  4021f7:	8b 45 08             	mov    eax,DWORD PTR [ebp+0x8]
  4021fa:	68 00 58 43 00       	push   0x435800
  4021ff:	50                   	push   eax
  402200:	8b 08                	mov    ecx,DWORD PTR [eax]
  402202:	ff 51 24             	call   DWORD PTR [ecx+0x24]
  402205:	3b f3                	cmp    esi,ebx
  402207:	74 0a                	je     0x402213
  402209:	8b 45 08             	mov    eax,DWORD PTR [ebp+0x8]
  40220c:	56                   	push   esi
  40220d:	50                   	push   eax
  40220e:	8b 08                	mov    ecx,DWORD PTR [eax]
  402210:	ff 51 3c             	call   DWORD PTR [ecx+0x3c]
  402213:	8b 45 08             	mov    eax,DWORD PTR [ebp+0x8]
  402216:	ff 75 c4             	push   DWORD PTR [ebp-0x3c]
  402219:	8b 08                	mov    ecx,DWORD PTR [eax]
  40221b:	50                   	push   eax
  40221c:	ff 51 34             	call   DWORD PTR [ecx+0x34]
  40221f:	8b 4d c0             	mov    ecx,DWORD PTR [ebp-0x40]
  402222:	38 19                	cmp    BYTE PTR [ecx],bl
  402224:	74 10                	je     0x402236
  402226:	8b 45 08             	mov    eax,DWORD PTR [ebp+0x8]
  402229:	ff b5 78 ff ff ff    	push   DWORD PTR [ebp-0x88]
  40222f:	8b 10                	mov    edx,DWORD PTR [eax]
  402231:	51                   	push   ecx
  402232:	50                   	push   eax
  402233:	ff 52 44             	call   DWORD PTR [edx+0x44]
  402236:	8b 45 08             	mov    eax,DWORD PTR [ebp+0x8]
  402239:	ff 75 bc             	push   DWORD PTR [ebp-0x44]
  40223c:	8b 08                	mov    ecx,DWORD PTR [eax]
  40223e:	50                   	push   eax
  40223f:	ff 51 2c             	call   DWORD PTR [ecx+0x2c]
  402242:	8b 45 08             	mov    eax,DWORD PTR [ebp+0x8]
  402245:	ff 75 b4             	push   DWORD PTR [ebp-0x4c]
  402248:	8b 08                	mov    ecx,DWORD PTR [eax]
  40224a:	50                   	push   eax
  40224b:	ff 51 1c             	call   DWORD PTR [ecx+0x1c]
  40224e:	39 5d f8             	cmp    DWORD PTR [ebp-0x8],ebx
  402251:	7c 31                	jl     0x402284
  402253:	68 00 04 00 00       	push   0x400
  402258:	c7 45 f8 05 40 00 80 	mov    DWORD PTR [ebp-0x8],0x80004005
  40225f:	ff 75 f4             	push   DWORD PTR [ebp-0xc]
  402262:	6a ff                	push   0xffffffff
  402264:	ff 75 f0             	push   DWORD PTR [ebp-0x10]
  402267:	53                   	push   ebx
  402268:	53                   	push   ebx
  402269:	ff 15 48 81 40 00    	call   DWORD PTR ds:0x408148
  40226f:	85 c0                	test   eax,eax
  402271:	74 11                	je     0x402284
  402273:	8b 45 e4             	mov    eax,DWORD PTR [ebp-0x1c]
  402276:	6a 01                	push   0x1
  402278:	ff 75 f4             	push   DWORD PTR [ebp-0xc]
  40227b:	8b 08                	mov    ecx,DWORD PTR [eax]
  40227d:	50                   	push   eax
  40227e:	ff 51 18             	call   DWORD PTR [ecx+0x18]
  402281:	89 45 f8             	mov    DWORD PTR [ebp-0x8],eax
  402284:	8b 45 e4             	mov    eax,DWORD PTR [ebp-0x1c]
  402287:	50                   	push   eax
  402288:	8b 08                	mov    ecx,DWORD PTR [eax]
  40228a:	ff 51 08             	call   DWORD PTR [ecx+0x8]
  40228d:	8b 45 08             	mov    eax,DWORD PTR [ebp+0x8]
  402290:	50                   	push   eax
  402291:	8b 08                	mov    ecx,DWORD PTR [eax]
  402293:	ff 51 08             	call   DWORD PTR [ecx+0x8]
  402296:	39 5d f8             	cmp    DWORD PTR [ebp-0x8],ebx
  402299:	7d 13                	jge    0x4022ae
  40229b:	c7 45 fc 01 00 00 00 	mov    DWORD PTR [ebp-0x4],0x1
  4022a2:	6a f0                	push   0xfffffff0
  4022a4:	e8 7a f1 ff ff       	call   0x401423
  4022a9:	e9 0a 07 00 00       	jmp    0x4029b8
  4022ae:	6a f4                	push   0xfffffff4
  4022b0:	eb f2                	jmp    0x4022a4
  4022b2:	53                   	push   ebx
  4022b3:	e8 74 08 00 00       	call   0x402b2c
  4022b8:	6a 11                	push   0x11
  4022ba:	8b f0                	mov    esi,eax
  4022bc:	e8 6b 08 00 00       	call   0x402b2c
  4022c1:	6a 23                	push   0x23
  4022c3:	8b f8                	mov    edi,eax
  4022c5:	e8 62 08 00 00       	call   0x402b2c
  4022ca:	56                   	push   esi
  4022cb:	89 45 08             	mov    DWORD PTR [ebp+0x8],eax
  4022ce:	e8 96 41 00 00       	call   0x406469
  4022d3:	85 c0                	test   eax,eax
  4022d5:	75 0d                	jne    0x4022e4
  4022d7:	53                   	push   ebx
  4022d8:	6a f9                	push   0xfffffff9
  4022da:	e8 ae 2f 00 00       	call   0x40528d
  4022df:	e9 9f 04 00 00       	jmp    0x402783
  4022e4:	8b 45 f8             	mov    eax,DWORD PTR [ebp-0x8]
  4022e7:	56                   	push   esi
  4022e8:	89 45 98             	mov    DWORD PTR [ebp-0x68],eax
  4022eb:	c7 45 9c 02 00 00 00 	mov    DWORD PTR [ebp-0x64],0x2
  4022f2:	e8 85 3e 00 00       	call   0x40617c
  4022f7:	57                   	push   edi
  4022f8:	88 5c 30 01          	mov    BYTE PTR [eax+esi*1+0x1],bl
  4022fc:	e8 7b 3e 00 00       	call   0x40617c
  402301:	88 5c 38 01          	mov    BYTE PTR [eax+edi*1+0x1],bl
  402305:	8b 45 08             	mov    eax,DWORD PTR [ebp+0x8]
  402308:	66 8b 4d d4          	mov    cx,WORD PTR [ebp-0x2c]
  40230c:	50                   	push   eax
  40230d:	53                   	push   ebx
  40230e:	89 75 a0             	mov    DWORD PTR [ebp-0x60],esi
  402311:	89 7d a4             	mov    DWORD PTR [ebp-0x5c],edi
  402314:	89 45 b2             	mov    DWORD PTR [ebp-0x4e],eax
  402317:	66 89 4d a8          	mov    WORD PTR [ebp-0x58],cx
  40231b:	e8 6d 2f 00 00       	call   0x40528d
  402320:	8d 45 98             	lea    eax,[ebp-0x68]
  402323:	50                   	push   eax
  402324:	ff 15 7c 81 40 00    	call   DWORD PTR ds:0x40817c
  40232a:	85 c0                	test   eax,eax
  40232c:	0f 84 86 06 00 00    	je     0x4029b8
  402332:	eb a3                	jmp    0x4022d7
  402334:	3d 0d f0 ad 0b       	cmp    eax,0xbadf00d
  402339:	74 1d                	je     0x402358
  40233b:	68 10 00 20 00       	push   0x200010
  402340:	6a e8                	push   0xffffffe8
  402342:	53                   	push   ebx
  402343:	e8 40 3e 00 00       	call   0x406188
  402348:	50                   	push   eax
  402349:	e8 34 35 00 00       	call   0x405882
  40234e:	b8 ff ff ff 7f       	mov    eax,0x7fffffff
  402353:	e9 6b 06 00 00       	jmp    0x4029c3
  402358:	ff 05 d4 f4 42 00    	inc    DWORD PTR ds:0x42f4d4
  40235e:	e9 55 06 00 00       	jmp    0x4029b8
  402363:	33 f6                	xor    esi,esi
  402365:	33 ff                	xor    edi,edi
  402367:	3b c3                	cmp    eax,ebx
  402369:	74 0b                	je     0x402376
  40236b:	53                   	push   ebx
  40236c:	e8 bb 07 00 00       	call   0x402b2c
  402371:	8b 55 d0             	mov    edx,DWORD PTR [ebp-0x30]
  402374:	8b f0                	mov    esi,eax
  402376:	3b d3                	cmp    edx,ebx
  402378:	74 09                	je     0x402383
  40237a:	6a 11                	push   0x11
  40237c:	e8 ab 07 00 00       	call   0x402b2c
  402381:	8b f8                	mov    edi,eax
  402383:	39 5d dc             	cmp    DWORD PTR [ebp-0x24],ebx
  402386:	74 09                	je     0x402391
  402388:	6a 22                	push   0x22
  40238a:	e8 9d 07 00 00       	call   0x402b2c
  40238f:	8b d8                	mov    ebx,eax
  402391:	6a cd                	push   0xffffffcd
  402393:	e8 94 07 00 00       	call   0x402b2c
  402398:	50                   	push   eax
  402399:	53                   	push   ebx
  40239a:	57                   	push   edi
  40239b:	56                   	push   esi
  40239c:	ff 15 40 81 40 00    	call   DWORD PTR ds:0x408140
  4023a2:	e9 07 f2 ff ff       	jmp    0x4015ae
  4023a7:	66 a1 10 a0 40 00    	mov    ax,ds:0x40a010
  4023ad:	6a 01                	push   0x1
  4023af:	66 89 45 0a          	mov    WORD PTR [ebp+0xa],ax
  4023b3:	e8 74 07 00 00       	call   0x402b2c
  4023b8:	6a 12                	push   0x12
  4023ba:	8b f8                	mov    edi,eax
  4023bc:	e8 6b 07 00 00       	call   0x402b2c
  4023c1:	6a dd                	push   0xffffffdd
  4023c3:	89 45 f0             	mov    DWORD PTR [ebp-0x10],eax
  4023c6:	e8 61 07 00 00       	call   0x402b2c
  4023cb:	50                   	push   eax
  4023cc:	68 ff 03 00 00       	push   0x3ff
  4023d1:	8d 45 0a             	lea    eax,[ebp+0xa]
  4023d4:	56                   	push   esi
  4023d5:	50                   	push   eax
  4023d6:	ff 75 f0             	push   DWORD PTR [ebp-0x10]
  4023d9:	57                   	push   edi
  4023da:	ff 15 3c 81 40 00    	call   DWORD PTR ds:0x40813c
  4023e0:	80 3e 0a             	cmp    BYTE PTR [esi],0xa
  4023e3:	e9 53 f3 ff ff       	jmp    0x40173b
  4023e8:	39 5d dc             	cmp    DWORD PTR [ebp-0x24],ebx
  4023eb:	8b f2                	mov    esi,edx
  4023ed:	75 2b                	jne    0x40241a
  4023ef:	6a 02                	push   0x2
  4023f1:	e8 76 07 00 00       	call   0x402b6c
  4023f6:	8b f0                	mov    esi,eax
  4023f8:	3b f3                	cmp    esi,ebx
  4023fa:	0f 84 83 03 00 00    	je     0x402783
  402400:	6a 33                	push   0x33
  402402:	e8 25 07 00 00       	call   0x402b2c
  402407:	50                   	push   eax
  402408:	56                   	push   esi
  402409:	ff 15 20 80 40 00    	call   DWORD PTR ds:0x408020
  40240f:	56                   	push   esi
  402410:	8b f8                	mov    edi,eax
  402412:	ff 15 24 80 40 00    	call   DWORD PTR ds:0x408024
  402418:	eb 16                	jmp    0x402430
  40241a:	6a 22                	push   0x22
  40241c:	e8 0b 07 00 00       	call   0x402b2c
  402421:	8b 4d dc             	mov    ecx,DWORD PTR [ebp-0x24]
  402424:	d1 f9                	sar    ecx,1
  402426:	51                   	push   ecx
  402427:	50                   	push   eax
  402428:	56                   	push   esi
  402429:	e8 bc 07 00 00       	call   0x402bea
  40242e:	8b f8                	mov    edi,eax
  402430:	3b fb                	cmp    edi,ebx
  402432:	0f 84 80 05 00 00    	je     0x4029b8
  402438:	e9 46 03 00 00       	jmp    0x402783
  40243d:	8b 75 dc             	mov    esi,DWORD PTR [ebp-0x24]
  402440:	8b f8                	mov    edi,eax
  402442:	8b 45 e0             	mov    eax,DWORD PTR [ebp-0x20]
  402445:	6a 02                	push   0x2
  402447:	89 45 f0             	mov    DWORD PTR [ebp-0x10],eax
  40244a:	e8 dd 06 00 00       	call   0x402b2c
  40244f:	6a 11                	push   0x11
  402451:	89 45 b4             	mov    DWORD PTR [ebp-0x4c],eax
  402454:	e8 d3 06 00 00       	call   0x402b2c
  402459:	6a 02                	push   0x2
  40245b:	50                   	push   eax
  40245c:	57                   	push   edi
  40245d:	c7 45 fc 01 00 00 00 	mov    DWORD PTR [ebp-0x4],0x1
  402464:	e8 53 07 00 00       	call   0x402bbc
  402469:	3b c3                	cmp    eax,ebx
  40246b:	89 45 08             	mov    DWORD PTR [ebp+0x8],eax
  40246e:	0f 84 44 05 00 00    	je     0x4029b8
  402474:	33 c0                	xor    eax,eax
  402476:	83 fe 01             	cmp    esi,0x1
  402479:	bf 30 ac 40 00       	mov    edi,0x40ac30
  40247e:	75 0e                	jne    0x40248e
  402480:	6a 23                	push   0x23
  402482:	e8 a5 06 00 00       	call   0x402b2c
  402487:	57                   	push   edi
  402488:	e8 ef 3c 00 00       	call   0x40617c
  40248d:	40                   	inc    eax
  40248e:	83 fe 04             	cmp    esi,0x4
  402491:	75 12                	jne    0x4024a5
  402493:	6a 03                	push   0x3
  402495:	e8 70 06 00 00       	call   0x402b0a
  40249a:	59                   	pop    ecx
  40249b:	a3 30 ac 40 00       	mov    ds:0x40ac30,eax
  4024a0:	56                   	push   esi
  4024a1:	89 55 bc             	mov    DWORD PTR [ebp-0x44],edx
  4024a4:	58                   	pop    eax
  4024a5:	83 fe 03             	cmp    esi,0x3
  4024a8:	75 0f                	jne    0x4024b9
  4024aa:	68 00 0c 00 00       	push   0xc00
  4024af:	57                   	push   edi
  4024b0:	53                   	push   ebx
  4024b1:	ff 75 d8             	push   DWORD PTR [ebp-0x28]
  4024b4:	e8 21 0c 00 00       	call   0x4030da
  4024b9:	50                   	push   eax
  4024ba:	57                   	push   edi
  4024bb:	ff 75 f0             	push   DWORD PTR [ebp-0x10]
  4024be:	53                   	push   ebx
  4024bf:	ff 75 b4             	push   DWORD PTR [ebp-0x4c]
  4024c2:	ff 75 08             	push   DWORD PTR [ebp+0x8]
  4024c5:	ff 15 28 80 40 00    	call   DWORD PTR ds:0x408028
  4024cb:	85 c0                	test   eax,eax
  4024cd:	75 03                	jne    0x4024d2
  4024cf:	89 5d fc             	mov    DWORD PTR [ebp-0x4],ebx
  4024d2:	ff 75 08             	push   DWORD PTR [ebp+0x8]
  4024d5:	e9 cf 00 00 00       	jmp    0x4025a9
  4024da:	68 19 00 02 00       	push   0x20019
  4024df:	e8 88 06 00 00       	call   0x402b6c
  4024e4:	6a 33                	push   0x33
  4024e6:	8b f8                	mov    edi,eax
  4024e8:	e8 3f 06 00 00       	call   0x402b2c
  4024ed:	3b fb                	cmp    edi,ebx
  4024ef:	88 1e                	mov    BYTE PTR [esi],bl
  4024f1:	0f 84 8c 02 00 00    	je     0x402783
  4024f7:	8d 4d f0             	lea    ecx,[ebp-0x10]
  4024fa:	c7 45 f0 00 04 00 00 	mov    DWORD PTR [ebp-0x10],0x400
  402501:	51                   	push   ecx
  402502:	8d 4d 08             	lea    ecx,[ebp+0x8]
  402505:	56                   	push   esi
  402506:	51                   	push   ecx
  402507:	53                   	push   ebx
  402508:	50                   	push   eax
  402509:	57                   	push   edi
  40250a:	ff 15 2c 80 40 00    	call   DWORD PTR ds:0x40802c
  402510:	33 c9                	xor    ecx,ecx
  402512:	41                   	inc    ecx
  402513:	85 c0                	test   eax,eax
  402515:	75 2e                	jne    0x402545
  402517:	83 7d 08 04          	cmp    DWORD PTR [ebp+0x8],0x4
  40251b:	74 13                	je     0x402530
  40251d:	39 4d 08             	cmp    DWORD PTR [ebp+0x8],ecx
  402520:	74 06                	je     0x402528
  402522:	83 7d 08 02          	cmp    DWORD PTR [ebp+0x8],0x2
  402526:	75 1d                	jne    0x402545
  402528:	8b 45 dc             	mov    eax,DWORD PTR [ebp-0x24]
  40252b:	89 45 fc             	mov    DWORD PTR [ebp-0x4],eax
  40252e:	eb 72                	jmp    0x4025a2
  402530:	ff 36                	push   DWORD PTR [esi]
  402532:	33 c0                	xor    eax,eax
  402534:	39 5d dc             	cmp    DWORD PTR [ebp-0x24],ebx
  402537:	56                   	push   esi
  402538:	0f 94 c0             	sete   al
  40253b:	89 45 fc             	mov    DWORD PTR [ebp-0x4],eax
  40253e:	e8 81 3b 00 00       	call   0x4060c4
  402543:	eb 63                	jmp    0x4025a8
  402545:	88 1e                	mov    BYTE PTR [esi],bl
  402547:	89 4d fc             	mov    DWORD PTR [ebp-0x4],ecx
  40254a:	eb 5c                	jmp    0x4025a8
  40254c:	68 19 00 02 00       	push   0x20019
  402551:	e8 16 06 00 00       	call   0x402b6c
  402556:	6a 03                	push   0x3
  402558:	8b f8                	mov    edi,eax
  40255a:	e8 ab 05 00 00       	call   0x402b0a
  40255f:	3b fb                	cmp    edi,ebx
  402561:	59                   	pop    ecx
  402562:	89 55 f0             	mov    DWORD PTR [ebp-0x10],edx
  402565:	88 1e                	mov    BYTE PTR [esi],bl
  402567:	0f 84 16 02 00 00    	je     0x402783
  40256d:	39 5d dc             	cmp    DWORD PTR [ebp-0x24],ebx
  402570:	b9 ff 03 00 00       	mov    ecx,0x3ff
  402575:	89 4d 08             	mov    DWORD PTR [ebp+0x8],ecx
  402578:	74 0c                	je     0x402586
  40257a:	51                   	push   ecx
  40257b:	56                   	push   esi
  40257c:	50                   	push   eax
  40257d:	57                   	push   edi
  40257e:	ff 15 30 80 40 00    	call   DWORD PTR ds:0x408030
  402584:	eb 1c                	jmp    0x4025a2
  402586:	53                   	push   ebx
  402587:	53                   	push   ebx
  402588:	53                   	push   ebx
  402589:	8d 4d 08             	lea    ecx,[ebp+0x8]
  40258c:	53                   	push   ebx
  40258d:	51                   	push   ecx
  40258e:	56                   	push   esi
  40258f:	50                   	push   eax
  402590:	57                   	push   edi
  402591:	ff 15 18 80 40 00    	call   DWORD PTR ds:0x408018
  402597:	85 c0                	test   eax,eax
  402599:	74 07                	je     0x4025a2
  40259b:	c7 45 fc 01 00 00 00 	mov    DWORD PTR [ebp-0x4],0x1
  4025a2:	88 9e ff 03 00 00    	mov    BYTE PTR [esi+0x3ff],bl
  4025a8:	57                   	push   edi
  4025a9:	ff 15 24 80 40 00    	call   DWORD PTR ds:0x408024
  4025af:	e9 04 04 00 00       	jmp    0x4029b8
  4025b4:	56                   	push   esi
  4025b5:	e8 23 3b 00 00       	call   0x4060dd
  4025ba:	3b c3                	cmp    eax,ebx
  4025bc:	0f 84 f6 03 00 00    	je     0x4029b8
  4025c2:	50                   	push   eax
  4025c3:	e9 c5 f9 ff ff       	jmp    0x401f8d
  4025c8:	6a ed                	push   0xffffffed
  4025ca:	e8 5d 05 00 00       	call   0x402b2c
  4025cf:	ff 75 d4             	push   DWORD PTR [ebp-0x2c]
  4025d2:	ff 75 d0             	push   DWORD PTR [ebp-0x30]
  4025d5:	50                   	push   eax
  4025d6:	e8 24 37 00 00       	call   0x405cff
  4025db:	83 f8 ff             	cmp    eax,0xffffffff
  4025de:	0f 84 9d 01 00 00    	je     0x402781
  4025e4:	50                   	push   eax
  4025e5:	e9 7f ef ff ff       	jmp    0x401569
  4025ea:	39 5d d4             	cmp    DWORD PTR [ebp-0x2c],ebx
  4025ed:	74 14                	je     0x402603
  4025ef:	33 ff                	xor    edi,edi
  4025f1:	47                   	inc    edi
  4025f2:	57                   	push   edi
  4025f3:	e8 12 05 00 00       	call   0x402b0a
  4025f8:	59                   	pop    ecx
  4025f9:	89 55 f0             	mov    DWORD PTR [ebp-0x10],edx
  4025fc:	a2 30 a8 40 00       	mov    ds:0x40a830,al
  402601:	eb 0f                	jmp    0x402612
  402603:	6a 11                	push   0x11
  402605:	e8 22 05 00 00       	call   0x402b2c
  40260a:	50                   	push   eax
  40260b:	e8 6c 3b 00 00       	call   0x40617c
  402610:	8b f8                	mov    edi,eax
  402612:	38 1e                	cmp    BYTE PTR [esi],bl
  402614:	0f 84 69 01 00 00    	je     0x402783
  40261a:	56                   	push   esi
  40261b:	e8 bd 3a 00 00       	call   0x4060dd
  402620:	57                   	push   edi
  402621:	68 30 a8 40 00       	push   0x40a830
  402626:	50                   	push   eax
  402627:	e8 7a 37 00 00       	call   0x405da6
  40262c:	e9 7d ef ff ff       	jmp    0x4015ae
  402631:	6a 02                	push   0x2
  402633:	89 5d f8             	mov    DWORD PTR [ebp-0x8],ebx
  402636:	e8 cf 04 00 00       	call   0x402b0a
  40263b:	83 f8 01             	cmp    eax,0x1
  40263e:	59                   	pop    ecx
  40263f:	89 55 f0             	mov    DWORD PTR [ebp-0x10],edx
  402642:	89 45 f4             	mov    DWORD PTR [ebp-0xc],eax
  402645:	0f 8c 6d 03 00 00    	jl     0x4029b8
  40264b:	b9 ff 03 00 00       	mov    ecx,0x3ff
  402650:	3b c1                	cmp    eax,ecx
  402652:	7e 03                	jle    0x402657
  402654:	89 4d f4             	mov    DWORD PTR [ebp-0xc],ecx
  402657:	38 1e                	cmp    BYTE PTR [esi],bl
  402659:	0f 84 82 00 00 00    	je     0x4026e1
  40265f:	56                   	push   esi
  402660:	88 5d 0b             	mov    BYTE PTR [ebp+0xb],bl
  402663:	e8 75 3a 00 00       	call   0x4060dd
  402668:	39 5d f4             	cmp    DWORD PTR [ebp-0xc],ebx
  40266b:	89 45 e4             	mov    DWORD PTR [ebp-0x1c],eax
  40266e:	7e 71                	jle    0x4026e1
  402670:	8b 75 f8             	mov    esi,DWORD PTR [ebp-0x8]
  402673:	8d 45 eb             	lea    eax,[ebp-0x15]
  402676:	6a 01                	push   0x1
  402678:	50                   	push   eax
  402679:	ff 75 e4             	push   DWORD PTR [ebp-0x1c]
  40267c:	e8 f6 36 00 00       	call   0x405d77
  402681:	85 c0                	test   eax,eax
  402683:	74 5f                	je     0x4026e4
  402685:	39 5d d8             	cmp    DWORD PTR [ebp-0x28],ebx
  402688:	75 21                	jne    0x4026ab
  40268a:	80 7d 0b 0d          	cmp    BYTE PTR [ebp+0xb],0xd
  40268e:	74 2b                	je     0x4026bb
  402690:	80 7d 0b 0a          	cmp    BYTE PTR [ebp+0xb],0xa
  402694:	74 25                	je     0x4026bb
  402696:	8a 45 eb             	mov    al,BYTE PTR [ebp-0x15]
  402699:	88 04 3e             	mov    BYTE PTR [esi+edi*1],al
  40269c:	46                   	inc    esi
  40269d:	3a c3                	cmp    al,bl
  40269f:	88 45 0b             	mov    BYTE PTR [ebp+0xb],al
  4026a2:	74 40                	je     0x4026e4
  4026a4:	3b 75 f4             	cmp    esi,DWORD PTR [ebp-0xc]
  4026a7:	7c ca                	jl     0x402673
  4026a9:	eb 39                	jmp    0x4026e4
  4026ab:	0f b6 45 eb          	movzx  eax,BYTE PTR [ebp-0x15]
  4026af:	50                   	push   eax
  4026b0:	57                   	push   edi
  4026b1:	e8 0e 3a 00 00       	call   0x4060c4
  4026b6:	e9 06 03 00 00       	jmp    0x4029c1
  4026bb:	8a 45 eb             	mov    al,BYTE PTR [ebp-0x15]
  4026be:	38 45 0b             	cmp    BYTE PTR [ebp+0xb],al
  4026c1:	74 0e                	je     0x4026d1
  4026c3:	3c 0d                	cmp    al,0xd
  4026c5:	74 04                	je     0x4026cb
  4026c7:	3c 0a                	cmp    al,0xa
  4026c9:	75 06                	jne    0x4026d1
  4026cb:	88 04 3e             	mov    BYTE PTR [esi+edi*1],al
  4026ce:	46                   	inc    esi
  4026cf:	eb 13                	jmp    0x4026e4
  4026d1:	6a 01                	push   0x1
  4026d3:	53                   	push   ebx
  4026d4:	6a ff                	push   0xffffffff
  4026d6:	ff 75 e4             	push   DWORD PTR [ebp-0x1c]
  4026d9:	ff 15 38 81 40 00    	call   DWORD PTR ds:0x408138
  4026df:	eb 03                	jmp    0x4026e4
  4026e1:	8b 75 f8             	mov    esi,DWORD PTR [ebp-0x8]
  4026e4:	88 1c 3e             	mov    BYTE PTR [esi+edi*1],bl
  4026e7:	3b f3                	cmp    esi,ebx
  4026e9:	e9 c2 ee ff ff       	jmp    0x4015b0
  4026ee:	38 1e                	cmp    BYTE PTR [esi],bl
  4026f0:	0f 84 c2 02 00 00    	je     0x4029b8
  4026f6:	6a 02                	push   0x2
  4026f8:	e8 0d 04 00 00       	call   0x402b0a
  4026fd:	59                   	pop    ecx
  4026fe:	89 55 f0             	mov    DWORD PTR [ebp-0x10],edx
  402701:	ff 75 d8             	push   DWORD PTR [ebp-0x28]
  402704:	53                   	push   ebx
  402705:	50                   	push   eax
  402706:	56                   	push   esi
  402707:	e8 d1 39 00 00       	call   0x4060dd
  40270c:	50                   	push   eax
  40270d:	ff 15 38 81 40 00    	call   DWORD PTR ds:0x408138
  402713:	39 5d d0             	cmp    DWORD PTR [ebp-0x30],ebx
  402716:	0f 8c 9c 02 00 00    	jl     0x4029b8
  40271c:	e9 3d 02 00 00       	jmp    0x40295e
  402721:	56                   	push   esi
  402722:	e8 b6 39 00 00       	call   0x4060dd
  402727:	3b c3                	cmp    eax,ebx
  402729:	0f 84 89 02 00 00    	je     0x4029b8
  40272f:	50                   	push   eax
  402730:	ff 15 34 81 40 00    	call   DWORD PTR ds:0x408134
  402736:	e9 7d 02 00 00       	jmp    0x4029b8
  40273b:	57                   	push   edi
  40273c:	e8 9c 39 00 00       	call   0x4060dd
  402741:	3b c3                	cmp    eax,ebx
  402743:	74 12                	je     0x402757
  402745:	8d 8d 38 fe ff ff    	lea    ecx,[ebp-0x1c8]
  40274b:	51                   	push   ecx
  40274c:	50                   	push   eax
  40274d:	ff 15 30 81 40 00    	call   DWORD PTR ds:0x408130
  402753:	85 c0                	test   eax,eax
  402755:	75 3f                	jne    0x402796
  402757:	c7 45 fc 01 00 00 00 	mov    DWORD PTR [ebp-0x4],0x1
  40275e:	88 1e                	mov    BYTE PTR [esi],bl
  402760:	e9 53 02 00 00       	jmp    0x4029b8
  402765:	6a 02                	push   0x2
  402767:	e8 c0 03 00 00       	call   0x402b2c
  40276c:	8d 8d 38 fe ff ff    	lea    ecx,[ebp-0x1c8]
  402772:	51                   	push   ecx
  402773:	50                   	push   eax
  402774:	ff 15 2c 81 40 00    	call   DWORD PTR ds:0x40812c
  40277a:	83 f8 ff             	cmp    eax,0xffffffff
  40277d:	75 10                	jne    0x40278f
  40277f:	88 1f                	mov    BYTE PTR [edi],bl
  402781:	88 1e                	mov    BYTE PTR [esi],bl
  402783:	c7 45 fc 01 00 00 00 	mov    DWORD PTR [ebp-0x4],0x1
  40278a:	e9 29 02 00 00       	jmp    0x4029b8
  40278f:	50                   	push   eax
  402790:	57                   	push   edi
  402791:	e8 2e 39 00 00       	call   0x4060c4
  402796:	8d 85 64 fe ff ff    	lea    eax,[ebp-0x19c]
  40279c:	50                   	push   eax
  40279d:	56                   	push   esi
  40279e:	e9 33 01 00 00       	jmp    0x4028d6
  4027a3:	6a f0                	push   0xfffffff0
  4027a5:	c7 45 f4 66 fd ff ff 	mov    DWORD PTR [ebp-0xc],0xfffffd66
  4027ac:	e8 7b 03 00 00       	call   0x402b2c
  4027b1:	8b f0                	mov    esi,eax
  4027b3:	56                   	push   esi
  4027b4:	89 75 b4             	mov    DWORD PTR [ebp-0x4c],esi
  4027b7:	e8 af 33 00 00       	call   0x405b6b
  4027bc:	85 c0                	test   eax,eax
  4027be:	75 07                	jne    0x4027c7
  4027c0:	6a ed                	push   0xffffffed
  4027c2:	e8 65 03 00 00       	call   0x402b2c
  4027c7:	56                   	push   esi
  4027c8:	e8 0d 35 00 00       	call   0x405cda
  4027cd:	6a 02                	push   0x2
  4027cf:	68 00 00 00 40       	push   0x40000000
  4027d4:	56                   	push   esi
  4027d5:	e8 25 35 00 00       	call   0x405cff
  4027da:	83 f8 ff             	cmp    eax,0xffffffff
  4027dd:	89 45 08             	mov    DWORD PTR [ebp+0x8],eax
  4027e0:	0f 84 97 00 00 00    	je     0x40287d
  4027e6:	a1 38 f4 42 00       	mov    eax,ds:0x42f438
  4027eb:	8b 35 58 81 40 00    	mov    esi,DWORD PTR ds:0x408158
  4027f1:	50                   	push   eax
  4027f2:	6a 40                	push   0x40
  4027f4:	89 45 e4             	mov    DWORD PTR [ebp-0x1c],eax
  4027f7:	ff d6                	call   esi
  4027f9:	8b f8                	mov    edi,eax
  4027fb:	3b fb                	cmp    edi,ebx
  4027fd:	74 75                	je     0x402874
  4027ff:	53                   	push   ebx
  402800:	e8 5c 0b 00 00       	call   0x403361
  402805:	ff 75 e4             	push   DWORD PTR [ebp-0x1c]
  402808:	57                   	push   edi
  402809:	e8 3d 0b 00 00       	call   0x40334b
  40280e:	ff 75 d4             	push   DWORD PTR [ebp-0x2c]
  402811:	6a 40                	push   0x40
  402813:	ff d6                	call   esi
  402815:	8b f0                	mov    esi,eax
  402817:	3b f3                	cmp    esi,ebx
  402819:	89 75 f0             	mov    DWORD PTR [ebp-0x10],esi
  40281c:	74 34                	je     0x402852
  40281e:	ff 75 d4             	push   DWORD PTR [ebp-0x2c]
  402821:	56                   	push   esi
  402822:	53                   	push   ebx
  402823:	ff 75 d0             	push   DWORD PTR [ebp-0x30]
  402826:	e8 af 08 00 00       	call   0x4030da
  40282b:	eb 18                	jmp    0x402845
  40282d:	8b 0e                	mov    ecx,DWORD PTR [esi]
  40282f:	8b 46 04             	mov    eax,DWORD PTR [esi+0x4]
  402832:	83 c6 08             	add    esi,0x8
  402835:	51                   	push   ecx
  402836:	03 c7                	add    eax,edi
  402838:	56                   	push   esi
  402839:	50                   	push   eax
  40283a:	89 4d b8             	mov    DWORD PTR [ebp-0x48],ecx
  40283d:	e8 78 34 00 00       	call   0x405cba
  402842:	03 75 b8             	add    esi,DWORD PTR [ebp-0x48]
  402845:	38 1e                	cmp    BYTE PTR [esi],bl
  402847:	75 e4                	jne    0x40282d
  402849:	ff 75 f0             	push   DWORD PTR [ebp-0x10]
  40284c:	ff 15 5c 81 40 00    	call   DWORD PTR ds:0x40815c
  402852:	ff 75 e4             	push   DWORD PTR [ebp-0x1c]
  402855:	57                   	push   edi
  402856:	ff 75 08             	push   DWORD PTR [ebp+0x8]
  402859:	e8 48 35 00 00       	call   0x405da6
  40285e:	57                   	push   edi
  40285f:	ff 15 5c 81 40 00    	call   DWORD PTR ds:0x40815c
  402865:	53                   	push   ebx
  402866:	53                   	push   ebx
  402867:	ff 75 08             	push   DWORD PTR [ebp+0x8]
  40286a:	6a ff                	push   0xffffffff
  40286c:	e8 69 08 00 00       	call   0x4030da
  402871:	89 45 f4             	mov    DWORD PTR [ebp-0xc],eax
  402874:	ff 75 08             	push   DWORD PTR [ebp+0x8]
  402877:	ff 15 14 81 40 00    	call   DWORD PTR ds:0x408114
  40287d:	39 5d f4             	cmp    DWORD PTR [ebp-0xc],ebx
  402880:	6a f3                	push   0xfffffff3
  402882:	5e                   	pop    esi
  402883:	7d 13                	jge    0x402898
  402885:	6a ef                	push   0xffffffef
  402887:	5e                   	pop    esi
  402888:	ff 75 b4             	push   DWORD PTR [ebp-0x4c]
  40288b:	ff 15 28 81 40 00    	call   DWORD PTR ds:0x408128
  402891:	c7 45 fc 01 00 00 00 	mov    DWORD PTR [ebp-0x4],0x1
  402898:	56                   	push   esi
  402899:	e9 06 fa ff ff       	jmp    0x4022a4
  40289e:	53                   	push   ebx
  40289f:	e8 66 02 00 00       	call   0x402b0a
  4028a4:	3b 05 6c f4 42 00    	cmp    eax,DWORD PTR ds:0x42f46c
  4028aa:	59                   	pop    ecx
  4028ab:	89 45 ec             	mov    DWORD PTR [ebp-0x14],eax
  4028ae:	89 55 f0             	mov    DWORD PTR [ebp-0x10],edx
  4028b1:	0f 83 cc fe ff ff    	jae    0x402783
  4028b7:	8b f0                	mov    esi,eax
  4028b9:	8b 45 d4             	mov    eax,DWORD PTR [ebp-0x2c]
  4028bc:	69 f6 18 04 00 00    	imul   esi,esi,0x418
  4028c2:	03 35 68 f4 42 00    	add    esi,DWORD PTR ds:0x42f468
  4028c8:	3b c3                	cmp    eax,ebx
  4028ca:	7c 17                	jl     0x4028e3
  4028cc:	8b 0c 86             	mov    ecx,DWORD PTR [esi+eax*4]
  4028cf:	75 0f                	jne    0x4028e0
  4028d1:	83 c6 18             	add    esi,0x18
  4028d4:	56                   	push   esi
  4028d5:	57                   	push   edi
  4028d6:	e8 8b 38 00 00       	call   0x406166
  4028db:	e9 d8 00 00 00       	jmp    0x4029b8
  4028e0:	51                   	push   ecx
  4028e1:	eb 7c                	jmp    0x40295f
  4028e3:	83 c9 ff             	or     ecx,0xffffffff
  4028e6:	2b c8                	sub    ecx,eax
  4028e8:	89 4d d4             	mov    DWORD PTR [ebp-0x2c],ecx
  4028eb:	74 10                	je     0x4028fd
  4028ed:	6a 01                	push   0x1
  4028ef:	e8 16 02 00 00       	call   0x402b0a
  4028f4:	59                   	pop    ecx
  4028f5:	89 55 b4             	mov    DWORD PTR [ebp-0x4c],edx
  4028f8:	89 45 d0             	mov    DWORD PTR [ebp-0x30],eax
  4028fb:	eb 10                	jmp    0x40290d
  4028fd:	ff 75 dc             	push   DWORD PTR [ebp-0x24]
  402900:	8d 46 18             	lea    eax,[esi+0x18]
  402903:	50                   	push   eax
  402904:	e8 7f 38 00 00       	call   0x406188
  402909:	80 4e 09 01          	or     BYTE PTR [esi+0x9],0x1
  40290d:	8b 45 d4             	mov    eax,DWORD PTR [ebp-0x2c]
  402910:	8b 4d d0             	mov    ecx,DWORD PTR [ebp-0x30]
  402913:	89 0c 86             	mov    DWORD PTR [esi+eax*4],ecx
  402916:	39 5d d8             	cmp    DWORD PTR [ebp-0x28],ebx
  402919:	0f 84 99 00 00 00    	je     0x4029b8
  40291f:	ff 75 ec             	push   DWORD PTR [ebp-0x14]
  402922:	e8 56 e8 ff ff       	call   0x40117d
  402927:	e9 8c 00 00 00       	jmp    0x4029b8
  40292c:	53                   	push   ebx
  40292d:	e8 d8 01 00 00       	call   0x402b0a
  402932:	83 f8 20             	cmp    eax,0x20
  402935:	59                   	pop    ecx
  402936:	89 55 f0             	mov    DWORD PTR [ebp-0x10],edx
  402939:	0f 83 44 fe ff ff    	jae    0x402783
  40293f:	39 5d d8             	cmp    DWORD PTR [ebp-0x28],ebx
  402942:	74 23                	je     0x402967
  402944:	39 5d d4             	cmp    DWORD PTR [ebp-0x2c],ebx
  402947:	74 0f                	je     0x402958
  402949:	50                   	push   eax
  40294a:	e8 4a e9 ff ff       	call   0x401299
  40294f:	53                   	push   ebx
  402950:	53                   	push   ebx
  402951:	e8 99 e8 ff ff       	call   0x4011ef
  402956:	eb 60                	jmp    0x4029b8
  402958:	53                   	push   ebx
  402959:	e8 84 e9 ff ff       	call   0x4012e2
  40295e:	50                   	push   eax
  40295f:	57                   	push   edi
  402960:	e8 5f 37 00 00       	call   0x4060c4
  402965:	eb 51                	jmp    0x4029b8
  402967:	39 5d d4             	cmp    DWORD PTR [ebp-0x2c],ebx
  40296a:	74 12                	je     0x40297e
  40296c:	8b 15 34 f4 42 00    	mov    edx,DWORD PTR ds:0x42f434
  402972:	8b 4d d0             	mov    ecx,DWORD PTR [ebp-0x30]
  402975:	89 8c 82 94 00 00 00 	mov    DWORD PTR [edx+eax*4+0x94],ecx
  40297c:	eb 3a                	jmp    0x4029b8
  40297e:	8b 0d 34 f4 42 00    	mov    ecx,DWORD PTR ds:0x42f434
  402984:	ff b4 81 94 00 00 00 	push   DWORD PTR [ecx+eax*4+0x94]
  40298b:	57                   	push   edi
  40298c:	e8 f7 37 00 00       	call   0x406188
  402991:	eb 25                	jmp    0x4029b8
  402993:	8b 0d 98 b8 42 00    	mov    ecx,DWORD PTR ds:0x42b898
  402999:	53                   	push   ebx
  40299a:	23 c8                	and    ecx,eax
  40299c:	51                   	push   ecx
  40299d:	6a 0b                	push   0xb
  40299f:	ff 75 f8             	push   DWORD PTR [ebp-0x8]
  4029a2:	ff 15 00 82 40 00    	call   DWORD PTR ds:0x408200
  4029a8:	39 5d cc             	cmp    DWORD PTR [ebp-0x34],ebx
  4029ab:	74 0b                	je     0x4029b8
  4029ad:	53                   	push   ebx
  4029ae:	53                   	push   ebx
  4029af:	ff 75 f8             	push   DWORD PTR [ebp-0x8]
  4029b2:	ff 15 fc 81 40 00    	call   DWORD PTR ds:0x4081fc
  4029b8:	8b 45 fc             	mov    eax,DWORD PTR [ebp-0x4]
  4029bb:	01 05 c8 f4 42 00    	add    DWORD PTR ds:0x42f4c8,eax
  4029c1:	33 c0                	xor    eax,eax
  4029c3:	5f                   	pop    edi
  4029c4:	5e                   	pop    esi
  4029c5:	5b                   	pop    ebx
  4029c6:	c9                   	leave  
  4029c7:	c2 04 00             	ret    0x4
  4029ca:	c3                   	ret    
  4029cb:	29 40 00             	sub    DWORD PTR [eax+0x0],eax
  4029ce:	90                   	nop
  4029cf:	14 40                	adc    al,0x40
  4029d1:	00 9c 14 40 00 b7 14 	add    BYTE PTR [esp+edx*1+0x14b70040],bl
  4029d8:	40                   	inc    eax
  4029d9:	00 ca                	add    dl,cl
  4029db:	14 40                	adc    al,0x40
  4029dd:	00 d6                	add    dh,dl
  4029df:	14 40                	adc    al,0x40
  4029e1:	00 f4                	add    ah,dh
  4029e3:	14 40                	adc    al,0x40
  4029e5:	00 6f 15             	add    BYTE PTR [edi+0x15],ch
  4029e8:	40                   	inc    eax
  4029e9:	00 9d 15 40 00 bb    	add    BYTE PTR [ebp-0x44ffbfeb],bl
  4029ef:	15 40 00 59 16       	adc    eax,0x16590040
  4029f4:	40                   	inc    eax
  4029f5:	00 02                	add    BYTE PTR [edx],al
  4029f7:	15 40 00 41 15       	adc    eax,0x15410040
  4029fc:	40                   	inc    eax
  4029fd:	00 62 15             	add    BYTE PTR [edx+0x15],ah
  402a00:	40                   	inc    eax
  402a01:	00 6a 16             	add    BYTE PTR [edx+0x16],ch
  402a04:	40                   	inc    eax
  402a05:	00 bb 16 40 00 1f    	add    BYTE PTR [ebx+0x1f004016],bh
  402a0b:	17                   	pop    ss
  402a0c:	40                   	inc    eax
  402a0d:	00 46 17             	add    BYTE PTR [esi+0x17],al
  402a10:	40                   	inc    eax
  402a11:	00 59 17             	add    BYTE PTR [ecx+0x17],bl
  402a14:	40                   	inc    eax
  402a15:	00 fd                	add    ch,bh
  402a17:	18 40 00             	sbb    BYTE PTR [eax+0x0],al
  402a1a:	00 19                	add    BYTE PTR [ecx],bl
  402a1c:	40                   	inc    eax
  402a1d:	00 32                	add    BYTE PTR [edx],dh
  402a1f:	19 40 00             	sbb    DWORD PTR [eax+0x0],eax
  402a22:	47                   	inc    edi
  402a23:	19 40 00             	sbb    DWORD PTR [eax+0x0],eax
  402a26:	59                   	pop    ecx
  402a27:	19 40 00             	sbb    DWORD PTR [eax+0x0],eax
  402a2a:	ed                   	in     eax,dx
  402a2b:	19 40 00             	sbb    DWORD PTR [eax+0x0],eax
  402a2e:	1e                   	push   ds
  402a2f:	1a 40 00             	sbb    al,BYTE PTR [eax+0x0]
  402a32:	5e                   	pop    esi
  402a33:	1a 40 00             	sbb    al,BYTE PTR [eax+0x0]
  402a36:	9e                   	sahf   
  402a37:	1a 40 00             	sbb    al,BYTE PTR [eax+0x0]
  402a3a:	3f                   	aas    
  402a3b:	1b 40 00             	sbb    eax,DWORD PTR [eax+0x0]
  402a3e:	63 1b                	arpl   WORD PTR [ebx],bx
  402a40:	40                   	inc    eax
  402a41:	00 0a                	add    BYTE PTR [edx],cl
  402a43:	1c 40                	sbb    al,0x40
  402a45:	00 0a                	add    BYTE PTR [edx],cl
  402a47:	1c 40                	sbb    al,0x40
  402a49:	00 da                	add    dl,bl
  402a4b:	1c 40                	sbb    al,0x40
  402a4d:	00 fb                	add    bl,bh
  402a4f:	1c 40                	sbb    al,0x40
  402a51:	00 20                	add    BYTE PTR [eax],ah
  402a53:	1d 40 00 41 1d       	sbb    eax,0x1d410040
  402a58:	40                   	inc    eax
  402a59:	00 ff                	add    bh,bh
  402a5b:	1d 40 00 8f 1e       	sbb    eax,0x1e8f0040
  402a60:	40                   	inc    eax
  402a61:	00 c3                	add    bl,al
  402a63:	1e                   	push   ds
  402a64:	40                   	inc    eax
  402a65:	00 48 1f             	add    BYTE PTR [eax+0x1f],cl
  402a68:	40                   	inc    eax
  402a69:	00 98 1f 40 00 c8    	add    BYTE PTR [eax-0x37ffbfe1],bl
  402a6f:	1f                   	pop    ds
  402a70:	40                   	inc    eax
  402a71:	00 69 20             	add    BYTE PTR [ecx+0x20],ch
  402a74:	40                   	inc    eax
  402a75:	00 38                	add    BYTE PTR [eax],bh
  402a77:	21 40 00             	and    DWORD PTR [eax+0x0],eax
  402a7a:	b2 22                	mov    dl,0x22
  402a7c:	40                   	inc    eax
  402a7d:	00 34 23             	add    BYTE PTR [ebx+eiz*1],dh
  402a80:	40                   	inc    eax
  402a81:	00 63 23             	add    BYTE PTR [ebx+0x23],ah
  402a84:	40                   	inc    eax
  402a85:	00 a7 23 40 00 e8    	add    BYTE PTR [edi-0x17ffbfdd],ah
  402a8b:	23 40 00             	and    eax,DWORD PTR [eax+0x0]
  402a8e:	3d 24 40 00 da       	cmp    eax,0xda004024
  402a93:	24 40                	and    al,0x40
  402a95:	00 4c 25 40          	add    BYTE PTR [ebp+eiz*1+0x40],cl
  402a99:	00 b4 25 40 00 c8 25 	add    BYTE PTR [ebp+eiz*1+0x25c80040],dh
  402aa0:	40                   	inc    eax
  402aa1:	00 ea                	add    dl,ch
  402aa3:	25 40 00 31 26       	and    eax,0x26310040
  402aa8:	40                   	inc    eax
  402aa9:	00 ee                	add    dh,ch
  402aab:	26 40                	es inc eax
  402aad:	00 21                	add    BYTE PTR [ecx],ah
  402aaf:	27                   	daa    
  402ab0:	40                   	inc    eax
  402ab1:	00 3b                	add    BYTE PTR [ebx],bh
  402ab3:	27                   	daa    
  402ab4:	40                   	inc    eax
  402ab5:	00 65 27             	add    BYTE PTR [ebp+0x27],ah
  402ab8:	40                   	inc    eax
  402ab9:	00 a3 27 40 00 9e    	add    BYTE PTR [ebx-0x61ffbfd9],ah
  402abf:	28 40 00             	sub    BYTE PTR [eax+0x0],al
  402ac2:	2c 29                	sub    al,0x29
  402ac4:	40                   	inc    eax
  402ac5:	00 b8 29 40 00 b8    	add    BYTE PTR [eax-0x47ffbfd7],bh
  402acb:	29 40 00             	sub    DWORD PTR [eax+0x0],eax
  402ace:	93                   	xchg   ebx,eax
  402acf:	29 40 00             	sub    DWORD PTR [eax+0x0],eax
  402ad2:	ca 1a 40             	retf   0x401a
  402ad5:	00 ce                	add    dh,cl
  402ad7:	1a 40 00             	sbb    al,BYTE PTR [eax+0x0]
  402ada:	d2 1a                	rcr    BYTE PTR [edx],cl
  402adc:	40                   	inc    eax
  402add:	00 d7                	add    bh,dl
  402adf:	1a 40 00             	sbb    al,BYTE PTR [eax+0x0]
  402ae2:	e4 1a                	in     al,0x1a
  402ae4:	40                   	inc    eax
  402ae5:	00 e8                	add    al,ch
  402ae7:	1a 40 00             	sbb    al,BYTE PTR [eax+0x0]
  402aea:	ec                   	in     al,dx
  402aeb:	1a 40 00             	sbb    al,BYTE PTR [eax+0x0]
  402aee:	f2 1a 40 00          	repnz sbb al,BYTE PTR [eax+0x0]
  402af2:	fb                   	sti    
  402af3:	1a 40 00             	sbb    al,BYTE PTR [eax+0x0]
  402af6:	05 1b 40 00 12       	add    eax,0x1200401b
  402afb:	1b 40 00             	sbb    eax,DWORD PTR [eax+0x0]
  402afe:	2a 1b                	sub    bl,BYTE PTR [ebx]
  402b00:	40                   	inc    eax
  402b01:	00 2e                	add    BYTE PTR [esi],ch
  402b03:	1b 40 00             	sbb    eax,DWORD PTR [eax+0x0]
  402b06:	32 1b                	xor    bl,BYTE PTR [ebx]
  402b08:	40                   	inc    eax
  402b09:	00 8b 44 24 04 8b    	add    BYTE PTR [ebx-0x74fbdbbc],cl
  402b0f:	0d 6c b8 40 00       	or     eax,0x40b86c
  402b14:	56                   	push   esi
  402b15:	ff 34 81             	push   DWORD PTR [ecx+eax*4]
  402b18:	6a 00                	push   0x0
  402b1a:	e8 69 36 00 00       	call   0x406188
  402b1f:	8b f0                	mov    esi,eax
  402b21:	56                   	push   esi
  402b22:	e8 b6 35 00 00       	call   0x4060dd
  402b27:	0f be 16             	movsx  edx,BYTE PTR [esi]
  402b2a:	5e                   	pop    esi
  402b2b:	c3                   	ret    
  402b2c:	56                   	push   esi
  402b2d:	8b 74 24 08          	mov    esi,DWORD PTR [esp+0x8]
  402b31:	85 f6                	test   esi,esi
  402b33:	57                   	push   edi
  402b34:	8b c6                	mov    eax,esi
  402b36:	7d 02                	jge    0x402b3a
  402b38:	f7 d8                	neg    eax
  402b3a:	8b 15 6c b8 40 00    	mov    edx,DWORD PTR ds:0x40b86c
  402b40:	8b c8                	mov    ecx,eax
  402b42:	83 e1 0f             	and    ecx,0xf
  402b45:	c1 f8 04             	sar    eax,0x4
  402b48:	ff 34 8a             	push   DWORD PTR [edx+ecx*4]
  402b4b:	c1 e0 0a             	shl    eax,0xa
  402b4e:	05 30 a4 40 00       	add    eax,0x40a430
  402b53:	50                   	push   eax
  402b54:	e8 2f 36 00 00       	call   0x406188
  402b59:	85 f6                	test   esi,esi
  402b5b:	8b f8                	mov    edi,eax
  402b5d:	7d 06                	jge    0x402b65
  402b5f:	57                   	push   edi
  402b60:	e8 6b 38 00 00       	call   0x4063d0
  402b65:	8b c7                	mov    eax,edi
  402b67:	5f                   	pop    edi
  402b68:	5e                   	pop    esi
  402b69:	c2 04 00             	ret    0x4
  402b6c:	55                   	push   ebp
  402b6d:	8b ec                	mov    ebp,esp
  402b6f:	8d 45 08             	lea    eax,[ebp+0x8]
  402b72:	50                   	push   eax
  402b73:	8b 45 08             	mov    eax,DWORD PTR [ebp+0x8]
  402b76:	0d 20 00 10 00       	or     eax,0x100020
  402b7b:	50                   	push   eax
  402b7c:	6a 22                	push   0x22
  402b7e:	e8 a9 ff ff ff       	call   0x402b2c
  402b83:	50                   	push   eax
  402b84:	a1 6c b8 40 00       	mov    eax,ds:0x40b86c
  402b89:	ff 70 04             	push   DWORD PTR [eax+0x4]
  402b8c:	e8 13 00 00 00       	call   0x402ba4
  402b91:	50                   	push   eax
  402b92:	e8 55 34 00 00       	call   0x405fec
  402b97:	f7 d8                	neg    eax
  402b99:	1b c0                	sbb    eax,eax
  402b9b:	f7 d0                	not    eax
  402b9d:	23 45 08             	and    eax,DWORD PTR [ebp+0x8]
  402ba0:	5d                   	pop    ebp
  402ba1:	c2 04 00             	ret    0x4
  402ba4:	8b 44 24 04          	mov    eax,DWORD PTR [esp+0x4]
  402ba8:	85 c0                	test   eax,eax
  402baa:	7c 0d                	jl     0x402bb9
  402bac:	8b 0d c4 f4 42 00    	mov    ecx,DWORD PTR ds:0x42f4c4
  402bb2:	8d 84 01 01 00 00 80 	lea    eax,[ecx+eax*1-0x7fffffff]
  402bb9:	c2 04 00             	ret    0x4
  402bbc:	55                   	push   ebp
  402bbd:	8b ec                	mov    ebp,esp
  402bbf:	8d 45 10             	lea    eax,[ebp+0x10]
  402bc2:	50                   	push   eax
  402bc3:	8b 45 10             	mov    eax,DWORD PTR [ebp+0x10]
  402bc6:	0d 20 00 10 00       	or     eax,0x100020
  402bcb:	50                   	push   eax
  402bcc:	ff 75 0c             	push   DWORD PTR [ebp+0xc]
  402bcf:	ff 75 08             	push   DWORD PTR [ebp+0x8]
  402bd2:	e8 cd ff ff ff       	call   0x402ba4
  402bd7:	50                   	push   eax
  402bd8:	e8 3d 34 00 00       	call   0x40601a
  402bdd:	f7 d8                	neg    eax
  402bdf:	1b c0                	sbb    eax,eax
  402be1:	f7 d0                	not    eax
  402be3:	23 45 10             	and    eax,DWORD PTR [ebp+0x10]
  402be6:	5d                   	pop    ebp
  402be7:	c2 0c 00             	ret    0xc
  402bea:	55                   	push   ebp
  402beb:	8b ec                	mov    ebp,esp
  402bed:	56                   	push   esi
  402bee:	8b 75 0c             	mov    esi,DWORD PTR [ebp+0xc]
  402bf1:	80 3e 00             	cmp    BYTE PTR [esi],0x0
  402bf4:	75 07                	jne    0x402bfd
  402bf6:	b8 eb 03 00 00       	mov    eax,0x3eb
  402bfb:	eb 2c                	jmp    0x402c29
  402bfd:	81 4d 10 20 00 10 00 	or     DWORD PTR [ebp+0x10],0x100020
  402c04:	8d 45 10             	lea    eax,[ebp+0x10]
  402c07:	50                   	push   eax
  402c08:	ff 75 08             	push   DWORD PTR [ebp+0x8]
  402c0b:	e8 94 ff ff ff       	call   0x402ba4
  402c10:	50                   	push   eax
  402c11:	e8 5b 33 00 00       	call   0x405f71
  402c16:	85 c0                	test   eax,eax
  402c18:	74 0c                	je     0x402c26
  402c1a:	ff 75 10             	push   DWORD PTR [ebp+0x10]
  402c1d:	56                   	push   esi
  402c1e:	50                   	push   eax
  402c1f:	e8 0a 00 00 00       	call   0x402c2e
  402c24:	eb 03                	jmp    0x402c29
  402c26:	6a 06                	push   0x6
  402c28:	58                   	pop    eax
  402c29:	5e                   	pop    esi
  402c2a:	5d                   	pop    ebp
  402c2b:	c2 0c 00             	ret    0xc
  402c2e:	55                   	push   ebp
  402c2f:	8b ec                	mov    ebp,esp
  402c31:	81 ec 0c 01 00 00    	sub    esp,0x10c
  402c37:	53                   	push   ebx
  402c38:	56                   	push   esi
  402c39:	8b 75 10             	mov    esi,DWORD PTR [ebp+0x10]
  402c3c:	57                   	push   edi
  402c3d:	8b fe                	mov    edi,esi
  402c3f:	8d 45 fc             	lea    eax,[ebp-0x4]
  402c42:	81 e6 00 03 00 00    	and    esi,0x300
  402c48:	50                   	push   eax
  402c49:	8b c6                	mov    eax,esi
  402c4b:	83 e7 01             	and    edi,0x1
  402c4e:	0c 08                	or     al,0x8
  402c50:	50                   	push   eax
  402c51:	ff 75 0c             	push   DWORD PTR [ebp+0xc]
  402c54:	ff 75 08             	push   DWORD PTR [ebp+0x8]
  402c57:	e8 90 33 00 00       	call   0x405fec
  402c5c:	85 c0                	test   eax,eax
  402c5e:	75 76                	jne    0x402cd6
  402c60:	8b 1d 30 80 40 00    	mov    ebx,DWORD PTR ds:0x408030
  402c66:	eb 1a                	jmp    0x402c82
  402c68:	85 ff                	test   edi,edi
  402c6a:	75 4e                	jne    0x402cba
  402c6c:	ff 75 10             	push   DWORD PTR [ebp+0x10]
  402c6f:	8d 85 f4 fe ff ff    	lea    eax,[ebp-0x10c]
  402c75:	50                   	push   eax
  402c76:	ff 75 fc             	push   DWORD PTR [ebp-0x4]
  402c79:	e8 b0 ff ff ff       	call   0x402c2e
  402c7e:	85 c0                	test   eax,eax
  402c80:	75 17                	jne    0x402c99
  402c82:	8d 85 f4 fe ff ff    	lea    eax,[ebp-0x10c]
  402c88:	68 05 01 00 00       	push   0x105
  402c8d:	50                   	push   eax
  402c8e:	6a 00                	push   0x0
  402c90:	ff 75 fc             	push   DWORD PTR [ebp-0x4]
  402c93:	ff d3                	call   ebx
  402c95:	85 c0                	test   eax,eax
  402c97:	74 cf                	je     0x402c68
  402c99:	ff 75 fc             	push   DWORD PTR [ebp-0x4]
  402c9c:	ff 15 24 80 40 00    	call   DWORD PTR ds:0x408024
  402ca2:	6a 03                	push   0x3
  402ca4:	e8 55 38 00 00       	call   0x4064fe
  402ca9:	85 c0                	test   eax,eax
  402cab:	74 1d                	je     0x402cca
  402cad:	6a 00                	push   0x0
  402caf:	56                   	push   esi
  402cb0:	ff 75 0c             	push   DWORD PTR [ebp+0xc]
  402cb3:	ff 75 08             	push   DWORD PTR [ebp+0x8]
  402cb6:	ff d0                	call   eax
  402cb8:	eb 1c                	jmp    0x402cd6
  402cba:	ff 75 fc             	push   DWORD PTR [ebp-0x4]
  402cbd:	ff 15 24 80 40 00    	call   DWORD PTR ds:0x408024
  402cc3:	b8 eb 03 00 00       	mov    eax,0x3eb
  402cc8:	eb 0c                	jmp    0x402cd6
  402cca:	ff 75 0c             	push   DWORD PTR [ebp+0xc]
  402ccd:	ff 75 08             	push   DWORD PTR [ebp+0x8]
  402cd0:	ff 15 1c 80 40 00    	call   DWORD PTR ds:0x40801c
  402cd6:	5f                   	pop    edi
  402cd7:	5e                   	pop    esi
  402cd8:	5b                   	pop    ebx
  402cd9:	c9                   	leave  
  402cda:	c2 0c 00             	ret    0xc
  402cdd:	55                   	push   ebp
  402cde:	8b ec                	mov    ebp,esp
  402ce0:	83 ec 40             	sub    esp,0x40
  402ce3:	81 7d 0c 10 01 00 00 	cmp    DWORD PTR [ebp+0xc],0x110
  402cea:	75 19                	jne    0x402d05
  402cec:	6a 00                	push   0x0
  402cee:	68 fa 00 00 00       	push   0xfa
  402cf3:	6a 01                	push   0x1
  402cf5:	ff 75 08             	push   DWORD PTR [ebp+0x8]
  402cf8:	ff 15 3c 82 40 00    	call   DWORD PTR ds:0x40823c
  402cfe:	c7 45 0c 13 01 00 00 	mov    DWORD PTR [ebp+0xc],0x113
  402d05:	81 7d 0c 13 01 00 00 	cmp    DWORD PTR [ebp+0xc],0x113
  402d0c:	75 45                	jne    0x402d53
  402d0e:	e8 46 00 00 00       	call   0x402d59
  402d13:	83 3d 34 f4 42 00 00 	cmp    DWORD PTR ds:0x42f434,0x0
  402d1a:	b9 3c a0 40 00       	mov    ecx,0x40a03c
  402d1f:	75 05                	jne    0x402d26
  402d21:	b9 20 a0 40 00       	mov    ecx,0x40a020
  402d26:	50                   	push   eax
  402d27:	8d 45 c0             	lea    eax,[ebp-0x40]
  402d2a:	51                   	push   ecx
  402d2b:	50                   	push   eax
  402d2c:	ff 15 74 82 40 00    	call   DWORD PTR ds:0x408274
  402d32:	83 c4 0c             	add    esp,0xc
  402d35:	8d 45 c0             	lea    eax,[ebp-0x40]
  402d38:	50                   	push   eax
  402d39:	ff 75 08             	push   DWORD PTR [ebp+0x8]
  402d3c:	ff 15 40 82 40 00    	call   DWORD PTR ds:0x408240
  402d42:	8d 45 c0             	lea    eax,[ebp-0x40]
  402d45:	50                   	push   eax
  402d46:	68 06 04 00 00       	push   0x406
  402d4b:	ff 75 08             	push   DWORD PTR [ebp+0x8]
  402d4e:	e8 0d 2b 00 00       	call   0x405860
  402d53:	33 c0                	xor    eax,eax
  402d55:	c9                   	leave  
  402d56:	c2 10 00             	ret    0x10
  402d59:	8b 0d 40 94 42 00    	mov    ecx,DWORD PTR ds:0x429440
  402d5f:	a1 50 94 42 00       	mov    eax,ds:0x429450
  402d64:	3b c8                	cmp    ecx,eax
  402d66:	72 02                	jb     0x402d6a
  402d68:	8b c8                	mov    ecx,eax
  402d6a:	50                   	push   eax
  402d6b:	6a 64                	push   0x64
  402d6d:	51                   	push   ecx
  402d6e:	ff 15 44 81 40 00    	call   DWORD PTR ds:0x408144
  402d74:	c3                   	ret    
  402d75:	55                   	push   ebp
  402d76:	8b ec                	mov    ebp,esp
  402d78:	83 ec 40             	sub    esp,0x40
  402d7b:	56                   	push   esi
  402d7c:	33 f6                	xor    esi,esi
  402d7e:	39 75 08             	cmp    DWORD PTR [ebp+0x8],esi
  402d81:	74 18                	je     0x402d9b
  402d83:	a1 4c 94 42 00       	mov    eax,ds:0x42944c
  402d88:	3b c6                	cmp    eax,esi
  402d8a:	74 07                	je     0x402d93
  402d8c:	50                   	push   eax
  402d8d:	ff 15 70 82 40 00    	call   DWORD PTR ds:0x408270
  402d93:	89 35 4c 94 42 00    	mov    DWORD PTR ds:0x42944c,esi
  402d99:	eb 76                	jmp    0x402e11
  402d9b:	39 35 4c 94 42 00    	cmp    DWORD PTR ds:0x42944c,esi
  402da1:	74 08                	je     0x402dab
  402da3:	56                   	push   esi
  402da4:	e8 91 37 00 00       	call   0x40653a
  402da9:	eb 66                	jmp    0x402e11
  402dab:	ff 15 90 80 40 00    	call   DWORD PTR ds:0x408090
  402db1:	3b 05 30 f4 42 00    	cmp    eax,DWORD PTR ds:0x42f430
  402db7:	76 58                	jbe    0x402e11
  402db9:	39 35 28 f4 42 00    	cmp    DWORD PTR ds:0x42f428,esi
  402dbf:	74 2d                	je     0x402dee
  402dc1:	f6 05 f4 f4 42 00 01 	test   BYTE PTR ds:0x42f4f4,0x1
  402dc8:	74 47                	je     0x402e11
  402dca:	e8 8a ff ff ff       	call   0x402d59
  402dcf:	50                   	push   eax
  402dd0:	8d 45 c0             	lea    eax,[ebp-0x40]
  402dd3:	68 54 a0 40 00       	push   0x40a054
  402dd8:	50                   	push   eax
  402dd9:	ff 15 74 82 40 00    	call   DWORD PTR ds:0x408274
  402ddf:	83 c4 0c             	add    esp,0xc
  402de2:	8d 45 c0             	lea    eax,[ebp-0x40]
  402de5:	50                   	push   eax
  402de6:	56                   	push   esi
  402de7:	e8 a1 24 00 00       	call   0x40528d
  402dec:	eb 23                	jmp    0x402e11
  402dee:	56                   	push   esi
  402def:	68 dd 2c 40 00       	push   0x402cdd
  402df4:	56                   	push   esi
  402df5:	6a 6f                	push   0x6f
  402df7:	ff 35 20 f4 42 00    	push   DWORD PTR ds:0x42f420
  402dfd:	ff 15 38 82 40 00    	call   DWORD PTR ds:0x408238
  402e03:	6a 05                	push   0x5
  402e05:	50                   	push   eax
  402e06:	a3 4c 94 42 00       	mov    ds:0x42944c,eax
  402e0b:	ff 15 48 82 40 00    	call   DWORD PTR ds:0x408248
  402e11:	5e                   	pop    esi
  402e12:	c9                   	leave  
  402e13:	c3                   	ret    
  402e14:	55                   	push   ebp
  402e15:	8b ec                	mov    ebp,esp
  402e17:	81 ec 28 01 00 00    	sub    esp,0x128
  402e1d:	53                   	push   ebx
  402e1e:	56                   	push   esi
  402e1f:	33 db                	xor    ebx,ebx
  402e21:	57                   	push   edi
  402e22:	89 5d fc             	mov    DWORD PTR [ebp-0x4],ebx
  402e25:	89 5d f8             	mov    DWORD PTR [ebp-0x8],ebx
  402e28:	ff 15 90 80 40 00    	call   DWORD PTR ds:0x408090
  402e2e:	be 00 6c 43 00       	mov    esi,0x436c00
  402e33:	68 00 04 00 00       	push   0x400
  402e38:	05 e8 03 00 00       	add    eax,0x3e8
  402e3d:	56                   	push   esi
  402e3e:	53                   	push   ebx
  402e3f:	a3 30 f4 42 00       	mov    ds:0x42f430,eax
  402e44:	ff 15 7c 80 40 00    	call   DWORD PTR ds:0x40807c
  402e4a:	6a 03                	push   0x3
  402e4c:	68 00 00 00 80       	push   0x80000000
  402e51:	56                   	push   esi
  402e52:	e8 a8 2e 00 00       	call   0x405cff
  402e57:	8b f8                	mov    edi,eax
  402e59:	83 ff ff             	cmp    edi,0xffffffff
  402e5c:	89 3d 18 a0 40 00    	mov    DWORD PTR ds:0x40a018,edi
  402e62:	75 0a                	jne    0x402e6e
  402e64:	b8 74 a1 40 00       	mov    eax,0x40a174
  402e69:	e9 65 02 00 00       	jmp    0x4030d3
  402e6e:	56                   	push   esi
  402e6f:	be 00 5c 43 00       	mov    esi,0x435c00
  402e74:	56                   	push   esi
  402e75:	e8 ec 32 00 00       	call   0x406166
  402e7a:	56                   	push   esi
  402e7b:	e8 c5 2c 00 00       	call   0x405b45
  402e80:	50                   	push   eax
  402e81:	68 00 70 43 00       	push   0x437000
  402e86:	e8 db 32 00 00       	call   0x406166
  402e8b:	53                   	push   ebx
  402e8c:	57                   	push   edi
  402e8d:	ff 15 78 80 40 00    	call   DWORD PTR ds:0x408078
  402e93:	3b c3                	cmp    eax,ebx
  402e95:	a3 50 94 42 00       	mov    ds:0x429450,eax
  402e9a:	8b f0                	mov    esi,eax
  402e9c:	0f 86 e8 00 00 00    	jbe    0x402f8a
  402ea2:	a1 38 f4 42 00       	mov    eax,ds:0x42f438
  402ea7:	8b fe                	mov    edi,esi
  402ea9:	f7 d8                	neg    eax
  402eab:	1b c0                	sbb    eax,eax
  402ead:	25 00 7e 00 00       	and    eax,0x7e00
  402eb2:	05 00 02 00 00       	add    eax,0x200
  402eb7:	3b f0                	cmp    esi,eax
  402eb9:	72 02                	jb     0x402ebd
  402ebb:	8b f8                	mov    edi,eax
  402ebd:	57                   	push   edi
  402ebe:	68 40 14 42 00       	push   0x421440
  402ec3:	e8 83 04 00 00       	call   0x40334b
  402ec8:	85 c0                	test   eax,eax
  402eca:	0f 84 79 01 00 00    	je     0x403049
  402ed0:	39 1d 38 f4 42 00    	cmp    DWORD PTR ds:0x42f438,ebx
  402ed6:	75 7e                	jne    0x402f56
  402ed8:	6a 1c                	push   0x1c
  402eda:	8d 45 dc             	lea    eax,[ebp-0x24]
  402edd:	68 40 14 42 00       	push   0x421440
  402ee2:	50                   	push   eax
  402ee3:	e8 d2 2d 00 00       	call   0x405cba
  402ee8:	8b 45 dc             	mov    eax,DWORD PTR [ebp-0x24]
  402eeb:	a9 f0 ff ff ff       	test   eax,0xfffffff0
  402ef0:	75 71                	jne    0x402f63
  402ef2:	81 7d e0 ef be ad de 	cmp    DWORD PTR [ebp-0x20],0xdeadbeef
  402ef9:	75 68                	jne    0x402f63
  402efb:	81 7d ec 49 6e 73 74 	cmp    DWORD PTR [ebp-0x14],0x74736e49
  402f02:	75 5f                	jne    0x402f63
  402f04:	81 7d e8 73 6f 66 74 	cmp    DWORD PTR [ebp-0x18],0x74666f73
  402f0b:	75 56                	jne    0x402f63
  402f0d:	81 7d e4 4e 75 6c 6c 	cmp    DWORD PTR [ebp-0x1c],0x6c6c754e
  402f14:	75 4d                	jne    0x402f63
  402f16:	09 45 08             	or     DWORD PTR [ebp+0x8],eax
  402f19:	8b 45 08             	mov    eax,DWORD PTR [ebp+0x8]
  402f1c:	8b 0d 40 94 42 00    	mov    ecx,DWORD PTR ds:0x429440
  402f22:	83 e0 02             	and    eax,0x2
  402f25:	09 05 e0 f4 42 00    	or     DWORD PTR ds:0x42f4e0,eax
  402f2b:	8b 45 f4             	mov    eax,DWORD PTR [ebp-0xc]
  402f2e:	3b c6                	cmp    eax,esi
  402f30:	89 0d 38 f4 42 00    	mov    DWORD PTR ds:0x42f438,ecx
  402f36:	0f 87 51 01 00 00    	ja     0x40308d
  402f3c:	f6 45 08 08          	test   BYTE PTR [ebp+0x8],0x8
  402f40:	75 06                	jne    0x402f48
  402f42:	f6 45 08 04          	test   BYTE PTR [ebp+0x8],0x4
  402f46:	75 42                	jne    0x402f8a
  402f48:	ff 45 f8             	inc    DWORD PTR [ebp-0x8]
  402f4b:	8d 70 fc             	lea    esi,[eax-0x4]
  402f4e:	3b fe                	cmp    edi,esi
  402f50:	76 11                	jbe    0x402f63
  402f52:	8b fe                	mov    edi,esi
  402f54:	eb 0d                	jmp    0x402f63
  402f56:	f6 45 08 02          	test   BYTE PTR [ebp+0x8],0x2
  402f5a:	75 07                	jne    0x402f63
  402f5c:	53                   	push   ebx
  402f5d:	e8 13 fe ff ff       	call   0x402d75
  402f62:	59                   	pop    ecx
  402f63:	3b 35 50 94 42 00    	cmp    esi,DWORD PTR ds:0x429450
  402f69:	73 11                	jae    0x402f7c
  402f6b:	57                   	push   edi
  402f6c:	68 40 14 42 00       	push   0x421440
  402f71:	ff 75 fc             	push   DWORD PTR [ebp-0x4]
  402f74:	e8 3c 36 00 00       	call   0x4065b5
  402f79:	89 45 fc             	mov    DWORD PTR [ebp-0x4],eax
  402f7c:	01 3d 40 94 42 00    	add    DWORD PTR ds:0x429440,edi
  402f82:	2b f7                	sub    esi,edi
  402f84:	0f 85 18 ff ff ff    	jne    0x402ea2
  402f8a:	6a 01                	push   0x1
  402f8c:	e8 e4 fd ff ff       	call   0x402d75
  402f91:	39 1d 38 f4 42 00    	cmp    DWORD PTR ds:0x42f438,ebx
  402f97:	59                   	pop    ecx
  402f98:	0f 84 ef 00 00 00    	je     0x40308d
  402f9e:	39 5d f8             	cmp    DWORD PTR [ebp-0x8],ebx
  402fa1:	74 2a                	je     0x402fcd
  402fa3:	ff 35 40 94 42 00    	push   DWORD PTR ds:0x429440
  402fa9:	e8 b3 03 00 00       	call   0x403361
  402fae:	8d 45 08             	lea    eax,[ebp+0x8]
  402fb1:	6a 04                	push   0x4
  402fb3:	50                   	push   eax
  402fb4:	e8 92 03 00 00       	call   0x40334b
  402fb9:	85 c0                	test   eax,eax
  402fbb:	0f 84 cc 00 00 00    	je     0x40308d
  402fc1:	8b 45 fc             	mov    eax,DWORD PTR [ebp-0x4]
  402fc4:	3b 45 08             	cmp    eax,DWORD PTR [ebp+0x8]
  402fc7:	0f 85 c0 00 00 00    	jne    0x40308d
  402fcd:	ff 75 f0             	push   DWORD PTR [ebp-0x10]
  402fd0:	6a 40                	push   0x40
  402fd2:	ff 15 58 81 40 00    	call   DWORD PTR ds:0x408158
  402fd8:	8b f0                	mov    esi,eax
  402fda:	6a 08                	push   0x8
  402fdc:	b8 30 d4 40 00       	mov    eax,0x40d430
  402fe1:	5f                   	pop    edi
  402fe2:	a3 38 54 41 00       	mov    ds:0x415438,eax
  402fe7:	a3 34 54 41 00       	mov    ds:0x415434,eax
  402fec:	8d 85 d8 fe ff ff    	lea    eax,[ebp-0x128]
  402ff2:	68 00 64 43 00       	push   0x436400
  402ff7:	50                   	push   eax
  402ff8:	89 3d 90 b8 40 00    	mov    DWORD PTR ds:0x40b890,edi
  402ffe:	89 1d ac bd 40 00    	mov    DWORD PTR ds:0x40bdac,ebx
  403004:	89 1d a8 bd 40 00    	mov    DWORD PTR ds:0x40bda8,ebx
  40300a:	c7 05 30 54 41 00 30 	mov    DWORD PTR ds:0x415430,0x415430
  403011:	54 41 00 
  403014:	e8 15 2d 00 00       	call   0x405d2e
  403019:	53                   	push   ebx
  40301a:	68 00 01 00 04       	push   0x4000100
  40301f:	6a 02                	push   0x2
  403021:	53                   	push   ebx
  403022:	53                   	push   ebx
  403023:	8d 85 d8 fe ff ff    	lea    eax,[ebp-0x128]
  403029:	68 00 00 00 c0       	push   0xc0000000
  40302e:	50                   	push   eax
  40302f:	ff 15 74 80 40 00    	call   DWORD PTR ds:0x408074
  403035:	83 f8 ff             	cmp    eax,0xffffffff
  403038:	a3 1c a0 40 00       	mov    ds:0x40a01c,eax
  40303d:	75 14                	jne    0x403053
  40303f:	b8 30 a1 40 00       	mov    eax,0x40a130
  403044:	e9 8a 00 00 00       	jmp    0x4030d3
  403049:	6a 01                	push   0x1
  40304b:	e8 25 fd ff ff       	call   0x402d75
  403050:	59                   	pop    ecx
  403051:	eb 3a                	jmp    0x40308d
  403053:	a1 38 f4 42 00       	mov    eax,ds:0x42f438
  403058:	83 c0 1c             	add    eax,0x1c
  40305b:	50                   	push   eax
  40305c:	e8 00 03 00 00       	call   0x403361
  403061:	8b 4d dc             	mov    ecx,DWORD PTR [ebp-0x24]
  403064:	ff 75 f0             	push   DWORD PTR [ebp-0x10]
  403067:	f7 d1                	not    ecx
  403069:	83 e1 04             	and    ecx,0x4
  40306c:	a3 54 94 42 00       	mov    ds:0x429454,eax
  403071:	2b c1                	sub    eax,ecx
  403073:	8b 4d f4             	mov    ecx,DWORD PTR [ebp-0xc]
  403076:	56                   	push   esi
  403077:	53                   	push   ebx
  403078:	8d 44 08 e4          	lea    eax,[eax+ecx*1-0x1c]
  40307c:	6a ff                	push   0xffffffff
  40307e:	a3 48 94 42 00       	mov    ds:0x429448,eax
  403083:	e8 52 00 00 00       	call   0x4030da
  403088:	3b 45 f0             	cmp    eax,DWORD PTR [ebp-0x10]
  40308b:	74 07                	je     0x403094
  40308d:	b8 60 a0 40 00       	mov    eax,0x40a060
  403092:	eb 3f                	jmp    0x4030d3
  403094:	f6 45 dc 01          	test   BYTE PTR [ebp-0x24],0x1
  403098:	89 35 34 f4 42 00    	mov    DWORD PTR ds:0x42f434,esi
  40309e:	8b 06                	mov    eax,DWORD PTR [esi]
  4030a0:	a3 3c f4 42 00       	mov    ds:0x42f43c,eax
  4030a5:	74 06                	je     0x4030ad
  4030a7:	ff 05 40 f4 42 00    	inc    DWORD PTR ds:0x42f440
  4030ad:	8d 46 44             	lea    eax,[esi+0x44]
  4030b0:	8b cf                	mov    ecx,edi
  4030b2:	2b c7                	sub    eax,edi
  4030b4:	01 30                	add    DWORD PTR [eax],esi
  4030b6:	49                   	dec    ecx
  4030b7:	75 f9                	jne    0x4030b2
  4030b9:	a1 44 94 42 00       	mov    eax,ds:0x429444
  4030be:	6a 40                	push   0x40
  4030c0:	89 46 3c             	mov    DWORD PTR [esi+0x3c],eax
  4030c3:	83 c6 04             	add    esi,0x4
  4030c6:	56                   	push   esi
  4030c7:	68 60 f4 42 00       	push   0x42f460
  4030cc:	e8 e9 2b 00 00       	call   0x405cba
  4030d1:	33 c0                	xor    eax,eax
  4030d3:	5f                   	pop    edi
  4030d4:	5e                   	pop    esi
  4030d5:	5b                   	pop    ebx
  4030d6:	c9                   	leave  
  4030d7:	c2 04 00             	ret    0x4
  4030da:	55                   	push   ebp
  4030db:	8b ec                	mov    ebp,esp
  4030dd:	51                   	push   ecx
  4030de:	8b 45 08             	mov    eax,DWORD PTR [ebp+0x8]
  4030e1:	53                   	push   ebx
  4030e2:	56                   	push   esi
  4030e3:	33 f6                	xor    esi,esi
  4030e5:	3b c6                	cmp    eax,esi
  4030e7:	7c 1c                	jl     0x403105
  4030e9:	8b 0d 98 f4 42 00    	mov    ecx,DWORD PTR ds:0x42f498
  4030ef:	56                   	push   esi
  4030f0:	03 c1                	add    eax,ecx
  4030f2:	56                   	push   esi
  4030f3:	50                   	push   eax
  4030f4:	a3 44 94 42 00       	mov    ds:0x429444,eax
  4030f9:	ff 35 1c a0 40 00    	push   DWORD PTR ds:0x40a01c
  4030ff:	ff 15 38 81 40 00    	call   DWORD PTR ds:0x408138
  403105:	6a 04                	push   0x4
  403107:	e8 d6 00 00 00       	call   0x4031e2
  40310c:	3b c6                	cmp    eax,esi
  40310e:	0f 8c c8 00 00 00    	jl     0x4031dc
  403114:	8d 45 08             	lea    eax,[ebp+0x8]
  403117:	6a 04                	push   0x4
  403119:	50                   	push   eax
  40311a:	ff 35 1c a0 40 00    	push   DWORD PTR ds:0x40a01c
  403120:	e8 52 2c 00 00       	call   0x405d77
  403125:	85 c0                	test   eax,eax
  403127:	0f 84 9f 00 00 00    	je     0x4031cc
  40312d:	ff 75 08             	push   DWORD PTR [ebp+0x8]
  403130:	83 05 44 94 42 00 04 	add    DWORD PTR ds:0x429444,0x4
  403137:	e8 a6 00 00 00       	call   0x4031e2
  40313c:	8b d8                	mov    ebx,eax
  40313e:	3b de                	cmp    ebx,esi
  403140:	0f 8c 94 00 00 00    	jl     0x4031da
  403146:	39 75 10             	cmp    DWORD PTR [ebp+0x10],esi
  403149:	75 5d                	jne    0x4031a8
  40314b:	39 75 08             	cmp    DWORD PTR [ebp+0x8],esi
  40314e:	0f 8e 86 00 00 00    	jle    0x4031da
  403154:	be 40 d4 41 00       	mov    esi,0x41d440
  403159:	81 7d 08 00 40 00 00 	cmp    DWORD PTR [ebp+0x8],0x4000
  403160:	8b 45 08             	mov    eax,DWORD PTR [ebp+0x8]
  403163:	7c 05                	jl     0x40316a
  403165:	b8 00 40 00 00       	mov    eax,0x4000
  40316a:	50                   	push   eax
  40316b:	56                   	push   esi
  40316c:	ff 35 1c a0 40 00    	push   DWORD PTR ds:0x40a01c
  403172:	89 45 fc             	mov    DWORD PTR [ebp-0x4],eax
  403175:	e8 fd 2b 00 00       	call   0x405d77
  40317a:	85 c0                	test   eax,eax
  40317c:	74 4e                	je     0x4031cc
  40317e:	ff 75 fc             	push   DWORD PTR [ebp-0x4]
  403181:	56                   	push   esi
  403182:	ff 75 0c             	push   DWORD PTR [ebp+0xc]
  403185:	e8 1c 2c 00 00       	call   0x405da6
  40318a:	85 c0                	test   eax,eax
  40318c:	74 16                	je     0x4031a4
  40318e:	8b 45 fc             	mov    eax,DWORD PTR [ebp-0x4]
  403191:	29 45 08             	sub    DWORD PTR [ebp+0x8],eax
  403194:	01 05 44 94 42 00    	add    DWORD PTR ds:0x429444,eax
  40319a:	03 d8                	add    ebx,eax
  40319c:	83 7d 08 00          	cmp    DWORD PTR [ebp+0x8],0x0
  4031a0:	7f b7                	jg     0x403159
  4031a2:	eb 36                	jmp    0x4031da
  4031a4:	6a fe                	push   0xfffffffe
  4031a6:	eb 26                	jmp    0x4031ce
  4031a8:	8b 45 08             	mov    eax,DWORD PTR [ebp+0x8]
  4031ab:	3b 45 14             	cmp    eax,DWORD PTR [ebp+0x14]
  4031ae:	7c 03                	jl     0x4031b3
  4031b0:	8b 45 14             	mov    eax,DWORD PTR [ebp+0x14]
  4031b3:	8d 4d fc             	lea    ecx,[ebp-0x4]
  4031b6:	56                   	push   esi
  4031b7:	51                   	push   ecx
  4031b8:	50                   	push   eax
  4031b9:	ff 75 10             	push   DWORD PTR [ebp+0x10]
  4031bc:	ff 35 1c a0 40 00    	push   DWORD PTR ds:0x40a01c
  4031c2:	ff 15 80 80 40 00    	call   DWORD PTR ds:0x408080
  4031c8:	85 c0                	test   eax,eax
  4031ca:	75 05                	jne    0x4031d1
  4031cc:	6a fd                	push   0xfffffffd
  4031ce:	58                   	pop    eax
  4031cf:	eb 0b                	jmp    0x4031dc
  4031d1:	8b 5d fc             	mov    ebx,DWORD PTR [ebp-0x4]
  4031d4:	01 1d 44 94 42 00    	add    DWORD PTR ds:0x429444,ebx
  4031da:	8b c3                	mov    eax,ebx
  4031dc:	5e                   	pop    esi
  4031dd:	5b                   	pop    ebx
  4031de:	c9                   	leave  
  4031df:	c2 10 00             	ret    0x10
  4031e2:	53                   	push   ebx
  4031e3:	55                   	push   ebp
  4031e4:	56                   	push   esi
  4031e5:	8b 35 44 94 42 00    	mov    esi,DWORD PTR ds:0x429444
  4031eb:	2b 35 78 b8 40 00    	sub    esi,DWORD PTR ds:0x40b878
  4031f1:	57                   	push   edi
  4031f2:	03 74 24 14          	add    esi,DWORD PTR [esp+0x14]
  4031f6:	ff 15 90 80 40 00    	call   DWORD PTR ds:0x408090
  4031fc:	33 db                	xor    ebx,ebx
  4031fe:	05 f4 01 00 00       	add    eax,0x1f4
  403203:	3b f3                	cmp    esi,ebx
  403205:	a3 30 f4 42 00       	mov    ds:0x42f430,eax
  40320a:	0f 8e 2a 01 00 00    	jle    0x40333a
  403210:	ff 35 54 94 42 00    	push   DWORD PTR ds:0x429454
  403216:	e8 46 01 00 00       	call   0x403361
  40321b:	53                   	push   ebx
  40321c:	53                   	push   ebx
  40321d:	ff 35 78 b8 40 00    	push   DWORD PTR ds:0x40b878
  403223:	ff 35 1c a0 40 00    	push   DWORD PTR ds:0x40a01c
  403229:	ff 15 38 81 40 00    	call   DWORD PTR ds:0x408138
  40322f:	89 35 50 94 42 00    	mov    DWORD PTR ds:0x429450,esi
  403235:	89 1d 40 94 42 00    	mov    DWORD PTR ds:0x429440,ebx
  40323b:	bd 40 54 41 00       	mov    ebp,0x415440
  403240:	a1 48 94 42 00       	mov    eax,ds:0x429448
  403245:	bf 00 40 00 00       	mov    edi,0x4000
  40324a:	2b 05 54 94 42 00    	sub    eax,DWORD PTR ds:0x429454
  403250:	3b c7                	cmp    eax,edi
  403252:	7f 02                	jg     0x403256
  403254:	8b f8                	mov    edi,eax
  403256:	be 40 d4 41 00       	mov    esi,0x41d440
  40325b:	57                   	push   edi
  40325c:	56                   	push   esi
  40325d:	e8 e9 00 00 00       	call   0x40334b
  403262:	85 c0                	test   eax,eax
  403264:	0f 84 c2 00 00 00    	je     0x40332c
  40326a:	01 3d 54 94 42 00    	add    DWORD PTR ds:0x429454,edi
  403270:	89 35 80 b8 40 00    	mov    DWORD PTR ds:0x40b880,esi
  403276:	89 3d 84 b8 40 00    	mov    DWORD PTR ds:0x40b884,edi
  40327c:	39 1d 34 f4 42 00    	cmp    DWORD PTR ds:0x42f434,ebx
  403282:	74 29                	je     0x4032ad
  403284:	39 1d e0 f4 42 00    	cmp    DWORD PTR ds:0x42f4e0,ebx
  40328a:	75 21                	jne    0x4032ad
  40328c:	a1 50 94 42 00       	mov    eax,ds:0x429450
  403291:	53                   	push   ebx
  403292:	2b 05 44 94 42 00    	sub    eax,DWORD PTR ds:0x429444
  403298:	2b 44 24 18          	sub    eax,DWORD PTR [esp+0x18]
  40329c:	03 05 78 b8 40 00    	add    eax,DWORD PTR ds:0x40b878
  4032a2:	a3 40 94 42 00       	mov    ds:0x429440,eax
  4032a7:	e8 c9 fa ff ff       	call   0x402d75
  4032ac:	59                   	pop    ecx
  4032ad:	68 80 b8 40 00       	push   0x40b880
  4032b2:	89 2d 88 b8 40 00    	mov    DWORD PTR ds:0x40b888,ebp
  4032b8:	c7 05 8c b8 40 00 00 	mov    DWORD PTR ds:0x40b88c,0x8000
  4032bf:	80 00 00 
  4032c2:	e8 5c 33 00 00       	call   0x406623
  4032c7:	85 c0                	test   eax,eax
  4032c9:	7c 6a                	jl     0x403335
  4032cb:	8b 35 88 b8 40 00    	mov    esi,DWORD PTR ds:0x40b888
  4032d1:	2b f5                	sub    esi,ebp
  4032d3:	74 21                	je     0x4032f6
  4032d5:	56                   	push   esi
  4032d6:	55                   	push   ebp
  4032d7:	ff 35 1c a0 40 00    	push   DWORD PTR ds:0x40a01c
  4032dd:	e8 c4 2a 00 00       	call   0x405da6
  4032e2:	85 c0                	test   eax,eax
  4032e4:	74 4b                	je     0x403331
  4032e6:	01 35 78 b8 40 00    	add    DWORD PTR ds:0x40b878,esi
  4032ec:	39 1d 84 b8 40 00    	cmp    DWORD PTR ds:0x40b884,ebx
  4032f2:	75 88                	jne    0x40327c
  4032f4:	eb 0c                	jmp    0x403302
  4032f6:	39 1d 84 b8 40 00    	cmp    DWORD PTR ds:0x40b884,ebx
  4032fc:	75 37                	jne    0x403335
  4032fe:	3b fb                	cmp    edi,ebx
  403300:	74 33                	je     0x403335
  403302:	a1 44 94 42 00       	mov    eax,ds:0x429444
  403307:	8b c8                	mov    ecx,eax
  403309:	2b 0d 78 b8 40 00    	sub    ecx,DWORD PTR ds:0x40b878
  40330f:	03 4c 24 14          	add    ecx,DWORD PTR [esp+0x14]
  403313:	85 c9                	test   ecx,ecx
  403315:	0f 8f 25 ff ff ff    	jg     0x403240
  40331b:	53                   	push   ebx
  40331c:	53                   	push   ebx
  40331d:	50                   	push   eax
  40331e:	ff 35 1c a0 40 00    	push   DWORD PTR ds:0x40a01c
  403324:	ff 15 38 81 40 00    	call   DWORD PTR ds:0x408138
  40332a:	eb 0e                	jmp    0x40333a
  40332c:	83 c8 ff             	or     eax,0xffffffff
  40332f:	eb 13                	jmp    0x403344
  403331:	6a fe                	push   0xfffffffe
  403333:	eb 02                	jmp    0x403337
  403335:	6a fd                	push   0xfffffffd
  403337:	58                   	pop    eax
  403338:	eb 0a                	jmp    0x403344
  40333a:	6a 01                	push   0x1
  40333c:	e8 34 fa ff ff       	call   0x402d75
  403341:	59                   	pop    ecx
  403342:	33 c0                	xor    eax,eax
  403344:	5f                   	pop    edi
  403345:	5e                   	pop    esi
  403346:	5d                   	pop    ebp
  403347:	5b                   	pop    ebx
  403348:	c2 04 00             	ret    0x4
  40334b:	ff 74 24 08          	push   DWORD PTR [esp+0x8]
  40334f:	ff 74 24 08          	push   DWORD PTR [esp+0x8]
  403353:	ff 35 18 a0 40 00    	push   DWORD PTR ds:0x40a018
  403359:	e8 19 2a 00 00       	call   0x405d77
  40335e:	c2 08 00             	ret    0x8
  403361:	6a 00                	push   0x0
  403363:	6a 00                	push   0x0
  403365:	ff 74 24 0c          	push   DWORD PTR [esp+0xc]
  403369:	ff 35 18 a0 40 00    	push   DWORD PTR ds:0x40a018
  40336f:	ff 15 38 81 40 00    	call   DWORD PTR ds:0x408138
  403375:	c2 04 00             	ret    0x4
  403378:	56                   	push   esi
  403379:	be 00 64 43 00       	mov    esi,0x436400
  40337e:	56                   	push   esi
  40337f:	e8 4c 30 00 00       	call   0x4063d0
  403384:	56                   	push   esi
  403385:	e8 e1 27 00 00       	call   0x405b6b
  40338a:	85 c0                	test   eax,eax
  40338c:	75 02                	jne    0x403390
  40338e:	5e                   	pop    esi
  40338f:	c3                   	ret    
  403390:	56                   	push   esi
  403391:	e8 68 27 00 00       	call   0x405afe
  403396:	56                   	push   esi
  403397:	e8 34 24 00 00       	call   0x4057d0
  40339c:	56                   	push   esi
  40339d:	68 00 60 43 00       	push   0x436000
  4033a2:	e8 87 29 00 00       	call   0x405d2e
  4033a7:	5e                   	pop    esi
  4033a8:	c3                   	ret    
  4033a9:	81 ec 84 01 00 00    	sub    esp,0x184
  4033af:	53                   	push   ebx
  4033b0:	56                   	push   esi
  4033b1:	57                   	push   edi
  4033b2:	33 db                	xor    ebx,ebx
  4033b4:	68 01 80 00 00       	push   0x8001
  4033b9:	89 5c 24 18          	mov    DWORD PTR [esp+0x18],ebx
  4033bd:	c7 44 24 10 30 a1 40 	mov    DWORD PTR [esp+0x10],0x40a130
  4033c4:	00 
  4033c5:	89 5c 24 20          	mov    DWORD PTR [esp+0x20],ebx
  4033c9:	c6 44 24 14 20       	mov    BYTE PTR [esp+0x14],0x20
  4033ce:	ff 15 a8 80 40 00    	call   DWORD PTR ds:0x4080a8
  4033d4:	ff 15 a4 80 40 00    	call   DWORD PTR ds:0x4080a4
  4033da:	25 ff ff ff bf       	and    eax,0xbfffffff
  4033df:	66 3d 06 00          	cmp    ax,0x6
  4033e3:	a3 2c f4 42 00       	mov    ds:0x42f42c,eax
  4033e8:	74 11                	je     0x4033fb
  4033ea:	53                   	push   ebx
  4033eb:	e8 0e 31 00 00       	call   0x4064fe
  4033f0:	3b c3                	cmp    eax,ebx
  4033f2:	74 07                	je     0x4033fb
  4033f4:	68 00 0c 00 00       	push   0xc00
  4033f9:	ff d0                	call   eax
  4033fb:	be 98 82 40 00       	mov    esi,0x408298
  403400:	56                   	push   esi
  403401:	e8 8a 30 00 00       	call   0x406490
  403406:	56                   	push   esi
  403407:	ff 15 a0 80 40 00    	call   DWORD PTR ds:0x4080a0
  40340d:	8d 74 06 01          	lea    esi,[esi+eax*1+0x1]
  403411:	38 1e                	cmp    BYTE PTR [esi],bl
  403413:	75 eb                	jne    0x403400
  403415:	6a 0a                	push   0xa
  403417:	e8 e2 30 00 00       	call   0x4064fe
  40341c:	6a 08                	push   0x8
  40341e:	e8 db 30 00 00       	call   0x4064fe
  403423:	6a 06                	push   0x6
  403425:	a3 24 f4 42 00       	mov    ds:0x42f424,eax
  40342a:	e8 cf 30 00 00       	call   0x4064fe
  40342f:	3b c3                	cmp    eax,ebx
  403431:	74 0f                	je     0x403442
  403433:	6a 1e                	push   0x1e
  403435:	ff d0                	call   eax
  403437:	85 c0                	test   eax,eax
  403439:	74 07                	je     0x403442
  40343b:	80 0d 2f f4 42 00 40 	or     BYTE PTR ds:0x42f42f,0x40
  403442:	55                   	push   ebp
  403443:	ff 15 40 80 40 00    	call   DWORD PTR ds:0x408040
  403449:	53                   	push   ebx
  40344a:	ff 15 84 82 40 00    	call   DWORD PTR ds:0x408284
  403450:	a3 f8 f4 42 00       	mov    ds:0x42f4f8,eax
  403455:	53                   	push   ebx
  403456:	8d 44 24 38          	lea    eax,[esp+0x38]
  40345a:	68 60 01 00 00       	push   0x160
  40345f:	50                   	push   eax
  403460:	53                   	push   ebx
  403461:	68 58 98 42 00       	push   0x429858
  403466:	ff 15 78 81 40 00    	call   DWORD PTR ds:0x408178
  40346c:	68 ec a1 40 00       	push   0x40a1ec
  403471:	68 20 ec 42 00       	push   0x42ec20
  403476:	e8 eb 2c 00 00       	call   0x406166
  40347b:	ff 15 9c 80 40 00    	call   DWORD PTR ds:0x40809c
  403481:	bd 00 50 43 00       	mov    ebp,0x435000
  403486:	50                   	push   eax
  403487:	55                   	push   ebp
  403488:	e8 d9 2c 00 00       	call   0x406166
  40348d:	80 3d 00 50 43 00 22 	cmp    BYTE PTR ds:0x435000,0x22
  403494:	c7 05 20 f4 42 00 00 	mov    DWORD PTR ds:0x42f420,0x400000
  40349b:	00 40 00 
  40349e:	8b c5                	mov    eax,ebp
  4034a0:	75 0a                	jne    0x4034ac
  4034a2:	c6 44 24 14 22       	mov    BYTE PTR [esp+0x14],0x22
  4034a7:	b8 01 50 43 00       	mov    eax,0x435001
  4034ac:	ff 74 24 14          	push   DWORD PTR [esp+0x14]
  4034b0:	50                   	push   eax
  4034b1:	e8 73 26 00 00       	call   0x405b29
  4034b6:	50                   	push   eax
  4034b7:	ff 15 2c 82 40 00    	call   DWORD PTR ds:0x40822c
  4034bd:	89 44 24 1c          	mov    DWORD PTR [esp+0x1c],eax
  4034c1:	e9 c0 00 00 00       	jmp    0x403586
  4034c6:	80 f9 20             	cmp    cl,0x20
  4034c9:	75 06                	jne    0x4034d1
  4034cb:	40                   	inc    eax
  4034cc:	80 38 20             	cmp    BYTE PTR [eax],0x20
  4034cf:	74 fa                	je     0x4034cb
  4034d1:	80 38 22             	cmp    BYTE PTR [eax],0x22
  4034d4:	c6 44 24 14 20       	mov    BYTE PTR [esp+0x14],0x20
  4034d9:	75 06                	jne    0x4034e1
  4034db:	40                   	inc    eax
  4034dc:	c6 44 24 14 22       	mov    BYTE PTR [esp+0x14],0x22
  4034e1:	80 38 2f             	cmp    BYTE PTR [eax],0x2f
  4034e4:	0f 85 8c 00 00 00    	jne    0x403576
  4034ea:	40                   	inc    eax
  4034eb:	80 38 53             	cmp    BYTE PTR [eax],0x53
  4034ee:	75 16                	jne    0x403506
  4034f0:	8a 48 01             	mov    cl,BYTE PTR [eax+0x1]
  4034f3:	80 f9 20             	cmp    cl,0x20
  4034f6:	74 04                	je     0x4034fc
  4034f8:	3a cb                	cmp    cl,bl
  4034fa:	75 0a                	jne    0x403506
  4034fc:	c7 05 e0 f4 42 00 01 	mov    DWORD PTR ds:0x42f4e0,0x1
  403503:	00 00 00 
  403506:	0f be 0d e7 a1 40 00 	movsx  ecx,BYTE PTR ds:0x40a1e7
  40350d:	0f be 15 e6 a1 40 00 	movsx  edx,BYTE PTR ds:0x40a1e6
  403514:	c1 e1 08             	shl    ecx,0x8
  403517:	0b ca                	or     ecx,edx
  403519:	0f be 15 e5 a1 40 00 	movsx  edx,BYTE PTR ds:0x40a1e5
  403520:	c1 e1 08             	shl    ecx,0x8
  403523:	0b ca                	or     ecx,edx
  403525:	0f be 15 e4 a1 40 00 	movsx  edx,BYTE PTR ds:0x40a1e4
  40352c:	c1 e1 08             	shl    ecx,0x8
  40352f:	0b ca                	or     ecx,edx
  403531:	39 08                	cmp    DWORD PTR [eax],ecx
  403533:	75 11                	jne    0x403546
  403535:	8a 48 04             	mov    cl,BYTE PTR [eax+0x4]
  403538:	80 f9 20             	cmp    cl,0x20
  40353b:	74 04                	je     0x403541
  40353d:	3a cb                	cmp    cl,bl
  40353f:	75 05                	jne    0x403546
  403541:	83 4c 24 20 04       	or     DWORD PTR [esp+0x20],0x4
  403546:	0f be 0d df a1 40 00 	movsx  ecx,BYTE PTR ds:0x40a1df
  40354d:	0f be 15 de a1 40 00 	movsx  edx,BYTE PTR ds:0x40a1de
  403554:	c1 e1 08             	shl    ecx,0x8
  403557:	0b ca                	or     ecx,edx
  403559:	0f be 15 dd a1 40 00 	movsx  edx,BYTE PTR ds:0x40a1dd
  403560:	c1 e1 08             	shl    ecx,0x8
  403563:	0b ca                	or     ecx,edx
  403565:	0f be 15 dc a1 40 00 	movsx  edx,BYTE PTR ds:0x40a1dc
  40356c:	c1 e1 08             	shl    ecx,0x8
  40356f:	0b ca                	or     ecx,edx
  403571:	39 48 fe             	cmp    DWORD PTR [eax-0x2],ecx
  403574:	74 1c                	je     0x403592
  403576:	ff 74 24 14          	push   DWORD PTR [esp+0x14]
  40357a:	50                   	push   eax
  40357b:	e8 a9 25 00 00       	call   0x405b29
  403580:	80 38 22             	cmp    BYTE PTR [eax],0x22
  403583:	75 01                	jne    0x403586
  403585:	40                   	inc    eax
  403586:	8a 08                	mov    cl,BYTE PTR [eax]
  403588:	3a cb                	cmp    cl,bl
  40358a:	0f 85 36 ff ff ff    	jne    0x4034c6
  403590:	eb 11                	jmp    0x4035a3
  403592:	88 58 fe             	mov    BYTE PTR [eax-0x2],bl
  403595:	83 c0 02             	add    eax,0x2
  403598:	50                   	push   eax
  403599:	68 00 54 43 00       	push   0x435400
  40359e:	e8 c3 2b 00 00       	call   0x406166
  4035a3:	8b 3d 98 80 40 00    	mov    edi,DWORD PTR ds:0x408098
  4035a9:	be 00 64 43 00       	mov    esi,0x436400
  4035ae:	56                   	push   esi
  4035af:	68 00 04 00 00       	push   0x400
  4035b4:	ff d7                	call   edi
  4035b6:	e8 bd fd ff ff       	call   0x403378
  4035bb:	85 c0                	test   eax,eax
  4035bd:	75 56                	jne    0x403615
  4035bf:	68 fb 03 00 00       	push   0x3fb
  4035c4:	56                   	push   esi
  4035c5:	ff 15 94 80 40 00    	call   DWORD PTR ds:0x408094
  4035cb:	68 d4 a1 40 00       	push   0x40a1d4
  4035d0:	56                   	push   esi
  4035d1:	e8 ac 2b 00 00       	call   0x406182
  4035d6:	e8 9d fd ff ff       	call   0x403378
  4035db:	85 c0                	test   eax,eax
  4035dd:	75 36                	jne    0x403615
  4035df:	56                   	push   esi
  4035e0:	68 fc 03 00 00       	push   0x3fc
  4035e5:	ff d7                	call   edi
  4035e7:	68 d0 a1 40 00       	push   0x40a1d0
  4035ec:	56                   	push   esi
  4035ed:	e8 90 2b 00 00       	call   0x406182
  4035f2:	8b 3d 70 80 40 00    	mov    edi,DWORD PTR ds:0x408070
  4035f8:	56                   	push   esi
  4035f9:	68 c8 a1 40 00       	push   0x40a1c8
  4035fe:	ff d7                	call   edi
  403600:	56                   	push   esi
  403601:	68 c4 a1 40 00       	push   0x40a1c4
  403606:	ff d7                	call   edi
  403608:	e8 6b fd ff ff       	call   0x403378
  40360d:	85 c0                	test   eax,eax
  40360f:	0f 84 ae 00 00 00    	je     0x4036c3
  403615:	68 00 60 43 00       	push   0x436000
  40361a:	ff 15 28 81 40 00    	call   DWORD PTR ds:0x408128
  403620:	ff 74 24 20          	push   DWORD PTR [esp+0x20]
  403624:	e8 eb f7 ff ff       	call   0x402e14
  403629:	3b c3                	cmp    eax,ebx
  40362b:	89 44 24 10          	mov    DWORD PTR [esp+0x10],eax
  40362f:	0f 85 8e 00 00 00    	jne    0x4036c3
  403635:	39 1d 40 f4 42 00    	cmp    DWORD PTR ds:0x42f440,ebx
  40363b:	74 76                	je     0x4036b3
  40363d:	53                   	push   ebx
  40363e:	55                   	push   ebp
  40363f:	e8 e5 24 00 00       	call   0x405b29
  403644:	8b f8                	mov    edi,eax
  403646:	3b fd                	cmp    edi,ebp
  403648:	72 34                	jb     0x40367e
  40364a:	0f be 05 bf a1 40 00 	movsx  eax,BYTE PTR ds:0x40a1bf
  403651:	0f be 0d be a1 40 00 	movsx  ecx,BYTE PTR ds:0x40a1be
  403658:	c1 e0 08             	shl    eax,0x8
  40365b:	0b c1                	or     eax,ecx
  40365d:	0f be 0d bd a1 40 00 	movsx  ecx,BYTE PTR ds:0x40a1bd
  403664:	c1 e0 08             	shl    eax,0x8
  403667:	0b c1                	or     eax,ecx
  403669:	0f be 0d bc a1 40 00 	movsx  ecx,BYTE PTR ds:0x40a1bc
  403670:	c1 e0 08             	shl    eax,0x8
  403673:	0b c1                	or     eax,ecx
  403675:	39 07                	cmp    DWORD PTR [edi],eax
  403677:	74 05                	je     0x40367e
  403679:	4f                   	dec    edi
  40367a:	3b fd                	cmp    edi,ebp
  40367c:	73 f7                	jae    0x403675
  40367e:	3b fd                	cmp    edi,ebp
  403680:	c7 44 24 10 74 a1 40 	mov    DWORD PTR [esp+0x10],0x40a174
  403687:	00 
  403688:	72 65                	jb     0x4036ef
  40368a:	88 1f                	mov    BYTE PTR [edi],bl
  40368c:	83 c7 04             	add    edi,0x4
  40368f:	57                   	push   edi
  403690:	e8 57 25 00 00       	call   0x405bec
  403695:	85 c0                	test   eax,eax
  403697:	74 2a                	je     0x4036c3
  403699:	57                   	push   edi
  40369a:	68 00 54 43 00       	push   0x435400
  40369f:	e8 c2 2a 00 00       	call   0x406166
  4036a4:	57                   	push   edi
  4036a5:	68 00 58 43 00       	push   0x435800
  4036aa:	e8 b7 2a 00 00       	call   0x406166
  4036af:	89 5c 24 10          	mov    DWORD PTR [esp+0x10],ebx
  4036b3:	83 0d ec f4 42 00 ff 	or     DWORD PTR ds:0x42f4ec,0xffffffff
  4036ba:	e8 c4 02 00 00       	call   0x403983
  4036bf:	89 44 24 18          	mov    DWORD PTR [esp+0x18],eax
  4036c3:	e8 c9 01 00 00       	call   0x403891
  4036c8:	ff 15 80 82 40 00    	call   DWORD PTR ds:0x408280
  4036ce:	39 5c 24 10          	cmp    DWORD PTR [esp+0x10],ebx
  4036d2:	5d                   	pop    ebp
  4036d3:	0f 84 1e 01 00 00    	je     0x4037f7
  4036d9:	68 10 00 20 00       	push   0x200010
  4036de:	ff 74 24 10          	push   DWORD PTR [esp+0x10]
  4036e2:	e8 9b 21 00 00       	call   0x405882
  4036e7:	6a 02                	push   0x2
  4036e9:	ff 15 b0 80 40 00    	call   DWORD PTR ds:0x4080b0
  4036ef:	e8 f9 20 00 00       	call   0x4057ed
  4036f4:	68 b4 a1 40 00       	push   0x40a1b4
  4036f9:	56                   	push   esi
  4036fa:	8b f8                	mov    edi,eax
  4036fc:	e8 81 2a 00 00       	call   0x406182
  403701:	3b fb                	cmp    edi,ebx
  403703:	74 0b                	je     0x403710
  403705:	68 b0 a1 40 00       	push   0x40a1b0
  40370a:	56                   	push   esi
  40370b:	e8 72 2a 00 00       	call   0x406182
  403710:	68 a8 a1 40 00       	push   0x40a1a8
  403715:	56                   	push   esi
  403716:	e8 67 2a 00 00       	call   0x406182
  40371b:	bd 00 5c 43 00       	mov    ebp,0x435c00
  403720:	55                   	push   ebp
  403721:	56                   	push   esi
  403722:	ff 15 18 81 40 00    	call   DWORD PTR ds:0x408118
  403728:	85 c0                	test   eax,eax
  40372a:	74 97                	je     0x4036c3
  40372c:	3b fb                	cmp    edi,ebx
  40372e:	56                   	push   esi
  40372f:	74 07                	je     0x403738
  403731:	e8 1d 20 00 00       	call   0x405753
  403736:	eb 05                	jmp    0x40373d
  403738:	e8 93 20 00 00       	call   0x4057d0
  40373d:	56                   	push   esi
  40373e:	ff 15 00 81 40 00    	call   DWORD PTR ds:0x408100
  403744:	38 1d 00 54 43 00    	cmp    BYTE PTR ds:0x435400,bl
  40374a:	75 0b                	jne    0x403757
  40374c:	55                   	push   ebp
  40374d:	68 00 54 43 00       	push   0x435400
  403752:	e8 0f 2a 00 00       	call   0x406166
  403757:	ff 74 24 1c          	push   DWORD PTR [esp+0x1c]
  40375b:	68 00 00 43 00       	push   0x430000
  403760:	e8 01 2a 00 00       	call   0x406166
  403765:	66 0f be 0d a4 a1 40 	movsx  cx,BYTE PTR ds:0x40a1a4
  40376c:	00 
  40376d:	33 c0                	xor    eax,eax
  40376f:	6a 1a                	push   0x1a
  403771:	8a 25 a5 a1 40 00    	mov    ah,BYTE PTR ds:0x40a1a5
  403777:	5d                   	pop    ebp
  403778:	0b c1                	or     eax,ecx
  40377a:	bf 58 94 42 00       	mov    edi,0x429458
  40377f:	66 a3 00 04 43 00    	mov    ds:0x430400,ax
  403785:	a1 34 f4 42 00       	mov    eax,ds:0x42f434
  40378a:	ff b0 20 01 00 00    	push   DWORD PTR [eax+0x120]
  403790:	57                   	push   edi
  403791:	e8 f2 29 00 00       	call   0x406188
  403796:	57                   	push   edi
  403797:	ff 15 28 81 40 00    	call   DWORD PTR ds:0x408128
  40379d:	39 5c 24 10          	cmp    DWORD PTR [esp+0x10],ebx
  4037a1:	74 3f                	je     0x4037e2
  4037a3:	6a 01                	push   0x1
  4037a5:	57                   	push   edi
  4037a6:	68 00 6c 43 00       	push   0x436c00
  4037ab:	ff 15 88 80 40 00    	call   DWORD PTR ds:0x408088
  4037b1:	85 c0                	test   eax,eax
  4037b3:	74 2d                	je     0x4037e2
  4037b5:	53                   	push   ebx
  4037b6:	57                   	push   edi
  4037b7:	e8 89 27 00 00       	call   0x405f45
  4037bc:	a1 34 f4 42 00       	mov    eax,ds:0x42f434
  4037c1:	ff b0 24 01 00 00    	push   DWORD PTR [eax+0x124]
  4037c7:	57                   	push   edi
  4037c8:	e8 bb 29 00 00       	call   0x406188
  4037cd:	57                   	push   edi
  4037ce:	e8 32 20 00 00       	call   0x405805
  4037d3:	3b c3                	cmp    eax,ebx
  4037d5:	74 0b                	je     0x4037e2
  4037d7:	50                   	push   eax
  4037d8:	ff 15 14 81 40 00    	call   DWORD PTR ds:0x408114
  4037de:	89 5c 24 10          	mov    DWORD PTR [esp+0x10],ebx
  4037e2:	fe 05 00 04 43 00    	inc    BYTE PTR ds:0x430400
  4037e8:	4d                   	dec    ebp
  4037e9:	75 9a                	jne    0x403785
  4037eb:	53                   	push   ebx
  4037ec:	56                   	push   esi
  4037ed:	e8 53 27 00 00       	call   0x405f45
  4037f2:	e9 cc fe ff ff       	jmp    0x4036c3
  4037f7:	39 1d d4 f4 42 00    	cmp    DWORD PTR ds:0x42f4d4,ebx
  4037fd:	74 7a                	je     0x403879
  4037ff:	8d 44 24 18          	lea    eax,[esp+0x18]
  403803:	50                   	push   eax
  403804:	6a 28                	push   0x28
  403806:	ff 15 84 80 40 00    	call   DWORD PTR ds:0x408084
  40380c:	50                   	push   eax
  40380d:	ff 15 10 80 40 00    	call   DWORD PTR ds:0x408010
  403813:	6a 02                	push   0x2
  403815:	85 c0                	test   eax,eax
  403817:	5f                   	pop    edi
  403818:	74 30                	je     0x40384a
  40381a:	8d 44 24 24          	lea    eax,[esp+0x24]
  40381e:	50                   	push   eax
  40381f:	68 90 a1 40 00       	push   0x40a190
  403824:	53                   	push   ebx
  403825:	ff 15 14 80 40 00    	call   DWORD PTR ds:0x408014
  40382b:	53                   	push   ebx
  40382c:	53                   	push   ebx
  40382d:	8d 44 24 28          	lea    eax,[esp+0x28]
  403831:	53                   	push   ebx
  403832:	50                   	push   eax
  403833:	53                   	push   ebx
  403834:	ff 74 24 2c          	push   DWORD PTR [esp+0x2c]
  403838:	c7 44 24 38 01 00 00 	mov    DWORD PTR [esp+0x38],0x1
  40383f:	00 
  403840:	89 7c 24 44          	mov    DWORD PTR [esp+0x44],edi
  403844:	ff 15 00 80 40 00    	call   DWORD PTR ds:0x408000
  40384a:	6a 04                	push   0x4
  40384c:	e8 ad 2c 00 00       	call   0x4064fe
  403851:	3b c3                	cmp    eax,ebx
  403853:	be 02 00 04 80       	mov    esi,0x80040002
  403858:	74 0c                	je     0x403866
  40385a:	56                   	push   esi
  40385b:	6a 25                	push   0x25
  40385d:	53                   	push   ebx
  40385e:	53                   	push   ebx
  40385f:	53                   	push   ebx
  403860:	ff d0                	call   eax
  403862:	85 c0                	test   eax,eax
  403864:	74 0c                	je     0x403872
  403866:	56                   	push   esi
  403867:	57                   	push   edi
  403868:	ff 15 30 82 40 00    	call   DWORD PTR ds:0x408230
  40386e:	85 c0                	test   eax,eax
  403870:	75 07                	jne    0x403879
  403872:	6a 09                	push   0x9
  403874:	e8 92 db ff ff       	call   0x40140b
  403879:	a1 ec f4 42 00       	mov    eax,ds:0x42f4ec
  40387e:	83 f8 ff             	cmp    eax,0xffffffff
  403881:	74 04                	je     0x403887
  403883:	89 44 24 14          	mov    DWORD PTR [esp+0x14],eax
  403887:	ff 74 24 14          	push   DWORD PTR [esp+0x14]
  40388b:	ff 15 b0 80 40 00    	call   DWORD PTR ds:0x4080b0
  403891:	a1 18 a0 40 00       	mov    eax,ds:0x40a018
  403896:	56                   	push   esi
  403897:	8b 35 14 81 40 00    	mov    esi,DWORD PTR ds:0x408114
  40389d:	83 f8 ff             	cmp    eax,0xffffffff
  4038a0:	74 0a                	je     0x4038ac
  4038a2:	50                   	push   eax
  4038a3:	ff d6                	call   esi
  4038a5:	83 0d 18 a0 40 00 ff 	or     DWORD PTR ds:0x40a018,0xffffffff
  4038ac:	a1 1c a0 40 00       	mov    eax,ds:0x40a01c
  4038b1:	83 f8 ff             	cmp    eax,0xffffffff
  4038b4:	74 0a                	je     0x4038c0
  4038b6:	50                   	push   eax
  4038b7:	ff d6                	call   esi
  4038b9:	83 0d 1c a0 40 00 ff 	or     DWORD PTR ds:0x40a01c,0xffffffff
  4038c0:	e8 29 00 00 00       	call   0x4038ee
  4038c5:	6a 07                	push   0x7
  4038c7:	68 00 68 43 00       	push   0x436800
  4038cc:	e8 5d 20 00 00       	call   0x40592e
  4038d1:	5e                   	pop    esi
  4038d2:	c3                   	ret    
  4038d3:	56                   	push   esi
  4038d4:	8b 35 5c 98 42 00    	mov    esi,DWORD PTR ds:0x42985c
  4038da:	eb 0a                	jmp    0x4038e6
  4038dc:	ff 74 24 08          	push   DWORD PTR [esp+0x8]
  4038e0:	ff 56 04             	call   DWORD PTR [esi+0x4]
  4038e3:	8b 36                	mov    esi,DWORD PTR [esi]
  4038e5:	59                   	pop    ecx
  4038e6:	85 f6                	test   esi,esi
  4038e8:	75 f2                	jne    0x4038dc
  4038ea:	5e                   	pop    esi
  4038eb:	c2 04 00             	ret    0x4
  4038ee:	56                   	push   esi
  4038ef:	8b 35 5c 98 42 00    	mov    esi,DWORD PTR ds:0x42985c
  4038f5:	6a 00                	push   0x0
  4038f7:	e8 d7 ff ff ff       	call   0x4038d3
  4038fc:	85 f6                	test   esi,esi
  4038fe:	74 1a                	je     0x40391a
  403900:	57                   	push   edi
  403901:	8b fe                	mov    edi,esi
  403903:	8b 36                	mov    esi,DWORD PTR [esi]
  403905:	ff 77 08             	push   DWORD PTR [edi+0x8]
  403908:	ff 15 4c 81 40 00    	call   DWORD PTR ds:0x40814c
  40390e:	57                   	push   edi
  40390f:	ff 15 5c 81 40 00    	call   DWORD PTR ds:0x40815c
  403915:	85 f6                	test   esi,esi
  403917:	75 e8                	jne    0x403901
  403919:	5f                   	pop    edi
  40391a:	83 25 5c 98 42 00 00 	and    DWORD PTR ds:0x42985c,0x0
  403921:	5e                   	pop    esi
  403922:	c3                   	ret    
  403923:	a1 5c 98 42 00       	mov    eax,ds:0x42985c
  403928:	eb 0b                	jmp    0x403935
  40392a:	8b 48 08             	mov    ecx,DWORD PTR [eax+0x8]
  40392d:	3b 4c 24 04          	cmp    ecx,DWORD PTR [esp+0x4]
  403931:	74 0a                	je     0x40393d
  403933:	8b 00                	mov    eax,DWORD PTR [eax]
  403935:	85 c0                	test   eax,eax
  403937:	75 f1                	jne    0x40392a
  403939:	40                   	inc    eax
  40393a:	c2 04 00             	ret    0x4
  40393d:	33 c0                	xor    eax,eax
  40393f:	eb f9                	jmp    0x40393a
  403941:	56                   	push   esi
  403942:	8b 74 24 08          	mov    esi,DWORD PTR [esp+0x8]
  403946:	56                   	push   esi
  403947:	e8 d7 ff ff ff       	call   0x403923
  40394c:	85 c0                	test   eax,eax
  40394e:	75 03                	jne    0x403953
  403950:	40                   	inc    eax
  403951:	eb 2c                	jmp    0x40397f
  403953:	6a 0c                	push   0xc
  403955:	6a 40                	push   0x40
  403957:	ff 15 58 81 40 00    	call   DWORD PTR ds:0x408158
  40395d:	85 c0                	test   eax,eax
  40395f:	74 1b                	je     0x40397c
  403961:	8b 4c 24 0c          	mov    ecx,DWORD PTR [esp+0xc]
  403965:	89 70 08             	mov    DWORD PTR [eax+0x8],esi
  403968:	89 48 04             	mov    DWORD PTR [eax+0x4],ecx
  40396b:	8b 0d 5c 98 42 00    	mov    ecx,DWORD PTR ds:0x42985c
  403971:	89 08                	mov    DWORD PTR [eax],ecx
  403973:	a3 5c 98 42 00       	mov    ds:0x42985c,eax
  403978:	33 c0                	xor    eax,eax
  40397a:	eb 03                	jmp    0x40397f
  40397c:	83 c8 ff             	or     eax,0xffffffff
  40397f:	5e                   	pop    esi
  403980:	c2 08 00             	ret    0x8
  403983:	83 ec 10             	sub    esp,0x10
  403986:	53                   	push   ebx
  403987:	55                   	push   ebp
  403988:	56                   	push   esi
  403989:	8b 35 34 f4 42 00    	mov    esi,DWORD PTR ds:0x42f434
  40398f:	57                   	push   edi
  403990:	6a 02                	push   0x2
  403992:	e8 67 2b 00 00       	call   0x4064fe
  403997:	33 db                	xor    ebx,ebx
  403999:	3b c3                	cmp    eax,ebx
  40399b:	74 12                	je     0x4039af
  40399d:	ff d0                	call   eax
  40399f:	0f b7 c0             	movzx  eax,ax
  4039a2:	50                   	push   eax
  4039a3:	68 00 60 43 00       	push   0x436000
  4039a8:	e8 17 27 00 00       	call   0x4060c4
  4039ad:	eb 54                	jmp    0x403a03
  4039af:	bf 98 a8 42 00       	mov    edi,0x42a898
  4039b4:	53                   	push   ebx
  4039b5:	57                   	push   edi
  4039b6:	53                   	push   ebx
  4039b7:	68 44 83 40 00       	push   0x408344
  4039bc:	68 01 00 00 80       	push   0x80000001
  4039c1:	c6 05 00 60 43 00 30 	mov    BYTE PTR ds:0x436000,0x30
  4039c8:	c6 05 01 60 43 00 78 	mov    BYTE PTR ds:0x436001,0x78
  4039cf:	88 1d 02 60 43 00    	mov    BYTE PTR ds:0x436002,bl
  4039d5:	e8 73 26 00 00       	call   0x40604d
  4039da:	38 1d 98 a8 42 00    	cmp    BYTE PTR ds:0x42a898,bl
  4039e0:	75 16                	jne    0x4039f8
  4039e2:	53                   	push   ebx
  4039e3:	57                   	push   edi
  4039e4:	68 62 83 40 00       	push   0x408362
  4039e9:	68 1c 83 40 00       	push   0x40831c
  4039ee:	68 03 00 00 80       	push   0x80000003
  4039f3:	e8 55 26 00 00       	call   0x40604d
  4039f8:	57                   	push   edi
  4039f9:	68 00 60 43 00       	push   0x436000
  4039fe:	e8 7f 27 00 00       	call   0x406182
  403a03:	e8 40 02 00 00       	call   0x403c48
  403a08:	a1 3c f4 42 00       	mov    eax,ds:0x42f43c
  403a0d:	bd 00 54 43 00       	mov    ebp,0x435400
  403a12:	83 e0 20             	and    eax,0x20
  403a15:	55                   	push   ebp
  403a16:	a3 c0 f4 42 00       	mov    ds:0x42f4c0,eax
  403a1b:	c7 05 dc f4 42 00 00 	mov    DWORD PTR ds:0x42f4dc,0x10000
  403a22:	00 01 00 
  403a25:	e8 c2 21 00 00       	call   0x405bec
  403a2a:	85 c0                	test   eax,eax
  403a2c:	0f 85 81 00 00 00    	jne    0x403ab3
  403a32:	8b 4e 48             	mov    ecx,DWORD PTR [esi+0x48]
  403a35:	3b cb                	cmp    ecx,ebx
  403a37:	74 7a                	je     0x403ab3
  403a39:	8b 56 4c             	mov    edx,DWORD PTR [esi+0x4c]
  403a3c:	a1 78 f4 42 00       	mov    eax,ds:0x42f478
  403a41:	bf c0 e3 42 00       	mov    edi,0x42e3c0
  403a46:	53                   	push   ebx
  403a47:	03 d0                	add    edx,eax
  403a49:	57                   	push   edi
  403a4a:	03 c8                	add    ecx,eax
  403a4c:	52                   	push   edx
  403a4d:	51                   	push   ecx
  403a4e:	ff 76 44             	push   DWORD PTR [esi+0x44]
  403a51:	e8 f7 25 00 00       	call   0x40604d
  403a56:	a0 c0 e3 42 00       	mov    al,ds:0x42e3c0
  403a5b:	3a c3                	cmp    al,bl
  403a5d:	74 54                	je     0x403ab3
  403a5f:	3c 22                	cmp    al,0x22
  403a61:	75 0f                	jne    0x403a72
  403a63:	bf c1 e3 42 00       	mov    edi,0x42e3c1
  403a68:	6a 22                	push   0x22
  403a6a:	57                   	push   edi
  403a6b:	e8 b9 20 00 00       	call   0x405b29
  403a70:	88 18                	mov    BYTE PTR [eax],bl
  403a72:	57                   	push   edi
  403a73:	e8 04 27 00 00       	call   0x40617c
  403a78:	8d 44 38 fc          	lea    eax,[eax+edi*1-0x4]
  403a7c:	3b c7                	cmp    eax,edi
  403a7e:	76 26                	jbe    0x403aa6
  403a80:	68 14 a2 40 00       	push   0x40a214
  403a85:	50                   	push   eax
  403a86:	ff 15 18 81 40 00    	call   DWORD PTR ds:0x408118
  403a8c:	85 c0                	test   eax,eax
  403a8e:	75 16                	jne    0x403aa6
  403a90:	57                   	push   edi
  403a91:	ff 15 fc 80 40 00    	call   DWORD PTR ds:0x4080fc
  403a97:	83 f8 ff             	cmp    eax,0xffffffff
  403a9a:	74 04                	je     0x403aa0
  403a9c:	a8 10                	test   al,0x10
  403a9e:	75 06                	jne    0x403aa6
  403aa0:	57                   	push   edi
  403aa1:	e8 9f 20 00 00       	call   0x405b45
  403aa6:	57                   	push   edi
  403aa7:	e8 52 20 00 00       	call   0x405afe
  403aac:	50                   	push   eax
  403aad:	55                   	push   ebp
  403aae:	e8 b3 26 00 00       	call   0x406166
  403ab3:	55                   	push   ebp
  403ab4:	e8 33 21 00 00       	call   0x405bec
  403ab9:	85 c0                	test   eax,eax
  403abb:	75 0c                	jne    0x403ac9
  403abd:	ff b6 18 01 00 00    	push   DWORD PTR [esi+0x118]
  403ac3:	55                   	push   ebp
  403ac4:	e8 bf 26 00 00       	call   0x406188
  403ac9:	68 40 80 00 00       	push   0x8040
  403ace:	53                   	push   ebx
  403acf:	53                   	push   ebx
  403ad0:	6a 01                	push   0x1
  403ad2:	6a 67                	push   0x67
  403ad4:	ff 35 20 f4 42 00    	push   DWORD PTR ds:0x42f420
  403ada:	ff 15 34 82 40 00    	call   DWORD PTR ds:0x408234
  403ae0:	a3 08 ec 42 00       	mov    ds:0x42ec08,eax
  403ae5:	83 7e 50 ff          	cmp    DWORD PTR [esi+0x50],0xffffffff
  403ae9:	bf c0 eb 42 00       	mov    edi,0x42ebc0
  403aee:	74 7f                	je     0x403b6f
  403af0:	8b 0d 20 f4 42 00    	mov    ecx,DWORD PTR ds:0x42f420
  403af6:	be 10 a2 40 00       	mov    esi,0x40a210
  403afb:	57                   	push   edi
  403afc:	c7 05 c4 eb 42 00 00 	mov    DWORD PTR ds:0x42ebc4,0x401000
  403b03:	10 40 00 
  403b06:	89 0d d0 eb 42 00    	mov    DWORD PTR ds:0x42ebd0,ecx
  403b0c:	a3 d4 eb 42 00       	mov    ds:0x42ebd4,eax
  403b11:	89 35 e4 eb 42 00    	mov    DWORD PTR ds:0x42ebe4,esi
  403b17:	ff 15 18 82 40 00    	call   DWORD PTR ds:0x408218
  403b1d:	66 85 c0             	test   ax,ax
  403b20:	0f 84 18 01 00 00    	je     0x403c3e
  403b26:	8d 44 24 10          	lea    eax,[esp+0x10]
  403b2a:	53                   	push   ebx
  403b2b:	50                   	push   eax
  403b2c:	53                   	push   ebx
  403b2d:	6a 30                	push   0x30
  403b2f:	ff 15 1c 82 40 00    	call   DWORD PTR ds:0x40821c
  403b35:	53                   	push   ebx
  403b36:	ff 35 20 f4 42 00    	push   DWORD PTR ds:0x42f420
  403b3c:	8b 44 24 24          	mov    eax,DWORD PTR [esp+0x24]
  403b40:	2b 44 24 1c          	sub    eax,DWORD PTR [esp+0x1c]
  403b44:	53                   	push   ebx
  403b45:	53                   	push   ebx
  403b46:	50                   	push   eax
  403b47:	8b 44 24 2c          	mov    eax,DWORD PTR [esp+0x2c]
  403b4b:	2b 44 24 24          	sub    eax,DWORD PTR [esp+0x24]
  403b4f:	50                   	push   eax
  403b50:	ff 74 24 2c          	push   DWORD PTR [esp+0x2c]
  403b54:	ff 74 24 2c          	push   DWORD PTR [esp+0x2c]
  403b58:	68 00 00 00 80       	push   0x80000000
  403b5d:	53                   	push   ebx
  403b5e:	56                   	push   esi
  403b5f:	68 80 00 00 00       	push   0x80
  403b64:	ff 15 20 82 40 00    	call   DWORD PTR ds:0x408220
  403b6a:	a3 78 a8 42 00       	mov    ds:0x42a878,eax
  403b6f:	53                   	push   ebx
  403b70:	e8 96 d8 ff ff       	call   0x40140b
  403b75:	85 c0                	test   eax,eax
  403b77:	74 08                	je     0x403b81
  403b79:	6a 02                	push   0x2
  403b7b:	58                   	pop    eax
  403b7c:	e9 bf 00 00 00       	jmp    0x403c40
  403b81:	e8 c2 00 00 00       	call   0x403c48
  403b86:	39 1d e0 f4 42 00    	cmp    DWORD PTR ds:0x42f4e0,ebx
  403b8c:	0f 85 83 00 00 00    	jne    0x403c15
  403b92:	6a 05                	push   0x5
  403b94:	ff 35 78 a8 42 00    	push   DWORD PTR ds:0x42a878
  403b9a:	ff 15 48 82 40 00    	call   DWORD PTR ds:0x408248
  403ba0:	68 10 83 40 00       	push   0x408310
  403ba5:	e8 e6 28 00 00       	call   0x406490
  403baa:	85 c0                	test   eax,eax
  403bac:	75 0a                	jne    0x403bb8
  403bae:	68 04 83 40 00       	push   0x408304
  403bb3:	e8 d8 28 00 00       	call   0x406490
  403bb8:	8b 35 24 82 40 00    	mov    esi,DWORD PTR ds:0x408224
  403bbe:	bd f8 82 40 00       	mov    ebp,0x4082f8
  403bc3:	57                   	push   edi
  403bc4:	55                   	push   ebp
  403bc5:	53                   	push   ebx
  403bc6:	ff d6                	call   esi
  403bc8:	85 c0                	test   eax,eax
  403bca:	75 16                	jne    0x403be2
  403bcc:	57                   	push   edi
  403bcd:	68 ec 82 40 00       	push   0x4082ec
  403bd2:	53                   	push   ebx
  403bd3:	ff d6                	call   esi
  403bd5:	57                   	push   edi
  403bd6:	89 2d e4 eb 42 00    	mov    DWORD PTR ds:0x42ebe4,ebp
  403bdc:	ff 15 18 82 40 00    	call   DWORD PTR ds:0x408218
  403be2:	a1 00 ec 42 00       	mov    eax,ds:0x42ec00
  403be7:	53                   	push   ebx
  403be8:	83 c0 69             	add    eax,0x69
  403beb:	68 20 3d 40 00       	push   0x403d20
  403bf0:	0f b7 c0             	movzx  eax,ax
  403bf3:	53                   	push   ebx
  403bf4:	50                   	push   eax
  403bf5:	ff 35 20 f4 42 00    	push   DWORD PTR ds:0x42f420
  403bfb:	ff 15 28 82 40 00    	call   DWORD PTR ds:0x408228
  403c01:	6a 05                	push   0x5
  403c03:	8b f0                	mov    esi,eax
  403c05:	e8 01 d8 ff ff       	call   0x40140b
  403c0a:	6a 01                	push   0x1
  403c0c:	e8 c2 fc ff ff       	call   0x4038d3
  403c11:	8b c6                	mov    eax,esi
  403c13:	eb 2b                	jmp    0x403c40
  403c15:	53                   	push   ebx
  403c16:	e8 44 17 00 00       	call   0x40535f
  403c1b:	85 c0                	test   eax,eax
  403c1d:	74 18                	je     0x403c37
  403c1f:	39 1d ec eb 42 00    	cmp    DWORD PTR ds:0x42ebec,ebx
  403c25:	0f 85 4e ff ff ff    	jne    0x403b79
  403c2b:	6a 02                	push   0x2
  403c2d:	e8 d9 d7 ff ff       	call   0x40140b
  403c32:	e9 42 ff ff ff       	jmp    0x403b79
  403c37:	6a 01                	push   0x1
  403c39:	e8 cd d7 ff ff       	call   0x40140b
  403c3e:	33 c0                	xor    eax,eax
  403c40:	5f                   	pop    edi
  403c41:	5e                   	pop    esi
  403c42:	5d                   	pop    ebp
  403c43:	5b                   	pop    ebx
  403c44:	83 c4 10             	add    esp,0x10
  403c47:	c3                   	ret    
  403c48:	53                   	push   ebx
  403c49:	55                   	push   ebp
  403c4a:	56                   	push   esi
  403c4b:	57                   	push   edi
  403c4c:	bf 00 60 43 00       	mov    edi,0x436000
  403c51:	bb ff ff 00 00       	mov    ebx,0xffff
  403c56:	57                   	push   edi
  403c57:	e8 81 24 00 00       	call   0x4060dd
  403c5c:	8b 35 84 f4 42 00    	mov    esi,DWORD PTR ds:0x42f484
  403c62:	85 f6                	test   esi,esi
  403c64:	74 45                	je     0x403cab
  403c66:	8b 0d 34 f4 42 00    	mov    ecx,DWORD PTR ds:0x42f434
  403c6c:	8b 49 64             	mov    ecx,DWORD PTR [ecx+0x64]
  403c6f:	8b d1                	mov    edx,ecx
  403c71:	0f af ce             	imul   ecx,esi
  403c74:	f7 da                	neg    edx
  403c76:	03 0d 80 f4 42 00    	add    ecx,DWORD PTR ds:0x42f480
  403c7c:	03 ca                	add    ecx,edx
  403c7e:	4e                   	dec    esi
  403c7f:	66 8b 29             	mov    bp,WORD PTR [ecx]
  403c82:	66 33 e8             	xor    bp,ax
  403c85:	23 eb                	and    ebp,ebx
  403c87:	66 85 ed             	test   bp,bp
  403c8a:	74 06                	je     0x403c92
  403c8c:	85 f6                	test   esi,esi
  403c8e:	75 ec                	jne    0x403c7c
  403c90:	eb 19                	jmp    0x403cab
  403c92:	8b 51 02             	mov    edx,DWORD PTR [ecx+0x2]
  403c95:	89 15 00 ec 42 00    	mov    DWORD PTR ds:0x42ec00,edx
  403c9b:	8b 51 06             	mov    edx,DWORD PTR [ecx+0x6]
  403c9e:	89 15 e8 f4 42 00    	mov    DWORD PTR ds:0x42f4e8,edx
  403ca4:	8d 51 0a             	lea    edx,[ecx+0xa]
  403ca7:	85 d2                	test   edx,edx
  403ca9:	75 12                	jne    0x403cbd
  403cab:	66 81 fb ff ff       	cmp    bx,0xffff
  403cb0:	75 07                	jne    0x403cb9
  403cb2:	bb ff 03 00 00       	mov    ebx,0x3ff
  403cb7:	eb a3                	jmp    0x403c5c
  403cb9:	33 db                	xor    ebx,ebx
  403cbb:	eb 9f                	jmp    0x403c5c
  403cbd:	89 15 fc eb 42 00    	mov    DWORD PTR ds:0x42ebfc,edx
  403cc3:	0f b7 01             	movzx  eax,WORD PTR [ecx]
  403cc6:	50                   	push   eax
  403cc7:	57                   	push   edi
  403cc8:	e8 f7 23 00 00       	call   0x4060c4
  403ccd:	e8 2f 00 00 00       	call   0x403d01
  403cd2:	a1 6c f4 42 00       	mov    eax,ds:0x42f46c
  403cd7:	8b 35 68 f4 42 00    	mov    esi,DWORD PTR ds:0x42f468
  403cdd:	85 c0                	test   eax,eax
  403cdf:	74 1b                	je     0x403cfc
  403ce1:	8b f8                	mov    edi,eax
  403ce3:	8b 06                	mov    eax,DWORD PTR [esi]
  403ce5:	85 c0                	test   eax,eax
  403ce7:	74 0a                	je     0x403cf3
  403ce9:	50                   	push   eax
  403cea:	8d 46 18             	lea    eax,[esi+0x18]
  403ced:	50                   	push   eax
  403cee:	e8 95 24 00 00       	call   0x406188
  403cf3:	81 c6 18 04 00 00    	add    esi,0x418
  403cf9:	4f                   	dec    edi
  403cfa:	75 e7                	jne    0x403ce3
  403cfc:	5f                   	pop    edi
  403cfd:	5e                   	pop    esi
  403cfe:	5d                   	pop    ebp
  403cff:	5b                   	pop    ebx
  403d00:	c3                   	ret    
  403d01:	56                   	push   esi
  403d02:	be 20 ec 42 00       	mov    esi,0x42ec20
  403d07:	6a fe                	push   0xfffffffe
  403d09:	56                   	push   esi
  403d0a:	e8 79 24 00 00       	call   0x406188
  403d0f:	56                   	push   esi
  403d10:	ff 35 78 a8 42 00    	push   DWORD PTR ds:0x42a878
  403d16:	ff 15 40 82 40 00    	call   DWORD PTR ds:0x408240
  403d1c:	8b c6                	mov    eax,esi
  403d1e:	5e                   	pop    esi
  403d1f:	c3                   	ret    
  403d20:	83 ec 10             	sub    esp,0x10
  403d23:	b9 10 01 00 00       	mov    ecx,0x110
  403d28:	53                   	push   ebx
  403d29:	8b 5c 24 1c          	mov    ebx,DWORD PTR [esp+0x1c]
  403d2d:	55                   	push   ebp
  403d2e:	56                   	push   esi
  403d2f:	3b d9                	cmp    ebx,ecx
  403d31:	57                   	push   edi
  403d32:	0f 84 3b 01 00 00    	je     0x403e73
  403d38:	81 fb 08 04 00 00    	cmp    ebx,0x408
  403d3e:	0f 84 2f 01 00 00    	je     0x403e73
  403d44:	8b 7c 24 24          	mov    edi,DWORD PTR [esp+0x24]
  403d48:	33 ed                	xor    ebp,ebp
  403d4a:	83 fb 47             	cmp    ebx,0x47
  403d4d:	75 13                	jne    0x403d62
  403d4f:	6a 13                	push   0x13
  403d51:	55                   	push   ebp
  403d52:	55                   	push   ebp
  403d53:	55                   	push   ebp
  403d54:	55                   	push   ebp
  403d55:	57                   	push   edi
  403d56:	ff 35 78 a8 42 00    	push   DWORD PTR ds:0x42a878
  403d5c:	ff 15 94 81 40 00    	call   DWORD PTR ds:0x408194
  403d62:	83 fb 05             	cmp    ebx,0x5
  403d65:	75 18                	jne    0x403d7f
  403d67:	8b 44 24 2c          	mov    eax,DWORD PTR [esp+0x2c]
  403d6b:	48                   	dec    eax
  403d6c:	f7 d8                	neg    eax
  403d6e:	1b c0                	sbb    eax,eax
  403d70:	23 c3                	and    eax,ebx
  403d72:	50                   	push   eax
  403d73:	ff 35 78 a8 42 00    	push   DWORD PTR ds:0x42a878
  403d79:	ff 15 48 82 40 00    	call   DWORD PTR ds:0x408248
  403d7f:	81 fb 0d 04 00 00    	cmp    ebx,0x40d
  403d85:	75 1a                	jne    0x403da1
  403d87:	ff 35 f8 eb 42 00    	push   DWORD PTR ds:0x42ebf8
  403d8d:	ff 15 70 82 40 00    	call   DWORD PTR ds:0x408270
  403d93:	8b 44 24 2c          	mov    eax,DWORD PTR [esp+0x2c]
  403d97:	a3 f8 eb 42 00       	mov    ds:0x42ebf8,eax
  403d9c:	e9 fd 03 00 00       	jmp    0x40419e
  403da1:	83 fb 11             	cmp    ebx,0x11
  403da4:	75 11                	jne    0x403db7
  403da6:	55                   	push   ebp
  403da7:	55                   	push   ebp
  403da8:	57                   	push   edi
  403da9:	ff 15 4c 82 40 00    	call   DWORD PTR ds:0x40824c
  403daf:	33 c0                	xor    eax,eax
  403db1:	40                   	inc    eax
  403db2:	e9 0c 04 00 00       	jmp    0x4041c3
  403db7:	81 fb 11 01 00 00    	cmp    ebx,0x111
  403dbd:	0f 85 9d 00 00 00    	jne    0x403e60
  403dc3:	0f b7 74 24 2c       	movzx  esi,WORD PTR [esp+0x2c]
  403dc8:	56                   	push   esi
  403dc9:	57                   	push   edi
  403dca:	ff 15 d0 81 40 00    	call   DWORD PTR ds:0x4081d0
  403dd0:	8b f8                	mov    edi,eax
  403dd2:	3b fd                	cmp    edi,ebp
  403dd4:	74 1d                	je     0x403df3
  403dd6:	55                   	push   ebp
  403dd7:	55                   	push   ebp
  403dd8:	68 f3 00 00 00       	push   0xf3
  403ddd:	57                   	push   edi
  403dde:	ff 15 00 82 40 00    	call   DWORD PTR ds:0x408200
  403de4:	57                   	push   edi
  403de5:	ff 15 90 81 40 00    	call   DWORD PTR ds:0x408190
  403deb:	85 c0                	test   eax,eax
  403ded:	0f 84 ce 03 00 00    	je     0x4041c1
  403df3:	83 fe 01             	cmp    esi,0x1
  403df6:	75 03                	jne    0x403dfb
  403df8:	56                   	push   esi
  403df9:	eb 2e                	jmp    0x403e29
  403dfb:	83 fe 03             	cmp    esi,0x3
  403dfe:	75 0c                	jne    0x403e0c
  403e00:	39 2d f8 a1 40 00    	cmp    DWORD PTR ds:0x40a1f8,ebp
  403e06:	7e 3f                	jle    0x403e47
  403e08:	6a ff                	push   0xffffffff
  403e0a:	eb 1d                	jmp    0x403e29
  403e0c:	6a 02                	push   0x2
  403e0e:	5f                   	pop    edi
  403e0f:	3b f7                	cmp    esi,edi
  403e11:	75 34                	jne    0x403e47
  403e13:	39 2d cc f4 42 00    	cmp    DWORD PTR ds:0x42f4cc,ebp
  403e19:	74 15                	je     0x403e30
  403e1b:	57                   	push   edi
  403e1c:	e8 ea d5 ff ff       	call   0x40140b
  403e21:	89 3d 68 9c 42 00    	mov    DWORD PTR ds:0x429c68,edi
  403e27:	6a 78                	push   0x78
  403e29:	e8 9f 03 00 00       	call   0x4041cd
  403e2e:	eb 30                	jmp    0x403e60
  403e30:	6a 03                	push   0x3
  403e32:	e8 d4 d5 ff ff       	call   0x40140b
  403e37:	85 c0                	test   eax,eax
  403e39:	75 25                	jne    0x403e60
  403e3b:	c7 05 68 9c 42 00 01 	mov    DWORD PTR ds:0x429c68,0x1
  403e42:	00 00 00 
  403e45:	eb e0                	jmp    0x403e27
  403e47:	ff 74 24 30          	push   DWORD PTR [esp+0x30]
  403e4b:	ff 74 24 30          	push   DWORD PTR [esp+0x30]
  403e4f:	68 11 01 00 00       	push   0x111
  403e54:	ff 35 f8 eb 42 00    	push   DWORD PTR ds:0x42ebf8
  403e5a:	ff 15 00 82 40 00    	call   DWORD PTR ds:0x408200
  403e60:	ff 74 24 30          	push   DWORD PTR [esp+0x30]
  403e64:	ff 74 24 30          	push   DWORD PTR [esp+0x30]
  403e68:	53                   	push   ebx
  403e69:	e8 ed 03 00 00       	call   0x40425b
  403e6e:	e9 50 03 00 00       	jmp    0x4041c3
  403e73:	8b 44 24 2c          	mov    eax,DWORD PTR [esp+0x2c]
  403e77:	8b 7c 24 24          	mov    edi,DWORD PTR [esp+0x24]
  403e7b:	3b d9                	cmp    ebx,ecx
  403e7d:	a3 80 a8 42 00       	mov    ds:0x42a880,eax
  403e82:	75 4d                	jne    0x403ed1
  403e84:	8b 35 d0 81 40 00    	mov    esi,DWORD PTR ds:0x4081d0
  403e8a:	6a 01                	push   0x1
  403e8c:	57                   	push   edi
  403e8d:	89 3d 28 f4 42 00    	mov    DWORD PTR ds:0x42f428,edi
  403e93:	ff d6                	call   esi
  403e95:	6a 02                	push   0x2
  403e97:	57                   	push   edi
  403e98:	a3 94 a8 42 00       	mov    ds:0x42a894,eax
  403e9d:	ff d6                	call   esi
  403e9f:	6a ff                	push   0xffffffff
  403ea1:	6a 1c                	push   0x1c
  403ea3:	57                   	push   edi
  403ea4:	a3 60 98 42 00       	mov    ds:0x429860,eax
  403ea9:	e8 46 03 00 00       	call   0x4041f4
  403eae:	ff 35 08 ec 42 00    	push   DWORD PTR ds:0x42ec08
  403eb4:	6a f2                	push   0xfffffff2
  403eb6:	57                   	push   edi
  403eb7:	ff 15 88 81 40 00    	call   DWORD PTR ds:0x408188
  403ebd:	6a 04                	push   0x4
  403ebf:	e8 47 d5 ff ff       	call   0x40140b
  403ec4:	a3 ec eb 42 00       	mov    ds:0x42ebec,eax
  403ec9:	33 c0                	xor    eax,eax
  403ecb:	40                   	inc    eax
  403ecc:	a3 80 a8 42 00       	mov    ds:0x42a880,eax
  403ed1:	8b 0d f8 a1 40 00    	mov    ecx,DWORD PTR ds:0x40a1f8
  403ed7:	33 ed                	xor    ebp,ebp
  403ed9:	8b f1                	mov    esi,ecx
  403edb:	c1 e6 06             	shl    esi,0x6
  403ede:	03 35 60 f4 42 00    	add    esi,DWORD PTR ds:0x42f460
  403ee4:	3b cd                	cmp    ecx,ebp
  403ee6:	7c 3e                	jl     0x403f26
  403ee8:	83 f8 01             	cmp    eax,0x1
  403eeb:	75 31                	jne    0x403f1e
  403eed:	55                   	push   ebp
  403eee:	ff 76 10             	push   DWORD PTR [esi+0x10]
  403ef1:	e8 93 d4 ff ff       	call   0x401389
  403ef6:	85 c0                	test   eax,eax
  403ef8:	74 24                	je     0x403f1e
  403efa:	6a 01                	push   0x1
  403efc:	55                   	push   ebp
  403efd:	68 0f 04 00 00       	push   0x40f
  403f02:	ff 35 f8 eb 42 00    	push   DWORD PTR ds:0x42ebf8
  403f08:	ff 15 00 82 40 00    	call   DWORD PTR ds:0x408200
  403f0e:	33 c0                	xor    eax,eax
  403f10:	39 2d ec eb 42 00    	cmp    DWORD PTR ds:0x42ebec,ebp
  403f16:	0f 94 c0             	sete   al
  403f19:	e9 a5 02 00 00       	jmp    0x4041c3
  403f1e:	39 2e                	cmp    DWORD PTR [esi],ebp
  403f20:	0f 84 9b 02 00 00    	je     0x4041c1
  403f26:	68 0b 04 00 00       	push   0x40b
  403f2b:	e8 10 03 00 00       	call   0x404240
  403f30:	a1 80 a8 42 00       	mov    eax,ds:0x42a880
  403f35:	01 05 f8 a1 40 00    	add    DWORD PTR ds:0x40a1f8,eax
  403f3b:	c1 e0 06             	shl    eax,0x6
  403f3e:	03 f0                	add    esi,eax
  403f40:	a1 f8 a1 40 00       	mov    eax,ds:0x40a1f8
  403f45:	3b 05 64 f4 42 00    	cmp    eax,DWORD PTR ds:0x42f464
  403f4b:	75 07                	jne    0x403f54
  403f4d:	6a 01                	push   0x1
  403f4f:	e8 b7 d4 ff ff       	call   0x40140b
  403f54:	39 2d ec eb 42 00    	cmp    DWORD PTR ds:0x42ebec,ebp
  403f5a:	0f 85 1f 02 00 00    	jne    0x40417f
  403f60:	a1 64 f4 42 00       	mov    eax,ds:0x42f464
  403f65:	39 05 f8 a1 40 00    	cmp    DWORD PTR ds:0x40a1f8,eax
  403f6b:	0f 83 0e 02 00 00    	jae    0x40417f
  403f71:	ff 76 24             	push   DWORD PTR [esi+0x24]
  403f74:	8b 5e 14             	mov    ebx,DWORD PTR [esi+0x14]
  403f77:	68 00 78 43 00       	push   0x437800
  403f7c:	e8 07 22 00 00       	call   0x406188
  403f81:	ff 76 20             	push   DWORD PTR [esi+0x20]
  403f84:	68 19 fc ff ff       	push   0xfffffc19
  403f89:	57                   	push   edi
  403f8a:	e8 65 02 00 00       	call   0x4041f4
  403f8f:	ff 76 1c             	push   DWORD PTR [esi+0x1c]
  403f92:	68 1b fc ff ff       	push   0xfffffc1b
  403f97:	57                   	push   edi
  403f98:	e8 57 02 00 00       	call   0x4041f4
  403f9d:	ff 76 28             	push   DWORD PTR [esi+0x28]
  403fa0:	68 1a fc ff ff       	push   0xfffffc1a
  403fa5:	57                   	push   edi
  403fa6:	e8 49 02 00 00       	call   0x4041f4
  403fab:	6a 03                	push   0x3
  403fad:	57                   	push   edi
  403fae:	ff 15 d0 81 40 00    	call   DWORD PTR ds:0x4081d0
  403fb4:	39 2d cc f4 42 00    	cmp    DWORD PTR ds:0x42f4cc,ebp
  403fba:	89 44 24 2c          	mov    DWORD PTR [esp+0x2c],eax
  403fbe:	74 08                	je     0x403fc8
  403fc0:	66 81 e3 fd fe       	and    bx,0xfefd
  403fc5:	83 cb 04             	or     ebx,0x4
  403fc8:	8b cb                	mov    ecx,ebx
  403fca:	83 e1 08             	and    ecx,0x8
  403fcd:	51                   	push   ecx
  403fce:	50                   	push   eax
  403fcf:	ff 15 48 82 40 00    	call   DWORD PTR ds:0x408248
  403fd5:	8b c3                	mov    eax,ebx
  403fd7:	25 00 01 00 00       	and    eax,0x100
  403fdc:	50                   	push   eax
  403fdd:	ff 74 24 30          	push   DWORD PTR [esp+0x30]
  403fe1:	ff 15 f8 81 40 00    	call   DWORD PTR ds:0x4081f8
  403fe7:	8b c3                	mov    eax,ebx
  403fe9:	83 e0 02             	and    eax,0x2
  403fec:	50                   	push   eax
  403fed:	e8 24 02 00 00       	call   0x404216
  403ff2:	83 e3 04             	and    ebx,0x4
  403ff5:	53                   	push   ebx
  403ff6:	ff 35 60 98 42 00    	push   DWORD PTR ds:0x429860
  403ffc:	ff 15 f8 81 40 00    	call   DWORD PTR ds:0x4081f8
  404002:	3b dd                	cmp    ebx,ebp
  404004:	74 03                	je     0x404009
  404006:	55                   	push   ebp
  404007:	eb 02                	jmp    0x40400b
  404009:	6a 01                	push   0x1
  40400b:	68 60 f0 00 00       	push   0xf060
  404010:	55                   	push   ebp
  404011:	57                   	push   edi
  404012:	ff 15 84 81 40 00    	call   DWORD PTR ds:0x408184
  404018:	50                   	push   eax
  404019:	ff 15 8c 81 40 00    	call   DWORD PTR ds:0x40818c
  40401f:	8b 1d 00 82 40 00    	mov    ebx,DWORD PTR ds:0x408200
  404025:	6a 01                	push   0x1
  404027:	55                   	push   ebp
  404028:	68 f4 00 00 00       	push   0xf4
  40402d:	ff 74 24 38          	push   DWORD PTR [esp+0x38]
  404031:	ff d3                	call   ebx
  404033:	39 2d cc f4 42 00    	cmp    DWORD PTR ds:0x42f4cc,ebp
  404039:	74 13                	je     0x40404e
  40403b:	55                   	push   ebp
  40403c:	6a 02                	push   0x2
  40403e:	68 01 04 00 00       	push   0x401
  404043:	57                   	push   edi
  404044:	ff d3                	call   ebx
  404046:	ff 35 60 98 42 00    	push   DWORD PTR ds:0x429860
  40404c:	eb 06                	jmp    0x404054
  40404e:	ff 35 94 a8 42 00    	push   DWORD PTR ds:0x42a894
  404054:	e8 d0 01 00 00       	call   0x404229
  404059:	e8 a3 fc ff ff       	call   0x403d01
  40405e:	bb 98 a8 42 00       	mov    ebx,0x42a898
  404063:	50                   	push   eax
  404064:	53                   	push   ebx
  404065:	e8 fc 20 00 00       	call   0x406166
  40406a:	ff 76 18             	push   DWORD PTR [esi+0x18]
  40406d:	53                   	push   ebx
  40406e:	e8 09 21 00 00       	call   0x40617c
  404073:	03 c3                	add    eax,ebx
  404075:	50                   	push   eax
  404076:	e8 0d 21 00 00       	call   0x406188
  40407b:	53                   	push   ebx
  40407c:	57                   	push   edi
  40407d:	ff 15 40 82 40 00    	call   DWORD PTR ds:0x408240
  404083:	55                   	push   ebp
  404084:	ff 76 08             	push   DWORD PTR [esi+0x8]
  404087:	e8 fd d2 ff ff       	call   0x401389
  40408c:	85 c0                	test   eax,eax
  40408e:	0f 85 9c fe ff ff    	jne    0x403f30
  404094:	39 2e                	cmp    DWORD PTR [esi],ebp
  404096:	0f 84 94 fe ff ff    	je     0x403f30
  40409c:	83 7e 04 05          	cmp    DWORD PTR [esi+0x4],0x5
  4040a0:	75 1d                	jne    0x4040bf
  4040a2:	39 2d cc f4 42 00    	cmp    DWORD PTR ds:0x42f4cc,ebp
  4040a8:	0f 85 13 01 00 00    	jne    0x4041c1
  4040ae:	39 2d c0 f4 42 00    	cmp    DWORD PTR ds:0x42f4c0,ebp
  4040b4:	0f 85 76 fe ff ff    	jne    0x403f30
  4040ba:	e9 02 01 00 00       	jmp    0x4041c1
  4040bf:	ff 35 f8 eb 42 00    	push   DWORD PTR ds:0x42ebf8
  4040c5:	ff 15 70 82 40 00    	call   DWORD PTR ds:0x408270
  4040cb:	89 35 70 a0 42 00    	mov    DWORD PTR ds:0x42a070,esi
  4040d1:	39 2e                	cmp    DWORD PTR [esi],ebp
  4040d3:	0f 8e c5 00 00 00    	jle    0x40419e
  4040d9:	8b 46 04             	mov    eax,DWORD PTR [esi+0x4]
  4040dc:	56                   	push   esi
  4040dd:	ff 34 85 fc a1 40 00 	push   DWORD PTR [eax*4+0x40a1fc]
  4040e4:	66 8b 06             	mov    ax,WORD PTR [esi]
  4040e7:	66 03 05 00 ec 42 00 	add    ax,WORD PTR ds:0x42ec00
  4040ee:	57                   	push   edi
  4040ef:	0f b7 c0             	movzx  eax,ax
  4040f2:	50                   	push   eax
  4040f3:	ff 35 20 f4 42 00    	push   DWORD PTR ds:0x42f420
  4040f9:	ff 15 38 82 40 00    	call   DWORD PTR ds:0x408238
  4040ff:	3b c5                	cmp    eax,ebp
  404101:	a3 f8 eb 42 00       	mov    ds:0x42ebf8,eax
  404106:	0f 84 92 00 00 00    	je     0x40419e
  40410c:	ff 76 2c             	push   DWORD PTR [esi+0x2c]
  40410f:	6a 06                	push   0x6
  404111:	50                   	push   eax
  404112:	e8 dd 00 00 00       	call   0x4041f4
  404117:	8d 44 24 10          	lea    eax,[esp+0x10]
  40411b:	50                   	push   eax
  40411c:	68 fa 03 00 00       	push   0x3fa
  404121:	57                   	push   edi
  404122:	ff 15 d0 81 40 00    	call   DWORD PTR ds:0x4081d0
  404128:	50                   	push   eax
  404129:	ff 15 cc 81 40 00    	call   DWORD PTR ds:0x4081cc
  40412f:	8d 44 24 10          	lea    eax,[esp+0x10]
  404133:	50                   	push   eax
  404134:	57                   	push   edi
  404135:	ff 15 c8 81 40 00    	call   DWORD PTR ds:0x4081c8
  40413b:	6a 15                	push   0x15
  40413d:	55                   	push   ebp
  40413e:	55                   	push   ebp
  40413f:	ff 74 24 20          	push   DWORD PTR [esp+0x20]
  404143:	ff 74 24 20          	push   DWORD PTR [esp+0x20]
  404147:	55                   	push   ebp
  404148:	ff 35 f8 eb 42 00    	push   DWORD PTR ds:0x42ebf8
  40414e:	ff 15 94 81 40 00    	call   DWORD PTR ds:0x408194
  404154:	55                   	push   ebp
  404155:	ff 76 0c             	push   DWORD PTR [esi+0xc]
  404158:	e8 2c d2 ff ff       	call   0x401389
  40415d:	39 2d ec eb 42 00    	cmp    DWORD PTR ds:0x42ebec,ebp
  404163:	75 5c                	jne    0x4041c1
  404165:	6a 08                	push   0x8
  404167:	ff 35 f8 eb 42 00    	push   DWORD PTR ds:0x42ebf8
  40416d:	ff 15 48 82 40 00    	call   DWORD PTR ds:0x408248
  404173:	68 05 04 00 00       	push   0x405
  404178:	e8 c3 00 00 00       	call   0x404240
  40417d:	eb 1f                	jmp    0x40419e
  40417f:	ff 35 f8 eb 42 00    	push   DWORD PTR ds:0x42ebf8
  404185:	ff 15 70 82 40 00    	call   DWORD PTR ds:0x408270
  40418b:	ff 35 68 9c 42 00    	push   DWORD PTR ds:0x429c68
  404191:	89 2d 28 f4 42 00    	mov    DWORD PTR ds:0x42f428,ebp
  404197:	57                   	push   edi
  404198:	ff 15 14 82 40 00    	call   DWORD PTR ds:0x408214
  40419e:	39 2d 98 b8 42 00    	cmp    DWORD PTR ds:0x42b898,ebp
  4041a4:	75 1b                	jne    0x4041c1
  4041a6:	39 2d f8 eb 42 00    	cmp    DWORD PTR ds:0x42ebf8,ebp
  4041ac:	74 13                	je     0x4041c1
  4041ae:	6a 0a                	push   0xa
  4041b0:	57                   	push   edi
  4041b1:	ff 15 48 82 40 00    	call   DWORD PTR ds:0x408248
  4041b7:	c7 05 98 b8 42 00 01 	mov    DWORD PTR ds:0x42b898,0x1
  4041be:	00 00 00 
  4041c1:	33 c0                	xor    eax,eax
  4041c3:	5f                   	pop    edi
  4041c4:	5e                   	pop    esi
  4041c5:	5d                   	pop    ebp
  4041c6:	5b                   	pop    ebx
  4041c7:	83 c4 10             	add    esp,0x10
  4041ca:	c2 10 00             	ret    0x10
  4041cd:	83 7c 24 04 78       	cmp    DWORD PTR [esp+0x4],0x78
  4041d2:	75 06                	jne    0x4041da
  4041d4:	ff 05 ec eb 42 00    	inc    DWORD PTR ds:0x42ebec
  4041da:	6a 00                	push   0x0
  4041dc:	ff 74 24 08          	push   DWORD PTR [esp+0x8]
  4041e0:	68 08 04 00 00       	push   0x408
  4041e5:	ff 35 28 f4 42 00    	push   DWORD PTR ds:0x42f428
  4041eb:	ff 15 00 82 40 00    	call   DWORD PTR ds:0x408200
  4041f1:	c2 04 00             	ret    0x4
  4041f4:	ff 74 24 0c          	push   DWORD PTR [esp+0xc]
  4041f8:	6a 00                	push   0x0
  4041fa:	e8 89 1f 00 00       	call   0x406188
  4041ff:	50                   	push   eax
  404200:	8b 44 24 0c          	mov    eax,DWORD PTR [esp+0xc]
  404204:	05 e8 03 00 00       	add    eax,0x3e8
  404209:	50                   	push   eax
  40420a:	ff 74 24 0c          	push   DWORD PTR [esp+0xc]
  40420e:	e8 4d 16 00 00       	call   0x405860
  404213:	c2 0c 00             	ret    0xc
  404216:	ff 74 24 04          	push   DWORD PTR [esp+0x4]
  40421a:	ff 35 94 a8 42 00    	push   DWORD PTR ds:0x42a894
  404220:	ff 15 f8 81 40 00    	call   DWORD PTR ds:0x4081f8
  404226:	c2 04 00             	ret    0x4
  404229:	6a 01                	push   0x1
  40422b:	ff 74 24 08          	push   DWORD PTR [esp+0x8]
  40422f:	6a 28                	push   0x28
  404231:	ff 35 28 f4 42 00    	push   DWORD PTR ds:0x42f428
  404237:	ff 15 00 82 40 00    	call   DWORD PTR ds:0x408200
  40423d:	c2 04 00             	ret    0x4
  404240:	a1 f8 eb 42 00       	mov    eax,ds:0x42ebf8
  404245:	85 c0                	test   eax,eax
  404247:	74 0f                	je     0x404258
  404249:	6a 00                	push   0x0
  40424b:	6a 00                	push   0x0
  40424d:	ff 74 24 0c          	push   DWORD PTR [esp+0xc]
  404251:	50                   	push   eax
  404252:	ff 15 00 82 40 00    	call   DWORD PTR ds:0x408200
  404258:	c2 04 00             	ret    0x4
  40425b:	55                   	push   ebp
  40425c:	8b ec                	mov    ebp,esp
  40425e:	83 ec 0c             	sub    esp,0xc
  404261:	8b 45 08             	mov    eax,DWORD PTR [ebp+0x8]
  404264:	56                   	push   esi
  404265:	05 cd fe ff ff       	add    eax,0xfffffecd
  40426a:	83 f8 05             	cmp    eax,0x5
  40426d:	0f 87 b0 00 00 00    	ja     0x404323
  404273:	6a eb                	push   0xffffffeb
  404275:	ff 75 10             	push   DWORD PTR [ebp+0x10]
  404278:	ff 15 9c 81 40 00    	call   DWORD PTR ds:0x40819c
  40427e:	8b f0                	mov    esi,eax
  404280:	85 f6                	test   esi,esi
  404282:	0f 84 9b 00 00 00    	je     0x404323
  404288:	83 7e 08 01          	cmp    DWORD PTR [esi+0x8],0x1
  40428c:	0f 87 91 00 00 00    	ja     0x404323
  404292:	83 7e 10 02          	cmp    DWORD PTR [esi+0x10],0x2
  404296:	0f 87 87 00 00 00    	ja     0x404323
  40429c:	8b 4e 14             	mov    ecx,DWORD PTR [esi+0x14]
  40429f:	f7 c1 e0 ff ff ff    	test   ecx,0xffffffe0
  4042a5:	75 7c                	jne    0x404323
  4042a7:	8b 06                	mov    eax,DWORD PTR [esi]
  4042a9:	57                   	push   edi
  4042aa:	8b 3d 98 81 40 00    	mov    edi,DWORD PTR ds:0x408198
  4042b0:	f6 c1 02             	test   cl,0x2
  4042b3:	74 03                	je     0x4042b8
  4042b5:	50                   	push   eax
  4042b6:	ff d7                	call   edi
  4042b8:	f6 46 14 01          	test   BYTE PTR [esi+0x14],0x1
  4042bc:	74 0a                	je     0x4042c8
  4042be:	50                   	push   eax
  4042bf:	ff 75 0c             	push   DWORD PTR [ebp+0xc]
  4042c2:	ff 15 50 80 40 00    	call   DWORD PTR ds:0x408050
  4042c8:	ff 76 10             	push   DWORD PTR [esi+0x10]
  4042cb:	ff 75 0c             	push   DWORD PTR [ebp+0xc]
  4042ce:	ff 15 54 80 40 00    	call   DWORD PTR ds:0x408054
  4042d4:	8b 46 04             	mov    eax,DWORD PTR [esi+0x4]
  4042d7:	f6 46 14 08          	test   BYTE PTR [esi+0x14],0x8
  4042db:	89 45 f8             	mov    DWORD PTR [ebp-0x8],eax
  4042de:	74 06                	je     0x4042e6
  4042e0:	50                   	push   eax
  4042e1:	ff d7                	call   edi
  4042e3:	89 45 f8             	mov    DWORD PTR [ebp-0x8],eax
  4042e6:	f6 46 14 04          	test   BYTE PTR [esi+0x14],0x4
  4042ea:	5f                   	pop    edi
  4042eb:	74 0a                	je     0x4042f7
  4042ed:	50                   	push   eax
  4042ee:	ff 75 0c             	push   DWORD PTR [ebp+0xc]
  4042f1:	ff 15 68 80 40 00    	call   DWORD PTR ds:0x408068
  4042f7:	f6 46 14 10          	test   BYTE PTR [esi+0x14],0x10
  4042fb:	74 21                	je     0x40431e
  4042fd:	8b 46 08             	mov    eax,DWORD PTR [esi+0x8]
  404300:	89 45 f4             	mov    DWORD PTR [ebp-0xc],eax
  404303:	8b 46 0c             	mov    eax,DWORD PTR [esi+0xc]
  404306:	85 c0                	test   eax,eax
  404308:	74 07                	je     0x404311
  40430a:	50                   	push   eax
  40430b:	ff 15 60 80 40 00    	call   DWORD PTR ds:0x408060
  404311:	8d 45 f4             	lea    eax,[ebp-0xc]
  404314:	50                   	push   eax
  404315:	ff 15 5c 80 40 00    	call   DWORD PTR ds:0x40805c
  40431b:	89 46 0c             	mov    DWORD PTR [esi+0xc],eax
  40431e:	8b 46 0c             	mov    eax,DWORD PTR [esi+0xc]
  404321:	eb 02                	jmp    0x404325
  404323:	33 c0                	xor    eax,eax
  404325:	5e                   	pop    esi
  404326:	c9                   	leave  
  404327:	c2 0c 00             	ret    0xc
  40432a:	55                   	push   ebp
  40432b:	8b ec                	mov    ebp,esp
  40432d:	8b 45 08             	mov    eax,DWORD PTR [ebp+0x8]
  404330:	8b 0d 64 98 42 00    	mov    ecx,DWORD PTR ds:0x429864
  404336:	ff 75 10             	push   DWORD PTR [ebp+0x10]
  404339:	03 c8                	add    ecx,eax
  40433b:	51                   	push   ecx
  40433c:	ff 75 0c             	push   DWORD PTR [ebp+0xc]
  40433f:	ff 15 ac 80 40 00    	call   DWORD PTR ds:0x4080ac
  404345:	ff 75 0c             	push   DWORD PTR [ebp+0xc]
  404348:	ff 15 a0 80 40 00    	call   DWORD PTR ds:0x4080a0
  40434e:	8b 4d 14             	mov    ecx,DWORD PTR [ebp+0x14]
  404351:	89 01                	mov    DWORD PTR [ecx],eax
  404353:	01 05 64 98 42 00    	add    DWORD PTR ds:0x429864,eax
  404359:	33 c0                	xor    eax,eax
  40435b:	5d                   	pop    ebp
  40435c:	c2 10 00             	ret    0x10
  40435f:	55                   	push   ebp
  404360:	8b ec                	mov    ebp,esp
  404362:	83 ec 0c             	sub    esp,0xc
  404365:	81 7d 0c 10 01 00 00 	cmp    DWORD PTR [ebp+0xc],0x110
  40436c:	53                   	push   ebx
  40436d:	56                   	push   esi
  40436e:	57                   	push   edi
  40436f:	0f 85 0c 01 00 00    	jne    0x404481
  404375:	8b 5d 14             	mov    ebx,DWORD PTR [ebp+0x14]
  404378:	8b 7b 30             	mov    edi,DWORD PTR [ebx+0x30]
  40437b:	85 ff                	test   edi,edi
  40437d:	7d 11                	jge    0x404390
  40437f:	8b 0d fc eb 42 00    	mov    ecx,DWORD PTR ds:0x42ebfc
  404385:	8d 04 bd 04 00 00 00 	lea    eax,[edi*4+0x4]
  40438c:	2b c8                	sub    ecx,eax
  40438e:	8b 39                	mov    edi,DWORD PTR [ecx]
  404390:	a1 78 f4 42 00       	mov    eax,ds:0x42f478
  404395:	ff 73 34             	push   DWORD PTR [ebx+0x34]
  404398:	03 f8                	add    edi,eax
  40439a:	6a 22                	push   0x22
  40439c:	0f be 07             	movsx  eax,BYTE PTR [edi]
  40439f:	89 45 14             	mov    DWORD PTR [ebp+0x14],eax
  4043a2:	8b 43 14             	mov    eax,DWORD PTR [ebx+0x14]
  4043a5:	ff 75 08             	push   DWORD PTR [ebp+0x8]
  4043a8:	83 65 f8 00          	and    DWORD PTR [ebp-0x8],0x0
  4043ac:	8b f0                	mov    esi,eax
  4043ae:	47                   	inc    edi
  4043af:	f7 d6                	not    esi
  4043b1:	c1 ee 05             	shr    esi,0x5
  4043b4:	83 e6 01             	and    esi,0x1
  4043b7:	83 e0 01             	and    eax,0x1
  4043ba:	89 7d f4             	mov    DWORD PTR [ebp-0xc],edi
  4043bd:	c7 45 fc 2a 43 40 00 	mov    DWORD PTR [ebp-0x4],0x40432a
  4043c4:	0b f0                	or     esi,eax
  4043c6:	e8 29 fe ff ff       	call   0x4041f4
  4043cb:	ff 73 38             	push   DWORD PTR [ebx+0x38]
  4043ce:	6a 23                	push   0x23
  4043d0:	ff 75 08             	push   DWORD PTR [ebp+0x8]
  4043d3:	e8 1c fe ff ff       	call   0x4041f4
  4043d8:	33 c0                	xor    eax,eax
  4043da:	6a 01                	push   0x1
  4043dc:	85 f6                	test   esi,esi
  4043de:	0f 94 c0             	sete   al
  4043e1:	05 0a 04 00 00       	add    eax,0x40a
  4043e6:	50                   	push   eax
  4043e7:	ff 75 08             	push   DWORD PTR [ebp+0x8]
  4043ea:	ff 15 a8 81 40 00    	call   DWORD PTR ds:0x4081a8
  4043f0:	56                   	push   esi
  4043f1:	e8 20 fe ff ff       	call   0x404216
  4043f6:	68 e8 03 00 00       	push   0x3e8
  4043fb:	ff 75 08             	push   DWORD PTR [ebp+0x8]
  4043fe:	ff 15 d0 81 40 00    	call   DWORD PTR ds:0x4081d0
  404404:	8b d8                	mov    ebx,eax
  404406:	53                   	push   ebx
  404407:	e8 1d fe ff ff       	call   0x404229
  40440c:	8b 35 00 82 40 00    	mov    esi,DWORD PTR ds:0x408200
  404412:	6a 00                	push   0x0
  404414:	6a 01                	push   0x1
  404416:	68 5b 04 00 00       	push   0x45b
  40441b:	53                   	push   ebx
  40441c:	ff d6                	call   esi
  40441e:	a1 34 f4 42 00       	mov    eax,ds:0x42f434
  404423:	8b 40 68             	mov    eax,DWORD PTR [eax+0x68]
  404426:	85 c0                	test   eax,eax
  404428:	7d 09                	jge    0x404433
  40442a:	f7 d8                	neg    eax
  40442c:	50                   	push   eax
  40442d:	ff 15 98 81 40 00    	call   DWORD PTR ds:0x408198
  404433:	50                   	push   eax
  404434:	6a 00                	push   0x0
  404436:	68 43 04 00 00       	push   0x443
  40443b:	53                   	push   ebx
  40443c:	ff d6                	call   esi
  40443e:	68 00 00 01 04       	push   0x4010000
  404443:	6a 00                	push   0x0
  404445:	68 45 04 00 00       	push   0x445
  40444a:	53                   	push   ebx
  40444b:	ff d6                	call   esi
  40444d:	57                   	push   edi
  40444e:	e8 29 1d 00 00       	call   0x40617c
  404453:	33 ff                	xor    edi,edi
  404455:	50                   	push   eax
  404456:	57                   	push   edi
  404457:	68 35 04 00 00       	push   0x435
  40445c:	53                   	push   ebx
  40445d:	ff d6                	call   esi
  40445f:	8d 45 f4             	lea    eax,[ebp-0xc]
  404462:	89 3d 64 98 42 00    	mov    DWORD PTR ds:0x429864,edi
  404468:	50                   	push   eax
  404469:	ff 75 14             	push   DWORD PTR [ebp+0x14]
  40446c:	68 49 04 00 00       	push   0x449
  404471:	53                   	push   ebx
  404472:	ff d6                	call   esi
  404474:	89 3d 64 98 42 00    	mov    DWORD PTR ds:0x429864,edi
  40447a:	33 c0                	xor    eax,eax
  40447c:	e9 57 01 00 00       	jmp    0x4045d8
  404481:	81 7d 0c 11 01 00 00 	cmp    DWORD PTR [ebp+0xc],0x111
  404488:	8b 1d d0 81 40 00    	mov    ebx,DWORD PTR ds:0x4081d0
  40448e:	8b 35 00 82 40 00    	mov    esi,DWORD PTR ds:0x408200
  404494:	75 5a                	jne    0x4044f0
  404496:	8b 45 10             	mov    eax,DWORD PTR [ebp+0x10]
  404499:	c1 e8 10             	shr    eax,0x10
  40449c:	66 85 c0             	test   ax,ax
  40449f:	0f 85 24 01 00 00    	jne    0x4045c9
  4044a5:	33 c0                	xor    eax,eax
  4044a7:	39 05 64 98 42 00    	cmp    DWORD PTR ds:0x429864,eax
  4044ad:	0f 85 16 01 00 00    	jne    0x4045c9
  4044b3:	8b 0d 70 a0 42 00    	mov    ecx,DWORD PTR ds:0x42a070
  4044b9:	8d 79 14             	lea    edi,[ecx+0x14]
  4044bc:	f6 07 20             	test   BYTE PTR [edi],0x20
  4044bf:	0f 84 04 01 00 00    	je     0x4045c9
  4044c5:	50                   	push   eax
  4044c6:	50                   	push   eax
  4044c7:	68 f0 00 00 00       	push   0xf0
  4044cc:	68 0a 04 00 00       	push   0x40a
  4044d1:	ff 75 08             	push   DWORD PTR [ebp+0x8]
  4044d4:	ff d3                	call   ebx
  4044d6:	50                   	push   eax
  4044d7:	ff d6                	call   esi
  4044d9:	8b 0f                	mov    ecx,DWORD PTR [edi]
  4044db:	83 e0 01             	and    eax,0x1
  4044de:	83 e1 fe             	and    ecx,0xfffffffe
  4044e1:	50                   	push   eax
  4044e2:	0b c8                	or     ecx,eax
  4044e4:	89 0f                	mov    DWORD PTR [edi],ecx
  4044e6:	e8 2b fd ff ff       	call   0x404216
  4044eb:	e8 ef 00 00 00       	call   0x4045df
  4044f0:	83 7d 0c 4e          	cmp    DWORD PTR [ebp+0xc],0x4e
  4044f4:	0f 85 c0 00 00 00    	jne    0x4045ba
  4044fa:	68 e8 03 00 00       	push   0x3e8
  4044ff:	ff 75 08             	push   DWORD PTR [ebp+0x8]
  404502:	ff d3                	call   ebx
  404504:	8b 7d 14             	mov    edi,DWORD PTR [ebp+0x14]
  404507:	81 7f 08 0b 07 00 00 	cmp    DWORD PTR [edi+0x8],0x70b
  40450e:	75 68                	jne    0x404578
  404510:	81 7f 0c 01 02 00 00 	cmp    DWORD PTR [edi+0xc],0x201
  404517:	75 5f                	jne    0x404578
  404519:	8b 4f 1c             	mov    ecx,DWORD PTR [edi+0x1c]
  40451c:	8b 57 18             	mov    edx,DWORD PTR [edi+0x18]
  40451f:	89 4d f8             	mov    DWORD PTR [ebp-0x8],ecx
  404522:	2b ca                	sub    ecx,edx
  404524:	81 f9 00 08 00 00    	cmp    ecx,0x800
  40452a:	89 55 f4             	mov    DWORD PTR [ebp-0xc],edx
  40452d:	c7 45 fc c0 e3 42 00 	mov    DWORD PTR [ebp-0x4],0x42e3c0
  404534:	73 42                	jae    0x404578
  404536:	8d 4d f4             	lea    ecx,[ebp-0xc]
  404539:	51                   	push   ecx
  40453a:	6a 00                	push   0x0
  40453c:	68 4b 04 00 00       	push   0x44b
  404541:	50                   	push   eax
  404542:	ff d6                	call   esi
  404544:	8b 3d a4 81 40 00    	mov    edi,DWORD PTR ds:0x4081a4
  40454a:	68 02 7f 00 00       	push   0x7f02
  40454f:	6a 00                	push   0x0
  404551:	ff d7                	call   edi
  404553:	8b 1d a0 81 40 00    	mov    ebx,DWORD PTR ds:0x4081a0
  404559:	50                   	push   eax
  40455a:	ff d3                	call   ebx
  40455c:	6a 01                	push   0x1
  40455e:	ff 75 fc             	push   DWORD PTR [ebp-0x4]
  404561:	ff 75 08             	push   DWORD PTR [ebp+0x8]
  404564:	e8 9a 00 00 00       	call   0x404603
  404569:	68 00 7f 00 00       	push   0x7f00
  40456e:	6a 00                	push   0x0
  404570:	ff d7                	call   edi
  404572:	50                   	push   eax
  404573:	ff d3                	call   ebx
  404575:	8b 7d 14             	mov    edi,DWORD PTR [ebp+0x14]
  404578:	81 7f 08 00 07 00 00 	cmp    DWORD PTR [edi+0x8],0x700
  40457f:	75 4b                	jne    0x4045cc
  404581:	81 7f 0c 00 01 00 00 	cmp    DWORD PTR [edi+0xc],0x100
  404588:	75 42                	jne    0x4045cc
  40458a:	83 7f 10 0d          	cmp    DWORD PTR [edi+0x10],0xd
  40458e:	75 11                	jne    0x4045a1
  404590:	6a 00                	push   0x0
  404592:	6a 01                	push   0x1
  404594:	68 11 01 00 00       	push   0x111
  404599:	ff 35 28 f4 42 00    	push   DWORD PTR ds:0x42f428
  40459f:	ff d6                	call   esi
  4045a1:	83 7f 10 1b          	cmp    DWORD PTR [edi+0x10],0x1b
  4045a5:	75 0e                	jne    0x4045b5
  4045a7:	6a 00                	push   0x0
  4045a9:	6a 00                	push   0x0
  4045ab:	6a 10                	push   0x10
  4045ad:	ff 35 28 f4 42 00    	push   DWORD PTR ds:0x42f428
  4045b3:	ff d6                	call   esi
  4045b5:	33 c0                	xor    eax,eax
  4045b7:	40                   	inc    eax
  4045b8:	eb 1e                	jmp    0x4045d8
  4045ba:	81 7d 0c 0b 04 00 00 	cmp    DWORD PTR [ebp+0xc],0x40b
  4045c1:	75 06                	jne    0x4045c9
  4045c3:	ff 05 64 98 42 00    	inc    DWORD PTR ds:0x429864
  4045c9:	8b 7d 14             	mov    edi,DWORD PTR [ebp+0x14]
  4045cc:	57                   	push   edi
  4045cd:	ff 75 10             	push   DWORD PTR [ebp+0x10]
  4045d0:	ff 75 0c             	push   DWORD PTR [ebp+0xc]
  4045d3:	e8 83 fc ff ff       	call   0x40425b
  4045d8:	5f                   	pop    edi
  4045d9:	5e                   	pop    esi
  4045da:	5b                   	pop    ebx
  4045db:	c9                   	leave  
  4045dc:	c2 10 00             	ret    0x10
  4045df:	83 3d cc f4 42 00 00 	cmp    DWORD PTR ds:0x42f4cc,0x0
  4045e6:	a1 60 98 42 00       	mov    eax,ds:0x429860
  4045eb:	75 05                	jne    0x4045f2
  4045ed:	a1 94 a8 42 00       	mov    eax,ds:0x42a894
  4045f2:	6a 01                	push   0x1
  4045f4:	6a 01                	push   0x1
  4045f6:	68 f4 00 00 00       	push   0xf4
  4045fb:	50                   	push   eax
  4045fc:	ff 15 00 82 40 00    	call   DWORD PTR ds:0x408200
  404602:	c3                   	ret    
  404603:	55                   	push   ebp
  404604:	8b ec                	mov    ebp,esp
  404606:	83 ec 3c             	sub    esp,0x3c
  404609:	8b 45 08             	mov    eax,DWORD PTR [ebp+0x8]
  40460c:	83 65 d8 00          	and    DWORD PTR [ebp-0x28],0x0
  404610:	83 65 dc 00          	and    DWORD PTR [ebp-0x24],0x0
  404614:	89 45 cc             	mov    DWORD PTR [ebp-0x34],eax
  404617:	8b 45 0c             	mov    eax,DWORD PTR [ebp+0xc]
  40461a:	c7 45 c8 00 05 00 00 	mov    DWORD PTR [ebp-0x38],0x500
  404621:	89 45 d4             	mov    DWORD PTR [ebp-0x2c],eax
  404624:	8d 45 c4             	lea    eax,[ebp-0x3c]
  404627:	50                   	push   eax
  404628:	c7 45 e0 01 00 00 00 	mov    DWORD PTR [ebp-0x20],0x1
  40462f:	c7 45 d0 1c a2 40 00 	mov    DWORD PTR [ebp-0x30],0x40a21c
  404636:	e8 0d 12 00 00       	call   0x405848
  40463b:	c9                   	leave  
  40463c:	c2 0c 00             	ret    0xc
  40463f:	55                   	push   ebp
  404640:	8b ec                	mov    ebp,esp
  404642:	81 7d 0c 10 01 00 00 	cmp    DWORD PTR [ebp+0xc],0x110
  404649:	56                   	push   esi
  40464a:	8b 75 14             	mov    esi,DWORD PTR [ebp+0x14]
  40464d:	75 26                	jne    0x404675
  40464f:	ff 76 30             	push   DWORD PTR [esi+0x30]
  404652:	6a 1d                	push   0x1d
  404654:	ff 75 08             	push   DWORD PTR [ebp+0x8]
  404657:	e8 98 fb ff ff       	call   0x4041f4
  40465c:	8b 46 3c             	mov    eax,DWORD PTR [esi+0x3c]
  40465f:	c1 e0 0a             	shl    eax,0xa
  404662:	05 00 00 43 00       	add    eax,0x430000
  404667:	50                   	push   eax
  404668:	68 e8 03 00 00       	push   0x3e8
  40466d:	ff 75 08             	push   DWORD PTR [ebp+0x8]
  404670:	e8 eb 11 00 00       	call   0x405860
  404675:	56                   	push   esi
  404676:	ff 75 10             	push   DWORD PTR [ebp+0x10]
  404679:	ff 75 0c             	push   DWORD PTR [ebp+0xc]
  40467c:	e8 da fb ff ff       	call   0x40425b
  404681:	5e                   	pop    esi
  404682:	5d                   	pop    ebp
  404683:	c2 10 00             	ret    0x10
  404686:	55                   	push   ebp
  404687:	8b ec                	mov    ebp,esp
  404689:	83 ec 4c             	sub    esp,0x4c
  40468c:	a1 70 a0 42 00       	mov    eax,ds:0x42a070
  404691:	53                   	push   ebx
  404692:	89 45 e4             	mov    DWORD PTR [ebp-0x1c],eax
  404695:	56                   	push   esi
  404696:	8b 58 3c             	mov    ebx,DWORD PTR [eax+0x3c]
  404699:	8b 40 38             	mov    eax,DWORD PTR [eax+0x38]
  40469c:	c1 e3 0a             	shl    ebx,0xa
  40469f:	81 c3 00 00 43 00    	add    ebx,0x430000
  4046a5:	81 7d 0c 0b 04 00 00 	cmp    DWORD PTR [ebp+0xc],0x40b
  4046ac:	57                   	push   edi
  4046ad:	89 45 f8             	mov    DWORD PTR [ebp-0x8],eax
  4046b0:	75 11                	jne    0x4046c3
  4046b2:	53                   	push   ebx
  4046b3:	68 fb 03 00 00       	push   0x3fb
  4046b8:	e8 a9 11 00 00       	call   0x405866
  4046bd:	53                   	push   ebx
  4046be:	e8 0d 1d 00 00       	call   0x4063d0
  4046c3:	81 7d 0c 10 01 00 00 	cmp    DWORD PTR [ebp+0xc],0x110
  4046ca:	8b 75 08             	mov    esi,DWORD PTR [ebp+0x8]
  4046cd:	75 6c                	jne    0x40473b
  4046cf:	68 fb 03 00 00       	push   0x3fb
  4046d4:	56                   	push   esi
  4046d5:	ff 15 d0 81 40 00    	call   DWORD PTR ds:0x4081d0
  4046db:	53                   	push   ebx
  4046dc:	8b f8                	mov    edi,eax
  4046de:	e8 88 14 00 00       	call   0x405b6b
  4046e3:	85 c0                	test   eax,eax
  4046e5:	74 10                	je     0x4046f7
  4046e7:	53                   	push   ebx
  4046e8:	e8 aa 14 00 00       	call   0x405b97
  4046ed:	85 c0                	test   eax,eax
  4046ef:	75 06                	jne    0x4046f7
  4046f1:	53                   	push   ebx
  4046f2:	e8 07 14 00 00       	call   0x405afe
  4046f7:	53                   	push   ebx
  4046f8:	57                   	push   edi
  4046f9:	89 35 f8 eb 42 00    	mov    DWORD PTR ds:0x42ebf8,esi
  4046ff:	ff 15 40 82 40 00    	call   DWORD PTR ds:0x408240
  404705:	8b 45 14             	mov    eax,DWORD PTR [ebp+0x14]
  404708:	ff 70 34             	push   DWORD PTR [eax+0x34]
  40470b:	6a 01                	push   0x1
  40470d:	56                   	push   esi
  40470e:	e8 e1 fa ff ff       	call   0x4041f4
  404713:	8b 45 14             	mov    eax,DWORD PTR [ebp+0x14]
  404716:	ff 70 30             	push   DWORD PTR [eax+0x30]
  404719:	6a 14                	push   0x14
  40471b:	56                   	push   esi
  40471c:	e8 d3 fa ff ff       	call   0x4041f4
  404721:	57                   	push   edi
  404722:	e8 02 fb ff ff       	call   0x404229
  404727:	6a 07                	push   0x7
  404729:	e8 d0 1d 00 00       	call   0x4064fe
  40472e:	85 c0                	test   eax,eax
  404730:	0f 84 8c 02 00 00    	je     0x4049c2
  404736:	6a 01                	push   0x1
  404738:	57                   	push   edi
  404739:	ff d0                	call   eax
  40473b:	81 7d 0c 11 01 00 00 	cmp    DWORD PTR [ebp+0xc],0x111
  404742:	0f 85 d1 00 00 00    	jne    0x404819
  404748:	0f b7 45 10          	movzx  eax,WORD PTR [ebp+0x10]
  40474c:	3d fb 03 00 00       	cmp    eax,0x3fb
  404751:	75 18                	jne    0x40476b
  404753:	8b 4d 10             	mov    ecx,DWORD PTR [ebp+0x10]
  404756:	c1 e9 10             	shr    ecx,0x10
  404759:	66 81 f9 00 03       	cmp    cx,0x300
  40475e:	0f 85 5e 02 00 00    	jne    0x4049c2
  404764:	c7 45 0c 0f 04 00 00 	mov    DWORD PTR [ebp+0xc],0x40f
  40476b:	3d e9 03 00 00       	cmp    eax,0x3e9
  404770:	0f 85 a3 00 00 00    	jne    0x404819
  404776:	6a 07                	push   0x7
  404778:	33 c0                	xor    eax,eax
  40477a:	59                   	pop    ecx
  40477b:	8d 7d b8             	lea    edi,[ebp-0x48]
  40477e:	ff 75 f8             	push   DWORD PTR [ebp-0x8]
  404781:	f3 ab                	rep stos DWORD PTR es:[edi],eax
  404783:	bf 98 a8 42 00       	mov    edi,0x42a898
  404788:	68 70 9c 42 00       	push   0x429c70
  40478d:	89 75 b4             	mov    DWORD PTR [ebp-0x4c],esi
  404790:	89 7d bc             	mov    DWORD PTR [ebp-0x44],edi
  404793:	c7 45 c8 d7 49 40 00 	mov    DWORD PTR [ebp-0x38],0x4049d7
  40479a:	89 5d cc             	mov    DWORD PTR [ebp-0x34],ebx
  40479d:	e8 e6 19 00 00       	call   0x406188
  4047a2:	89 45 c0             	mov    DWORD PTR [ebp-0x40],eax
  4047a5:	8d 45 b4             	lea    eax,[ebp-0x4c]
  4047a8:	50                   	push   eax
  4047a9:	c7 45 c4 41 00 00 00 	mov    DWORD PTR [ebp-0x3c],0x41
  4047b0:	ff 15 74 81 40 00    	call   DWORD PTR ds:0x408174
  4047b6:	85 c0                	test   eax,eax
  4047b8:	74 58                	je     0x404812
  4047ba:	50                   	push   eax
  4047bb:	ff 15 88 82 40 00    	call   DWORD PTR ds:0x408288
  4047c1:	53                   	push   ebx
  4047c2:	e8 37 13 00 00       	call   0x405afe
  4047c7:	a1 34 f4 42 00       	mov    eax,ds:0x42f434
  4047cc:	8b 80 1c 01 00 00    	mov    eax,DWORD PTR [eax+0x11c]
  4047d2:	85 c0                	test   eax,eax
  4047d4:	74 28                	je     0x4047fe
  4047d6:	81 fb 00 54 43 00    	cmp    ebx,0x435400
  4047dc:	75 20                	jne    0x4047fe
  4047de:	50                   	push   eax
  4047df:	6a 00                	push   0x0
  4047e1:	e8 a2 19 00 00       	call   0x406188
  4047e6:	57                   	push   edi
  4047e7:	bf c0 e3 42 00       	mov    edi,0x42e3c0
  4047ec:	57                   	push   edi
  4047ed:	ff 15 18 81 40 00    	call   DWORD PTR ds:0x408118
  4047f3:	85 c0                	test   eax,eax
  4047f5:	74 07                	je     0x4047fe
  4047f7:	57                   	push   edi
  4047f8:	53                   	push   ebx
  4047f9:	e8 84 19 00 00       	call   0x406182
  4047fe:	ff 05 88 a8 42 00    	inc    DWORD PTR ds:0x42a888
  404804:	53                   	push   ebx
  404805:	68 fb 03 00 00       	push   0x3fb
  40480a:	56                   	push   esi
  40480b:	e8 50 10 00 00       	call   0x405860
  404810:	eb 07                	jmp    0x404819
  404812:	c7 45 0c 0f 04 00 00 	mov    DWORD PTR [ebp+0xc],0x40f
  404819:	81 7d 0c 0f 04 00 00 	cmp    DWORD PTR [ebp+0xc],0x40f
  404820:	74 0d                	je     0x40482f
  404822:	81 7d 0c 05 04 00 00 	cmp    DWORD PTR [ebp+0xc],0x405
  404829:	0f 85 93 01 00 00    	jne    0x4049c2
  40482f:	83 65 fc 00          	and    DWORD PTR [ebp-0x4],0x0
  404833:	83 65 f8 00          	and    DWORD PTR [ebp-0x8],0x0
  404837:	53                   	push   ebx
  404838:	68 fb 03 00 00       	push   0x3fb
  40483d:	e8 24 10 00 00       	call   0x405866
  404842:	53                   	push   ebx
  404843:	e8 a4 13 00 00       	call   0x405bec
  404848:	85 c0                	test   eax,eax
  40484a:	75 07                	jne    0x404853
  40484c:	c7 45 fc 01 00 00 00 	mov    DWORD PTR [ebp-0x4],0x1
  404853:	be 68 98 42 00       	mov    esi,0x429868
  404858:	53                   	push   ebx
  404859:	56                   	push   esi
  40485a:	e8 07 19 00 00       	call   0x406166
  40485f:	6a 01                	push   0x1
  404861:	e8 98 1c 00 00       	call   0x4064fe
  404866:	85 c0                	test   eax,eax
  404868:	89 45 f4             	mov    DWORD PTR [ebp-0xc],eax
  40486b:	74 35                	je     0x4048a2
  40486d:	33 c0                	xor    eax,eax
  40486f:	33 ff                	xor    edi,edi
  404871:	3b c6                	cmp    eax,esi
  404873:	74 2d                	je     0x4048a2
  404875:	8d 45 dc             	lea    eax,[ebp-0x24]
  404878:	50                   	push   eax
  404879:	8d 45 e8             	lea    eax,[ebp-0x18]
  40487c:	50                   	push   eax
  40487d:	8d 45 d4             	lea    eax,[ebp-0x2c]
  404880:	50                   	push   eax
  404881:	56                   	push   esi
  404882:	ff 55 f4             	call   DWORD PTR [ebp-0xc]
  404885:	85 c0                	test   eax,eax
  404887:	75 71                	jne    0x4048fa
  404889:	85 ff                	test   edi,edi
  40488b:	74 02                	je     0x40488f
  40488d:	20 07                	and    BYTE PTR [edi],al
  40488f:	56                   	push   esi
  404890:	e8 b0 12 00 00       	call   0x405b45
  404895:	8b f8                	mov    edi,eax
  404897:	80 27 00             	and    BYTE PTR [edi],0x0
  40489a:	4f                   	dec    edi
  40489b:	3b fe                	cmp    edi,esi
  40489d:	c6 07 5c             	mov    BYTE PTR [edi],0x5c
  4048a0:	75 d3                	jne    0x404875
  4048a2:	53                   	push   ebx
  4048a3:	56                   	push   esi
  4048a4:	e8 bd 18 00 00       	call   0x406166
  4048a9:	56                   	push   esi
  4048aa:	e8 e8 12 00 00       	call   0x405b97
  4048af:	33 ff                	xor    edi,edi
  4048b1:	3b c7                	cmp    eax,edi
  4048b3:	74 03                	je     0x4048b8
  4048b5:	80 20 00             	and    BYTE PTR [eax],0x0
  4048b8:	8d 45 e0             	lea    eax,[ebp-0x20]
  4048bb:	50                   	push   eax
  4048bc:	8d 45 f4             	lea    eax,[ebp-0xc]
  4048bf:	50                   	push   eax
  4048c0:	8d 45 ec             	lea    eax,[ebp-0x14]
  4048c3:	50                   	push   eax
  4048c4:	8d 45 f0             	lea    eax,[ebp-0x10]
  4048c7:	50                   	push   eax
  4048c8:	56                   	push   esi
  4048c9:	ff 15 20 81 40 00    	call   DWORD PTR ds:0x408120
  4048cf:	85 c0                	test   eax,eax
  4048d1:	74 43                	je     0x404916
  4048d3:	8b 45 f0             	mov    eax,DWORD PTR [ebp-0x10]
  4048d6:	be 00 04 00 00       	mov    esi,0x400
  4048db:	0f af 45 ec          	imul   eax,DWORD PTR [ebp-0x14]
  4048df:	56                   	push   esi
  4048e0:	ff 75 f4             	push   DWORD PTR [ebp-0xc]
  4048e3:	50                   	push   eax
  4048e4:	ff 15 44 81 40 00    	call   DWORD PTR ds:0x408144
  4048ea:	99                   	cdq    
  4048eb:	89 45 d4             	mov    DWORD PTR [ebp-0x2c],eax
  4048ee:	89 55 d8             	mov    DWORD PTR [ebp-0x28],edx
  4048f1:	c7 45 f8 01 00 00 00 	mov    DWORD PTR [ebp-0x8],0x1
  4048f8:	eb 21                	jmp    0x40491b
  4048fa:	8b 45 d4             	mov    eax,DWORD PTR [ebp-0x2c]
  4048fd:	8b 4d d8             	mov    ecx,DWORD PTR [ebp-0x28]
  404900:	0f ac c8 0a          	shrd   eax,ecx,0xa
  404904:	c1 e9 0a             	shr    ecx,0xa
  404907:	89 45 d4             	mov    DWORD PTR [ebp-0x2c],eax
  40490a:	89 4d d8             	mov    DWORD PTR [ebp-0x28],ecx
  40490d:	c7 45 f8 01 00 00 00 	mov    DWORD PTR [ebp-0x8],0x1
  404914:	33 ff                	xor    edi,edi
  404916:	be 00 04 00 00       	mov    esi,0x400
  40491b:	6a 05                	push   0x5
  40491d:	e8 f8 01 00 00       	call   0x404b1a
  404922:	39 7d f8             	cmp    DWORD PTR [ebp-0x8],edi
  404925:	74 19                	je     0x404940
  404927:	8b 55 d8             	mov    edx,DWORD PTR [ebp-0x28]
  40492a:	33 c9                	xor    ecx,ecx
  40492c:	3b d1                	cmp    edx,ecx
  40492e:	77 10                	ja     0x404940
  404930:	72 07                	jb     0x404939
  404932:	8b 4d d4             	mov    ecx,DWORD PTR [ebp-0x2c]
  404935:	3b c8                	cmp    ecx,eax
  404937:	73 07                	jae    0x404940
  404939:	c7 45 fc 02 00 00 00 	mov    DWORD PTR [ebp-0x4],0x2
  404940:	8b 0d fc eb 42 00    	mov    ecx,DWORD PTR ds:0x42ebfc
  404946:	39 79 10             	cmp    DWORD PTR [ecx+0x10],edi
  404949:	74 30                	je     0x40497b
  40494b:	50                   	push   eax
  40494c:	6a fb                	push   0xfffffffb
  40494e:	68 ff 03 00 00       	push   0x3ff
  404953:	e8 aa 01 00 00       	call   0x404b02
  404958:	39 7d f8             	cmp    DWORD PTR [ebp-0x8],edi
  40495b:	74 10                	je     0x40496d
  40495d:	ff 75 d8             	push   DWORD PTR [ebp-0x28]
  404960:	ff 75 d4             	push   DWORD PTR [ebp-0x2c]
  404963:	6a fc                	push   0xfffffffc
  404965:	56                   	push   esi
  404966:	e8 d2 00 00 00       	call   0x404a3d
  40496b:	eb 0e                	jmp    0x40497b
  40496d:	68 58 98 42 00       	push   0x429858
  404972:	56                   	push   esi
  404973:	ff 75 08             	push   DWORD PTR [ebp+0x8]
  404976:	e8 e5 0e 00 00       	call   0x405860
  40497b:	8b 45 fc             	mov    eax,DWORD PTR [ebp-0x4]
  40497e:	3b c7                	cmp    eax,edi
  404980:	a3 e4 f4 42 00       	mov    ds:0x42f4e4,eax
  404985:	75 0a                	jne    0x404991
  404987:	6a 07                	push   0x7
  404989:	e8 7d ca ff ff       	call   0x40140b
  40498e:	89 45 fc             	mov    DWORD PTR [ebp-0x4],eax
  404991:	8b 45 e4             	mov    eax,DWORD PTR [ebp-0x1c]
  404994:	85 70 14             	test   DWORD PTR [eax+0x14],esi
  404997:	74 03                	je     0x40499c
  404999:	89 7d fc             	mov    DWORD PTR [ebp-0x4],edi
  40499c:	33 c0                	xor    eax,eax
  40499e:	39 7d fc             	cmp    DWORD PTR [ebp-0x4],edi
  4049a1:	0f 94 c0             	sete   al
  4049a4:	50                   	push   eax
  4049a5:	e8 6c f8 ff ff       	call   0x404216
  4049aa:	39 7d fc             	cmp    DWORD PTR [ebp-0x4],edi
  4049ad:	75 0d                	jne    0x4049bc
  4049af:	39 3d 88 a8 42 00    	cmp    DWORD PTR ds:0x42a888,edi
  4049b5:	75 05                	jne    0x4049bc
  4049b7:	e8 23 fc ff ff       	call   0x4045df
  4049bc:	89 3d 88 a8 42 00    	mov    DWORD PTR ds:0x42a888,edi
  4049c2:	ff 75 14             	push   DWORD PTR [ebp+0x14]
  4049c5:	ff 75 10             	push   DWORD PTR [ebp+0x10]
  4049c8:	ff 75 0c             	push   DWORD PTR [ebp+0xc]
  4049cb:	e8 8b f8 ff ff       	call   0x40425b
  4049d0:	5f                   	pop    edi
  4049d1:	5e                   	pop    esi
  4049d2:	5b                   	pop    ebx
  4049d3:	c9                   	leave  
  4049d4:	c2 10 00             	ret    0x10
  4049d7:	55                   	push   ebp
  4049d8:	8b ec                	mov    ebp,esp
  4049da:	83 7d 0c 01          	cmp    DWORD PTR [ebp+0xc],0x1
  4049de:	56                   	push   esi
  4049df:	8b 35 00 82 40 00    	mov    esi,DWORD PTR ds:0x408200
  4049e5:	75 1c                	jne    0x404a03
  4049e7:	ff 75 14             	push   DWORD PTR [ebp+0x14]
  4049ea:	68 fb 03 00 00       	push   0x3fb
  4049ef:	e8 72 0e 00 00       	call   0x405866
  4049f4:	ff 75 14             	push   DWORD PTR [ebp+0x14]
  4049f7:	6a 01                	push   0x1
  4049f9:	68 66 04 00 00       	push   0x466
  4049fe:	ff 75 08             	push   DWORD PTR [ebp+0x8]
  404a01:	ff d6                	call   esi
  404a03:	83 7d 0c 02          	cmp    DWORD PTR [ebp+0xc],0x2
  404a07:	75 2d                	jne    0x404a36
  404a09:	ff 75 14             	push   DWORD PTR [ebp+0x14]
  404a0c:	ff 75 10             	push   DWORD PTR [ebp+0x10]
  404a0f:	ff 15 70 81 40 00    	call   DWORD PTR ds:0x408170
  404a15:	85 c0                	test   eax,eax
  404a17:	74 0e                	je     0x404a27
  404a19:	6a 07                	push   0x7
  404a1b:	e8 eb c9 ff ff       	call   0x40140b
  404a20:	85 c0                	test   eax,eax
  404a22:	75 03                	jne    0x404a27
  404a24:	40                   	inc    eax
  404a25:	eb 02                	jmp    0x404a29
  404a27:	33 c0                	xor    eax,eax
  404a29:	50                   	push   eax
  404a2a:	6a 00                	push   0x0
  404a2c:	68 65 04 00 00       	push   0x465
  404a31:	ff 75 08             	push   DWORD PTR [ebp+0x8]
  404a34:	ff d6                	call   esi
  404a36:	33 c0                	xor    eax,eax
  404a38:	5e                   	pop    esi
  404a39:	5d                   	pop    ebp
  404a3a:	c2 10 00             	ret    0x10
  404a3d:	55                   	push   ebp
  404a3e:	8b ec                	mov    ebp,esp
  404a40:	83 ec 40             	sub    esp,0x40
  404a43:	8b 45 14             	mov    eax,DWORD PTR [ebp+0x14]
  404a46:	53                   	push   ebx
  404a47:	56                   	push   esi
  404a48:	8b 75 10             	mov    esi,DWORD PTR [ebp+0x10]
  404a4b:	57                   	push   edi
  404a4c:	6a dc                	push   0xffffffdc
  404a4e:	85 c0                	test   eax,eax
  404a50:	5b                   	pop    ebx
  404a51:	74 0b                	je     0x404a5e
  404a53:	0f ac c6 14          	shrd   esi,eax,0x14
  404a57:	c1 e8 14             	shr    eax,0x14
  404a5a:	33 ff                	xor    edi,edi
  404a5c:	eb 4e                	jmp    0x404aac
  404a5e:	6a 14                	push   0x14
  404a60:	81 fe 00 00 10 00    	cmp    esi,0x100000
  404a66:	59                   	pop    ecx
  404a67:	8b c6                	mov    eax,esi
  404a69:	73 06                	jae    0x404a71
  404a6b:	6a 0a                	push   0xa
  404a6d:	59                   	pop    ecx
  404a6e:	6a dd                	push   0xffffffdd
  404a70:	5b                   	pop    ebx
  404a71:	81 fe 00 04 00 00    	cmp    esi,0x400
  404a77:	73 05                	jae    0x404a7e
  404a79:	6a de                	push   0xffffffde
  404a7b:	33 c9                	xor    ecx,ecx
  404a7d:	5b                   	pop    ebx
  404a7e:	81 fe 33 33 ff ff    	cmp    esi,0xffff3333
  404a84:	73 0d                	jae    0x404a93
  404a86:	33 c0                	xor    eax,eax
  404a88:	6a 14                	push   0x14
  404a8a:	40                   	inc    eax
  404a8b:	5f                   	pop    edi
  404a8c:	d3 e0                	shl    eax,cl
  404a8e:	99                   	cdq    
  404a8f:	f7 ff                	idiv   edi
  404a91:	03 c6                	add    eax,esi
  404a93:	8b f0                	mov    esi,eax
  404a95:	25 ff ff ff 00       	and    eax,0xffffff
  404a9a:	6a 0a                	push   0xa
  404a9c:	33 d2                	xor    edx,edx
  404a9e:	8d 04 80             	lea    eax,[eax+eax*4]
  404aa1:	03 c0                	add    eax,eax
  404aa3:	d3 e8                	shr    eax,cl
  404aa5:	d3 ee                	shr    esi,cl
  404aa7:	59                   	pop    ecx
  404aa8:	f7 f1                	div    ecx
  404aaa:	8b fa                	mov    edi,edx
  404aac:	8d 45 e0             	lea    eax,[ebp-0x20]
  404aaf:	6a df                	push   0xffffffdf
  404ab1:	50                   	push   eax
  404ab2:	e8 d1 16 00 00       	call   0x406188
  404ab7:	50                   	push   eax
  404ab8:	8d 45 c0             	lea    eax,[ebp-0x40]
  404abb:	53                   	push   ebx
  404abc:	50                   	push   eax
  404abd:	e8 c6 16 00 00       	call   0x406188
  404ac2:	50                   	push   eax
  404ac3:	57                   	push   edi
  404ac4:	56                   	push   esi
  404ac5:	68 24 a2 40 00       	push   0x40a224
  404aca:	ff 75 0c             	push   DWORD PTR [ebp+0xc]
  404acd:	be 98 a8 42 00       	mov    esi,0x42a898
  404ad2:	56                   	push   esi
  404ad3:	e8 b0 16 00 00       	call   0x406188
  404ad8:	56                   	push   esi
  404ad9:	8b f8                	mov    edi,eax
  404adb:	e8 9c 16 00 00       	call   0x40617c
  404ae0:	03 f8                	add    edi,eax
  404ae2:	57                   	push   edi
  404ae3:	ff 15 74 82 40 00    	call   DWORD PTR ds:0x408274
  404ae9:	83 c4 18             	add    esp,0x18
  404aec:	56                   	push   esi
  404aed:	ff 75 08             	push   DWORD PTR [ebp+0x8]
  404af0:	ff 35 f8 eb 42 00    	push   DWORD PTR ds:0x42ebf8
  404af6:	e8 65 0d 00 00       	call   0x405860
  404afb:	5f                   	pop    edi
  404afc:	5e                   	pop    esi
  404afd:	5b                   	pop    ebx
  404afe:	c9                   	leave  
  404aff:	c2 10 00             	ret    0x10
  404b02:	8b 44 24 0c          	mov    eax,DWORD PTR [esp+0xc]
  404b06:	33 c9                	xor    ecx,ecx
  404b08:	51                   	push   ecx
  404b09:	50                   	push   eax
  404b0a:	ff 74 24 10          	push   DWORD PTR [esp+0x10]
  404b0e:	ff 74 24 10          	push   DWORD PTR [esp+0x10]
  404b12:	e8 26 ff ff ff       	call   0x404a3d
  404b17:	c2 0c 00             	ret    0xc
  404b1a:	8b 15 6c f4 42 00    	mov    edx,DWORD PTR ds:0x42f46c
  404b20:	8b 0d 68 f4 42 00    	mov    ecx,DWORD PTR ds:0x42f468
  404b26:	33 c0                	xor    eax,eax
  404b28:	85 d2                	test   edx,edx
  404b2a:	74 18                	je     0x404b44
  404b2c:	56                   	push   esi
  404b2d:	f6 41 08 01          	test   BYTE PTR [ecx+0x8],0x1
  404b31:	74 07                	je     0x404b3a
  404b33:	8b 74 24 08          	mov    esi,DWORD PTR [esp+0x8]
  404b37:	03 04 b1             	add    eax,DWORD PTR [ecx+esi*4]
  404b3a:	81 c1 18 04 00 00    	add    ecx,0x418
  404b40:	4a                   	dec    edx
  404b41:	75 ea                	jne    0x404b2d
  404b43:	5e                   	pop    esi
  404b44:	c2 04 00             	ret    0x4
  404b47:	55                   	push   ebp
  404b48:	8b ec                	mov    ebp,esp
  404b4a:	83 ec 38             	sub    esp,0x38
  404b4d:	56                   	push   esi
  404b4e:	8b 35 00 82 40 00    	mov    esi,DWORD PTR ds:0x408200
  404b54:	57                   	push   edi
  404b55:	8b 7d 08             	mov    edi,DWORD PTR [ebp+0x8]
  404b58:	6a 00                	push   0x0
  404b5a:	6a 09                	push   0x9
  404b5c:	68 0a 11 00 00       	push   0x110a
  404b61:	57                   	push   edi
  404b62:	ff d6                	call   esi
  404b64:	83 7d 0c 00          	cmp    DWORD PTR [ebp+0xc],0x0
  404b68:	74 3c                	je     0x404ba6
  404b6a:	ff 15 ac 81 40 00    	call   DWORD PTR ds:0x4081ac
  404b70:	0f bf c8             	movsx  ecx,ax
  404b73:	c1 e8 10             	shr    eax,0x10
  404b76:	0f bf c0             	movsx  eax,ax
  404b79:	89 45 f4             	mov    DWORD PTR [ebp-0xc],eax
  404b7c:	8d 45 f0             	lea    eax,[ebp-0x10]
  404b7f:	50                   	push   eax
  404b80:	57                   	push   edi
  404b81:	89 4d f0             	mov    DWORD PTR [ebp-0x10],ecx
  404b84:	ff 15 c8 81 40 00    	call   DWORD PTR ds:0x4081c8
  404b8a:	8d 45 f0             	lea    eax,[ebp-0x10]
  404b8d:	50                   	push   eax
  404b8e:	6a 00                	push   0x0
  404b90:	68 11 11 00 00       	push   0x1111
  404b95:	57                   	push   edi
  404b96:	ff d6                	call   esi
  404b98:	f6 45 f8 66          	test   BYTE PTR [ebp-0x8],0x66
  404b9c:	75 05                	jne    0x404ba3
  404b9e:	83 c8 ff             	or     eax,0xffffffff
  404ba1:	eb 1e                	jmp    0x404bc1
  404ba3:	8b 45 fc             	mov    eax,DWORD PTR [ebp-0x4]
  404ba6:	89 45 cc             	mov    DWORD PTR [ebp-0x34],eax
  404ba9:	8d 45 c8             	lea    eax,[ebp-0x38]
  404bac:	50                   	push   eax
  404bad:	6a 00                	push   0x0
  404baf:	68 0c 11 00 00       	push   0x110c
  404bb4:	57                   	push   edi
  404bb5:	c7 45 c8 04 00 00 00 	mov    DWORD PTR [ebp-0x38],0x4
  404bbc:	ff d6                	call   esi
  404bbe:	8b 45 ec             	mov    eax,DWORD PTR [ebp-0x14]
  404bc1:	5f                   	pop    edi
  404bc2:	5e                   	pop    esi
  404bc3:	c9                   	leave  
  404bc4:	c2 08 00             	ret    0x8
  404bc7:	56                   	push   esi
  404bc8:	57                   	push   edi
  404bc9:	be 00 00 43 00       	mov    esi,0x430000
  404bce:	bf 98 a8 42 00       	mov    edi,0x42a898
  404bd3:	56                   	push   esi
  404bd4:	57                   	push   edi
  404bd5:	e8 8c 15 00 00       	call   0x406166
  404bda:	ff 74 24 10          	push   DWORD PTR [esp+0x10]
  404bde:	56                   	push   esi
  404bdf:	e8 e0 14 00 00       	call   0x4060c4
  404be4:	ff 74 24 0c          	push   DWORD PTR [esp+0xc]
  404be8:	e8 1e c8 ff ff       	call   0x40140b
  404bed:	57                   	push   edi
  404bee:	56                   	push   esi
  404bef:	e8 72 15 00 00       	call   0x406166
  404bf4:	5f                   	pop    edi
  404bf5:	5e                   	pop    esi
  404bf6:	c2 08 00             	ret    0x8
  404bf9:	55                   	push   ebp
  404bfa:	8b ec                	mov    ebp,esp
  404bfc:	83 ec 54             	sub    esp,0x54
  404bff:	53                   	push   ebx
  404c00:	56                   	push   esi
  404c01:	8b 35 d0 81 40 00    	mov    esi,DWORD PTR ds:0x4081d0
  404c07:	57                   	push   edi
  404c08:	68 f9 03 00 00       	push   0x3f9
  404c0d:	ff 75 08             	push   DWORD PTR [ebp+0x8]
  404c10:	ff d6                	call   esi
  404c12:	68 08 04 00 00       	push   0x408
  404c17:	89 45 f8             	mov    DWORD PTR [ebp-0x8],eax
  404c1a:	ff 75 08             	push   DWORD PTR [ebp+0x8]
  404c1d:	ff d6                	call   esi
  404c1f:	89 45 fc             	mov    DWORD PTR [ebp-0x4],eax
  404c22:	a1 68 f4 42 00       	mov    eax,ds:0x42f468
  404c27:	8b 35 00 82 40 00    	mov    esi,DWORD PTR ds:0x408200
  404c2d:	89 45 ec             	mov    DWORD PTR [ebp-0x14],eax
  404c30:	a1 34 f4 42 00       	mov    eax,ds:0x42f434
  404c35:	33 db                	xor    ebx,ebx
  404c37:	05 94 00 00 00       	add    eax,0x94
  404c3c:	81 7d 0c 10 01 00 00 	cmp    DWORD PTR [ebp+0xc],0x110
  404c43:	6a 10                	push   0x10
  404c45:	89 45 e8             	mov    DWORD PTR [ebp-0x18],eax
  404c48:	5f                   	pop    edi
  404c49:	0f 85 27 02 00 00    	jne    0x404e76
  404c4f:	8b 45 08             	mov    eax,DWORD PTR [ebp+0x8]
  404c52:	89 5d e0             	mov    DWORD PTR [ebp-0x20],ebx
  404c55:	a3 a0 f4 42 00       	mov    ds:0x42f4a0,eax
  404c5a:	a1 6c f4 42 00       	mov    eax,ds:0x42f46c
  404c5f:	c1 e0 02             	shl    eax,0x2
  404c62:	50                   	push   eax
  404c63:	6a 40                	push   0x40
  404c65:	c7 45 f0 02 00 00 00 	mov    DWORD PTR [ebp-0x10],0x2
  404c6c:	ff 15 58 81 40 00    	call   DWORD PTR ds:0x408158
  404c72:	53                   	push   ebx
  404c73:	53                   	push   ebx
  404c74:	53                   	push   ebx
  404c75:	53                   	push   ebx
  404c76:	6a 6e                	push   0x6e
  404c78:	a3 90 a8 42 00       	mov    ds:0x42a890,eax
  404c7d:	ff 35 20 f4 42 00    	push   DWORD PTR ds:0x42f420
  404c83:	ff 15 34 82 40 00    	call   DWORD PTR ds:0x408234
  404c89:	83 0d 84 a8 42 00 ff 	or     DWORD PTR ds:0x42a884,0xffffffff
  404c90:	68 01 52 40 00       	push   0x405201
  404c95:	6a fc                	push   0xfffffffc
  404c97:	89 45 f4             	mov    DWORD PTR [ebp-0xc],eax
  404c9a:	ff 75 fc             	push   DWORD PTR [ebp-0x4]
  404c9d:	ff 15 4c 82 40 00    	call   DWORD PTR ds:0x40824c
  404ca3:	53                   	push   ebx
  404ca4:	6a 06                	push   0x6
  404ca6:	6a 21                	push   0x21
  404ca8:	57                   	push   edi
  404ca9:	57                   	push   edi
  404caa:	a3 8c a8 42 00       	mov    ds:0x42a88c,eax
  404caf:	ff 15 38 80 40 00    	call   DWORD PTR ds:0x408038
  404cb5:	68 ff 00 ff 00       	push   0xff00ff
  404cba:	a3 7c a8 42 00       	mov    ds:0x42a87c,eax
  404cbf:	ff 75 f4             	push   DWORD PTR [ebp-0xc]
  404cc2:	50                   	push   eax
  404cc3:	ff 15 3c 80 40 00    	call   DWORD PTR ds:0x40803c
  404cc9:	ff 35 7c a8 42 00    	push   DWORD PTR ds:0x42a87c
  404ccf:	6a 02                	push   0x2
  404cd1:	68 09 11 00 00       	push   0x1109
  404cd6:	ff 75 fc             	push   DWORD PTR [ebp-0x4]
  404cd9:	ff d6                	call   esi
  404cdb:	53                   	push   ebx
  404cdc:	53                   	push   ebx
  404cdd:	68 1c 11 00 00       	push   0x111c
  404ce2:	ff 75 fc             	push   DWORD PTR [ebp-0x4]
  404ce5:	ff d6                	call   esi
  404ce7:	3b c7                	cmp    eax,edi
  404ce9:	7d 0c                	jge    0x404cf7
  404ceb:	53                   	push   ebx
  404cec:	57                   	push   edi
  404ced:	68 1b 11 00 00       	push   0x111b
  404cf2:	ff 75 fc             	push   DWORD PTR [ebp-0x4]
  404cf5:	ff d6                	call   esi
  404cf7:	ff 75 f4             	push   DWORD PTR [ebp-0xc]
  404cfa:	ff 15 60 80 40 00    	call   DWORD PTR ds:0x408060
  404d00:	33 ff                	xor    edi,edi
  404d02:	8b 45 e8             	mov    eax,DWORD PTR [ebp-0x18]
  404d05:	8b 04 b8             	mov    eax,DWORD PTR [eax+edi*4]
  404d08:	3b c3                	cmp    eax,ebx
  404d0a:	74 27                	je     0x404d33
  404d0c:	83 ff 20             	cmp    edi,0x20
  404d0f:	74 03                	je     0x404d14
  404d11:	89 5d f0             	mov    DWORD PTR [ebp-0x10],ebx
  404d14:	50                   	push   eax
  404d15:	53                   	push   ebx
  404d16:	e8 6d 14 00 00       	call   0x406188
  404d1b:	50                   	push   eax
  404d1c:	53                   	push   ebx
  404d1d:	68 43 01 00 00       	push   0x143
  404d22:	ff 75 f8             	push   DWORD PTR [ebp-0x8]
  404d25:	ff d6                	call   esi
  404d27:	57                   	push   edi
  404d28:	50                   	push   eax
  404d29:	68 51 01 00 00       	push   0x151
  404d2e:	ff 75 f8             	push   DWORD PTR [ebp-0x8]
  404d31:	ff d6                	call   esi
  404d33:	47                   	inc    edi
  404d34:	83 ff 21             	cmp    edi,0x21
  404d37:	7c c9                	jl     0x404d02
  404d39:	8b 7d 14             	mov    edi,DWORD PTR [ebp+0x14]
  404d3c:	8b 45 f0             	mov    eax,DWORD PTR [ebp-0x10]
  404d3f:	ff 74 87 30          	push   DWORD PTR [edi+eax*4+0x30]
  404d43:	6a 15                	push   0x15
  404d45:	ff 75 08             	push   DWORD PTR [ebp+0x8]
  404d48:	e8 a7 f4 ff ff       	call   0x4041f4
  404d4d:	8b 45 f0             	mov    eax,DWORD PTR [ebp-0x10]
  404d50:	ff 74 87 34          	push   DWORD PTR [edi+eax*4+0x34]
  404d54:	6a 16                	push   0x16
  404d56:	ff 75 08             	push   DWORD PTR [ebp+0x8]
  404d59:	e8 96 f4 ff ff       	call   0x4041f4
  404d5e:	33 ff                	xor    edi,edi
  404d60:	39 1d 6c f4 42 00    	cmp    DWORD PTR ds:0x42f46c,ebx
  404d66:	89 5d f4             	mov    DWORD PTR [ebp-0xc],ebx
  404d69:	0f 8e c9 00 00 00    	jle    0x404e38
  404d6f:	8b 45 ec             	mov    eax,DWORD PTR [ebp-0x14]
  404d72:	8d 50 08             	lea    edx,[eax+0x8]
  404d75:	89 55 e4             	mov    DWORD PTR [ebp-0x1c],edx
  404d78:	8d 42 10             	lea    eax,[edx+0x10]
  404d7b:	38 18                	cmp    BYTE PTR [eax],bl
  404d7d:	0f 84 97 00 00 00    	je     0x404e1a
  404d83:	8b 4d f4             	mov    ecx,DWORD PTR [ebp-0xc]
  404d86:	89 45 c4             	mov    DWORD PTR [ebp-0x3c],eax
  404d89:	8b 02                	mov    eax,DWORD PTR [edx]
  404d8b:	6a 20                	push   0x20
  404d8d:	89 4d ac             	mov    DWORD PTR [ebp-0x54],ecx
  404d90:	59                   	pop    ecx
  404d91:	8b d0                	mov    edx,eax
  404d93:	c7 45 b0 02 00 ff ff 	mov    DWORD PTR [ebp-0x50],0xffff0002
  404d9a:	23 d1                	and    edx,ecx
  404d9c:	c7 45 b4 0d 00 00 00 	mov    DWORD PTR [ebp-0x4c],0xd
  404da3:	a8 02                	test   al,0x2
  404da5:	89 4d c0             	mov    DWORD PTR [ebp-0x40],ecx
  404da8:	89 7d d8             	mov    DWORD PTR [ebp-0x28],edi
  404dab:	89 55 bc             	mov    DWORD PTR [ebp-0x44],edx
  404dae:	74 3a                	je     0x404dea
  404db0:	8d 45 ac             	lea    eax,[ebp-0x54]
  404db3:	c7 45 b4 4d 00 00 00 	mov    DWORD PTR [ebp-0x4c],0x4d
  404dba:	50                   	push   eax
  404dbb:	53                   	push   ebx
  404dbc:	68 00 11 00 00       	push   0x1100
  404dc1:	c7 45 d4 01 00 00 00 	mov    DWORD PTR [ebp-0x2c],0x1
  404dc8:	ff 75 fc             	push   DWORD PTR [ebp-0x4]
  404dcb:	ff d6                	call   esi
  404dcd:	8b 0d 90 a8 42 00    	mov    ecx,DWORD PTR ds:0x42a890
  404dd3:	c7 45 e0 01 00 00 00 	mov    DWORD PTR [ebp-0x20],0x1
  404dda:	89 04 b9             	mov    DWORD PTR [ecx+edi*4],eax
  404ddd:	a1 90 a8 42 00       	mov    eax,ds:0x42a890
  404de2:	8b 04 b8             	mov    eax,DWORD PTR [eax+edi*4]
  404de5:	89 45 f4             	mov    DWORD PTR [ebp-0xc],eax
  404de8:	eb 30                	jmp    0x404e1a
  404dea:	a8 04                	test   al,0x4
  404dec:	74 14                	je     0x404e02
  404dee:	ff 75 f4             	push   DWORD PTR [ebp-0xc]
  404df1:	6a 03                	push   0x3
  404df3:	68 0a 11 00 00       	push   0x110a
  404df8:	ff 75 fc             	push   DWORD PTR [ebp-0x4]
  404dfb:	ff d6                	call   esi
  404dfd:	89 45 f4             	mov    DWORD PTR [ebp-0xc],eax
  404e00:	eb 18                	jmp    0x404e1a
  404e02:	8d 45 ac             	lea    eax,[ebp-0x54]
  404e05:	50                   	push   eax
  404e06:	53                   	push   ebx
  404e07:	68 00 11 00 00       	push   0x1100
  404e0c:	ff 75 fc             	push   DWORD PTR [ebp-0x4]
  404e0f:	ff d6                	call   esi
  404e11:	8b 0d 90 a8 42 00    	mov    ecx,DWORD PTR ds:0x42a890
  404e17:	89 04 b9             	mov    DWORD PTR [ecx+edi*4],eax
  404e1a:	8b 55 e4             	mov    edx,DWORD PTR [ebp-0x1c]
  404e1d:	47                   	inc    edi
  404e1e:	81 c2 18 04 00 00    	add    edx,0x418
  404e24:	3b 3d 6c f4 42 00    	cmp    edi,DWORD PTR ds:0x42f46c
  404e2a:	89 55 e4             	mov    DWORD PTR [ebp-0x1c],edx
  404e2d:	0f 8c 45 ff ff ff    	jl     0x404d78
  404e33:	39 5d e0             	cmp    DWORD PTR [ebp-0x20],ebx
  404e36:	75 19                	jne    0x404e51
  404e38:	6a f0                	push   0xfffffff0
  404e3a:	ff 75 fc             	push   DWORD PTR [ebp-0x4]
  404e3d:	ff 15 9c 81 40 00    	call   DWORD PTR ds:0x40819c
  404e43:	24 fb                	and    al,0xfb
  404e45:	50                   	push   eax
  404e46:	6a f0                	push   0xfffffff0
  404e48:	ff 75 fc             	push   DWORD PTR [ebp-0x4]
  404e4b:	ff 15 4c 82 40 00    	call   DWORD PTR ds:0x40824c
  404e51:	39 5d f0             	cmp    DWORD PTR [ebp-0x10],ebx
  404e54:	75 18                	jne    0x404e6e
  404e56:	6a 05                	push   0x5
  404e58:	ff 75 f8             	push   DWORD PTR [ebp-0x8]
  404e5b:	ff 15 48 82 40 00    	call   DWORD PTR ds:0x408248
  404e61:	ff 75 f8             	push   DWORD PTR [ebp-0x8]
  404e64:	e8 c0 f3 ff ff       	call   0x404229
  404e69:	e9 7e 03 00 00       	jmp    0x4051ec
  404e6e:	ff 75 fc             	push   DWORD PTR [ebp-0x4]
  404e71:	e8 b3 f3 ff ff       	call   0x404229
  404e76:	81 7d 0c 05 04 00 00 	cmp    DWORD PTR [ebp+0xc],0x405
  404e7d:	75 12                	jne    0x404e91
  404e7f:	33 c9                	xor    ecx,ecx
  404e81:	89 5d 10             	mov    DWORD PTR [ebp+0x10],ebx
  404e84:	41                   	inc    ecx
  404e85:	c7 45 0c 0f 04 00 00 	mov    DWORD PTR [ebp+0xc],0x40f
  404e8c:	89 4d 14             	mov    DWORD PTR [ebp+0x14],ecx
  404e8f:	eb 03                	jmp    0x404e94
  404e91:	8b 4d 14             	mov    ecx,DWORD PTR [ebp+0x14]
  404e94:	83 7d 0c 4e          	cmp    DWORD PTR [ebp+0xc],0x4e
  404e98:	b8 13 04 00 00       	mov    eax,0x413
  404e9d:	74 09                	je     0x404ea8
  404e9f:	39 45 0c             	cmp    DWORD PTR [ebp+0xc],eax
  404ea2:	0f 85 e4 00 00 00    	jne    0x404f8c
  404ea8:	39 45 0c             	cmp    DWORD PTR [ebp+0xc],eax
  404eab:	89 4d f4             	mov    DWORD PTR [ebp-0xc],ecx
  404eae:	74 0d                	je     0x404ebd
  404eb0:	81 79 04 08 04 00 00 	cmp    DWORD PTR [ecx+0x4],0x408
  404eb7:	0f 85 cf 00 00 00    	jne    0x404f8c
  404ebd:	f6 05 3d f4 42 00 02 	test   BYTE PTR ds:0x42f43d,0x2
  404ec4:	75 73                	jne    0x404f39
  404ec6:	39 45 0c             	cmp    DWORD PTR [ebp+0xc],eax
  404ec9:	74 09                	je     0x404ed4
  404ecb:	8b 4d 14             	mov    ecx,DWORD PTR [ebp+0x14]
  404ece:	83 79 08 fe          	cmp    DWORD PTR [ecx+0x8],0xfffffffe
  404ed2:	75 65                	jne    0x404f39
  404ed4:	33 c9                	xor    ecx,ecx
  404ed6:	39 45 0c             	cmp    DWORD PTR [ebp+0xc],eax
  404ed9:	0f 95 c1             	setne  cl
  404edc:	51                   	push   ecx
  404edd:	ff 75 fc             	push   DWORD PTR [ebp-0x4]
  404ee0:	e8 62 fc ff ff       	call   0x404b47
  404ee5:	8b f8                	mov    edi,eax
  404ee7:	3b fb                	cmp    edi,ebx
  404ee9:	7c 4e                	jl     0x404f39
  404eeb:	69 c0 18 04 00 00    	imul   eax,eax,0x418
  404ef1:	8b 4d ec             	mov    ecx,DWORD PTR [ebp-0x14]
  404ef4:	8d 4c 08 08          	lea    ecx,[eax+ecx*1+0x8]
  404ef8:	8b 01                	mov    eax,DWORD PTR [ecx]
  404efa:	a8 10                	test   al,0x10
  404efc:	75 3b                	jne    0x404f39
  404efe:	a8 40                	test   al,0x40
  404f00:	74 11                	je     0x404f13
  404f02:	35 80 00 00 00       	xor    eax,0x80
  404f07:	84 c0                	test   al,al
  404f09:	79 04                	jns    0x404f0f
  404f0b:	0c 01                	or     al,0x1
  404f0d:	eb 07                	jmp    0x404f16
  404f0f:	24 fe                	and    al,0xfe
  404f11:	eb 03                	jmp    0x404f16
  404f13:	83 f0 01             	xor    eax,0x1
  404f16:	57                   	push   edi
  404f17:	89 01                	mov    DWORD PTR [ecx],eax
  404f19:	e8 5f c2 ff ff       	call   0x40117d
  404f1e:	a1 3c f4 42 00       	mov    eax,ds:0x42f43c
  404f23:	47                   	inc    edi
  404f24:	f7 d0                	not    eax
  404f26:	c1 e8 08             	shr    eax,0x8
  404f29:	83 e0 01             	and    eax,0x1
  404f2c:	89 7d 10             	mov    DWORD PTR [ebp+0x10],edi
  404f2f:	89 45 14             	mov    DWORD PTR [ebp+0x14],eax
  404f32:	c7 45 0c 0f 04 00 00 	mov    DWORD PTR [ebp+0xc],0x40f
  404f39:	39 5d f4             	cmp    DWORD PTR [ebp-0xc],ebx
  404f3c:	74 4e                	je     0x404f8c
  404f3e:	8b 45 f4             	mov    eax,DWORD PTR [ebp-0xc]
  404f41:	81 78 08 6e fe ff ff 	cmp    DWORD PTR [eax+0x8],0xfffffe6e
  404f48:	75 0e                	jne    0x404f58
  404f4a:	ff 70 5c             	push   DWORD PTR [eax+0x5c]
  404f4d:	53                   	push   ebx
  404f4e:	68 19 04 00 00       	push   0x419
  404f53:	ff 75 fc             	push   DWORD PTR [ebp-0x4]
  404f56:	ff d6                	call   esi
  404f58:	8b 45 f4             	mov    eax,DWORD PTR [ebp-0xc]
  404f5b:	81 78 08 6a fe ff ff 	cmp    DWORD PTR [eax+0x8],0xfffffe6a
  404f62:	75 28                	jne    0x404f8c
  404f64:	83 78 0c 02          	cmp    DWORD PTR [eax+0xc],0x2
  404f68:	8b 4d ec             	mov    ecx,DWORD PTR [ebp-0x14]
  404f6b:	8b 40 5c             	mov    eax,DWORD PTR [eax+0x5c]
  404f6e:	75 0f                	jne    0x404f7f
  404f70:	69 c0 18 04 00 00    	imul   eax,eax,0x418
  404f76:	8d 44 08 08          	lea    eax,[eax+ecx*1+0x8]
  404f7a:	83 08 20             	or     DWORD PTR [eax],0x20
  404f7d:	eb 0d                	jmp    0x404f8c
  404f7f:	69 c0 18 04 00 00    	imul   eax,eax,0x418
  404f85:	8d 44 08 08          	lea    eax,[eax+ecx*1+0x8]
  404f89:	83 20 df             	and    DWORD PTR [eax],0xffffffdf
  404f8c:	81 7d 0c 11 01 00 00 	cmp    DWORD PTR [ebp+0xc],0x111
  404f93:	75 6f                	jne    0x405004
  404f95:	66 81 7d 10 f9 03    	cmp    WORD PTR [ebp+0x10],0x3f9
  404f9b:	0f 85 4b 02 00 00    	jne    0x4051ec
  404fa1:	8b 45 10             	mov    eax,DWORD PTR [ebp+0x10]
  404fa4:	c1 e8 10             	shr    eax,0x10
  404fa7:	66 3d 01 00          	cmp    ax,0x1
  404fab:	0f 85 3b 02 00 00    	jne    0x4051ec
  404fb1:	53                   	push   ebx
  404fb2:	53                   	push   ebx
  404fb3:	68 47 01 00 00       	push   0x147
  404fb8:	ff 75 f8             	push   DWORD PTR [ebp-0x8]
  404fbb:	ff d6                	call   esi
  404fbd:	83 f8 ff             	cmp    eax,0xffffffff
  404fc0:	0f 84 26 02 00 00    	je     0x4051ec
  404fc6:	53                   	push   ebx
  404fc7:	50                   	push   eax
  404fc8:	68 50 01 00 00       	push   0x150
  404fcd:	ff 75 f8             	push   DWORD PTR [ebp-0x8]
  404fd0:	ff d6                	call   esi
  404fd2:	8b f8                	mov    edi,eax
  404fd4:	83 ff ff             	cmp    edi,0xffffffff
  404fd7:	74 08                	je     0x404fe1
  404fd9:	8b 45 e8             	mov    eax,DWORD PTR [ebp-0x18]
  404fdc:	39 1c b8             	cmp    DWORD PTR [eax+edi*4],ebx
  404fdf:	75 03                	jne    0x404fe4
  404fe1:	6a 20                	push   0x20
  404fe3:	5f                   	pop    edi
  404fe4:	57                   	push   edi
  404fe5:	e8 af c2 ff ff       	call   0x401299
  404fea:	57                   	push   edi
  404feb:	53                   	push   ebx
  404fec:	68 20 04 00 00       	push   0x420
  404ff1:	ff 75 08             	push   DWORD PTR [ebp+0x8]
  404ff4:	ff d6                	call   esi
  404ff6:	83 4d 10 ff          	or     DWORD PTR [ebp+0x10],0xffffffff
  404ffa:	89 5d 14             	mov    DWORD PTR [ebp+0x14],ebx
  404ffd:	c7 45 0c 0f 04 00 00 	mov    DWORD PTR [ebp+0xc],0x40f
  405004:	b8 00 02 00 00       	mov    eax,0x200
  405009:	39 45 0c             	cmp    DWORD PTR [ebp+0xc],eax
  40500c:	75 08                	jne    0x405016
  40500e:	53                   	push   ebx
  40500f:	53                   	push   ebx
  405010:	50                   	push   eax
  405011:	ff 75 fc             	push   DWORD PTR [ebp-0x4]
  405014:	ff d6                	call   esi
  405016:	81 7d 0c 0b 04 00 00 	cmp    DWORD PTR [ebp+0xc],0x40b
  40501d:	75 32                	jne    0x405051
  40501f:	a1 7c a8 42 00       	mov    eax,ds:0x42a87c
  405024:	3b c3                	cmp    eax,ebx
  405026:	74 07                	je     0x40502f
  405028:	50                   	push   eax
  405029:	ff 15 44 80 40 00    	call   DWORD PTR ds:0x408044
  40502f:	a1 90 a8 42 00       	mov    eax,ds:0x42a890
  405034:	3b c3                	cmp    eax,ebx
  405036:	74 07                	je     0x40503f
  405038:	50                   	push   eax
  405039:	ff 15 5c 81 40 00    	call   DWORD PTR ds:0x40815c
  40503f:	89 1d 7c a8 42 00    	mov    DWORD PTR ds:0x42a87c,ebx
  405045:	89 1d 90 a8 42 00    	mov    DWORD PTR ds:0x42a890,ebx
  40504b:	89 1d a0 f4 42 00    	mov    DWORD PTR ds:0x42f4a0,ebx
  405051:	81 7d 0c 0f 04 00 00 	cmp    DWORD PTR [ebp+0xc],0x40f
  405058:	0f 85 50 01 00 00    	jne    0x4051ae
  40505e:	53                   	push   ebx
  40505f:	53                   	push   ebx
  405060:	e8 8a c1 ff ff       	call   0x4011ef
  405065:	8b 45 10             	mov    eax,DWORD PTR [ebp+0x10]
  405068:	3b c3                	cmp    eax,ebx
  40506a:	74 0e                	je     0x40507a
  40506c:	83 f8 ff             	cmp    eax,0xffffffff
  40506f:	74 01                	je     0x405072
  405071:	48                   	dec    eax
  405072:	50                   	push   eax
  405073:	6a 08                	push   0x8
  405075:	e8 4d fb ff ff       	call   0x404bc7
  40507a:	39 5d 14             	cmp    DWORD PTR [ebp+0x14],ebx
  40507d:	74 3f                	je     0x4050be
  40507f:	ff 35 90 a8 42 00    	push   DWORD PTR ds:0x42a890
  405085:	e8 58 c2 ff ff       	call   0x4012e2
  40508a:	8b f8                	mov    edi,eax
  40508c:	57                   	push   edi
  40508d:	e8 07 c2 ff ff       	call   0x401299
  405092:	33 c0                	xor    eax,eax
  405094:	33 c9                	xor    ecx,ecx
  405096:	3b fb                	cmp    edi,ebx
  405098:	7e 0e                	jle    0x4050a8
  40509a:	8b 55 e8             	mov    edx,DWORD PTR [ebp-0x18]
  40509d:	39 1c 82             	cmp    DWORD PTR [edx+eax*4],ebx
  4050a0:	74 01                	je     0x4050a3
  4050a2:	41                   	inc    ecx
  4050a3:	40                   	inc    eax
  4050a4:	3b c7                	cmp    eax,edi
  4050a6:	7c f2                	jl     0x40509a
  4050a8:	53                   	push   ebx
  4050a9:	51                   	push   ecx
  4050aa:	68 4e 01 00 00       	push   0x14e
  4050af:	ff 75 f8             	push   DWORD PTR [ebp-0x8]
  4050b2:	ff d6                	call   esi
  4050b4:	89 7d 14             	mov    DWORD PTR [ebp+0x14],edi
  4050b7:	c7 45 0c 20 04 00 00 	mov    DWORD PTR [ebp+0xc],0x420
  4050be:	53                   	push   ebx
  4050bf:	53                   	push   ebx
  4050c0:	e8 2a c1 ff ff       	call   0x4011ef
  4050c5:	a1 90 a8 42 00       	mov    eax,ds:0x42a890
  4050ca:	39 1d 6c f4 42 00    	cmp    DWORD PTR ds:0x42f46c,ebx
  4050d0:	89 45 e0             	mov    DWORD PTR [ebp-0x20],eax
  4050d3:	a1 68 f4 42 00       	mov    eax,ds:0x42f468
  4050d8:	c7 45 c4 30 f0 00 00 	mov    DWORD PTR [ebp-0x3c],0xf030
  4050df:	89 5d ec             	mov    DWORD PTR [ebp-0x14],ebx
  4050e2:	0f 8e 9c 00 00 00    	jle    0x405184
  4050e8:	8d 78 08             	lea    edi,[eax+0x8]
  4050eb:	8b 45 e0             	mov    eax,DWORD PTR [ebp-0x20]
  4050ee:	8b 4d ec             	mov    ecx,DWORD PTR [ebp-0x14]
  4050f1:	8b 04 88             	mov    eax,DWORD PTR [eax+ecx*4]
  4050f4:	3b c3                	cmp    eax,ebx
  4050f6:	74 74                	je     0x40516c
  4050f8:	8b 0f                	mov    ecx,DWORD PTR [edi]
  4050fa:	89 45 bc             	mov    DWORD PTR [ebp-0x44],eax
  4050fd:	f6 c5 01             	test   ch,0x1
  405100:	c7 45 b8 08 00 00 00 	mov    DWORD PTR [ebp-0x48],0x8
  405107:	74 11                	je     0x40511a
  405109:	8d 47 10             	lea    eax,[edi+0x10]
  40510c:	c7 45 b8 09 00 00 00 	mov    DWORD PTR [ebp-0x48],0x9
  405113:	89 45 c8             	mov    DWORD PTR [ebp-0x38],eax
  405116:	80 67 01 fe          	and    BYTE PTR [edi+0x1],0xfe
  40511a:	f6 c1 40             	test   cl,0x40
  40511d:	74 05                	je     0x405124
  40511f:	6a 03                	push   0x3
  405121:	58                   	pop    eax
  405122:	eb 0e                	jmp    0x405132
  405124:	8b c1                	mov    eax,ecx
  405126:	83 e0 01             	and    eax,0x1
  405129:	40                   	inc    eax
  40512a:	f6 c1 10             	test   cl,0x10
  40512d:	74 03                	je     0x405132
  40512f:	83 c0 03             	add    eax,0x3
  405132:	8b d1                	mov    edx,ecx
  405134:	ff 75 bc             	push   DWORD PTR [ebp-0x44]
  405137:	c1 e0 0b             	shl    eax,0xb
  40513a:	83 e2 08             	and    edx,0x8
  40513d:	0b c2                	or     eax,edx
  40513f:	8b d1                	mov    edx,ecx
  405141:	c1 f9 05             	sar    ecx,0x5
  405144:	03 c0                	add    eax,eax
  405146:	83 e2 20             	and    edx,0x20
  405149:	83 e1 01             	and    ecx,0x1
  40514c:	0b c2                	or     eax,edx
  40514e:	41                   	inc    ecx
  40514f:	89 45 c0             	mov    DWORD PTR [ebp-0x40],eax
  405152:	51                   	push   ecx
  405153:	68 02 11 00 00       	push   0x1102
  405158:	ff 75 fc             	push   DWORD PTR [ebp-0x4]
  40515b:	ff d6                	call   esi
  40515d:	8d 45 b8             	lea    eax,[ebp-0x48]
  405160:	50                   	push   eax
  405161:	53                   	push   ebx
  405162:	68 0d 11 00 00       	push   0x110d
  405167:	ff 75 fc             	push   DWORD PTR [ebp-0x4]
  40516a:	ff d6                	call   esi
  40516c:	ff 45 ec             	inc    DWORD PTR [ebp-0x14]
  40516f:	81 c7 18 04 00 00    	add    edi,0x418
  405175:	8b 45 ec             	mov    eax,DWORD PTR [ebp-0x14]
  405178:	3b 05 6c f4 42 00    	cmp    eax,DWORD PTR ds:0x42f46c
  40517e:	0f 8c 67 ff ff ff    	jl     0x4050eb
  405184:	6a 01                	push   0x1
  405186:	53                   	push   ebx
  405187:	ff 75 fc             	push   DWORD PTR [ebp-0x4]
  40518a:	ff 15 fc 81 40 00    	call   DWORD PTR ds:0x4081fc
  405190:	a1 fc eb 42 00       	mov    eax,ds:0x42ebfc
  405195:	39 58 10             	cmp    DWORD PTR [eax+0x10],ebx
  405198:	74 14                	je     0x4051ae
  40519a:	6a 05                	push   0x5
  40519c:	e8 79 f9 ff ff       	call   0x404b1a
  4051a1:	50                   	push   eax
  4051a2:	6a fb                	push   0xfffffffb
  4051a4:	68 ff 03 00 00       	push   0x3ff
  4051a9:	e8 54 f9 ff ff       	call   0x404b02
  4051ae:	81 7d 0c 20 04 00 00 	cmp    DWORD PTR [ebp+0xc],0x420
  4051b5:	75 35                	jne    0x4051ec
  4051b7:	f6 05 3d f4 42 00 01 	test   BYTE PTR ds:0x42f43d,0x1
  4051be:	74 2c                	je     0x4051ec
  4051c0:	33 c0                	xor    eax,eax
  4051c2:	83 7d 14 20          	cmp    DWORD PTR [ebp+0x14],0x20
  4051c6:	8b 35 48 82 40 00    	mov    esi,DWORD PTR ds:0x408248
  4051cc:	0f 94 c0             	sete   al
  4051cf:	c1 e0 03             	shl    eax,0x3
  4051d2:	8b f8                	mov    edi,eax
  4051d4:	57                   	push   edi
  4051d5:	ff 75 fc             	push   DWORD PTR [ebp-0x4]
  4051d8:	ff d6                	call   esi
  4051da:	57                   	push   edi
  4051db:	68 fe 03 00 00       	push   0x3fe
  4051e0:	ff 75 08             	push   DWORD PTR [ebp+0x8]
  4051e3:	ff 15 d0 81 40 00    	call   DWORD PTR ds:0x4081d0
  4051e9:	50                   	push   eax
  4051ea:	ff d6                	call   esi
  4051ec:	ff 75 14             	push   DWORD PTR [ebp+0x14]
  4051ef:	ff 75 10             	push   DWORD PTR [ebp+0x10]
  4051f2:	ff 75 0c             	push   DWORD PTR [ebp+0xc]
  4051f5:	e8 61 f0 ff ff       	call   0x40425b
  4051fa:	5f                   	pop    edi
  4051fb:	5e                   	pop    esi
  4051fc:	5b                   	pop    ebx
  4051fd:	c9                   	leave  
  4051fe:	c2 10 00             	ret    0x10
  405201:	55                   	push   ebp
  405202:	8b ec                	mov    ebp,esp
  405204:	53                   	push   ebx
  405205:	8b 5d 0c             	mov    ebx,DWORD PTR [ebp+0xc]
  405208:	81 fb 02 01 00 00    	cmp    ebx,0x102
  40520e:	57                   	push   edi
  40520f:	75 14                	jne    0x405225
  405211:	83 7d 10 20          	cmp    DWORD PTR [ebp+0x10],0x20
  405215:	75 59                	jne    0x405270
  405217:	68 13 04 00 00       	push   0x413
  40521c:	e8 1f f0 ff ff       	call   0x404240
  405221:	33 c0                	xor    eax,eax
  405223:	eb 62                	jmp    0x405287
  405225:	81 fb 00 02 00 00    	cmp    ebx,0x200
  40522b:	75 20                	jne    0x40524d
  40522d:	ff 75 08             	push   DWORD PTR [ebp+0x8]
  405230:	ff 15 b4 81 40 00    	call   DWORD PTR ds:0x4081b4
  405236:	85 c0                	test   eax,eax
  405238:	74 36                	je     0x405270
  40523a:	6a 01                	push   0x1
  40523c:	ff 75 08             	push   DWORD PTR [ebp+0x8]
  40523f:	e8 03 f9 ff ff       	call   0x404b47
  405244:	8b f8                	mov    edi,eax
  405246:	bb 19 04 00 00       	mov    ebx,0x419
  40524b:	eb 03                	jmp    0x405250
  40524d:	8b 7d 14             	mov    edi,DWORD PTR [ebp+0x14]
  405250:	81 fb 19 04 00 00    	cmp    ebx,0x419
  405256:	75 1b                	jne    0x405273
  405258:	39 3d 84 a8 42 00    	cmp    DWORD PTR ds:0x42a884,edi
  40525e:	74 13                	je     0x405273
  405260:	57                   	push   edi
  405261:	6a 06                	push   0x6
  405263:	89 3d 84 a8 42 00    	mov    DWORD PTR ds:0x42a884,edi
  405269:	e8 59 f9 ff ff       	call   0x404bc7
  40526e:	eb 03                	jmp    0x405273
  405270:	8b 7d 14             	mov    edi,DWORD PTR [ebp+0x14]
  405273:	57                   	push   edi
  405274:	ff 75 10             	push   DWORD PTR [ebp+0x10]
  405277:	53                   	push   ebx
  405278:	ff 75 08             	push   DWORD PTR [ebp+0x8]
  40527b:	ff 35 8c a8 42 00    	push   DWORD PTR ds:0x42a88c
  405281:	ff 15 b0 81 40 00    	call   DWORD PTR ds:0x4081b0
  405287:	5f                   	pop    edi
  405288:	5b                   	pop    ebx
  405289:	5d                   	pop    ebp
  40528a:	c2 10 00             	ret    0x10
  40528d:	55                   	push   ebp
  40528e:	8b ec                	mov    ebp,esp
  405290:	83 ec 30             	sub    esp,0x30
  405293:	a1 04 ec 42 00       	mov    eax,ds:0x42ec04
  405298:	53                   	push   ebx
  405299:	33 db                	xor    ebx,ebx
  40529b:	56                   	push   esi
  40529c:	3b c3                	cmp    eax,ebx
  40529e:	57                   	push   edi
  40529f:	89 45 fc             	mov    DWORD PTR [ebp-0x4],eax
  4052a2:	0f 84 b0 00 00 00    	je     0x405358
  4052a8:	a1 f4 f4 42 00       	mov    eax,ds:0x42f4f4
  4052ad:	be 78 a0 42 00       	mov    esi,0x42a078
  4052b2:	8b f8                	mov    edi,eax
  4052b4:	89 45 f8             	mov    DWORD PTR [ebp-0x8],eax
  4052b7:	83 e7 01             	and    edi,0x1
  4052ba:	75 09                	jne    0x4052c5
  4052bc:	ff 75 08             	push   DWORD PTR [ebp+0x8]
  4052bf:	56                   	push   esi
  4052c0:	e8 c3 0e 00 00       	call   0x406188
  4052c5:	56                   	push   esi
  4052c6:	e8 b1 0e 00 00       	call   0x40617c
  4052cb:	39 5d 0c             	cmp    DWORD PTR [ebp+0xc],ebx
  4052ce:	89 45 08             	mov    DWORD PTR [ebp+0x8],eax
  4052d1:	74 1b                	je     0x4052ee
  4052d3:	ff 75 0c             	push   DWORD PTR [ebp+0xc]
  4052d6:	e8 a1 0e 00 00       	call   0x40617c
  4052db:	03 45 08             	add    eax,DWORD PTR [ebp+0x8]
  4052de:	3d 00 08 00 00       	cmp    eax,0x800
  4052e3:	73 73                	jae    0x405358
  4052e5:	ff 75 0c             	push   DWORD PTR [ebp+0xc]
  4052e8:	56                   	push   esi
  4052e9:	e8 94 0e 00 00       	call   0x406182
  4052ee:	f6 45 f8 04          	test   BYTE PTR [ebp-0x8],0x4
  4052f2:	75 0d                	jne    0x405301
  4052f4:	56                   	push   esi
  4052f5:	ff 35 e8 eb 42 00    	push   DWORD PTR ds:0x42ebe8
  4052fb:	ff 15 40 82 40 00    	call   DWORD PTR ds:0x408240
  405301:	f6 45 f8 02          	test   BYTE PTR [ebp-0x8],0x2
  405305:	75 44                	jne    0x40534b
  405307:	53                   	push   ebx
  405308:	53                   	push   ebx
  405309:	68 04 10 00 00       	push   0x1004
  40530e:	89 75 e4             	mov    DWORD PTR [ebp-0x1c],esi
  405311:	ff 75 fc             	push   DWORD PTR [ebp-0x4]
  405314:	8b 35 00 82 40 00    	mov    esi,DWORD PTR ds:0x408200
  40531a:	c7 45 d0 01 00 00 00 	mov    DWORD PTR [ebp-0x30],0x1
  405321:	ff d6                	call   esi
  405323:	2b c7                	sub    eax,edi
  405325:	89 5d d8             	mov    DWORD PTR [ebp-0x28],ebx
  405328:	89 45 d4             	mov    DWORD PTR [ebp-0x2c],eax
  40532b:	8d 45 d0             	lea    eax,[ebp-0x30]
  40532e:	50                   	push   eax
  40532f:	b8 07 10 00 00       	mov    eax,0x1007
  405334:	2b c7                	sub    eax,edi
  405336:	53                   	push   ebx
  405337:	50                   	push   eax
  405338:	ff 75 fc             	push   DWORD PTR [ebp-0x4]
  40533b:	ff d6                	call   esi
  40533d:	53                   	push   ebx
  40533e:	ff 75 d4             	push   DWORD PTR [ebp-0x2c]
  405341:	68 13 10 00 00       	push   0x1013
  405346:	ff 75 fc             	push   DWORD PTR [ebp-0x4]
  405349:	ff d6                	call   esi
  40534b:	3b fb                	cmp    edi,ebx
  40534d:	74 09                	je     0x405358
  40534f:	8b 45 08             	mov    eax,DWORD PTR [ebp+0x8]
  405352:	88 98 78 a0 42 00    	mov    BYTE PTR [eax+0x42a078],bl
  405358:	5f                   	pop    edi
  405359:	5e                   	pop    esi
  40535a:	5b                   	pop    ebx
  40535b:	c9                   	leave  
  40535c:	c2 08 00             	ret    0x8
  40535f:	56                   	push   esi
  405360:	8b 35 68 f4 42 00    	mov    esi,DWORD PTR ds:0x42f468
  405366:	57                   	push   edi
  405367:	8b 3d 6c f4 42 00    	mov    edi,DWORD PTR ds:0x42f46c
  40536d:	6a 00                	push   0x0
  40536f:	ff 15 84 82 40 00    	call   DWORD PTR ds:0x408284
  405375:	09 05 f8 f4 42 00    	or     DWORD PTR ds:0x42f4f8,eax
  40537b:	6a 00                	push   0x0
  40537d:	e8 be ee ff ff       	call   0x404240
  405382:	85 ff                	test   edi,edi
  405384:	74 2b                	je     0x4053b1
  405386:	83 c6 0c             	add    esi,0xc
  405389:	4f                   	dec    edi
  40538a:	f6 46 fc 01          	test   BYTE PTR [esi-0x4],0x1
  40538e:	74 0f                	je     0x40539f
  405390:	ff 74 24 0c          	push   DWORD PTR [esp+0xc]
  405394:	ff 36                	push   DWORD PTR [esi]
  405396:	e8 ee bf ff ff       	call   0x401389
  40539b:	85 c0                	test   eax,eax
  40539d:	75 0c                	jne    0x4053ab
  40539f:	81 c6 18 04 00 00    	add    esi,0x418
  4053a5:	85 ff                	test   edi,edi
  4053a7:	75 e0                	jne    0x405389
  4053a9:	eb 06                	jmp    0x4053b1
  4053ab:	ff 05 cc f4 42 00    	inc    DWORD PTR ds:0x42f4cc
  4053b1:	68 04 04 00 00       	push   0x404
  4053b6:	e8 85 ee ff ff       	call   0x404240
  4053bb:	ff 15 80 82 40 00    	call   DWORD PTR ds:0x408280
  4053c1:	a1 cc f4 42 00       	mov    eax,ds:0x42f4cc
  4053c6:	5f                   	pop    edi
  4053c7:	5e                   	pop    esi
  4053c8:	c2 04 00             	ret    0x4
  4053cb:	55                   	push   ebp
  4053cc:	8b ec                	mov    ebp,esp
  4053ce:	83 ec 3c             	sub    esp,0x3c
  4053d1:	a1 04 ec 42 00       	mov    eax,ds:0x42ec04
  4053d6:	53                   	push   ebx
  4053d7:	56                   	push   esi
  4053d8:	57                   	push   edi
  4053d9:	8b 7d 0c             	mov    edi,DWORD PTR [ebp+0xc]
  4053dc:	33 db                	xor    ebx,ebx
  4053de:	81 ff 10 01 00 00    	cmp    edi,0x110
  4053e4:	89 45 fc             	mov    DWORD PTR [ebp-0x4],eax
  4053e7:	0f 85 89 01 00 00    	jne    0x405576
  4053ed:	83 4d d4 ff          	or     DWORD PTR [ebp-0x2c],0xffffffff
  4053f1:	83 4d e0 ff          	or     DWORD PTR [ebp-0x20],0xffffffff
  4053f5:	6a 02                	push   0x2
  4053f7:	33 c0                	xor    eax,eax
  4053f9:	5e                   	pop    esi
  4053fa:	8d 7d e4             	lea    edi,[ebp-0x1c]
  4053fd:	89 75 cc             	mov    DWORD PTR [ebp-0x34],esi
  405400:	89 5d d0             	mov    DWORD PTR [ebp-0x30],ebx
  405403:	89 5d d8             	mov    DWORD PTR [ebp-0x28],ebx
  405406:	89 5d dc             	mov    DWORD PTR [ebp-0x24],ebx
  405409:	ab                   	stos   DWORD PTR es:[edi],eax
  40540a:	ab                   	stos   DWORD PTR es:[edi],eax
  40540b:	a1 34 f4 42 00       	mov    eax,ds:0x42f434
  405410:	8b 3d d0 81 40 00    	mov    edi,DWORD PTR ds:0x4081d0
  405416:	68 03 04 00 00       	push   0x403
  40541b:	8b 48 5c             	mov    ecx,DWORD PTR [eax+0x5c]
  40541e:	8b 40 60             	mov    eax,DWORD PTR [eax+0x60]
  405421:	ff 75 08             	push   DWORD PTR [ebp+0x8]
  405424:	89 4d 10             	mov    DWORD PTR [ebp+0x10],ecx
  405427:	89 45 0c             	mov    DWORD PTR [ebp+0xc],eax
  40542a:	ff d7                	call   edi
  40542c:	68 ee 03 00 00       	push   0x3ee
  405431:	a3 f0 eb 42 00       	mov    ds:0x42ebf0,eax
  405436:	ff 75 08             	push   DWORD PTR [ebp+0x8]
  405439:	ff d7                	call   edi
  40543b:	68 f8 03 00 00       	push   0x3f8
  405440:	a3 e8 eb 42 00       	mov    ds:0x42ebe8,eax
  405445:	ff 75 08             	push   DWORD PTR [ebp+0x8]
  405448:	ff d7                	call   edi
  40544a:	ff 35 f0 eb 42 00    	push   DWORD PTR ds:0x42ebf0
  405450:	a3 04 ec 42 00       	mov    ds:0x42ec04,eax
  405455:	89 45 fc             	mov    DWORD PTR [ebp-0x4],eax
  405458:	e8 cc ed ff ff       	call   0x404229
  40545d:	6a 04                	push   0x4
  40545f:	e8 b6 f6 ff ff       	call   0x404b1a
  405464:	a3 f4 eb 42 00       	mov    ds:0x42ebf4,eax
  405469:	8d 45 ec             	lea    eax,[ebp-0x14]
  40546c:	50                   	push   eax
  40546d:	89 1d 0c ec 42 00    	mov    DWORD PTR ds:0x42ec0c,ebx
  405473:	ff 75 fc             	push   DWORD PTR [ebp-0x4]
  405476:	ff 15 0c 82 40 00    	call   DWORD PTR ds:0x40820c
  40547c:	56                   	push   esi
  40547d:	ff 15 d4 81 40 00    	call   DWORD PTR ds:0x4081d4
  405483:	8b 4d f4             	mov    ecx,DWORD PTR [ebp-0xc]
  405486:	8b 35 00 82 40 00    	mov    esi,DWORD PTR ds:0x408200
  40548c:	2b c8                	sub    ecx,eax
  40548e:	8d 45 cc             	lea    eax,[ebp-0x34]
  405491:	50                   	push   eax
  405492:	53                   	push   ebx
  405493:	68 1b 10 00 00       	push   0x101b
  405498:	89 4d d4             	mov    DWORD PTR [ebp-0x2c],ecx
  40549b:	ff 75 fc             	push   DWORD PTR [ebp-0x4]
  40549e:	ff d6                	call   esi
  4054a0:	b8 00 40 00 00       	mov    eax,0x4000
  4054a5:	50                   	push   eax
  4054a6:	50                   	push   eax
  4054a7:	68 36 10 00 00       	push   0x1036
  4054ac:	ff 75 fc             	push   DWORD PTR [ebp-0x4]
  4054af:	ff d6                	call   esi
  4054b1:	39 5d 10             	cmp    DWORD PTR [ebp+0x10],ebx
  4054b4:	7c 1c                	jl     0x4054d2
  4054b6:	ff 75 10             	push   DWORD PTR [ebp+0x10]
  4054b9:	53                   	push   ebx
  4054ba:	68 01 10 00 00       	push   0x1001
  4054bf:	ff 75 fc             	push   DWORD PTR [ebp-0x4]
  4054c2:	ff d6                	call   esi
  4054c4:	ff 75 10             	push   DWORD PTR [ebp+0x10]
  4054c7:	53                   	push   ebx
  4054c8:	68 26 10 00 00       	push   0x1026
  4054cd:	ff 75 fc             	push   DWORD PTR [ebp-0x4]
  4054d0:	ff d6                	call   esi
  4054d2:	39 5d 0c             	cmp    DWORD PTR [ebp+0xc],ebx
  4054d5:	7c 0e                	jl     0x4054e5
  4054d7:	ff 75 0c             	push   DWORD PTR [ebp+0xc]
  4054da:	53                   	push   ebx
  4054db:	68 24 10 00 00       	push   0x1024
  4054e0:	ff 75 fc             	push   DWORD PTR [ebp-0x4]
  4054e3:	ff d6                	call   esi
  4054e5:	8b 45 14             	mov    eax,DWORD PTR [ebp+0x14]
  4054e8:	ff 70 30             	push   DWORD PTR [eax+0x30]
  4054eb:	6a 1b                	push   0x1b
  4054ed:	ff 75 08             	push   DWORD PTR [ebp+0x8]
  4054f0:	e8 ff ec ff ff       	call   0x4041f4
  4054f5:	f6 05 3c f4 42 00 03 	test   BYTE PTR ds:0x42f43c,0x3
  4054fc:	74 34                	je     0x405532
  4054fe:	53                   	push   ebx
  4054ff:	ff 35 f0 eb 42 00    	push   DWORD PTR ds:0x42ebf0
  405505:	ff 15 48 82 40 00    	call   DWORD PTR ds:0x408248
  40550b:	f6 05 3c f4 42 00 02 	test   BYTE PTR ds:0x42f43c,0x2
  405512:	75 0d                	jne    0x405521
  405514:	6a 08                	push   0x8
  405516:	ff 75 fc             	push   DWORD PTR [ebp-0x4]
  405519:	ff 15 48 82 40 00    	call   DWORD PTR ds:0x408248
  40551f:	eb 06                	jmp    0x405527
  405521:	89 1d f0 eb 42 00    	mov    DWORD PTR ds:0x42ebf0,ebx
  405527:	ff 35 e8 eb 42 00    	push   DWORD PTR ds:0x42ebe8
  40552d:	e8 f7 ec ff ff       	call   0x404229
  405532:	68 ec 03 00 00       	push   0x3ec
  405537:	ff 75 08             	push   DWORD PTR [ebp+0x8]
  40553a:	ff d7                	call   edi
  40553c:	68 00 00 30 75       	push   0x75300000
  405541:	8b f8                	mov    edi,eax
  405543:	53                   	push   ebx
  405544:	68 01 04 00 00       	push   0x401
  405549:	57                   	push   edi
  40554a:	ff d6                	call   esi
  40554c:	f6 05 3c f4 42 00 04 	test   BYTE PTR ds:0x42f43c,0x4
  405553:	0f 84 f3 01 00 00    	je     0x40574c
  405559:	ff 75 0c             	push   DWORD PTR [ebp+0xc]
  40555c:	53                   	push   ebx
  40555d:	68 09 04 00 00       	push   0x409
  405562:	57                   	push   edi
  405563:	ff d6                	call   esi
  405565:	ff 75 10             	push   DWORD PTR [ebp+0x10]
  405568:	53                   	push   ebx
  405569:	68 01 20 00 00       	push   0x2001
  40556e:	57                   	push   edi
  40556f:	ff d6                	call   esi
  405571:	e9 d6 01 00 00       	jmp    0x40574c
  405576:	81 ff 05 04 00 00    	cmp    edi,0x405
  40557c:	75 28                	jne    0x4055a6
  40557e:	8d 45 0c             	lea    eax,[ebp+0xc]
  405581:	50                   	push   eax
  405582:	53                   	push   ebx
  405583:	68 ec 03 00 00       	push   0x3ec
  405588:	ff 75 08             	push   DWORD PTR [ebp+0x8]
  40558b:	ff 15 d0 81 40 00    	call   DWORD PTR ds:0x4081d0
  405591:	50                   	push   eax
  405592:	68 5f 53 40 00       	push   0x40535f
  405597:	53                   	push   ebx
  405598:	53                   	push   ebx
  405599:	ff 15 bc 80 40 00    	call   DWORD PTR ds:0x4080bc
  40559f:	50                   	push   eax
  4055a0:	ff 15 14 81 40 00    	call   DWORD PTR ds:0x408114
  4055a6:	8b 35 48 82 40 00    	mov    esi,DWORD PTR ds:0x408248
  4055ac:	81 ff 11 01 00 00    	cmp    edi,0x111
  4055b2:	75 20                	jne    0x4055d4
  4055b4:	66 81 7d 10 03 04    	cmp    WORD PTR [ebp+0x10],0x403
  4055ba:	75 39                	jne    0x4055f5
  4055bc:	53                   	push   ebx
  4055bd:	ff 35 f0 eb 42 00    	push   DWORD PTR ds:0x42ebf0
  4055c3:	ff d6                	call   esi
  4055c5:	6a 08                	push   0x8
  4055c7:	ff 75 fc             	push   DWORD PTR [ebp-0x4]
  4055ca:	ff d6                	call   esi
  4055cc:	ff 75 fc             	push   DWORD PTR [ebp-0x4]
  4055cf:	e8 55 ec ff ff       	call   0x404229
  4055d4:	81 ff 04 04 00 00    	cmp    edi,0x404
  4055da:	75 53                	jne    0x40562f
  4055dc:	39 1d ec eb 42 00    	cmp    DWORD PTR ds:0x42ebec,ebx
  4055e2:	74 24                	je     0x405608
  4055e4:	6a 78                	push   0x78
  4055e6:	c7 05 68 9c 42 00 02 	mov    DWORD PTR ds:0x429c68,0x2
  4055ed:	00 00 00 
  4055f0:	e8 d8 eb ff ff       	call   0x4041cd
  4055f5:	ff 75 14             	push   DWORD PTR [ebp+0x14]
  4055f8:	ff 75 10             	push   DWORD PTR [ebp+0x10]
  4055fb:	57                   	push   edi
  4055fc:	e8 5a ec ff ff       	call   0x40425b
  405601:	5f                   	pop    edi
  405602:	5e                   	pop    esi
  405603:	5b                   	pop    ebx
  405604:	c9                   	leave  
  405605:	c2 10 00             	ret    0x10
  405608:	6a 08                	push   0x8
  40560a:	ff 35 28 f4 42 00    	push   DWORD PTR ds:0x42f428
  405610:	ff d6                	call   esi
  405612:	39 1d cc f4 42 00    	cmp    DWORD PTR ds:0x42f4cc,ebx
  405618:	75 0e                	jne    0x405628
  40561a:	a1 70 a0 42 00       	mov    eax,ds:0x42a070
  40561f:	53                   	push   ebx
  405620:	ff 70 34             	push   DWORD PTR [eax+0x34]
  405623:	e8 65 fc ff ff       	call   0x40528d
  405628:	6a 01                	push   0x1
  40562a:	e8 9e eb ff ff       	call   0x4041cd
  40562f:	83 ff 7b             	cmp    edi,0x7b
  405632:	75 c1                	jne    0x4055f5
  405634:	8b 45 fc             	mov    eax,DWORD PTR [ebp-0x4]
  405637:	39 45 10             	cmp    DWORD PTR [ebp+0x10],eax
  40563a:	75 b9                	jne    0x4055f5
  40563c:	53                   	push   ebx
  40563d:	53                   	push   ebx
  40563e:	68 04 10 00 00       	push   0x1004
  405643:	50                   	push   eax
  405644:	ff 15 00 82 40 00    	call   DWORD PTR ds:0x408200
  40564a:	3b c3                	cmp    eax,ebx
  40564c:	89 45 10             	mov    DWORD PTR [ebp+0x10],eax
  40564f:	0f 8e f7 00 00 00    	jle    0x40574c
  405655:	ff 15 64 82 40 00    	call   DWORD PTR ds:0x408264
  40565b:	6a e1                	push   0xffffffe1
  40565d:	53                   	push   ebx
  40565e:	8b f0                	mov    esi,eax
  405660:	e8 23 0b 00 00       	call   0x406188
  405665:	50                   	push   eax
  405666:	6a 01                	push   0x1
  405668:	53                   	push   ebx
  405669:	56                   	push   esi
  40566a:	ff 15 5c 82 40 00    	call   DWORD PTR ds:0x40825c
  405670:	8b 4d 14             	mov    ecx,DWORD PTR [ebp+0x14]
  405673:	0f bf 45 14          	movsx  eax,WORD PTR [ebp+0x14]
  405677:	c1 e9 10             	shr    ecx,0x10
  40567a:	83 7d 14 ff          	cmp    DWORD PTR [ebp+0x14],0xffffffff
  40567e:	0f bf c9             	movsx  ecx,cx
  405681:	75 13                	jne    0x405696
  405683:	8d 45 ec             	lea    eax,[ebp-0x14]
  405686:	50                   	push   eax
  405687:	ff 75 fc             	push   DWORD PTR [ebp-0x4]
  40568a:	ff 15 cc 81 40 00    	call   DWORD PTR ds:0x4081cc
  405690:	8b 45 ec             	mov    eax,DWORD PTR [ebp-0x14]
  405693:	8b 4d f0             	mov    ecx,DWORD PTR [ebp-0x10]
  405696:	53                   	push   ebx
  405697:	ff 75 08             	push   DWORD PTR [ebp+0x8]
  40569a:	53                   	push   ebx
  40569b:	51                   	push   ecx
  40569c:	50                   	push   eax
  40569d:	68 80 01 00 00       	push   0x180
  4056a2:	56                   	push   esi
  4056a3:	ff 15 60 82 40 00    	call   DWORD PTR ds:0x408260
  4056a9:	83 f8 01             	cmp    eax,0x1
  4056ac:	0f 85 9a 00 00 00    	jne    0x40574c
  4056b2:	8b 45 10             	mov    eax,DWORD PTR [ebp+0x10]
  4056b5:	33 f6                	xor    esi,esi
  4056b7:	46                   	inc    esi
  4056b8:	89 5d cc             	mov    DWORD PTR [ebp-0x34],ebx
  4056bb:	c7 45 d8 98 a8 42 00 	mov    DWORD PTR [ebp-0x28],0x42a898
  4056c2:	c7 45 dc 00 10 00 00 	mov    DWORD PTR [ebp-0x24],0x1000
  4056c9:	89 45 08             	mov    DWORD PTR [ebp+0x8],eax
  4056cc:	bf 2d 10 00 00       	mov    edi,0x102d
  4056d1:	ff 4d 08             	dec    DWORD PTR [ebp+0x8]
  4056d4:	8d 45 c4             	lea    eax,[ebp-0x3c]
  4056d7:	50                   	push   eax
  4056d8:	ff 75 08             	push   DWORD PTR [ebp+0x8]
  4056db:	57                   	push   edi
  4056dc:	ff 75 fc             	push   DWORD PTR [ebp-0x4]
  4056df:	ff 15 00 82 40 00    	call   DWORD PTR ds:0x408200
  4056e5:	39 5d 08             	cmp    DWORD PTR [ebp+0x8],ebx
  4056e8:	8d 74 06 02          	lea    esi,[esi+eax*1+0x2]
  4056ec:	75 e3                	jne    0x4056d1
  4056ee:	53                   	push   ebx
  4056ef:	ff 15 c4 81 40 00    	call   DWORD PTR ds:0x4081c4
  4056f5:	ff 15 c0 81 40 00    	call   DWORD PTR ds:0x4081c0
  4056fb:	56                   	push   esi
  4056fc:	6a 42                	push   0x42
  4056fe:	ff 15 58 81 40 00    	call   DWORD PTR ds:0x408158
  405704:	50                   	push   eax
  405705:	89 45 08             	mov    DWORD PTR [ebp+0x8],eax
  405708:	ff 15 b8 80 40 00    	call   DWORD PTR ds:0x4080b8
  40570e:	8b f0                	mov    esi,eax
  405710:	8d 45 c4             	lea    eax,[ebp-0x3c]
  405713:	89 75 d8             	mov    DWORD PTR [ebp-0x28],esi
  405716:	50                   	push   eax
  405717:	53                   	push   ebx
  405718:	57                   	push   edi
  405719:	ff 75 fc             	push   DWORD PTR [ebp-0x4]
  40571c:	ff 15 00 82 40 00    	call   DWORD PTR ds:0x408200
  405722:	03 f0                	add    esi,eax
  405724:	c6 06 0d             	mov    BYTE PTR [esi],0xd
  405727:	46                   	inc    esi
  405728:	c6 06 0a             	mov    BYTE PTR [esi],0xa
  40572b:	46                   	inc    esi
  40572c:	43                   	inc    ebx
  40572d:	3b 5d 10             	cmp    ebx,DWORD PTR [ebp+0x10]
  405730:	7c de                	jl     0x405710
  405732:	ff 75 08             	push   DWORD PTR [ebp+0x8]
  405735:	ff 15 1c 81 40 00    	call   DWORD PTR ds:0x40811c
  40573b:	ff 75 08             	push   DWORD PTR [ebp+0x8]
  40573e:	6a 01                	push   0x1
  405740:	ff 15 bc 81 40 00    	call   DWORD PTR ds:0x4081bc
  405746:	ff 15 b8 81 40 00    	call   DWORD PTR ds:0x4081b8
  40574c:	33 c0                	xor    eax,eax
  40574e:	e9 ae fe ff ff       	jmp    0x405601
  405753:	55                   	push   ebp
  405754:	8b ec                	mov    ebp,esp
  405756:	83 ec 20             	sub    esp,0x20
  405759:	b8 7c 83 40 00       	mov    eax,0x40837c
  40575e:	80 65 e1 00          	and    BYTE PTR [ebp-0x1f],0x0
  405762:	89 45 e4             	mov    DWORD PTR [ebp-0x1c],eax
  405765:	89 45 e8             	mov    DWORD PTR [ebp-0x18],eax
  405768:	8d 45 e0             	lea    eax,[ebp-0x20]
  40576b:	83 65 ec 00          	and    DWORD PTR [ebp-0x14],0x0
  40576f:	83 65 fc 00          	and    DWORD PTR [ebp-0x4],0x0
  405773:	89 45 f8             	mov    DWORD PTR [ebp-0x8],eax
  405776:	8d 45 f4             	lea    eax,[ebp-0xc]
  405779:	56                   	push   esi
  40577a:	50                   	push   eax
  40577b:	c6 45 e0 01          	mov    BYTE PTR [ebp-0x20],0x1
  40577f:	ff 75 08             	push   DWORD PTR [ebp+0x8]
  405782:	66 c7 45 e2 04 00    	mov    WORD PTR [ebp-0x1e],0x4
  405788:	c7 45 f0 6c 83 40 00 	mov    DWORD PTR [ebp-0x10],0x40836c
  40578f:	c7 45 f4 0c 00 00 00 	mov    DWORD PTR [ebp-0xc],0xc
  405796:	ff 15 c4 80 40 00    	call   DWORD PTR ds:0x4080c4
  40579c:	85 c0                	test   eax,eax
  40579e:	74 04                	je     0x4057a4
  4057a0:	33 c0                	xor    eax,eax
  4057a2:	eb 27                	jmp    0x4057cb
  4057a4:	8b 35 c0 80 40 00    	mov    esi,DWORD PTR ds:0x4080c0
  4057aa:	ff d6                	call   esi
  4057ac:	3d b7 00 00 00       	cmp    eax,0xb7
  4057b1:	75 18                	jne    0x4057cb
  4057b3:	8d 45 e0             	lea    eax,[ebp-0x20]
  4057b6:	50                   	push   eax
  4057b7:	68 07 00 00 80       	push   0x80000007
  4057bc:	ff 75 08             	push   DWORD PTR [ebp+0x8]
  4057bf:	ff 15 0c 80 40 00    	call   DWORD PTR ds:0x40800c
  4057c5:	85 c0                	test   eax,eax
  4057c7:	75 d7                	jne    0x4057a0
  4057c9:	ff d6                	call   esi
  4057cb:	5e                   	pop    esi
  4057cc:	c9                   	leave  
  4057cd:	c2 04 00             	ret    0x4
  4057d0:	6a 00                	push   0x0
  4057d2:	ff 74 24 08          	push   DWORD PTR [esp+0x8]
  4057d6:	ff 15 c4 80 40 00    	call   DWORD PTR ds:0x4080c4
  4057dc:	85 c0                	test   eax,eax
  4057de:	74 04                	je     0x4057e4
  4057e0:	33 c0                	xor    eax,eax
  4057e2:	eb 06                	jmp    0x4057ea
  4057e4:	ff 15 c0 80 40 00    	call   DWORD PTR ds:0x4080c0
  4057ea:	c2 04 00             	ret    0x4
  4057ed:	6a 05                	push   0x5
  4057ef:	e8 0a 0d 00 00       	call   0x4064fe
  4057f4:	85 c0                	test   eax,eax
  4057f6:	74 0a                	je     0x405802
  4057f8:	ff d0                	call   eax
  4057fa:	85 c0                	test   eax,eax
  4057fc:	74 04                	je     0x405802
  4057fe:	33 c0                	xor    eax,eax
  405800:	40                   	inc    eax
  405801:	c3                   	ret    
  405802:	33 c0                	xor    eax,eax
  405804:	c3                   	ret    
  405805:	55                   	push   ebp
  405806:	8b ec                	mov    ebp,esp
  405808:	83 ec 10             	sub    esp,0x10
  40580b:	8d 45 f0             	lea    eax,[ebp-0x10]
  40580e:	c7 05 a0 c0 42 00 44 	mov    DWORD PTR ds:0x42c0a0,0x44
  405815:	00 00 00 
  405818:	50                   	push   eax
  405819:	33 c0                	xor    eax,eax
  40581b:	68 a0 c0 42 00       	push   0x42c0a0
  405820:	50                   	push   eax
  405821:	50                   	push   eax
  405822:	68 00 00 00 04       	push   0x4000000
  405827:	50                   	push   eax
  405828:	50                   	push   eax
  405829:	50                   	push   eax
  40582a:	ff 75 08             	push   DWORD PTR [ebp+0x8]
  40582d:	50                   	push   eax
  40582e:	ff 15 c8 80 40 00    	call   DWORD PTR ds:0x4080c8
  405834:	85 c0                	test   eax,eax
  405836:	74 0c                	je     0x405844
  405838:	ff 75 f4             	push   DWORD PTR [ebp-0xc]
  40583b:	ff 15 14 81 40 00    	call   DWORD PTR ds:0x408114
  405841:	8b 45 f0             	mov    eax,DWORD PTR [ebp-0x10]
  405844:	c9                   	leave  
  405845:	c2 04 00             	ret    0x4
  405848:	8b 44 24 04          	mov    eax,DWORD PTR [esp+0x4]
  40584c:	50                   	push   eax
  40584d:	83 60 24 00          	and    DWORD PTR [eax+0x24],0x0
  405851:	c7 00 3c 00 00 00    	mov    DWORD PTR [eax],0x3c
  405857:	ff 15 6c 81 40 00    	call   DWORD PTR ds:0x40816c
  40585d:	c2 04 00             	ret    0x4
  405860:	ff 25 d8 81 40 00    	jmp    DWORD PTR ds:0x4081d8
  405866:	68 00 04 00 00       	push   0x400
  40586b:	ff 74 24 0c          	push   DWORD PTR [esp+0xc]
  40586f:	ff 74 24 0c          	push   DWORD PTR [esp+0xc]
  405873:	ff 35 f8 eb 42 00    	push   DWORD PTR ds:0x42ebf8
  405879:	ff 15 dc 81 40 00    	call   DWORD PTR ds:0x4081dc
  40587f:	c2 08 00             	ret    0x8
  405882:	8b 44 24 08          	mov    eax,DWORD PTR [esp+0x8]
  405886:	8b c8                	mov    ecx,eax
  405888:	81 e1 ff ff 1f 00    	and    ecx,0x1fffff
  40588e:	83 3d e0 f4 42 00 00 	cmp    DWORD PTR ds:0x42f4e0,0x0
  405895:	74 05                	je     0x40589c
  405897:	c1 e8 15             	shr    eax,0x15
  40589a:	75 47                	jne    0x4058e3
  40589c:	83 3d e8 f4 42 00 00 	cmp    DWORD PTR ds:0x42f4e8,0x0
  4058a3:	74 06                	je     0x4058ab
  4058a5:	81 f1 00 00 18 00    	xor    ecx,0x180000
  4058ab:	a1 28 f4 42 00       	mov    eax,ds:0x42f428
  4058b0:	68 30 a2 40 00       	push   0x40a230
  4058b5:	a3 34 a2 40 00       	mov    ds:0x40a234,eax
  4058ba:	a1 20 f4 42 00       	mov    eax,ds:0x42f420
  4058bf:	a3 38 a2 40 00       	mov    ds:0x40a238,eax
  4058c4:	8b 44 24 08          	mov    eax,DWORD PTR [esp+0x8]
  4058c8:	a3 3c a2 40 00       	mov    ds:0x40a23c,eax
  4058cd:	c7 05 40 a2 40 00 20 	mov    DWORD PTR ds:0x40a240,0x42ec20
  4058d4:	ec 42 00 
  4058d7:	89 0d 44 a2 40 00    	mov    DWORD PTR ds:0x40a244,ecx
  4058dd:	ff 15 e0 81 40 00    	call   DWORD PTR ds:0x4081e0
  4058e3:	c2 08 00             	ret    0x8
  4058e6:	56                   	push   esi
  4058e7:	8b 74 24 08          	mov    esi,DWORD PTR [esp+0x8]
  4058eb:	57                   	push   edi
  4058ec:	56                   	push   esi
  4058ed:	e8 e8 03 00 00       	call   0x405cda
  4058f2:	8b f8                	mov    edi,eax
  4058f4:	83 ff ff             	cmp    edi,0xffffffff
  4058f7:	74 2e                	je     0x405927
  4058f9:	f6 44 24 10 01       	test   BYTE PTR [esp+0x10],0x1
  4058fe:	56                   	push   esi
  4058ff:	74 08                	je     0x405909
  405901:	ff 15 cc 80 40 00    	call   DWORD PTR ds:0x4080cc
  405907:	eb 06                	jmp    0x40590f
  405909:	ff 15 28 81 40 00    	call   DWORD PTR ds:0x408128
  40590f:	85 c0                	test   eax,eax
  405911:	74 05                	je     0x405918
  405913:	33 c0                	xor    eax,eax
  405915:	40                   	inc    eax
  405916:	eb 11                	jmp    0x405929
  405918:	f6 44 24 10 04       	test   BYTE PTR [esp+0x10],0x4
  40591d:	75 08                	jne    0x405927
  40591f:	57                   	push   edi
  405920:	56                   	push   esi
  405921:	ff 15 b4 80 40 00    	call   DWORD PTR ds:0x4080b4
  405927:	33 c0                	xor    eax,eax
  405929:	5f                   	pop    edi
  40592a:	5e                   	pop    esi
  40592b:	c2 08 00             	ret    0x8
  40592e:	55                   	push   ebp
  40592f:	8b ec                	mov    ebp,esp
  405931:	81 ec 4c 01 00 00    	sub    esp,0x14c
  405937:	53                   	push   ebx
  405938:	8b 5d 0c             	mov    ebx,DWORD PTR [ebp+0xc]
  40593b:	56                   	push   esi
  40593c:	57                   	push   edi
  40593d:	8b 7d 08             	mov    edi,DWORD PTR [ebp+0x8]
  405940:	8b c3                	mov    eax,ebx
  405942:	83 e0 04             	and    eax,0x4
  405945:	57                   	push   edi
  405946:	89 45 fc             	mov    DWORD PTR [ebp-0x4],eax
  405949:	e8 9e 02 00 00       	call   0x405bec
  40594e:	f6 c3 08             	test   bl,0x8
  405951:	89 45 f4             	mov    DWORD PTR [ebp-0xc],eax
  405954:	74 17                	je     0x40596d
  405956:	57                   	push   edi
  405957:	ff 15 28 81 40 00    	call   DWORD PTR ds:0x408128
  40595d:	f7 d8                	neg    eax
  40595f:	1b c0                	sbb    eax,eax
  405961:	40                   	inc    eax
  405962:	01 05 c8 f4 42 00    	add    DWORD PTR ds:0x42f4c8,eax
  405968:	e9 8a 01 00 00       	jmp    0x405af7
  40596d:	89 5d 08             	mov    DWORD PTR [ebp+0x8],ebx
  405970:	83 65 08 01          	and    DWORD PTR [ebp+0x8],0x1
  405974:	74 11                	je     0x405987
  405976:	85 c0                	test   eax,eax
  405978:	0f 84 27 01 00 00    	je     0x405aa5
  40597e:	f6 c3 02             	test   bl,0x2
  405981:	0f 84 1e 01 00 00    	je     0x405aa5
  405987:	be a0 b8 42 00       	mov    esi,0x42b8a0
  40598c:	57                   	push   edi
  40598d:	56                   	push   esi
  40598e:	e8 d3 07 00 00       	call   0x406166
  405993:	83 7d 08 00          	cmp    DWORD PTR [ebp+0x8],0x0
  405997:	74 0d                	je     0x4059a6
  405999:	68 c4 a3 40 00       	push   0x40a3c4
  40599e:	56                   	push   esi
  40599f:	e8 de 07 00 00       	call   0x406182
  4059a4:	eb 06                	jmp    0x4059ac
  4059a6:	57                   	push   edi
  4059a7:	e8 99 01 00 00       	call   0x405b45
  4059ac:	80 3f 00             	cmp    BYTE PTR [edi],0x0
  4059af:	75 09                	jne    0x4059ba
  4059b1:	80 3d a0 b8 42 00 5c 	cmp    BYTE PTR ds:0x42b8a0,0x5c
  4059b8:	75 0b                	jne    0x4059c5
  4059ba:	68 14 a0 40 00       	push   0x40a014
  4059bf:	57                   	push   edi
  4059c0:	e8 bd 07 00 00       	call   0x406182
  4059c5:	57                   	push   edi
  4059c6:	e8 b1 07 00 00       	call   0x40617c
  4059cb:	8b d8                	mov    ebx,eax
  4059cd:	8d 85 b4 fe ff ff    	lea    eax,[ebp-0x14c]
  4059d3:	50                   	push   eax
  4059d4:	56                   	push   esi
  4059d5:	03 df                	add    ebx,edi
  4059d7:	ff 15 2c 81 40 00    	call   DWORD PTR ds:0x40812c
  4059dd:	83 f8 ff             	cmp    eax,0xffffffff
  4059e0:	89 45 f8             	mov    DWORD PTR [ebp-0x8],eax
  4059e3:	0f 84 b2 00 00 00    	je     0x405a9b
  4059e9:	8d 85 e0 fe ff ff    	lea    eax,[ebp-0x120]
  4059ef:	6a 3f                	push   0x3f
  4059f1:	50                   	push   eax
  4059f2:	8d b5 e0 fe ff ff    	lea    esi,[ebp-0x120]
  4059f8:	e8 2c 01 00 00       	call   0x405b29
  4059fd:	80 38 00             	cmp    BYTE PTR [eax],0x0
  405a00:	74 09                	je     0x405a0b
  405a02:	80 7d e4 00          	cmp    BYTE PTR [ebp-0x1c],0x0
  405a06:	74 03                	je     0x405a0b
  405a08:	8d 75 e4             	lea    esi,[ebp-0x1c]
  405a0b:	80 3e 2e             	cmp    BYTE PTR [esi],0x2e
  405a0e:	75 11                	jne    0x405a21
  405a10:	8a 46 01             	mov    al,BYTE PTR [esi+0x1]
  405a13:	84 c0                	test   al,al
  405a15:	74 63                	je     0x405a7a
  405a17:	3c 2e                	cmp    al,0x2e
  405a19:	75 06                	jne    0x405a21
  405a1b:	80 7e 02 00          	cmp    BYTE PTR [esi+0x2],0x0
  405a1f:	74 59                	je     0x405a7a
  405a21:	56                   	push   esi
  405a22:	53                   	push   ebx
  405a23:	e8 3e 07 00 00       	call   0x406166
  405a28:	f6 85 b4 fe ff ff 10 	test   BYTE PTR [ebp-0x14c],0x10
  405a2f:	74 15                	je     0x405a46
  405a31:	8b 45 0c             	mov    eax,DWORD PTR [ebp+0xc]
  405a34:	83 e0 03             	and    eax,0x3
  405a37:	3c 03                	cmp    al,0x3
  405a39:	75 3f                	jne    0x405a7a
  405a3b:	ff 75 0c             	push   DWORD PTR [ebp+0xc]
  405a3e:	57                   	push   edi
  405a3f:	e8 ea fe ff ff       	call   0x40592e
  405a44:	eb 34                	jmp    0x405a7a
  405a46:	ff 75 fc             	push   DWORD PTR [ebp-0x4]
  405a49:	57                   	push   edi
  405a4a:	e8 97 fe ff ff       	call   0x4058e6
  405a4f:	85 c0                	test   eax,eax
  405a51:	75 1f                	jne    0x405a72
  405a53:	39 45 fc             	cmp    DWORD PTR [ebp-0x4],eax
  405a56:	74 12                	je     0x405a6a
  405a58:	57                   	push   edi
  405a59:	6a f1                	push   0xfffffff1
  405a5b:	e8 2d f8 ff ff       	call   0x40528d
  405a60:	6a 00                	push   0x0
  405a62:	57                   	push   edi
  405a63:	e8 dd 04 00 00       	call   0x405f45
  405a68:	eb 10                	jmp    0x405a7a
  405a6a:	ff 05 c8 f4 42 00    	inc    DWORD PTR ds:0x42f4c8
  405a70:	eb 08                	jmp    0x405a7a
  405a72:	57                   	push   edi
  405a73:	6a f2                	push   0xfffffff2
  405a75:	e8 13 f8 ff ff       	call   0x40528d
  405a7a:	8d 85 b4 fe ff ff    	lea    eax,[ebp-0x14c]
  405a80:	50                   	push   eax
  405a81:	ff 75 f8             	push   DWORD PTR [ebp-0x8]
  405a84:	ff 15 30 81 40 00    	call   DWORD PTR ds:0x408130
  405a8a:	85 c0                	test   eax,eax
  405a8c:	0f 85 57 ff ff ff    	jne    0x4059e9
  405a92:	ff 75 f8             	push   DWORD PTR [ebp-0x8]
  405a95:	ff 15 34 81 40 00    	call   DWORD PTR ds:0x408134
  405a9b:	83 7d 08 00          	cmp    DWORD PTR [ebp+0x8],0x0
  405a9f:	74 04                	je     0x405aa5
  405aa1:	80 63 ff 00          	and    BYTE PTR [ebx-0x1],0x0
  405aa5:	33 f6                	xor    esi,esi
  405aa7:	39 75 08             	cmp    DWORD PTR [ebp+0x8],esi
  405aaa:	74 4b                	je     0x405af7
  405aac:	39 75 f4             	cmp    DWORD PTR [ebp-0xc],esi
  405aaf:	75 08                	jne    0x405ab9
  405ab1:	ff 05 c8 f4 42 00    	inc    DWORD PTR ds:0x42f4c8
  405ab7:	eb 3e                	jmp    0x405af7
  405ab9:	57                   	push   edi
  405aba:	e8 aa 09 00 00       	call   0x406469
  405abf:	85 c0                	test   eax,eax
  405ac1:	74 34                	je     0x405af7
  405ac3:	57                   	push   edi
  405ac4:	e8 35 00 00 00       	call   0x405afe
  405ac9:	8b 45 fc             	mov    eax,DWORD PTR [ebp-0x4]
  405acc:	0c 01                	or     al,0x1
  405ace:	50                   	push   eax
  405acf:	57                   	push   edi
  405ad0:	e8 11 fe ff ff       	call   0x4058e6
  405ad5:	85 c0                	test   eax,eax
  405ad7:	75 16                	jne    0x405aef
  405ad9:	39 75 fc             	cmp    DWORD PTR [ebp-0x4],esi
  405adc:	74 d3                	je     0x405ab1
  405ade:	57                   	push   edi
  405adf:	6a f1                	push   0xfffffff1
  405ae1:	e8 a7 f7 ff ff       	call   0x40528d
  405ae6:	56                   	push   esi
  405ae7:	57                   	push   edi
  405ae8:	e8 58 04 00 00       	call   0x405f45
  405aed:	eb 08                	jmp    0x405af7
  405aef:	57                   	push   edi
  405af0:	6a e5                	push   0xffffffe5
  405af2:	e8 96 f7 ff ff       	call   0x40528d
  405af7:	5f                   	pop    edi
  405af8:	5e                   	pop    esi
  405af9:	5b                   	pop    ebx
  405afa:	c9                   	leave  
  405afb:	c2 08 00             	ret    0x8
  405afe:	56                   	push   esi
  405aff:	8b 74 24 08          	mov    esi,DWORD PTR [esp+0x8]
  405b03:	56                   	push   esi
  405b04:	e8 73 06 00 00       	call   0x40617c
  405b09:	03 c6                	add    eax,esi
  405b0b:	50                   	push   eax
  405b0c:	56                   	push   esi
  405b0d:	ff 15 e4 81 40 00    	call   DWORD PTR ds:0x4081e4
  405b13:	80 38 5c             	cmp    BYTE PTR [eax],0x5c
  405b16:	74 0b                	je     0x405b23
  405b18:	68 14 a0 40 00       	push   0x40a014
  405b1d:	56                   	push   esi
  405b1e:	e8 5f 06 00 00       	call   0x406182
  405b23:	8b c6                	mov    eax,esi
  405b25:	5e                   	pop    esi
  405b26:	c2 04 00             	ret    0x4
  405b29:	8b 44 24 04          	mov    eax,DWORD PTR [esp+0x4]
  405b2d:	eb 0d                	jmp    0x405b3c
  405b2f:	3a 4c 24 08          	cmp    cl,BYTE PTR [esp+0x8]
  405b33:	74 0d                	je     0x405b42
  405b35:	50                   	push   eax
  405b36:	ff 15 2c 82 40 00    	call   DWORD PTR ds:0x40822c
  405b3c:	8a 08                	mov    cl,BYTE PTR [eax]
  405b3e:	84 c9                	test   cl,cl
  405b40:	75 ed                	jne    0x405b2f
  405b42:	c2 08 00             	ret    0x8
  405b45:	56                   	push   esi
  405b46:	8b 74 24 08          	mov    esi,DWORD PTR [esp+0x8]
  405b4a:	56                   	push   esi
  405b4b:	e8 2c 06 00 00       	call   0x40617c
  405b50:	03 c6                	add    eax,esi
  405b52:	80 38 5c             	cmp    BYTE PTR [eax],0x5c
  405b55:	74 0c                	je     0x405b63
  405b57:	50                   	push   eax
  405b58:	56                   	push   esi
  405b59:	ff 15 e4 81 40 00    	call   DWORD PTR ds:0x4081e4
  405b5f:	3b c6                	cmp    eax,esi
  405b61:	77 ef                	ja     0x405b52
  405b63:	80 20 00             	and    BYTE PTR [eax],0x0
  405b66:	40                   	inc    eax
  405b67:	5e                   	pop    esi
  405b68:	c2 04 00             	ret    0x4
  405b6b:	8b 54 24 04          	mov    edx,DWORD PTR [esp+0x4]
  405b6f:	8a 0a                	mov    cl,BYTE PTR [edx]
  405b71:	8a c1                	mov    al,cl
  405b73:	0c 20                	or     al,0x20
  405b75:	80 f9 5c             	cmp    cl,0x5c
  405b78:	75 05                	jne    0x405b7f
  405b7a:	38 4a 01             	cmp    BYTE PTR [edx+0x1],cl
  405b7d:	74 0e                	je     0x405b8d
  405b7f:	3c 61                	cmp    al,0x61
  405b81:	7c 0f                	jl     0x405b92
  405b83:	3c 7a                	cmp    al,0x7a
  405b85:	7f 0b                	jg     0x405b92
  405b87:	80 7a 01 3a          	cmp    BYTE PTR [edx+0x1],0x3a
  405b8b:	75 05                	jne    0x405b92
  405b8d:	33 c0                	xor    eax,eax
  405b8f:	40                   	inc    eax
  405b90:	eb 02                	jmp    0x405b94
  405b92:	33 c0                	xor    eax,eax
  405b94:	c2 04 00             	ret    0x4
  405b97:	53                   	push   ebx
  405b98:	56                   	push   esi
  405b99:	8b 35 2c 82 40 00    	mov    esi,DWORD PTR ds:0x40822c
  405b9f:	57                   	push   edi
  405ba0:	8b 7c 24 10          	mov    edi,DWORD PTR [esp+0x10]
  405ba4:	57                   	push   edi
  405ba5:	ff d6                	call   esi
  405ba7:	8b d8                	mov    ebx,eax
  405ba9:	53                   	push   ebx
  405baa:	ff d6                	call   esi
  405bac:	8a 0f                	mov    cl,BYTE PTR [edi]
  405bae:	84 c9                	test   cl,cl
  405bb0:	74 10                	je     0x405bc2
  405bb2:	80 3b 3a             	cmp    BYTE PTR [ebx],0x3a
  405bb5:	75 0b                	jne    0x405bc2
  405bb7:	80 7b 01 5c          	cmp    BYTE PTR [ebx+0x1],0x5c
  405bbb:	75 05                	jne    0x405bc2
  405bbd:	50                   	push   eax
  405bbe:	ff d6                	call   esi
  405bc0:	eb 24                	jmp    0x405be6
  405bc2:	80 f9 5c             	cmp    cl,0x5c
  405bc5:	75 1d                	jne    0x405be4
  405bc7:	38 4f 01             	cmp    BYTE PTR [edi+0x1],cl
  405bca:	75 18                	jne    0x405be4
  405bcc:	6a 02                	push   0x2
  405bce:	5e                   	pop    esi
  405bcf:	6a 5c                	push   0x5c
  405bd1:	50                   	push   eax
  405bd2:	4e                   	dec    esi
  405bd3:	e8 51 ff ff ff       	call   0x405b29
  405bd8:	80 38 00             	cmp    BYTE PTR [eax],0x0
  405bdb:	74 07                	je     0x405be4
  405bdd:	40                   	inc    eax
  405bde:	85 f6                	test   esi,esi
  405be0:	75 ed                	jne    0x405bcf
  405be2:	eb 02                	jmp    0x405be6
  405be4:	33 c0                	xor    eax,eax
  405be6:	5f                   	pop    edi
  405be7:	5e                   	pop    esi
  405be8:	5b                   	pop    ebx
  405be9:	c2 04 00             	ret    0x4
  405bec:	56                   	push   esi
  405bed:	57                   	push   edi
  405bee:	ff 74 24 0c          	push   DWORD PTR [esp+0xc]
  405bf2:	be a0 bc 42 00       	mov    esi,0x42bca0
  405bf7:	56                   	push   esi
  405bf8:	e8 69 05 00 00       	call   0x406166
  405bfd:	56                   	push   esi
  405bfe:	e8 94 ff ff ff       	call   0x405b97
  405c03:	8b f8                	mov    edi,eax
  405c05:	85 ff                	test   edi,edi
  405c07:	75 04                	jne    0x405c0d
  405c09:	33 c0                	xor    eax,eax
  405c0b:	eb 52                	jmp    0x405c5f
  405c0d:	57                   	push   edi
  405c0e:	e8 bd 07 00 00       	call   0x4063d0
  405c13:	f6 05 3c f4 42 00 80 	test   BYTE PTR ds:0x42f43c,0x80
  405c1a:	74 0a                	je     0x405c26
  405c1c:	8a 07                	mov    al,BYTE PTR [edi]
  405c1e:	84 c0                	test   al,al
  405c20:	74 e7                	je     0x405c09
  405c22:	3c 5c                	cmp    al,0x5c
  405c24:	74 e3                	je     0x405c09
  405c26:	2b fe                	sub    edi,esi
  405c28:	eb 14                	jmp    0x405c3e
  405c2a:	e8 3a 08 00 00       	call   0x406469
  405c2f:	85 c0                	test   eax,eax
  405c31:	74 05                	je     0x405c38
  405c33:	f6 00 10             	test   BYTE PTR [eax],0x10
  405c36:	74 d1                	je     0x405c09
  405c38:	56                   	push   esi
  405c39:	e8 07 ff ff ff       	call   0x405b45
  405c3e:	56                   	push   esi
  405c3f:	e8 38 05 00 00       	call   0x40617c
  405c44:	3b c7                	cmp    eax,edi
  405c46:	56                   	push   esi
  405c47:	7f e1                	jg     0x405c2a
  405c49:	e8 b0 fe ff ff       	call   0x405afe
  405c4e:	56                   	push   esi
  405c4f:	ff 15 fc 80 40 00    	call   DWORD PTR ds:0x4080fc
  405c55:	33 c9                	xor    ecx,ecx
  405c57:	83 f8 ff             	cmp    eax,0xffffffff
  405c5a:	0f 95 c1             	setne  cl
  405c5d:	8b c1                	mov    eax,ecx
  405c5f:	5f                   	pop    edi
  405c60:	5e                   	pop    esi
  405c61:	c2 04 00             	ret    0x4
  405c64:	55                   	push   ebp
  405c65:	8b ec                	mov    ebp,esp
  405c67:	51                   	push   ecx
  405c68:	53                   	push   ebx
  405c69:	56                   	push   esi
  405c6a:	57                   	push   edi
  405c6b:	8b 3d a0 80 40 00    	mov    edi,DWORD PTR ds:0x4080a0
  405c71:	ff 75 0c             	push   DWORD PTR [ebp+0xc]
  405c74:	ff d7                	call   edi
  405c76:	8b 75 08             	mov    esi,DWORD PTR [ebp+0x8]
  405c79:	89 45 fc             	mov    DWORD PTR [ebp-0x4],eax
  405c7c:	eb 27                	jmp    0x405ca5
  405c7e:	8b 45 fc             	mov    eax,DWORD PTR [ebp-0x4]
  405c81:	ff 75 0c             	push   DWORD PTR [ebp+0xc]
  405c84:	8a 1c 30             	mov    bl,BYTE PTR [eax+esi*1]
  405c87:	80 24 30 00          	and    BYTE PTR [eax+esi*1],0x0
  405c8b:	56                   	push   esi
  405c8c:	ff 15 18 81 40 00    	call   DWORD PTR ds:0x408118
  405c92:	85 c0                	test   eax,eax
  405c94:	8b 45 fc             	mov    eax,DWORD PTR [ebp-0x4]
  405c97:	88 1c 30             	mov    BYTE PTR [eax+esi*1],bl
  405c9a:	74 1a                	je     0x405cb6
  405c9c:	56                   	push   esi
  405c9d:	ff 15 2c 82 40 00    	call   DWORD PTR ds:0x40822c
  405ca3:	8b f0                	mov    esi,eax
  405ca5:	56                   	push   esi
  405ca6:	ff d7                	call   edi
  405ca8:	3b 45 fc             	cmp    eax,DWORD PTR [ebp-0x4]
  405cab:	7d d1                	jge    0x405c7e
  405cad:	33 c0                	xor    eax,eax
  405caf:	5f                   	pop    edi
  405cb0:	5e                   	pop    esi
  405cb1:	5b                   	pop    ebx
  405cb2:	c9                   	leave  
  405cb3:	c2 08 00             	ret    0x8
  405cb6:	8b c6                	mov    eax,esi
  405cb8:	eb f5                	jmp    0x405caf
  405cba:	8b 4c 24 04          	mov    ecx,DWORD PTR [esp+0x4]
  405cbe:	56                   	push   esi
  405cbf:	8b 74 24 10          	mov    esi,DWORD PTR [esp+0x10]
  405cc3:	85 f6                	test   esi,esi
  405cc5:	76 0f                	jbe    0x405cd6
  405cc7:	8b 44 24 0c          	mov    eax,DWORD PTR [esp+0xc]
  405ccb:	2b c1                	sub    eax,ecx
  405ccd:	8a 14 08             	mov    dl,BYTE PTR [eax+ecx*1]
  405cd0:	88 11                	mov    BYTE PTR [ecx],dl
  405cd2:	41                   	inc    ecx
  405cd3:	4e                   	dec    esi
  405cd4:	75 f7                	jne    0x405ccd
  405cd6:	5e                   	pop    esi
  405cd7:	c2 0c 00             	ret    0xc
  405cda:	56                   	push   esi
  405cdb:	ff 74 24 08          	push   DWORD PTR [esp+0x8]
  405cdf:	ff 15 fc 80 40 00    	call   DWORD PTR ds:0x4080fc
  405ce5:	8b f0                	mov    esi,eax
  405ce7:	83 fe ff             	cmp    esi,0xffffffff
  405cea:	74 0d                	je     0x405cf9
  405cec:	24 fe                	and    al,0xfe
  405cee:	50                   	push   eax
  405cef:	ff 74 24 0c          	push   DWORD PTR [esp+0xc]
  405cf3:	ff 15 b4 80 40 00    	call   DWORD PTR ds:0x4080b4
  405cf9:	8b c6                	mov    eax,esi
  405cfb:	5e                   	pop    esi
  405cfc:	c2 04 00             	ret    0x4
  405cff:	ff 74 24 04          	push   DWORD PTR [esp+0x4]
  405d03:	ff 15 fc 80 40 00    	call   DWORD PTR ds:0x4080fc
  405d09:	8b c8                	mov    ecx,eax
  405d0b:	6a 00                	push   0x0
  405d0d:	41                   	inc    ecx
  405d0e:	f7 d9                	neg    ecx
  405d10:	1b c9                	sbb    ecx,ecx
  405d12:	23 c8                	and    ecx,eax
  405d14:	51                   	push   ecx
  405d15:	ff 74 24 14          	push   DWORD PTR [esp+0x14]
  405d19:	6a 00                	push   0x0
  405d1b:	6a 01                	push   0x1
  405d1d:	ff 74 24 1c          	push   DWORD PTR [esp+0x1c]
  405d21:	ff 74 24 1c          	push   DWORD PTR [esp+0x1c]
  405d25:	ff 15 74 80 40 00    	call   DWORD PTR ds:0x408074
  405d2b:	c2 0c 00             	ret    0xc
  405d2e:	55                   	push   ebp
  405d2f:	8b ec                	mov    ebp,esp
  405d31:	56                   	push   esi
  405d32:	8b 75 08             	mov    esi,DWORD PTR [ebp+0x8]
  405d35:	57                   	push   edi
  405d36:	6a 64                	push   0x64
  405d38:	5f                   	pop    edi
  405d39:	a1 cc a3 40 00       	mov    eax,ds:0x40a3cc
  405d3e:	4f                   	dec    edi
  405d3f:	89 45 08             	mov    DWORD PTR [ebp+0x8],eax
  405d42:	ff 15 90 80 40 00    	call   DWORD PTR ds:0x408090
  405d48:	6a 1a                	push   0x1a
  405d4a:	33 d2                	xor    edx,edx
  405d4c:	59                   	pop    ecx
  405d4d:	f7 f1                	div    ecx
  405d4f:	56                   	push   esi
  405d50:	8d 45 08             	lea    eax,[ebp+0x8]
  405d53:	6a 00                	push   0x0
  405d55:	50                   	push   eax
  405d56:	ff 75 0c             	push   DWORD PTR [ebp+0xc]
  405d59:	00 55 0a             	add    BYTE PTR [ebp+0xa],dl
  405d5c:	ff 15 d0 80 40 00    	call   DWORD PTR ds:0x4080d0
  405d62:	85 c0                	test   eax,eax
  405d64:	75 0d                	jne    0x405d73
  405d66:	85 ff                	test   edi,edi
  405d68:	75 cf                	jne    0x405d39
  405d6a:	80 26 00             	and    BYTE PTR [esi],0x0
  405d6d:	5f                   	pop    edi
  405d6e:	5e                   	pop    esi
  405d6f:	5d                   	pop    ebp
  405d70:	c2 08 00             	ret    0x8
  405d73:	8b c6                	mov    eax,esi
  405d75:	eb f6                	jmp    0x405d6d
  405d77:	55                   	push   ebp
  405d78:	8b ec                	mov    ebp,esp
  405d7a:	56                   	push   esi
  405d7b:	8b 75 10             	mov    esi,DWORD PTR [ebp+0x10]
  405d7e:	8d 45 10             	lea    eax,[ebp+0x10]
  405d81:	6a 00                	push   0x0
  405d83:	50                   	push   eax
  405d84:	56                   	push   esi
  405d85:	ff 75 0c             	push   DWORD PTR [ebp+0xc]
  405d88:	ff 75 08             	push   DWORD PTR [ebp+0x8]
  405d8b:	ff 15 80 80 40 00    	call   DWORD PTR ds:0x408080
  405d91:	85 c0                	test   eax,eax
  405d93:	74 0a                	je     0x405d9f
  405d95:	3b 75 10             	cmp    esi,DWORD PTR [ebp+0x10]
  405d98:	75 05                	jne    0x405d9f
  405d9a:	33 c0                	xor    eax,eax
  405d9c:	40                   	inc    eax
  405d9d:	eb 02                	jmp    0x405da1
  405d9f:	33 c0                	xor    eax,eax
  405da1:	5e                   	pop    esi
  405da2:	5d                   	pop    ebp
  405da3:	c2 0c 00             	ret    0xc
  405da6:	55                   	push   ebp
  405da7:	8b ec                	mov    ebp,esp
  405da9:	56                   	push   esi
  405daa:	8b 75 10             	mov    esi,DWORD PTR [ebp+0x10]
  405dad:	8d 45 10             	lea    eax,[ebp+0x10]
  405db0:	6a 00                	push   0x0
  405db2:	50                   	push   eax
  405db3:	56                   	push   esi
  405db4:	ff 75 0c             	push   DWORD PTR [ebp+0xc]
  405db7:	ff 75 08             	push   DWORD PTR [ebp+0x8]
  405dba:	ff 15 d4 80 40 00    	call   DWORD PTR ds:0x4080d4
  405dc0:	85 c0                	test   eax,eax
  405dc2:	74 0a                	je     0x405dce
  405dc4:	3b 75 10             	cmp    esi,DWORD PTR [ebp+0x10]
  405dc7:	75 05                	jne    0x405dce
  405dc9:	33 c0                	xor    eax,eax
  405dcb:	40                   	inc    eax
  405dcc:	eb 02                	jmp    0x405dd0
  405dce:	33 c0                	xor    eax,eax
  405dd0:	5e                   	pop    esi
  405dd1:	5d                   	pop    ebp
  405dd2:	c2 0c 00             	ret    0xc
  405dd5:	53                   	push   ebx
  405dd6:	8b 1d 0c 81 40 00    	mov    ebx,DWORD PTR ds:0x40810c
  405ddc:	55                   	push   ebp
  405ddd:	56                   	push   esi
  405dde:	8b 74 24 14          	mov    esi,DWORD PTR [esp+0x14]
  405de2:	57                   	push   edi
  405de3:	85 f6                	test   esi,esi
  405de5:	c7 05 28 c6 42 00 4e 	mov    DWORD PTR ds:0x42c628,0x4c554e
  405dec:	55 4c 00 
  405def:	bf 00 04 00 00       	mov    edi,0x400
  405df4:	bd 28 c6 42 00       	mov    ebp,0x42c628
  405df9:	74 26                	je     0x405e21
  405dfb:	6a 01                	push   0x1
  405dfd:	6a 00                	push   0x0
  405dff:	56                   	push   esi
  405e00:	e8 fa fe ff ff       	call   0x405cff
  405e05:	50                   	push   eax
  405e06:	ff 15 14 81 40 00    	call   DWORD PTR ds:0x408114
  405e0c:	57                   	push   edi
  405e0d:	55                   	push   ebp
  405e0e:	56                   	push   esi
  405e0f:	ff d3                	call   ebx
  405e11:	85 c0                	test   eax,eax
  405e13:	0f 84 27 01 00 00    	je     0x405f40
  405e19:	3b c7                	cmp    eax,edi
  405e1b:	0f 8f 1f 01 00 00    	jg     0x405f40
  405e21:	be 28 ca 42 00       	mov    esi,0x42ca28
  405e26:	57                   	push   edi
  405e27:	56                   	push   esi
  405e28:	ff 74 24 1c          	push   DWORD PTR [esp+0x1c]
  405e2c:	ff d3                	call   ebx
  405e2e:	85 c0                	test   eax,eax
  405e30:	0f 84 0a 01 00 00    	je     0x405f40
  405e36:	3b c7                	cmp    eax,edi
  405e38:	0f 8f 02 01 00 00    	jg     0x405f40
  405e3e:	56                   	push   esi
  405e3f:	55                   	push   ebp
  405e40:	68 e0 a3 40 00       	push   0x40a3e0
  405e45:	68 28 c2 42 00       	push   0x42c228
  405e4a:	ff 15 74 82 40 00    	call   DWORD PTR ds:0x408274
  405e50:	8b d8                	mov    ebx,eax
  405e52:	a1 34 f4 42 00       	mov    eax,ds:0x42f434
  405e57:	83 c4 10             	add    esp,0x10
  405e5a:	ff b0 28 01 00 00    	push   DWORD PTR [eax+0x128]
  405e60:	56                   	push   esi
  405e61:	e8 22 03 00 00       	call   0x406188
  405e66:	6a 04                	push   0x4
  405e68:	68 00 00 00 c0       	push   0xc0000000
  405e6d:	56                   	push   esi
  405e6e:	e8 8c fe ff ff       	call   0x405cff
  405e73:	8b e8                	mov    ebp,eax
  405e75:	83 fd ff             	cmp    ebp,0xffffffff
  405e78:	89 6c 24 18          	mov    DWORD PTR [esp+0x18],ebp
  405e7c:	0f 84 be 00 00 00    	je     0x405f40
  405e82:	6a 00                	push   0x0
  405e84:	55                   	push   ebp
  405e85:	ff 15 78 80 40 00    	call   DWORD PTR ds:0x408078
  405e8b:	8b f8                	mov    edi,eax
  405e8d:	8d 44 1f 0a          	lea    eax,[edi+ebx*1+0xa]
  405e91:	50                   	push   eax
  405e92:	6a 40                	push   0x40
  405e94:	ff 15 58 81 40 00    	call   DWORD PTR ds:0x408158
  405e9a:	8b f0                	mov    esi,eax
  405e9c:	85 f6                	test   esi,esi
  405e9e:	0f 84 95 00 00 00    	je     0x405f39
  405ea4:	57                   	push   edi
  405ea5:	56                   	push   esi
  405ea6:	55                   	push   ebp
  405ea7:	e8 cb fe ff ff       	call   0x405d77
  405eac:	85 c0                	test   eax,eax
  405eae:	0f 84 85 00 00 00    	je     0x405f39
  405eb4:	68 d4 a3 40 00       	push   0x40a3d4
  405eb9:	56                   	push   esi
  405eba:	e8 a5 fd ff ff       	call   0x405c64
  405ebf:	85 c0                	test   eax,eax
  405ec1:	75 14                	jne    0x405ed7
  405ec3:	8d 04 3e             	lea    eax,[esi+edi*1]
  405ec6:	68 d4 a3 40 00       	push   0x40a3d4
  405ecb:	50                   	push   eax
  405ecc:	ff 15 d8 80 40 00    	call   DWORD PTR ds:0x4080d8
  405ed2:	83 c7 0a             	add    edi,0xa
  405ed5:	eb 35                	jmp    0x405f0c
  405ed7:	83 c0 0a             	add    eax,0xa
  405eda:	68 d0 a3 40 00       	push   0x40a3d0
  405edf:	50                   	push   eax
  405ee0:	e8 7f fd ff ff       	call   0x405c64
  405ee5:	8b e8                	mov    ebp,eax
  405ee7:	85 ed                	test   ebp,ebp
  405ee9:	74 1d                	je     0x405f08
  405eeb:	8d 0c 3e             	lea    ecx,[esi+edi*1]
  405eee:	8d 04 19             	lea    eax,[ecx+ebx*1]
  405ef1:	eb 06                	jmp    0x405ef9
  405ef3:	8a 11                	mov    dl,BYTE PTR [ecx]
  405ef5:	88 10                	mov    BYTE PTR [eax],dl
  405ef7:	48                   	dec    eax
  405ef8:	49                   	dec    ecx
  405ef9:	3b cd                	cmp    ecx,ebp
  405efb:	77 f6                	ja     0x405ef3
  405efd:	2b ee                	sub    ebp,esi
  405eff:	45                   	inc    ebp
  405f00:	8b c5                	mov    eax,ebp
  405f02:	8b 6c 24 18          	mov    ebp,DWORD PTR [esp+0x18]
  405f06:	eb 06                	jmp    0x405f0e
  405f08:	8b 6c 24 18          	mov    ebp,DWORD PTR [esp+0x18]
  405f0c:	8b c7                	mov    eax,edi
  405f0e:	53                   	push   ebx
  405f0f:	03 c6                	add    eax,esi
  405f11:	68 28 c2 42 00       	push   0x42c228
  405f16:	50                   	push   eax
  405f17:	e8 9e fd ff ff       	call   0x405cba
  405f1c:	33 c0                	xor    eax,eax
  405f1e:	50                   	push   eax
  405f1f:	50                   	push   eax
  405f20:	50                   	push   eax
  405f21:	55                   	push   ebp
  405f22:	ff 15 38 81 40 00    	call   DWORD PTR ds:0x408138
  405f28:	03 fb                	add    edi,ebx
  405f2a:	57                   	push   edi
  405f2b:	56                   	push   esi
  405f2c:	55                   	push   ebp
  405f2d:	e8 74 fe ff ff       	call   0x405da6
  405f32:	56                   	push   esi
  405f33:	ff 15 5c 81 40 00    	call   DWORD PTR ds:0x40815c
  405f39:	55                   	push   ebp
  405f3a:	ff 15 14 81 40 00    	call   DWORD PTR ds:0x408114
  405f40:	5f                   	pop    edi
  405f41:	5e                   	pop    esi
  405f42:	5d                   	pop    ebp
  405f43:	5b                   	pop    ebx
  405f44:	c3                   	ret    
  405f45:	6a 05                	push   0x5
  405f47:	ff 74 24 0c          	push   DWORD PTR [esp+0xc]
  405f4b:	ff 74 24 0c          	push   DWORD PTR [esp+0xc]
  405f4f:	ff 15 dc 80 40 00    	call   DWORD PTR ds:0x4080dc
  405f55:	85 c0                	test   eax,eax
  405f57:	75 0f                	jne    0x405f68
  405f59:	ff 74 24 08          	push   DWORD PTR [esp+0x8]
  405f5d:	ff 74 24 08          	push   DWORD PTR [esp+0x8]
  405f61:	e8 6f fe ff ff       	call   0x405dd5
  405f66:	59                   	pop    ecx
  405f67:	59                   	pop    ecx
  405f68:	ff 05 d0 f4 42 00    	inc    DWORD PTR ds:0x42f4d0
  405f6e:	c2 08 00             	ret    0x8
  405f71:	8b 15 2c f4 42 00    	mov    edx,DWORD PTR ds:0x42f42c
  405f77:	53                   	push   ebx
  405f78:	8b 5c 24 08          	mov    ebx,DWORD PTR [esp+0x8]
  405f7c:	57                   	push   edi
  405f7d:	8b 7c 24 10          	mov    edi,DWORD PTR [esp+0x10]
  405f81:	f7 d2                	not    edx
  405f83:	8b 07                	mov    eax,DWORD PTR [edi]
  405f85:	c1 ea 16             	shr    edx,0x16
  405f88:	81 e2 00 01 00 00    	and    edx,0x100
  405f8e:	a8 20                	test   al,0x20
  405f90:	74 34                	je     0x405fc6
  405f92:	f7 c3 00 00 00 60    	test   ebx,0x60000000
  405f98:	74 2c                	je     0x405fc6
  405f9a:	8b cb                	mov    ecx,ebx
  405f9c:	56                   	push   esi
  405f9d:	c1 e9 15             	shr    ecx,0x15
  405fa0:	be 00 03 00 00       	mov    esi,0x300
  405fa5:	23 ce                	and    ecx,esi
  405fa7:	3b ce                	cmp    ecx,esi
  405fa9:	5e                   	pop    esi
  405faa:	75 0a                	jne    0x405fb6
  405fac:	8b ca                	mov    ecx,edx
  405fae:	f7 d1                	not    ecx
  405fb0:	23 0d f0 f4 42 00    	and    ecx,DWORD PTR ds:0x42f4f0
  405fb6:	80 e4 fe             	and    ah,0xfe
  405fb9:	0b c1                	or     eax,ecx
  405fbb:	80 e4 fd             	and    ah,0xfd
  405fbe:	81 e3 ff ff ff 9f    	and    ebx,0x9fffffff
  405fc4:	eb 0d                	jmp    0x405fd3
  405fc6:	a9 00 00 10 00       	test   eax,0x100000
  405fcb:	74 06                	je     0x405fd3
  405fcd:	0b 05 f0 f4 42 00    	or     eax,DWORD PTR ds:0x42f4f0
  405fd3:	8b c8                	mov    ecx,eax
  405fd5:	23 c2                	and    eax,edx
  405fd7:	81 e1 df ff ef ff    	and    ecx,0xffefffdf
  405fdd:	f7 d8                	neg    eax
  405fdf:	1b c0                	sbb    eax,eax
  405fe1:	89 0f                	mov    DWORD PTR [edi],ecx
  405fe3:	f7 d0                	not    eax
  405fe5:	23 c3                	and    eax,ebx
  405fe7:	5f                   	pop    edi
  405fe8:	5b                   	pop    ebx
  405fe9:	c2 08 00             	ret    0x8
  405fec:	55                   	push   ebp
  405fed:	8b ec                	mov    ebp,esp
  405fef:	8d 45 10             	lea    eax,[ebp+0x10]
  405ff2:	50                   	push   eax
  405ff3:	ff 75 08             	push   DWORD PTR [ebp+0x8]
  405ff6:	e8 76 ff ff ff       	call   0x405f71
  405ffb:	85 c0                	test   eax,eax
  405ffd:	75 05                	jne    0x406004
  405fff:	6a 06                	push   0x6
  406001:	58                   	pop    eax
  406002:	eb 12                	jmp    0x406016
  406004:	ff 75 14             	push   DWORD PTR [ebp+0x14]
  406007:	ff 75 10             	push   DWORD PTR [ebp+0x10]
  40600a:	6a 00                	push   0x0
  40600c:	ff 75 0c             	push   DWORD PTR [ebp+0xc]
  40600f:	50                   	push   eax
  406010:	ff 15 08 80 40 00    	call   DWORD PTR ds:0x408008
  406016:	5d                   	pop    ebp
  406017:	c2 10 00             	ret    0x10
  40601a:	55                   	push   ebp
  40601b:	8b ec                	mov    ebp,esp
  40601d:	8d 45 10             	lea    eax,[ebp+0x10]
  406020:	50                   	push   eax
  406021:	ff 75 08             	push   DWORD PTR [ebp+0x8]
  406024:	e8 48 ff ff ff       	call   0x405f71
  406029:	33 c9                	xor    ecx,ecx
  40602b:	3b c1                	cmp    eax,ecx
  40602d:	75 05                	jne    0x406034
  40602f:	6a 06                	push   0x6
  406031:	58                   	pop    eax
  406032:	eb 15                	jmp    0x406049
  406034:	51                   	push   ecx
  406035:	ff 75 14             	push   DWORD PTR [ebp+0x14]
  406038:	51                   	push   ecx
  406039:	ff 75 10             	push   DWORD PTR [ebp+0x10]
  40603c:	51                   	push   ecx
  40603d:	51                   	push   ecx
  40603e:	51                   	push   ecx
  40603f:	ff 75 0c             	push   DWORD PTR [ebp+0xc]
  406042:	50                   	push   eax
  406043:	ff 15 04 80 40 00    	call   DWORD PTR ds:0x408004
  406049:	5d                   	pop    ebp
  40604a:	c2 10 00             	ret    0x10
  40604d:	55                   	push   ebp
  40604e:	8b ec                	mov    ebp,esp
  406050:	51                   	push   ecx
  406051:	8d 45 18             	lea    eax,[ebp+0x18]
  406054:	56                   	push   esi
  406055:	50                   	push   eax
  406056:	8b 45 18             	mov    eax,DWORD PTR [ebp+0x18]
  406059:	f7 d8                	neg    eax
  40605b:	1b c0                	sbb    eax,eax
  40605d:	c7 45 fc 00 04 00 00 	mov    DWORD PTR [ebp-0x4],0x400
  406064:	25 00 01 00 00       	and    eax,0x100
  406069:	0d 19 00 02 00       	or     eax,0x20019
  40606e:	50                   	push   eax
  40606f:	ff 75 0c             	push   DWORD PTR [ebp+0xc]
  406072:	ff 75 08             	push   DWORD PTR [ebp+0x8]
  406075:	e8 72 ff ff ff       	call   0x405fec
  40607a:	8b 75 14             	mov    esi,DWORD PTR [ebp+0x14]
  40607d:	85 c0                	test   eax,eax
  40607f:	75 3b                	jne    0x4060bc
  406081:	8d 45 fc             	lea    eax,[ebp-0x4]
  406084:	57                   	push   edi
  406085:	50                   	push   eax
  406086:	8d 45 0c             	lea    eax,[ebp+0xc]
  406089:	56                   	push   esi
  40608a:	50                   	push   eax
  40608b:	6a 00                	push   0x0
  40608d:	ff 75 10             	push   DWORD PTR [ebp+0x10]
  406090:	ff 75 18             	push   DWORD PTR [ebp+0x18]
  406093:	ff 15 2c 80 40 00    	call   DWORD PTR ds:0x40802c
  406099:	ff 75 18             	push   DWORD PTR [ebp+0x18]
  40609c:	8b f8                	mov    edi,eax
  40609e:	ff 15 24 80 40 00    	call   DWORD PTR ds:0x408024
  4060a4:	80 a6 ff 03 00 00 00 	and    BYTE PTR [esi+0x3ff],0x0
  4060ab:	85 ff                	test   edi,edi
  4060ad:	5f                   	pop    edi
  4060ae:	75 0c                	jne    0x4060bc
  4060b0:	83 7d 0c 01          	cmp    DWORD PTR [ebp+0xc],0x1
  4060b4:	74 09                	je     0x4060bf
  4060b6:	83 7d 0c 02          	cmp    DWORD PTR [ebp+0xc],0x2
  4060ba:	74 03                	je     0x4060bf
  4060bc:	80 26 00             	and    BYTE PTR [esi],0x0
  4060bf:	5e                   	pop    esi
  4060c0:	c9                   	leave  
  4060c1:	c2 14 00             	ret    0x14
  4060c4:	ff 74 24 08          	push   DWORD PTR [esp+0x8]
  4060c8:	68 a4 83 40 00       	push   0x4083a4
  4060cd:	ff 74 24 0c          	push   DWORD PTR [esp+0xc]
  4060d1:	ff 15 74 82 40 00    	call   DWORD PTR ds:0x408274
  4060d7:	83 c4 0c             	add    esp,0xc
  4060da:	c2 08 00             	ret    0x8
  4060dd:	55                   	push   ebp
  4060de:	8b ec                	mov    ebp,esp
  4060e0:	51                   	push   ecx
  4060e1:	8b 4d 08             	mov    ecx,DWORD PTR [ebp+0x8]
  4060e4:	53                   	push   ebx
  4060e5:	56                   	push   esi
  4060e6:	57                   	push   edi
  4060e7:	33 ff                	xor    edi,edi
  4060e9:	80 39 2d             	cmp    BYTE PTR [ecx],0x2d
  4060ec:	c7 45 fc 01 00 00 00 	mov    DWORD PTR [ebp-0x4],0x1
  4060f3:	b0 0a                	mov    al,0xa
  4060f5:	b3 39                	mov    bl,0x39
  4060f7:	75 05                	jne    0x4060fe
  4060f9:	41                   	inc    ecx
  4060fa:	83 4d fc ff          	or     DWORD PTR [ebp-0x4],0xffffffff
  4060fe:	80 39 30             	cmp    BYTE PTR [ecx],0x30
  406101:	75 1c                	jne    0x40611f
  406103:	41                   	inc    ecx
  406104:	8a 11                	mov    dl,BYTE PTR [ecx]
  406106:	80 fa 30             	cmp    dl,0x30
  406109:	7c 09                	jl     0x406114
  40610b:	80 fa 37             	cmp    dl,0x37
  40610e:	7f 04                	jg     0x406114
  406110:	b0 08                	mov    al,0x8
  406112:	b3 37                	mov    bl,0x37
  406114:	80 e2 df             	and    dl,0xdf
  406117:	80 fa 58             	cmp    dl,0x58
  40611a:	75 03                	jne    0x40611f
  40611c:	b0 10                	mov    al,0x10
  40611e:	41                   	inc    ecx
  40611f:	0f be 11             	movsx  edx,BYTE PTR [ecx]
  406122:	41                   	inc    ecx
  406123:	83 fa 30             	cmp    edx,0x30
  406126:	7c 0c                	jl     0x406134
  406128:	0f be f3             	movsx  esi,bl
  40612b:	3b d6                	cmp    edx,esi
  40612d:	7f 05                	jg     0x406134
  40612f:	83 ea 30             	sub    edx,0x30
  406132:	eb 19                	jmp    0x40614d
  406134:	3c 10                	cmp    al,0x10
  406136:	75 21                	jne    0x406159
  406138:	8b f2                	mov    esi,edx
  40613a:	83 e6 df             	and    esi,0xffffffdf
  40613d:	83 fe 41             	cmp    esi,0x41
  406140:	7c 17                	jl     0x406159
  406142:	83 fe 46             	cmp    esi,0x46
  406145:	7f 12                	jg     0x406159
  406147:	83 e2 07             	and    edx,0x7
  40614a:	83 c2 09             	add    edx,0x9
  40614d:	0f be f0             	movsx  esi,al
  406150:	0f af f7             	imul   esi,edi
  406153:	03 f2                	add    esi,edx
  406155:	8b fe                	mov    edi,esi
  406157:	eb c6                	jmp    0x40611f
  406159:	8b 45 fc             	mov    eax,DWORD PTR [ebp-0x4]
  40615c:	0f af c7             	imul   eax,edi
  40615f:	5f                   	pop    edi
  406160:	5e                   	pop    esi
  406161:	5b                   	pop    ebx
  406162:	c9                   	leave  
  406163:	c2 04 00             	ret    0x4
  406166:	68 00 04 00 00       	push   0x400
  40616b:	ff 74 24 0c          	push   DWORD PTR [esp+0xc]
  40616f:	ff 74 24 0c          	push   DWORD PTR [esp+0xc]
  406173:	ff 15 ac 80 40 00    	call   DWORD PTR ds:0x4080ac
  406179:	c2 08 00             	ret    0x8
  40617c:	ff 25 a0 80 40 00    	jmp    DWORD PTR ds:0x4080a0
  406182:	ff 25 e0 80 40 00    	jmp    DWORD PTR ds:0x4080e0
  406188:	55                   	push   ebp
  406189:	8b ec                	mov    ebp,esp
  40618b:	83 ec 18             	sub    esp,0x18
  40618e:	8b 45 0c             	mov    eax,DWORD PTR [ebp+0xc]
  406191:	85 c0                	test   eax,eax
  406193:	7d 11                	jge    0x4061a6
  406195:	8b 0d fc eb 42 00    	mov    ecx,DWORD PTR ds:0x42ebfc
  40619b:	8d 04 85 04 00 00 00 	lea    eax,[eax*4+0x4]
  4061a2:	2b c8                	sub    ecx,eax
  4061a4:	8b 01                	mov    eax,DWORD PTR [ecx]
  4061a6:	8b 0d 78 f4 42 00    	mov    ecx,DWORD PTR ds:0x42f478
  4061ac:	53                   	push   ebx
  4061ad:	56                   	push   esi
  4061ae:	57                   	push   edi
  4061af:	8d 1c 08             	lea    ebx,[eax+ecx*1]
  4061b2:	b8 c0 e3 42 00       	mov    eax,0x42e3c0
  4061b7:	39 45 08             	cmp    DWORD PTR [ebp+0x8],eax
  4061ba:	8b f8                	mov    edi,eax
  4061bc:	0f 82 eb 01 00 00    	jb     0x4063ad
  4061c2:	8b 4d 08             	mov    ecx,DWORD PTR [ebp+0x8]
  4061c5:	2b c8                	sub    ecx,eax
  4061c7:	81 f9 00 08 00 00    	cmp    ecx,0x800
  4061cd:	0f 83 da 01 00 00    	jae    0x4063ad
  4061d3:	8b 7d 08             	mov    edi,DWORD PTR [ebp+0x8]
  4061d6:	83 65 08 00          	and    DWORD PTR [ebp+0x8],0x0
  4061da:	e9 ce 01 00 00       	jmp    0x4063ad
  4061df:	8b cf                	mov    ecx,edi
  4061e1:	2b c8                	sub    ecx,eax
  4061e3:	81 f9 00 04 00 00    	cmp    ecx,0x400
  4061e9:	0f 8d c8 01 00 00    	jge    0x4063b7
  4061ef:	43                   	inc    ebx
  4061f0:	80 fa 04             	cmp    dl,0x4
  4061f3:	89 5d 0c             	mov    DWORD PTR [ebp+0xc],ebx
  4061f6:	0f 83 a4 01 00 00    	jae    0x4063a0
  4061fc:	0f be 43 01          	movsx  eax,BYTE PTR [ebx+0x1]
  406200:	0f be 0b             	movsx  ecx,BYTE PTR [ebx]
  406203:	8b f0                	mov    esi,eax
  406205:	8b d9                	mov    ebx,ecx
  406207:	83 e6 7f             	and    esi,0x7f
  40620a:	83 e3 7f             	and    ebx,0x7f
  40620d:	c1 e6 07             	shl    esi,0x7
  406210:	0b f3                	or     esi,ebx
  406212:	8b d9                	mov    ebx,ecx
  406214:	80 cf 80             	or     bh,0x80
  406217:	89 4d ec             	mov    DWORD PTR [ebp-0x14],ecx
  40621a:	89 5d e8             	mov    DWORD PTR [ebp-0x18],ebx
  40621d:	8b d8                	mov    ebx,eax
  40621f:	80 cf 80             	or     bh,0x80
  406222:	89 45 f4             	mov    DWORD PTR [ebp-0xc],eax
  406225:	89 5d f0             	mov    DWORD PTR [ebp-0x10],ebx
  406228:	8b 5d 0c             	mov    ebx,DWORD PTR [ebp+0xc]
  40622b:	43                   	inc    ebx
  40622c:	43                   	inc    ebx
  40622d:	80 fa 02             	cmp    dl,0x2
  406230:	0f 85 17 01 00 00    	jne    0x40634d
  406236:	a1 2c f4 42 00       	mov    eax,ds:0x42f42c
  40623b:	6a 02                	push   0x2
  40623d:	85 c0                	test   eax,eax
  40623f:	5e                   	pop    esi
  406240:	79 18                	jns    0x40625a
  406242:	66 3d 04 5a          	cmp    ax,0x5a04
  406246:	74 12                	je     0x40625a
  406248:	83 7d f4 23          	cmp    DWORD PTR [ebp-0xc],0x23
  40624c:	74 0c                	je     0x40625a
  40624e:	83 7d f4 2e          	cmp    DWORD PTR [ebp-0xc],0x2e
  406252:	74 06                	je     0x40625a
  406254:	83 65 0c 00          	and    DWORD PTR [ebp+0xc],0x0
  406258:	eb 07                	jmp    0x406261
  40625a:	c7 45 0c 01 00 00 00 	mov    DWORD PTR [ebp+0xc],0x1
  406261:	83 3d c4 f4 42 00 00 	cmp    DWORD PTR ds:0x42f4c4,0x0
  406268:	74 03                	je     0x40626d
  40626a:	6a 04                	push   0x4
  40626c:	5e                   	pop    esi
  40626d:	84 c9                	test   cl,cl
  40626f:	79 37                	jns    0x4062a8
  406271:	8b c1                	mov    eax,ecx
  406273:	83 e1 3f             	and    ecx,0x3f
  406276:	03 0d 78 f4 42 00    	add    ecx,DWORD PTR ds:0x42f478
  40627c:	83 e0 40             	and    eax,0x40
  40627f:	50                   	push   eax
  406280:	57                   	push   edi
  406281:	51                   	push   ecx
  406282:	68 a8 83 40 00       	push   0x4083a8
  406287:	68 02 00 00 80       	push   0x80000002
  40628c:	e8 bc fd ff ff       	call   0x40604d
  406291:	80 3f 00             	cmp    BYTE PTR [edi],0x0
  406294:	0f 85 9a 00 00 00    	jne    0x406334
  40629a:	ff 75 f4             	push   DWORD PTR [ebp-0xc]
  40629d:	57                   	push   edi
  40629e:	e8 e5 fe ff ff       	call   0x406188
  4062a3:	e9 87 00 00 00       	jmp    0x40632f
  4062a8:	83 f9 25             	cmp    ecx,0x25
  4062ab:	75 0e                	jne    0x4062bb
  4062ad:	68 00 04 00 00       	push   0x400
  4062b2:	57                   	push   edi
  4062b3:	ff 15 e4 80 40 00    	call   DWORD PTR ds:0x4080e4
  4062b9:	eb 74                	jmp    0x40632f
  4062bb:	83 f9 24             	cmp    ecx,0x24
  4062be:	75 6b                	jne    0x40632b
  4062c0:	68 00 04 00 00       	push   0x400
  4062c5:	57                   	push   edi
  4062c6:	ff 15 94 80 40 00    	call   DWORD PTR ds:0x408094
  4062cc:	33 f6                	xor    esi,esi
  4062ce:	eb 5b                	jmp    0x40632b
  4062d0:	a1 24 f4 42 00       	mov    eax,ds:0x42f424
  4062d5:	33 c9                	xor    ecx,ecx
  4062d7:	4e                   	dec    esi
  4062d8:	3b c1                	cmp    eax,ecx
  4062da:	74 18                	je     0x4062f4
  4062dc:	39 4d 0c             	cmp    DWORD PTR [ebp+0xc],ecx
  4062df:	74 13                	je     0x4062f4
  4062e1:	57                   	push   edi
  4062e2:	51                   	push   ecx
  4062e3:	51                   	push   ecx
  4062e4:	ff 74 b5 e8          	push   DWORD PTR [ebp+esi*4-0x18]
  4062e8:	ff 35 28 f4 42 00    	push   DWORD PTR ds:0x42f428
  4062ee:	ff d0                	call   eax
  4062f0:	85 c0                	test   eax,eax
  4062f2:	74 3b                	je     0x40632f
  4062f4:	8d 45 fc             	lea    eax,[ebp-0x4]
  4062f7:	50                   	push   eax
  4062f8:	ff 74 b5 e8          	push   DWORD PTR [ebp+esi*4-0x18]
  4062fc:	ff 35 28 f4 42 00    	push   DWORD PTR ds:0x42f428
  406302:	ff 15 68 81 40 00    	call   DWORD PTR ds:0x408168
  406308:	85 c0                	test   eax,eax
  40630a:	75 1c                	jne    0x406328
  40630c:	57                   	push   edi
  40630d:	ff 75 fc             	push   DWORD PTR [ebp-0x4]
  406310:	ff 15 70 81 40 00    	call   DWORD PTR ds:0x408170
  406316:	ff 75 fc             	push   DWORD PTR [ebp-0x4]
  406319:	89 45 f8             	mov    DWORD PTR [ebp-0x8],eax
  40631c:	ff 15 88 82 40 00    	call   DWORD PTR ds:0x408288
  406322:	83 7d f8 00          	cmp    DWORD PTR [ebp-0x8],0x0
  406326:	75 07                	jne    0x40632f
  406328:	80 27 00             	and    BYTE PTR [edi],0x0
  40632b:	85 f6                	test   esi,esi
  40632d:	75 a1                	jne    0x4062d0
  40632f:	80 3f 00             	cmp    BYTE PTR [edi],0x0
  406332:	74 11                	je     0x406345
  406334:	83 7d f4 1a          	cmp    DWORD PTR [ebp-0xc],0x1a
  406338:	75 0b                	jne    0x406345
  40633a:	68 d4 83 40 00       	push   0x4083d4
  40633f:	57                   	push   edi
  406340:	e8 3d fe ff ff       	call   0x406182
  406345:	57                   	push   edi
  406346:	e8 85 00 00 00       	call   0x4063d0
  40634b:	eb 44                	jmp    0x406391
  40634d:	80 fa 03             	cmp    dl,0x3
  406350:	75 2e                	jne    0x406380
  406352:	83 fe 1d             	cmp    esi,0x1d
  406355:	75 0e                	jne    0x406365
  406357:	ff 35 28 f4 42 00    	push   DWORD PTR ds:0x42f428
  40635d:	57                   	push   edi
  40635e:	e8 61 fd ff ff       	call   0x4060c4
  406363:	eb 11                	jmp    0x406376
  406365:	8b c6                	mov    eax,esi
  406367:	c1 e0 0a             	shl    eax,0xa
  40636a:	05 00 00 43 00       	add    eax,0x430000
  40636f:	50                   	push   eax
  406370:	57                   	push   edi
  406371:	e8 f0 fd ff ff       	call   0x406166
  406376:	83 c6 eb             	add    esi,0xffffffeb
  406379:	83 fe 07             	cmp    esi,0x7
  40637c:	73 13                	jae    0x406391
  40637e:	eb c5                	jmp    0x406345
  406380:	80 fa 01             	cmp    dl,0x1
  406383:	75 0c                	jne    0x406391
  406385:	83 c8 ff             	or     eax,0xffffffff
  406388:	2b c6                	sub    eax,esi
  40638a:	50                   	push   eax
  40638b:	57                   	push   edi
  40638c:	e8 f7 fd ff ff       	call   0x406188
  406391:	57                   	push   edi
  406392:	e8 e5 fd ff ff       	call   0x40617c
  406397:	03 f8                	add    edi,eax
  406399:	b8 c0 e3 42 00       	mov    eax,0x42e3c0
  40639e:	eb 0d                	jmp    0x4063ad
  4063a0:	75 08                	jne    0x4063aa
  4063a2:	8a 0b                	mov    cl,BYTE PTR [ebx]
  4063a4:	88 0f                	mov    BYTE PTR [edi],cl
  4063a6:	47                   	inc    edi
  4063a7:	43                   	inc    ebx
  4063a8:	eb 03                	jmp    0x4063ad
  4063aa:	88 17                	mov    BYTE PTR [edi],dl
  4063ac:	47                   	inc    edi
  4063ad:	8a 13                	mov    dl,BYTE PTR [ebx]
  4063af:	84 d2                	test   dl,dl
  4063b1:	0f 85 28 fe ff ff    	jne    0x4061df
  4063b7:	80 27 00             	and    BYTE PTR [edi],0x0
  4063ba:	83 7d 08 00          	cmp    DWORD PTR [ebp+0x8],0x0
  4063be:	5f                   	pop    edi
  4063bf:	5e                   	pop    esi
  4063c0:	5b                   	pop    ebx
  4063c1:	74 09                	je     0x4063cc
  4063c3:	50                   	push   eax
  4063c4:	ff 75 08             	push   DWORD PTR [ebp+0x8]
  4063c7:	e8 9a fd ff ff       	call   0x406166
  4063cc:	c9                   	leave  
  4063cd:	c2 08 00             	ret    0x8
  4063d0:	53                   	push   ebx
  4063d1:	56                   	push   esi
  4063d2:	8b 74 24 0c          	mov    esi,DWORD PTR [esp+0xc]
  4063d6:	57                   	push   edi
  4063d7:	80 3e 5c             	cmp    BYTE PTR [esi],0x5c
  4063da:	75 15                	jne    0x4063f1
  4063dc:	80 7e 01 5c          	cmp    BYTE PTR [esi+0x1],0x5c
  4063e0:	75 0f                	jne    0x4063f1
  4063e2:	80 7e 02 3f          	cmp    BYTE PTR [esi+0x2],0x3f
  4063e6:	75 09                	jne    0x4063f1
  4063e8:	80 7e 03 5c          	cmp    BYTE PTR [esi+0x3],0x5c
  4063ec:	75 03                	jne    0x4063f1
  4063ee:	83 c6 04             	add    esi,0x4
  4063f1:	80 3e 00             	cmp    BYTE PTR [esi],0x0
  4063f4:	74 0c                	je     0x406402
  4063f6:	56                   	push   esi
  4063f7:	e8 6f f7 ff ff       	call   0x405b6b
  4063fc:	85 c0                	test   eax,eax
  4063fe:	74 02                	je     0x406402
  406400:	46                   	inc    esi
  406401:	46                   	inc    esi
  406402:	8a 06                	mov    al,BYTE PTR [esi]
  406404:	8b de                	mov    ebx,esi
  406406:	84 c0                	test   al,al
  406408:	8b fe                	mov    edi,esi
  40640a:	74 39                	je     0x406445
  40640c:	55                   	push   ebp
  40640d:	8b 2d 2c 82 40 00    	mov    ebp,DWORD PTR ds:0x40822c
  406413:	3c 1f                	cmp    al,0x1f
  406415:	76 22                	jbe    0x406439
  406417:	50                   	push   eax
  406418:	68 e8 a3 40 00       	push   0x40a3e8
  40641d:	e8 07 f7 ff ff       	call   0x405b29
  406422:	80 38 00             	cmp    BYTE PTR [eax],0x0
  406425:	75 12                	jne    0x406439
  406427:	56                   	push   esi
  406428:	ff d5                	call   ebp
  40642a:	2b c6                	sub    eax,esi
  40642c:	50                   	push   eax
  40642d:	56                   	push   esi
  40642e:	57                   	push   edi
  40642f:	e8 86 f8 ff ff       	call   0x405cba
  406434:	57                   	push   edi
  406435:	ff d5                	call   ebp
  406437:	8b f8                	mov    edi,eax
  406439:	56                   	push   esi
  40643a:	ff d5                	call   ebp
  40643c:	8b f0                	mov    esi,eax
  40643e:	8a 06                	mov    al,BYTE PTR [esi]
  406440:	84 c0                	test   al,al
  406442:	75 cf                	jne    0x406413
  406444:	5d                   	pop    ebp
  406445:	80 27 00             	and    BYTE PTR [edi],0x0
  406448:	57                   	push   edi
  406449:	53                   	push   ebx
  40644a:	ff 15 e4 81 40 00    	call   DWORD PTR ds:0x4081e4
  406450:	8b f8                	mov    edi,eax
  406452:	8a 07                	mov    al,BYTE PTR [edi]
  406454:	3c 20                	cmp    al,0x20
  406456:	74 04                	je     0x40645c
  406458:	3c 5c                	cmp    al,0x5c
  40645a:	75 07                	jne    0x406463
  40645c:	80 27 00             	and    BYTE PTR [edi],0x0
  40645f:	3b df                	cmp    ebx,edi
  406461:	72 e5                	jb     0x406448
  406463:	5f                   	pop    edi
  406464:	5e                   	pop    esi
  406465:	5b                   	pop    ebx
  406466:	c2 04 00             	ret    0x4
  406469:	56                   	push   esi
  40646a:	be e8 c0 42 00       	mov    esi,0x42c0e8
  40646f:	56                   	push   esi
  406470:	ff 74 24 0c          	push   DWORD PTR [esp+0xc]
  406474:	ff 15 2c 81 40 00    	call   DWORD PTR ds:0x40812c
  40647a:	83 f8 ff             	cmp    eax,0xffffffff
  40647d:	74 0b                	je     0x40648a
  40647f:	50                   	push   eax
  406480:	ff 15 34 81 40 00    	call   DWORD PTR ds:0x408134
  406486:	8b c6                	mov    eax,esi
  406488:	eb 02                	jmp    0x40648c
  40648a:	33 c0                	xor    eax,eax
  40648c:	5e                   	pop    esi
  40648d:	c2 04 00             	ret    0x4
  406490:	55                   	push   ebp
  406491:	8b ec                	mov    ebp,esp
  406493:	81 ec 20 01 00 00    	sub    esp,0x120
  406499:	56                   	push   esi
  40649a:	be 04 01 00 00       	mov    esi,0x104
  40649f:	8d 85 e0 fe ff ff    	lea    eax,[ebp-0x120]
  4064a5:	56                   	push   esi
  4064a6:	50                   	push   eax
  4064a7:	ff 15 e4 80 40 00    	call   DWORD PTR ds:0x4080e4
  4064ad:	3b c6                	cmp    eax,esi
  4064af:	5e                   	pop    esi
  4064b0:	76 02                	jbe    0x4064b4
  4064b2:	33 c0                	xor    eax,eax
  4064b4:	85 c0                	test   eax,eax
  4064b6:	74 0e                	je     0x4064c6
  4064b8:	80 bc 05 df fe ff ff 	cmp    BYTE PTR [ebp+eax*1-0x121],0x5c
  4064bf:	5c 
  4064c0:	74 04                	je     0x4064c6
  4064c2:	33 c9                	xor    ecx,ecx
  4064c4:	eb 03                	jmp    0x4064c9
  4064c6:	33 c9                	xor    ecx,ecx
  4064c8:	41                   	inc    ecx
  4064c9:	ff 75 08             	push   DWORD PTR [ebp+0x8]
  4064cc:	8d 89 14 a0 40 00    	lea    ecx,[ecx+0x40a014]
  4064d2:	8d 84 05 e0 fe ff ff 	lea    eax,[ebp+eax*1-0x120]
  4064d9:	51                   	push   ecx
  4064da:	68 f4 a3 40 00       	push   0x40a3f4
  4064df:	50                   	push   eax
  4064e0:	ff 15 74 82 40 00    	call   DWORD PTR ds:0x408274
  4064e6:	83 c4 10             	add    esp,0x10
  4064e9:	8d 85 e0 fe ff ff    	lea    eax,[ebp-0x120]
  4064ef:	6a 08                	push   0x8
  4064f1:	6a 00                	push   0x0
  4064f3:	50                   	push   eax
  4064f4:	ff 15 50 81 40 00    	call   DWORD PTR ds:0x408150
  4064fa:	c9                   	leave  
  4064fb:	c2 04 00             	ret    0x4
  4064fe:	8b 44 24 04          	mov    eax,DWORD PTR [esp+0x4]
  406502:	56                   	push   esi
  406503:	8b f0                	mov    esi,eax
  406505:	57                   	push   edi
  406506:	c1 e6 03             	shl    esi,0x3
  406509:	8b be 58 a2 40 00    	mov    edi,DWORD PTR [esi+0x40a258]
  40650f:	57                   	push   edi
  406510:	ff 15 54 81 40 00    	call   DWORD PTR ds:0x408154
  406516:	85 c0                	test   eax,eax
  406518:	75 0a                	jne    0x406524
  40651a:	57                   	push   edi
  40651b:	e8 70 ff ff ff       	call   0x406490
  406520:	85 c0                	test   eax,eax
  406522:	74 0f                	je     0x406533
  406524:	ff b6 5c a2 40 00    	push   DWORD PTR [esi+0x40a25c]
  40652a:	50                   	push   eax
  40652b:	ff 15 e8 80 40 00    	call   DWORD PTR ds:0x4080e8
  406531:	eb 02                	jmp    0x406535
  406533:	33 c0                	xor    eax,eax
  406535:	5f                   	pop    edi
  406536:	5e                   	pop    esi
  406537:	c2 04 00             	ret    0x4
  40653a:	55                   	push   ebp
  40653b:	8b ec                	mov    ebp,esp
  40653d:	83 ec 1c             	sub    esp,0x1c
  406540:	56                   	push   esi
  406541:	8b 75 08             	mov    esi,DWORD PTR [ebp+0x8]
  406544:	57                   	push   edi
  406545:	8b 3d ec 81 40 00    	mov    edi,DWORD PTR ds:0x4081ec
  40654b:	eb 0a                	jmp    0x406557
  40654d:	8d 45 e4             	lea    eax,[ebp-0x1c]
  406550:	50                   	push   eax
  406551:	ff 15 e8 81 40 00    	call   DWORD PTR ds:0x4081e8
  406557:	6a 01                	push   0x1
  406559:	56                   	push   esi
  40655a:	56                   	push   esi
  40655b:	8d 45 e4             	lea    eax,[ebp-0x1c]
  40655e:	6a 00                	push   0x0
  406560:	50                   	push   eax
  406561:	ff d7                	call   edi
  406563:	85 c0                	test   eax,eax
  406565:	75 e6                	jne    0x40654d
  406567:	5f                   	pop    edi
  406568:	5e                   	pop    esi
  406569:	c9                   	leave  
  40656a:	c2 04 00             	ret    0x4
  40656d:	ff 25 e8 80 40 00    	jmp    DWORD PTR ds:0x4080e8
  406573:	55                   	push   ebp
  406574:	8b ec                	mov    ebp,esp
  406576:	51                   	push   ecx
  406577:	56                   	push   esi
  406578:	8b 35 f0 80 40 00    	mov    esi,DWORD PTR ds:0x4080f0
  40657e:	57                   	push   edi
  40657f:	6a 64                	push   0x64
  406581:	ff 75 08             	push   DWORD PTR [ebp+0x8]
  406584:	ff d6                	call   esi
  406586:	bf 02 01 00 00       	mov    edi,0x102
  40658b:	eb 0e                	jmp    0x40659b
  40658d:	6a 0f                	push   0xf
  40658f:	e8 a6 ff ff ff       	call   0x40653a
  406594:	6a 64                	push   0x64
  406596:	ff 75 08             	push   DWORD PTR [ebp+0x8]
  406599:	ff d6                	call   esi
  40659b:	3b c7                	cmp    eax,edi
  40659d:	74 ee                	je     0x40658d
  40659f:	8d 45 fc             	lea    eax,[ebp-0x4]
  4065a2:	50                   	push   eax
  4065a3:	ff 75 08             	push   DWORD PTR [ebp+0x8]
  4065a6:	ff 15 ec 80 40 00    	call   DWORD PTR ds:0x4080ec
  4065ac:	8b 45 fc             	mov    eax,DWORD PTR [ebp-0x4]
  4065af:	5f                   	pop    edi
  4065b0:	5e                   	pop    esi
  4065b1:	c9                   	leave  
  4065b2:	c2 04 00             	ret    0x4
  4065b5:	83 3d 2c ce 42 00 00 	cmp    DWORD PTR ds:0x42ce2c,0x0
  4065bc:	56                   	push   esi
  4065bd:	75 2d                	jne    0x4065ec
  4065bf:	33 c9                	xor    ecx,ecx
  4065c1:	6a 08                	push   0x8
  4065c3:	8b c1                	mov    eax,ecx
  4065c5:	5e                   	pop    esi
  4065c6:	8b d0                	mov    edx,eax
  4065c8:	80 e2 01             	and    dl,0x1
  4065cb:	f6 da                	neg    dl
  4065cd:	1b d2                	sbb    edx,edx
  4065cf:	81 e2 20 83 b8 ed    	and    edx,0xedb88320
  4065d5:	d1 e8                	shr    eax,1
  4065d7:	33 c2                	xor    eax,edx
  4065d9:	4e                   	dec    esi
  4065da:	75 ea                	jne    0x4065c6
  4065dc:	89 04 8d 28 ce 42 00 	mov    DWORD PTR [ecx*4+0x42ce28],eax
  4065e3:	41                   	inc    ecx
  4065e4:	81 f9 00 01 00 00    	cmp    ecx,0x100
  4065ea:	7c d5                	jl     0x4065c1
  4065ec:	8b 54 24 10          	mov    edx,DWORD PTR [esp+0x10]
  4065f0:	8b 44 24 08          	mov    eax,DWORD PTR [esp+0x8]
  4065f4:	85 d2                	test   edx,edx
  4065f6:	f7 d0                	not    eax
  4065f8:	76 23                	jbe    0x40661d
  4065fa:	8b 4c 24 0c          	mov    ecx,DWORD PTR [esp+0xc]
  4065fe:	57                   	push   edi
  4065ff:	0f b6 39             	movzx  edi,BYTE PTR [ecx]
  406602:	8b f0                	mov    esi,eax
  406604:	81 e6 ff 00 00 00    	and    esi,0xff
  40660a:	33 f7                	xor    esi,edi
  40660c:	c1 e8 08             	shr    eax,0x8
  40660f:	8b 34 b5 28 ce 42 00 	mov    esi,DWORD PTR [esi*4+0x42ce28]
  406616:	33 c6                	xor    eax,esi
  406618:	41                   	inc    ecx
  406619:	4a                   	dec    edx
  40661a:	75 e3                	jne    0x4065ff
  40661c:	5f                   	pop    edi
  40661d:	f7 d0                	not    eax
  40661f:	5e                   	pop    esi
  406620:	c2 0c 00             	ret    0xc
  406623:	55                   	push   ebp
  406624:	8b ec                	mov    ebp,esp
  406626:	83 ec 44             	sub    esp,0x44
  406629:	8b 45 08             	mov    eax,DWORD PTR [ebp+0x8]
  40662c:	53                   	push   ebx
  40662d:	56                   	push   esi
  40662e:	57                   	push   edi
  40662f:	8b 08                	mov    ecx,DWORD PTR [eax]
  406631:	8d 70 10             	lea    esi,[eax+0x10]
  406634:	8b 40 04             	mov    eax,DWORD PTR [eax+0x4]
  406637:	89 4d c8             	mov    DWORD PTR [ebp-0x38],ecx
  40663a:	8b 8e a8 9b 00 00    	mov    ecx,DWORD PTR [esi+0x9ba8]
  406640:	8b 9e 18 05 00 00    	mov    ebx,DWORD PTR [esi+0x518]
  406646:	89 45 cc             	mov    DWORD PTR [ebp-0x34],eax
  406649:	8b 86 1c 05 00 00    	mov    eax,DWORD PTR [esi+0x51c]
  40664f:	89 45 c0             	mov    DWORD PTR [ebp-0x40],eax
  406652:	8b 86 a4 9b 00 00    	mov    eax,DWORD PTR [esi+0x9ba4]
  406658:	3b c8                	cmp    ecx,eax
  40665a:	89 4d d0             	mov    DWORD PTR [ebp-0x30],ecx
  40665d:	73 05                	jae    0x406664
  40665f:	2b c1                	sub    eax,ecx
  406661:	48                   	dec    eax
  406662:	eb 08                	jmp    0x40666c
  406664:	8b 86 a0 9b 00 00    	mov    eax,DWORD PTR [esi+0x9ba0]
  40666a:	2b c1                	sub    eax,ecx
  40666c:	89 45 d4             	mov    DWORD PTR [ebp-0x2c],eax
  40666f:	e9 c3 09 00 00       	jmp    0x407037
  406674:	ff 24 85 72 70 40 00 	jmp    DWORD PTR [eax*4+0x407072]
  40667b:	83 7d cc 00          	cmp    DWORD PTR [ebp-0x34],0x0
  40667f:	0f 84 c2 09 00 00    	je     0x407047
  406685:	8b 45 c8             	mov    eax,DWORD PTR [ebp-0x38]
  406688:	ff 4d cc             	dec    DWORD PTR [ebp-0x34]
  40668b:	8b cb                	mov    ecx,ebx
  40668d:	0f b6 00             	movzx  eax,BYTE PTR [eax]
  406690:	d3 e0                	shl    eax,cl
  406692:	09 45 c0             	or     DWORD PTR [ebp-0x40],eax
  406695:	ff 45 c8             	inc    DWORD PTR [ebp-0x38]
  406698:	83 c3 08             	add    ebx,0x8
  40669b:	83 fb 03             	cmp    ebx,0x3
  40669e:	72 db                	jb     0x40667b
  4066a0:	8b 45 c0             	mov    eax,DWORD PTR [ebp-0x40]
  4066a3:	83 eb 03             	sub    ebx,0x3
  4066a6:	c1 6d c0 03          	shr    DWORD PTR [ebp-0x40],0x3
  4066aa:	83 e0 07             	and    eax,0x7
  4066ad:	8b c8                	mov    ecx,eax
  4066af:	80 e1 01             	and    cl,0x1
  4066b2:	f6 d9                	neg    cl
  4066b4:	1b c9                	sbb    ecx,ecx
  4066b6:	83 e1 07             	and    ecx,0x7
  4066b9:	d1 e8                	shr    eax,1
  4066bb:	83 c1 08             	add    ecx,0x8
  4066be:	83 e8 00             	sub    eax,0x0
  4066c1:	89 8e 14 05 00 00    	mov    DWORD PTR [esi+0x514],ecx
  4066c7:	0f 84 2e 01 00 00    	je     0x4067fb
  4066cd:	48                   	dec    eax
  4066ce:	74 56                	je     0x406726
  4066d0:	48                   	dec    eax
  4066d1:	74 48                	je     0x40671b
  4066d3:	48                   	dec    eax
  4066d4:	0f 85 5d 09 00 00    	jne    0x407037
  4066da:	83 cf ff             	or     edi,0xffffffff
  4066dd:	c7 06 11 00 00 00    	mov    DWORD PTR [esi],0x11
  4066e3:	8b 45 c0             	mov    eax,DWORD PTR [ebp-0x40]
  4066e6:	8b 4d 08             	mov    ecx,DWORD PTR [ebp+0x8]
  4066e9:	89 86 1c 05 00 00    	mov    DWORD PTR [esi+0x51c],eax
  4066ef:	8b 45 cc             	mov    eax,DWORD PTR [ebp-0x34]
  4066f2:	89 9e 18 05 00 00    	mov    DWORD PTR [esi+0x518],ebx
  4066f8:	89 41 04             	mov    DWORD PTR [ecx+0x4],eax
  4066fb:	8b 45 08             	mov    eax,DWORD PTR [ebp+0x8]
  4066fe:	8b 4d c8             	mov    ecx,DWORD PTR [ebp-0x38]
  406701:	50                   	push   eax
  406702:	89 08                	mov    DWORD PTR [eax],ecx
  406704:	8b 4d d0             	mov    ecx,DWORD PTR [ebp-0x30]
  406707:	89 8e a8 9b 00 00    	mov    DWORD PTR [esi+0x9ba8],ecx
  40670d:	e8 a0 09 00 00       	call   0x4070b2
  406712:	8b c7                	mov    eax,edi
  406714:	5f                   	pop    edi
  406715:	5e                   	pop    esi
  406716:	5b                   	pop    ebx
  406717:	c9                   	leave  
  406718:	c2 04 00             	ret    0x4
  40671b:	c7 06 0b 00 00 00    	mov    DWORD PTR [esi],0xb
  406721:	e9 11 09 00 00       	jmp    0x407037
  406726:	80 3d b0 e3 42 00 00 	cmp    BYTE PTR ds:0x42e3b0,0x0
  40672d:	0f 85 a0 00 00 00    	jne    0x4067d3
  406733:	83 65 f8 00          	and    DWORD PTR [ebp-0x8],0x0
  406737:	b8 30 d2 42 00       	mov    eax,0x42d230
  40673c:	3d 6c d4 42 00       	cmp    eax,0x42d46c
  406741:	b1 08                	mov    cl,0x8
  406743:	7e 14                	jle    0x406759
  406745:	3d 30 d6 42 00       	cmp    eax,0x42d630
  40674a:	7d 04                	jge    0x406750
  40674c:	fe c1                	inc    cl
  40674e:	eb 09                	jmp    0x406759
  406750:	3d 90 d6 42 00       	cmp    eax,0x42d690
  406755:	7d 02                	jge    0x406759
  406757:	b1 07                	mov    cl,0x7
  406759:	0f be c9             	movsx  ecx,cl
  40675c:	89 08                	mov    DWORD PTR [eax],ecx
  40675e:	83 c0 04             	add    eax,0x4
  406761:	3d b0 d6 42 00       	cmp    eax,0x42d6b0
  406766:	7c d4                	jl     0x40673c
  406768:	8d 45 f8             	lea    eax,[ebp-0x8]
  40676b:	bf 30 d2 42 00       	mov    edi,0x42d230
  406770:	50                   	push   eax
  406771:	68 30 db 42 00       	push   0x42db30
  406776:	68 24 a4 40 00       	push   0x40a424
  40677b:	68 2c d2 42 00       	push   0x42d22c
  406780:	68 54 84 40 00       	push   0x408454
  406785:	68 14 84 40 00       	push   0x408414
  40678a:	68 01 01 00 00       	push   0x101
  40678f:	68 20 01 00 00       	push   0x120
  406794:	57                   	push   edi
  406795:	e8 80 09 00 00       	call   0x40711a
  40679a:	6a 1e                	push   0x1e
  40679c:	59                   	pop    ecx
  40679d:	6a 05                	push   0x5
  40679f:	58                   	pop    eax
  4067a0:	f3 ab                	rep stos DWORD PTR es:[edi],eax
  4067a2:	8d 45 f8             	lea    eax,[ebp-0x8]
  4067a5:	50                   	push   eax
  4067a6:	68 30 db 42 00       	push   0x42db30
  4067ab:	68 28 a4 40 00       	push   0x40a428
  4067b0:	68 28 d2 42 00       	push   0x42d228
  4067b5:	68 d0 84 40 00       	push   0x4084d0
  4067ba:	68 94 84 40 00       	push   0x408494
  4067bf:	6a 00                	push   0x0
  4067c1:	6a 1e                	push   0x1e
  4067c3:	68 30 d2 42 00       	push   0x42d230
  4067c8:	e8 4d 09 00 00       	call   0x40711a
  4067cd:	fe 05 b0 e3 42 00    	inc    BYTE PTR ds:0x42e3b0
  4067d3:	a0 24 a4 40 00       	mov    al,ds:0x40a424
  4067d8:	88 46 10             	mov    BYTE PTR [esi+0x10],al
  4067db:	a0 28 a4 40 00       	mov    al,ds:0x40a428
  4067e0:	88 46 11             	mov    BYTE PTR [esi+0x11],al
  4067e3:	a1 2c d2 42 00       	mov    eax,ds:0x42d22c
  4067e8:	89 46 14             	mov    DWORD PTR [esi+0x14],eax
  4067eb:	a1 28 d2 42 00       	mov    eax,ds:0x42d228
  4067f0:	89 46 18             	mov    DWORD PTR [esi+0x18],eax
  4067f3:	83 26 00             	and    DWORD PTR [esi],0x0
  4067f6:	e9 3c 08 00 00       	jmp    0x407037
  4067fb:	8b cb                	mov    ecx,ebx
  4067fd:	c7 06 09 00 00 00    	mov    DWORD PTR [esi],0x9
  406803:	83 e1 07             	and    ecx,0x7
  406806:	d3 6d c0             	shr    DWORD PTR [ebp-0x40],cl
  406809:	2b d9                	sub    ebx,ecx
  40680b:	e9 27 08 00 00       	jmp    0x407037
  406810:	83 7d cc 00          	cmp    DWORD PTR [ebp-0x34],0x0
  406814:	0f 84 2d 08 00 00    	je     0x407047
  40681a:	8b 45 c8             	mov    eax,DWORD PTR [ebp-0x38]
  40681d:	ff 4d cc             	dec    DWORD PTR [ebp-0x34]
  406820:	8b cb                	mov    ecx,ebx
  406822:	0f b6 00             	movzx  eax,BYTE PTR [eax]
  406825:	d3 e0                	shl    eax,cl
  406827:	09 45 c0             	or     DWORD PTR [ebp-0x40],eax
  40682a:	ff 45 c8             	inc    DWORD PTR [ebp-0x38]
  40682d:	83 c3 08             	add    ebx,0x8
  406830:	83 fb 20             	cmp    ebx,0x20
  406833:	72 db                	jb     0x406810
  406835:	8b 45 c0             	mov    eax,DWORD PTR [ebp-0x40]
  406838:	33 db                	xor    ebx,ebx
  40683a:	25 ff ff 00 00       	and    eax,0xffff
  40683f:	89 5d c0             	mov    DWORD PTR [ebp-0x40],ebx
  406842:	3b c3                	cmp    eax,ebx
  406844:	89 46 04             	mov    DWORD PTR [esi+0x4],eax
  406847:	0f 84 e9 00 00 00    	je     0x406936
  40684d:	6a 0a                	push   0xa
  40684f:	58                   	pop    eax
  406850:	e9 e7 00 00 00       	jmp    0x40693c
  406855:	83 7d cc 00          	cmp    DWORD PTR [ebp-0x34],0x0
  406859:	0f 84 e8 07 00 00    	je     0x407047
  40685f:	8b 45 d4             	mov    eax,DWORD PTR [ebp-0x2c]
  406862:	85 c0                	test   eax,eax
  406864:	0f 85 98 00 00 00    	jne    0x406902
  40686a:	8b 8e a0 9b 00 00    	mov    ecx,DWORD PTR [esi+0x9ba0]
  406870:	8b 55 d0             	mov    edx,DWORD PTR [ebp-0x30]
  406873:	3b d1                	cmp    edx,ecx
  406875:	75 29                	jne    0x4068a0
  406877:	8b 86 a4 9b 00 00    	mov    eax,DWORD PTR [esi+0x9ba4]
  40687d:	8d be a0 1b 00 00    	lea    edi,[esi+0x1ba0]
  406883:	3b c7                	cmp    eax,edi
  406885:	74 19                	je     0x4068a0
  406887:	8b d7                	mov    edx,edi
  406889:	3b d0                	cmp    edx,eax
  40688b:	89 55 d0             	mov    DWORD PTR [ebp-0x30],edx
  40688e:	73 05                	jae    0x406895
  406890:	2b c2                	sub    eax,edx
  406892:	48                   	dec    eax
  406893:	eb 04                	jmp    0x406899
  406895:	2b ca                	sub    ecx,edx
  406897:	8b c1                	mov    eax,ecx
  406899:	85 c0                	test   eax,eax
  40689b:	89 45 d4             	mov    DWORD PTR [ebp-0x2c],eax
  40689e:	75 62                	jne    0x406902
  4068a0:	ff 75 08             	push   DWORD PTR [ebp+0x8]
  4068a3:	89 96 a8 9b 00 00    	mov    DWORD PTR [esi+0x9ba8],edx
  4068a9:	e8 04 08 00 00       	call   0x4070b2
  4068ae:	8b 96 a8 9b 00 00    	mov    edx,DWORD PTR [esi+0x9ba8]
  4068b4:	8b 8e a4 9b 00 00    	mov    ecx,DWORD PTR [esi+0x9ba4]
  4068ba:	3b d1                	cmp    edx,ecx
  4068bc:	89 55 d0             	mov    DWORD PTR [ebp-0x30],edx
  4068bf:	73 07                	jae    0x4068c8
  4068c1:	8b c1                	mov    eax,ecx
  4068c3:	2b c2                	sub    eax,edx
  4068c5:	48                   	dec    eax
  4068c6:	eb 08                	jmp    0x4068d0
  4068c8:	8b 86 a0 9b 00 00    	mov    eax,DWORD PTR [esi+0x9ba0]
  4068ce:	2b c2                	sub    eax,edx
  4068d0:	8b be a0 9b 00 00    	mov    edi,DWORD PTR [esi+0x9ba0]
  4068d6:	89 45 d4             	mov    DWORD PTR [ebp-0x2c],eax
  4068d9:	3b d7                	cmp    edx,edi
  4068db:	75 1d                	jne    0x4068fa
  4068dd:	8d 96 a0 1b 00 00    	lea    edx,[esi+0x1ba0]
  4068e3:	3b d1                	cmp    edx,ecx
  4068e5:	74 13                	je     0x4068fa
  4068e7:	89 55 d0             	mov    DWORD PTR [ebp-0x30],edx
  4068ea:	73 07                	jae    0x4068f3
  4068ec:	2b ca                	sub    ecx,edx
  4068ee:	49                   	dec    ecx
  4068ef:	8b c1                	mov    eax,ecx
  4068f1:	eb 04                	jmp    0x4068f7
  4068f3:	2b fa                	sub    edi,edx
  4068f5:	8b c7                	mov    eax,edi
  4068f7:	89 45 d4             	mov    DWORD PTR [ebp-0x2c],eax
  4068fa:	85 c0                	test   eax,eax
  4068fc:	0f 84 61 07 00 00    	je     0x407063
  406902:	3b 45 cc             	cmp    eax,DWORD PTR [ebp-0x34]
  406905:	72 03                	jb     0x40690a
  406907:	8b 45 cc             	mov    eax,DWORD PTR [ebp-0x34]
  40690a:	8b 4e 04             	mov    ecx,DWORD PTR [esi+0x4]
  40690d:	3b c8                	cmp    ecx,eax
  40690f:	8b f9                	mov    edi,ecx
  406911:	72 02                	jb     0x406915
  406913:	8b f8                	mov    edi,eax
  406915:	57                   	push   edi
  406916:	ff 75 c8             	push   DWORD PTR [ebp-0x38]
  406919:	ff 75 d0             	push   DWORD PTR [ebp-0x30]
  40691c:	e8 99 f3 ff ff       	call   0x405cba
  406921:	01 7d c8             	add    DWORD PTR [ebp-0x38],edi
  406924:	29 7d cc             	sub    DWORD PTR [ebp-0x34],edi
  406927:	01 7d d0             	add    DWORD PTR [ebp-0x30],edi
  40692a:	29 7d d4             	sub    DWORD PTR [ebp-0x2c],edi
  40692d:	29 7e 04             	sub    DWORD PTR [esi+0x4],edi
  406930:	0f 85 01 07 00 00    	jne    0x407037
  406936:	8b 86 14 05 00 00    	mov    eax,DWORD PTR [esi+0x514]
  40693c:	89 06                	mov    DWORD PTR [esi],eax
  40693e:	e9 f4 06 00 00       	jmp    0x407037
  406943:	83 7d cc 00          	cmp    DWORD PTR [ebp-0x34],0x0
  406947:	0f 84 fa 06 00 00    	je     0x407047
  40694d:	8b 45 c8             	mov    eax,DWORD PTR [ebp-0x38]
  406950:	ff 4d cc             	dec    DWORD PTR [ebp-0x34]
  406953:	8b cb                	mov    ecx,ebx
  406955:	0f b6 00             	movzx  eax,BYTE PTR [eax]
  406958:	d3 e0                	shl    eax,cl
  40695a:	09 45 c0             	or     DWORD PTR [ebp-0x40],eax
  40695d:	ff 45 c8             	inc    DWORD PTR [ebp-0x38]
  406960:	83 c3 08             	add    ebx,0x8
  406963:	83 fb 0e             	cmp    ebx,0xe
  406966:	72 db                	jb     0x406943
  406968:	8b 45 c0             	mov    eax,DWORD PTR [ebp-0x40]
  40696b:	25 ff 3f 00 00       	and    eax,0x3fff
  406970:	8b c8                	mov    ecx,eax
  406972:	89 46 04             	mov    DWORD PTR [esi+0x4],eax
  406975:	83 e1 1f             	and    ecx,0x1f
  406978:	80 f9 1d             	cmp    cl,0x1d
  40697b:	0f 87 59 fd ff ff    	ja     0x4066da
  406981:	25 e0 03 00 00       	and    eax,0x3e0
  406986:	3d a0 03 00 00       	cmp    eax,0x3a0
  40698b:	0f 87 49 fd ff ff    	ja     0x4066da
  406991:	c1 6d c0 0e          	shr    DWORD PTR [ebp-0x40],0xe
  406995:	83 eb 0e             	sub    ebx,0xe
  406998:	83 66 08 00          	and    DWORD PTR [esi+0x8],0x0
  40699c:	c7 06 0c 00 00 00    	mov    DWORD PTR [esi],0xc
  4069a2:	8b 46 04             	mov    eax,DWORD PTR [esi+0x4]
  4069a5:	c1 e8 0a             	shr    eax,0xa
  4069a8:	83 c0 04             	add    eax,0x4
  4069ab:	39 46 08             	cmp    DWORD PTR [esi+0x8],eax
  4069ae:	73 69                	jae    0x406a19
  4069b0:	eb 20                	jmp    0x4069d2
  4069b2:	83 7d cc 00          	cmp    DWORD PTR [ebp-0x34],0x0
  4069b6:	0f 84 8b 06 00 00    	je     0x407047
  4069bc:	8b 45 c8             	mov    eax,DWORD PTR [ebp-0x38]
  4069bf:	ff 4d cc             	dec    DWORD PTR [ebp-0x34]
  4069c2:	8b cb                	mov    ecx,ebx
  4069c4:	0f b6 00             	movzx  eax,BYTE PTR [eax]
  4069c7:	d3 e0                	shl    eax,cl
  4069c9:	09 45 c0             	or     DWORD PTR [ebp-0x40],eax
  4069cc:	ff 45 c8             	inc    DWORD PTR [ebp-0x38]
  4069cf:	83 c3 08             	add    ebx,0x8
  4069d2:	83 fb 03             	cmp    ebx,0x3
  4069d5:	72 db                	jb     0x4069b2
  4069d7:	8b 4e 08             	mov    ecx,DWORD PTR [esi+0x8]
  4069da:	8b 45 c0             	mov    eax,DWORD PTR [ebp-0x40]
  4069dd:	83 e0 07             	and    eax,0x7
  4069e0:	83 eb 03             	sub    ebx,0x3
  4069e3:	0f be 89 00 84 40 00 	movsx  ecx,BYTE PTR [ecx+0x408400]
  4069ea:	c1 6d c0 03          	shr    DWORD PTR [ebp-0x40],0x3
  4069ee:	89 44 8e 0c          	mov    DWORD PTR [esi+ecx*4+0xc],eax
  4069f2:	8b 4e 04             	mov    ecx,DWORD PTR [esi+0x4]
  4069f5:	ff 46 08             	inc    DWORD PTR [esi+0x8]
  4069f8:	8b 46 08             	mov    eax,DWORD PTR [esi+0x8]
  4069fb:	c1 e9 0a             	shr    ecx,0xa
  4069fe:	83 c1 04             	add    ecx,0x4
  406a01:	3b c1                	cmp    eax,ecx
  406a03:	72 cd                	jb     0x4069d2
  406a05:	eb 12                	jmp    0x406a19
  406a07:	8b 46 08             	mov    eax,DWORD PTR [esi+0x8]
  406a0a:	0f be 80 00 84 40 00 	movsx  eax,BYTE PTR [eax+0x408400]
  406a11:	83 64 86 0c 00       	and    DWORD PTR [esi+eax*4+0xc],0x0
  406a16:	ff 46 08             	inc    DWORD PTR [esi+0x8]
  406a19:	83 7e 08 13          	cmp    DWORD PTR [esi+0x8],0x13
  406a1d:	72 e8                	jb     0x406a07
  406a1f:	8d 4d f8             	lea    ecx,[ebp-0x8]
  406a22:	8d be 0c 05 00 00    	lea    edi,[esi+0x50c]
  406a28:	51                   	push   ecx
  406a29:	8d 8e 20 05 00 00    	lea    ecx,[esi+0x520]
  406a2f:	51                   	push   ecx
  406a30:	8d 8e 10 05 00 00    	lea    ecx,[esi+0x510]
  406a36:	33 c0                	xor    eax,eax
  406a38:	57                   	push   edi
  406a39:	51                   	push   ecx
  406a3a:	50                   	push   eax
  406a3b:	89 45 f8             	mov    DWORD PTR [ebp-0x8],eax
  406a3e:	50                   	push   eax
  406a3f:	6a 13                	push   0x13
  406a41:	8d 46 0c             	lea    eax,[esi+0xc]
  406a44:	6a 13                	push   0x13
  406a46:	50                   	push   eax
  406a47:	c7 07 07 00 00 00    	mov    DWORD PTR [edi],0x7
  406a4d:	e8 c8 06 00 00       	call   0x40711a
  406a52:	85 c0                	test   eax,eax
  406a54:	75 12                	jne    0x406a68
  406a56:	39 07                	cmp    DWORD PTR [edi],eax
  406a58:	74 0e                	je     0x406a68
  406a5a:	21 46 08             	and    DWORD PTR [esi+0x8],eax
  406a5d:	c7 06 0d 00 00 00    	mov    DWORD PTR [esi],0xd
  406a63:	e9 1d 01 00 00       	jmp    0x406b85
  406a68:	c7 06 11 00 00 00    	mov    DWORD PTR [esi],0x11
  406a6e:	e9 c4 05 00 00       	jmp    0x407037
  406a73:	8b 86 0c 05 00 00    	mov    eax,DWORD PTR [esi+0x50c]
  406a79:	eb 20                	jmp    0x406a9b
  406a7b:	83 7d cc 00          	cmp    DWORD PTR [ebp-0x34],0x0
  406a7f:	0f 84 c2 05 00 00    	je     0x407047
  406a85:	8b 4d c8             	mov    ecx,DWORD PTR [ebp-0x38]
  406a88:	ff 4d cc             	dec    DWORD PTR [ebp-0x34]
  406a8b:	0f b6 11             	movzx  edx,BYTE PTR [ecx]
  406a8e:	8b cb                	mov    ecx,ebx
  406a90:	d3 e2                	shl    edx,cl
  406a92:	09 55 c0             	or     DWORD PTR [ebp-0x40],edx
  406a95:	ff 45 c8             	inc    DWORD PTR [ebp-0x38]
  406a98:	83 c3 08             	add    ebx,0x8
  406a9b:	3b d8                	cmp    ebx,eax
  406a9d:	72 dc                	jb     0x406a7b
  406a9f:	0f b7 04 45 00 a4 40 	movzx  eax,WORD PTR [eax*2+0x40a400]
  406aa6:	00 
  406aa7:	23 45 c0             	and    eax,DWORD PTR [ebp-0x40]
  406aaa:	8b 8e 10 05 00 00    	mov    ecx,DWORD PTR [esi+0x510]
  406ab0:	8d 04 81             	lea    eax,[ecx+eax*4]
  406ab3:	0f b6 50 01          	movzx  edx,BYTE PTR [eax+0x1]
  406ab7:	0f b7 40 02          	movzx  eax,WORD PTR [eax+0x2]
  406abb:	83 f8 10             	cmp    eax,0x10
  406abe:	89 45 ec             	mov    DWORD PTR [ebp-0x14],eax
  406ac1:	73 16                	jae    0x406ad9
  406ac3:	8b ca                	mov    ecx,edx
  406ac5:	2b da                	sub    ebx,edx
  406ac7:	d3 6d c0             	shr    DWORD PTR [ebp-0x40],cl
  406aca:	8b 4e 08             	mov    ecx,DWORD PTR [esi+0x8]
  406acd:	89 44 8e 0c          	mov    DWORD PTR [esi+ecx*4+0xc],eax
  406ad1:	ff 46 08             	inc    DWORD PTR [esi+0x8]
  406ad4:	e9 ac 00 00 00       	jmp    0x406b85
  406ad9:	83 f8 12             	cmp    eax,0x12
  406adc:	75 0c                	jne    0x406aea
  406ade:	6a 07                	push   0x7
  406ae0:	c7 45 f8 0b 00 00 00 	mov    DWORD PTR [ebp-0x8],0xb
  406ae7:	58                   	pop    eax
  406ae8:	eb 2c                	jmp    0x406b16
  406aea:	83 c0 f2             	add    eax,0xfffffff2
  406aed:	c7 45 f8 03 00 00 00 	mov    DWORD PTR [ebp-0x8],0x3
  406af4:	eb 20                	jmp    0x406b16
  406af6:	83 7d cc 00          	cmp    DWORD PTR [ebp-0x34],0x0
  406afa:	0f 84 47 05 00 00    	je     0x407047
  406b00:	8b 4d c8             	mov    ecx,DWORD PTR [ebp-0x38]
  406b03:	ff 4d cc             	dec    DWORD PTR [ebp-0x34]
  406b06:	0f b6 39             	movzx  edi,BYTE PTR [ecx]
  406b09:	8b cb                	mov    ecx,ebx
  406b0b:	d3 e7                	shl    edi,cl
  406b0d:	09 7d c0             	or     DWORD PTR [ebp-0x40],edi
  406b10:	ff 45 c8             	inc    DWORD PTR [ebp-0x38]
  406b13:	83 c3 08             	add    ebx,0x8
  406b16:	8d 0c 10             	lea    ecx,[eax+edx*1]
  406b19:	3b d9                	cmp    ebx,ecx
  406b1b:	72 d9                	jb     0x406af6
  406b1d:	8b ca                	mov    ecx,edx
  406b1f:	2b da                	sub    ebx,edx
  406b21:	d3 6d c0             	shr    DWORD PTR [ebp-0x40],cl
  406b24:	0f b7 0c 45 00 a4 40 	movzx  ecx,WORD PTR [eax*2+0x40a400]
  406b2b:	00 
  406b2c:	23 4d c0             	and    ecx,DWORD PTR [ebp-0x40]
  406b2f:	8b 55 f8             	mov    edx,DWORD PTR [ebp-0x8]
  406b32:	2b d8                	sub    ebx,eax
  406b34:	03 d1                	add    edx,ecx
  406b36:	8b c8                	mov    ecx,eax
  406b38:	8b 46 04             	mov    eax,DWORD PTR [esi+0x4]
  406b3b:	d3 6d c0             	shr    DWORD PTR [ebp-0x40],cl
  406b3e:	8b 4e 08             	mov    ecx,DWORD PTR [esi+0x8]
  406b41:	8b f8                	mov    edi,eax
  406b43:	c1 ef 05             	shr    edi,0x5
  406b46:	83 e7 1f             	and    edi,0x1f
  406b49:	83 e0 1f             	and    eax,0x1f
  406b4c:	8d 84 07 02 01 00 00 	lea    eax,[edi+eax*1+0x102]
  406b53:	8d 3c 0a             	lea    edi,[edx+ecx*1]
  406b56:	3b f8                	cmp    edi,eax
  406b58:	0f 87 7c fb ff ff    	ja     0x4066da
  406b5e:	83 7d ec 10          	cmp    DWORD PTR [ebp-0x14],0x10
  406b62:	75 0f                	jne    0x406b73
  406b64:	83 f9 01             	cmp    ecx,0x1
  406b67:	0f 82 6d fb ff ff    	jb     0x4066da
  406b6d:	8b 7c 8e 08          	mov    edi,DWORD PTR [esi+ecx*4+0x8]
  406b71:	eb 02                	jmp    0x406b75
  406b73:	33 ff                	xor    edi,edi
  406b75:	8d 44 8e 0c          	lea    eax,[esi+ecx*4+0xc]
  406b79:	89 38                	mov    DWORD PTR [eax],edi
  406b7b:	41                   	inc    ecx
  406b7c:	83 c0 04             	add    eax,0x4
  406b7f:	4a                   	dec    edx
  406b80:	75 f7                	jne    0x406b79
  406b82:	89 4e 08             	mov    DWORD PTR [esi+0x8],ecx
  406b85:	8b 46 04             	mov    eax,DWORD PTR [esi+0x4]
  406b88:	8b 4e 08             	mov    ecx,DWORD PTR [esi+0x8]
  406b8b:	8b d0                	mov    edx,eax
  406b8d:	83 e0 1f             	and    eax,0x1f
  406b90:	c1 ea 05             	shr    edx,0x5
  406b93:	83 e2 1f             	and    edx,0x1f
  406b96:	8d 84 02 02 01 00 00 	lea    eax,[edx+eax*1+0x102]
  406b9d:	3b c8                	cmp    ecx,eax
  406b9f:	0f 82 ce fe ff ff    	jb     0x406a73
  406ba5:	8b 46 04             	mov    eax,DWORD PTR [esi+0x4]
  406ba8:	83 a6 10 05 00 00 00 	and    DWORD PTR [esi+0x510],0x0
  406baf:	83 65 f4 00          	and    DWORD PTR [ebp-0xc],0x0
  406bb3:	8b f8                	mov    edi,eax
  406bb5:	c1 e8 05             	shr    eax,0x5
  406bb8:	83 e7 1f             	and    edi,0x1f
  406bbb:	b9 01 01 00 00       	mov    ecx,0x101
  406bc0:	83 e0 1f             	and    eax,0x1f
  406bc3:	03 f9                	add    edi,ecx
  406bc5:	40                   	inc    eax
  406bc6:	8d 55 f4             	lea    edx,[ebp-0xc]
  406bc9:	89 45 ec             	mov    DWORD PTR [ebp-0x14],eax
  406bcc:	8d 86 20 05 00 00    	lea    eax,[esi+0x520]
  406bd2:	52                   	push   edx
  406bd3:	50                   	push   eax
  406bd4:	8d 45 fc             	lea    eax,[ebp-0x4]
  406bd7:	c7 45 fc 09 00 00 00 	mov    DWORD PTR [ebp-0x4],0x9
  406bde:	50                   	push   eax
  406bdf:	8d 45 e8             	lea    eax,[ebp-0x18]
  406be2:	50                   	push   eax
  406be3:	68 54 84 40 00       	push   0x408454
  406be8:	68 14 84 40 00       	push   0x408414
  406bed:	51                   	push   ecx
  406bee:	8d 46 0c             	lea    eax,[esi+0xc]
  406bf1:	57                   	push   edi
  406bf2:	50                   	push   eax
  406bf3:	c7 45 f0 06 00 00 00 	mov    DWORD PTR [ebp-0x10],0x6
  406bfa:	e8 1b 05 00 00       	call   0x40711a
  406bff:	83 7d fc 00          	cmp    DWORD PTR [ebp-0x4],0x0
  406c03:	75 03                	jne    0x406c08
  406c05:	83 c8 ff             	or     eax,0xffffffff
  406c08:	85 c0                	test   eax,eax
  406c0a:	0f 85 ca fa ff ff    	jne    0x4066da
  406c10:	8d 45 f4             	lea    eax,[ebp-0xc]
  406c13:	50                   	push   eax
  406c14:	8d 86 20 05 00 00    	lea    eax,[esi+0x520]
  406c1a:	50                   	push   eax
  406c1b:	8d 45 f0             	lea    eax,[ebp-0x10]
  406c1e:	50                   	push   eax
  406c1f:	8d 45 e4             	lea    eax,[ebp-0x1c]
  406c22:	50                   	push   eax
  406c23:	68 d0 84 40 00       	push   0x4084d0
  406c28:	68 94 84 40 00       	push   0x408494
  406c2d:	6a 00                	push   0x0
  406c2f:	ff 75 ec             	push   DWORD PTR [ebp-0x14]
  406c32:	8d 44 be 0c          	lea    eax,[esi+edi*4+0xc]
  406c36:	50                   	push   eax
  406c37:	e8 de 04 00 00       	call   0x40711a
  406c3c:	85 c0                	test   eax,eax
  406c3e:	0f 85 96 fa ff ff    	jne    0x4066da
  406c44:	8b 45 f0             	mov    eax,DWORD PTR [ebp-0x10]
  406c47:	85 c0                	test   eax,eax
  406c49:	75 0c                	jne    0x406c57
  406c4b:	81 ff 01 01 00 00    	cmp    edi,0x101
  406c51:	0f 8f 83 fa ff ff    	jg     0x4066da
  406c57:	8a 4d fc             	mov    cl,BYTE PTR [ebp-0x4]
  406c5a:	83 26 00             	and    DWORD PTR [esi],0x0
  406c5d:	88 46 11             	mov    BYTE PTR [esi+0x11],al
  406c60:	8b 45 e8             	mov    eax,DWORD PTR [ebp-0x18]
  406c63:	89 46 14             	mov    DWORD PTR [esi+0x14],eax
  406c66:	8b 45 e4             	mov    eax,DWORD PTR [ebp-0x1c]
  406c69:	88 4e 10             	mov    BYTE PTR [esi+0x10],cl
  406c6c:	89 46 18             	mov    DWORD PTR [esi+0x18],eax
  406c6f:	0f b6 46 10          	movzx  eax,BYTE PTR [esi+0x10]
  406c73:	89 46 0c             	mov    DWORD PTR [esi+0xc],eax
  406c76:	8b 46 14             	mov    eax,DWORD PTR [esi+0x14]
  406c79:	89 46 08             	mov    DWORD PTR [esi+0x8],eax
  406c7c:	c7 06 01 00 00 00    	mov    DWORD PTR [esi],0x1
  406c82:	8b 46 0c             	mov    eax,DWORD PTR [esi+0xc]
  406c85:	eb 20                	jmp    0x406ca7
  406c87:	83 7d cc 00          	cmp    DWORD PTR [ebp-0x34],0x0
  406c8b:	0f 84 b6 03 00 00    	je     0x407047
  406c91:	8b 4d c8             	mov    ecx,DWORD PTR [ebp-0x38]
  406c94:	ff 4d cc             	dec    DWORD PTR [ebp-0x34]
  406c97:	0f b6 11             	movzx  edx,BYTE PTR [ecx]
  406c9a:	8b cb                	mov    ecx,ebx
  406c9c:	d3 e2                	shl    edx,cl
  406c9e:	09 55 c0             	or     DWORD PTR [ebp-0x40],edx
  406ca1:	ff 45 c8             	inc    DWORD PTR [ebp-0x38]
  406ca4:	83 c3 08             	add    ebx,0x8
  406ca7:	3b d8                	cmp    ebx,eax
  406ca9:	72 dc                	jb     0x406c87
  406cab:	0f b7 04 45 00 a4 40 	movzx  eax,WORD PTR [eax*2+0x40a400]
  406cb2:	00 
  406cb3:	23 45 c0             	and    eax,DWORD PTR [ebp-0x40]
  406cb6:	8b 4e 08             	mov    ecx,DWORD PTR [esi+0x8]
  406cb9:	8d 04 81             	lea    eax,[ecx+eax*4]
  406cbc:	0f b6 48 01          	movzx  ecx,BYTE PTR [eax+0x1]
  406cc0:	d3 6d c0             	shr    DWORD PTR [ebp-0x40],cl
  406cc3:	2b d9                	sub    ebx,ecx
  406cc5:	0f b6 08             	movzx  ecx,BYTE PTR [eax]
  406cc8:	85 c9                	test   ecx,ecx
  406cca:	75 12                	jne    0x406cde
  406ccc:	0f b7 40 02          	movzx  eax,WORD PTR [eax+0x2]
  406cd0:	89 46 08             	mov    DWORD PTR [esi+0x8],eax
  406cd3:	c7 06 06 00 00 00    	mov    DWORD PTR [esi],0x6
  406cd9:	e9 59 03 00 00       	jmp    0x407037
  406cde:	f6 c1 10             	test   cl,0x10
  406ce1:	74 18                	je     0x406cfb
  406ce3:	83 e1 0f             	and    ecx,0xf
  406ce6:	89 4e 08             	mov    DWORD PTR [esi+0x8],ecx
  406ce9:	0f b7 40 02          	movzx  eax,WORD PTR [eax+0x2]
  406ced:	89 46 04             	mov    DWORD PTR [esi+0x4],eax
  406cf0:	c7 06 02 00 00 00    	mov    DWORD PTR [esi],0x2
  406cf6:	e9 3c 03 00 00       	jmp    0x407037
  406cfb:	f6 c1 40             	test   cl,0x40
  406cfe:	0f 84 d1 00 00 00    	je     0x406dd5
  406d04:	f6 c1 20             	test   cl,0x20
  406d07:	0f 84 cd f9 ff ff    	je     0x4066da
  406d0d:	c7 06 07 00 00 00    	mov    DWORD PTR [esi],0x7
  406d13:	e9 1f 03 00 00       	jmp    0x407037
  406d18:	8b 46 08             	mov    eax,DWORD PTR [esi+0x8]
  406d1b:	eb 20                	jmp    0x406d3d
  406d1d:	83 7d cc 00          	cmp    DWORD PTR [ebp-0x34],0x0
  406d21:	0f 84 20 03 00 00    	je     0x407047
  406d27:	8b 4d c8             	mov    ecx,DWORD PTR [ebp-0x38]
  406d2a:	ff 4d cc             	dec    DWORD PTR [ebp-0x34]
  406d2d:	0f b6 11             	movzx  edx,BYTE PTR [ecx]
  406d30:	8b cb                	mov    ecx,ebx
  406d32:	d3 e2                	shl    edx,cl
  406d34:	09 55 c0             	or     DWORD PTR [ebp-0x40],edx
  406d37:	ff 45 c8             	inc    DWORD PTR [ebp-0x38]
  406d3a:	83 c3 08             	add    ebx,0x8
  406d3d:	3b d8                	cmp    ebx,eax
  406d3f:	72 dc                	jb     0x406d1d
  406d41:	0f b7 0c 45 00 a4 40 	movzx  ecx,WORD PTR [eax*2+0x40a400]
  406d48:	00 
  406d49:	23 4d c0             	and    ecx,DWORD PTR [ebp-0x40]
  406d4c:	01 4e 04             	add    DWORD PTR [esi+0x4],ecx
  406d4f:	8b c8                	mov    ecx,eax
  406d51:	d3 6d c0             	shr    DWORD PTR [ebp-0x40],cl
  406d54:	2b d8                	sub    ebx,eax
  406d56:	0f b6 46 11          	movzx  eax,BYTE PTR [esi+0x11]
  406d5a:	89 46 0c             	mov    DWORD PTR [esi+0xc],eax
  406d5d:	8b 46 18             	mov    eax,DWORD PTR [esi+0x18]
  406d60:	89 46 08             	mov    DWORD PTR [esi+0x8],eax
  406d63:	c7 06 03 00 00 00    	mov    DWORD PTR [esi],0x3
  406d69:	8b 46 0c             	mov    eax,DWORD PTR [esi+0xc]
  406d6c:	eb 20                	jmp    0x406d8e
  406d6e:	83 7d cc 00          	cmp    DWORD PTR [ebp-0x34],0x0
  406d72:	0f 84 cf 02 00 00    	je     0x407047
  406d78:	8b 4d c8             	mov    ecx,DWORD PTR [ebp-0x38]
  406d7b:	ff 4d cc             	dec    DWORD PTR [ebp-0x34]
  406d7e:	0f b6 11             	movzx  edx,BYTE PTR [ecx]
  406d81:	8b cb                	mov    ecx,ebx
  406d83:	d3 e2                	shl    edx,cl
  406d85:	09 55 c0             	or     DWORD PTR [ebp-0x40],edx
  406d88:	ff 45 c8             	inc    DWORD PTR [ebp-0x38]
  406d8b:	83 c3 08             	add    ebx,0x8
  406d8e:	3b d8                	cmp    ebx,eax
  406d90:	72 dc                	jb     0x406d6e
  406d92:	0f b7 04 45 00 a4 40 	movzx  eax,WORD PTR [eax*2+0x40a400]
  406d99:	00 
  406d9a:	23 45 c0             	and    eax,DWORD PTR [ebp-0x40]
  406d9d:	8b 4e 08             	mov    ecx,DWORD PTR [esi+0x8]
  406da0:	8d 04 81             	lea    eax,[ecx+eax*4]
  406da3:	0f b6 48 01          	movzx  ecx,BYTE PTR [eax+0x1]
  406da7:	d3 6d c0             	shr    DWORD PTR [ebp-0x40],cl
  406daa:	2b d9                	sub    ebx,ecx
  406dac:	0f b6 08             	movzx  ecx,BYTE PTR [eax]
  406daf:	f6 c1 10             	test   cl,0x10
  406db2:	74 18                	je     0x406dcc
  406db4:	83 e1 0f             	and    ecx,0xf
  406db7:	89 4e 08             	mov    DWORD PTR [esi+0x8],ecx
  406dba:	0f b7 40 02          	movzx  eax,WORD PTR [eax+0x2]
  406dbe:	89 46 0c             	mov    DWORD PTR [esi+0xc],eax
  406dc1:	c7 06 04 00 00 00    	mov    DWORD PTR [esi],0x4
  406dc7:	e9 6b 02 00 00       	jmp    0x407037
  406dcc:	f6 c1 40             	test   cl,0x40
  406dcf:	0f 85 05 f9 ff ff    	jne    0x4066da
  406dd5:	89 4e 0c             	mov    DWORD PTR [esi+0xc],ecx
  406dd8:	0f b7 48 02          	movzx  ecx,WORD PTR [eax+0x2]
  406ddc:	8d 04 88             	lea    eax,[eax+ecx*4]
  406ddf:	89 46 08             	mov    DWORD PTR [esi+0x8],eax
  406de2:	e9 50 02 00 00       	jmp    0x407037
  406de7:	8b 46 08             	mov    eax,DWORD PTR [esi+0x8]
  406dea:	eb 20                	jmp    0x406e0c
  406dec:	83 7d cc 00          	cmp    DWORD PTR [ebp-0x34],0x0
  406df0:	0f 84 51 02 00 00    	je     0x407047
  406df6:	8b 4d c8             	mov    ecx,DWORD PTR [ebp-0x38]
  406df9:	ff 4d cc             	dec    DWORD PTR [ebp-0x34]
  406dfc:	0f b6 11             	movzx  edx,BYTE PTR [ecx]
  406dff:	8b cb                	mov    ecx,ebx
  406e01:	d3 e2                	shl    edx,cl
  406e03:	09 55 c0             	or     DWORD PTR [ebp-0x40],edx
  406e06:	ff 45 c8             	inc    DWORD PTR [ebp-0x38]
  406e09:	83 c3 08             	add    ebx,0x8
  406e0c:	3b d8                	cmp    ebx,eax
  406e0e:	72 dc                	jb     0x406dec
  406e10:	0f b7 0c 45 00 a4 40 	movzx  ecx,WORD PTR [eax*2+0x40a400]
  406e17:	00 
  406e18:	23 4d c0             	and    ecx,DWORD PTR [ebp-0x40]
  406e1b:	01 4e 0c             	add    DWORD PTR [esi+0xc],ecx
  406e1e:	8b c8                	mov    ecx,eax
  406e20:	d3 6d c0             	shr    DWORD PTR [ebp-0x40],cl
  406e23:	2b d8                	sub    ebx,eax
  406e25:	c7 06 05 00 00 00    	mov    DWORD PTR [esi],0x5
  406e2b:	8b 45 d0             	mov    eax,DWORD PTR [ebp-0x30]
  406e2e:	8b 56 0c             	mov    edx,DWORD PTR [esi+0xc]
  406e31:	8b c8                	mov    ecx,eax
  406e33:	2b ce                	sub    ecx,esi
  406e35:	81 e9 a0 1b 00 00    	sub    ecx,0x1ba0
  406e3b:	3b ca                	cmp    ecx,edx
  406e3d:	73 13                	jae    0x406e52
  406e3f:	8b 8e a0 9b 00 00    	mov    ecx,DWORD PTR [esi+0x9ba0]
  406e45:	2b ca                	sub    ecx,edx
  406e47:	2b ce                	sub    ecx,esi
  406e49:	8d 8c 01 60 e4 ff ff 	lea    ecx,[ecx+eax*1-0x1ba0]
  406e50:	eb 04                	jmp    0x406e56
  406e52:	8b c8                	mov    ecx,eax
  406e54:	2b ca                	sub    ecx,edx
  406e56:	83 7e 04 00          	cmp    DWORD PTR [esi+0x4],0x0
  406e5a:	89 4d e0             	mov    DWORD PTR [ebp-0x20],ecx
  406e5d:	0f 84 90 f9 ff ff    	je     0x4067f3
  406e63:	8b 7d d4             	mov    edi,DWORD PTR [ebp-0x2c]
  406e66:	85 ff                	test   edi,edi
  406e68:	0f 85 91 00 00 00    	jne    0x406eff
  406e6e:	8b be a0 9b 00 00    	mov    edi,DWORD PTR [esi+0x9ba0]
  406e74:	3b c7                	cmp    eax,edi
  406e76:	75 23                	jne    0x406e9b
  406e78:	8b 8e a4 9b 00 00    	mov    ecx,DWORD PTR [esi+0x9ba4]
  406e7e:	8d 96 a0 1b 00 00    	lea    edx,[esi+0x1ba0]
  406e84:	3b ca                	cmp    ecx,edx
  406e86:	74 13                	je     0x406e9b
  406e88:	8b c2                	mov    eax,edx
  406e8a:	3b c1                	cmp    eax,ecx
  406e8c:	73 07                	jae    0x406e95
  406e8e:	2b c8                	sub    ecx,eax
  406e90:	49                   	dec    ecx
  406e91:	8b f9                	mov    edi,ecx
  406e93:	eb 02                	jmp    0x406e97
  406e95:	2b f8                	sub    edi,eax
  406e97:	85 ff                	test   edi,edi
  406e99:	75 64                	jne    0x406eff
  406e9b:	ff 75 08             	push   DWORD PTR [ebp+0x8]
  406e9e:	89 86 a8 9b 00 00    	mov    DWORD PTR [esi+0x9ba8],eax
  406ea4:	e8 09 02 00 00       	call   0x4070b2
  406ea9:	8b 86 a8 9b 00 00    	mov    eax,DWORD PTR [esi+0x9ba8]
  406eaf:	8b 8e a4 9b 00 00    	mov    ecx,DWORD PTR [esi+0x9ba4]
  406eb5:	3b c1                	cmp    eax,ecx
  406eb7:	89 45 d0             	mov    DWORD PTR [ebp-0x30],eax
  406eba:	73 07                	jae    0x406ec3
  406ebc:	8b f9                	mov    edi,ecx
  406ebe:	2b f8                	sub    edi,eax
  406ec0:	4f                   	dec    edi
  406ec1:	eb 08                	jmp    0x406ecb
  406ec3:	8b be a0 9b 00 00    	mov    edi,DWORD PTR [esi+0x9ba0]
  406ec9:	2b f8                	sub    edi,eax
  406ecb:	8b 96 a0 9b 00 00    	mov    edx,DWORD PTR [esi+0x9ba0]
  406ed1:	3b c2                	cmp    eax,edx
  406ed3:	89 55 f8             	mov    DWORD PTR [ebp-0x8],edx
  406ed6:	75 1f                	jne    0x406ef7
  406ed8:	8d 96 a0 1b 00 00    	lea    edx,[esi+0x1ba0]
  406ede:	3b ca                	cmp    ecx,edx
  406ee0:	74 15                	je     0x406ef7
  406ee2:	8b c2                	mov    eax,edx
  406ee4:	3b c1                	cmp    eax,ecx
  406ee6:	89 45 d0             	mov    DWORD PTR [ebp-0x30],eax
  406ee9:	73 07                	jae    0x406ef2
  406eeb:	2b c8                	sub    ecx,eax
  406eed:	49                   	dec    ecx
  406eee:	8b f9                	mov    edi,ecx
  406ef0:	eb 05                	jmp    0x406ef7
  406ef2:	8b 7d f8             	mov    edi,DWORD PTR [ebp-0x8]
  406ef5:	2b f8                	sub    edi,eax
  406ef7:	85 ff                	test   edi,edi
  406ef9:	0f 84 64 01 00 00    	je     0x407063
  406eff:	8b 4d e0             	mov    ecx,DWORD PTR [ebp-0x20]
  406f02:	8a 11                	mov    dl,BYTE PTR [ecx]
  406f04:	88 10                	mov    BYTE PTR [eax],dl
  406f06:	40                   	inc    eax
  406f07:	41                   	inc    ecx
  406f08:	4f                   	dec    edi
  406f09:	3b 8e a0 9b 00 00    	cmp    ecx,DWORD PTR [esi+0x9ba0]
  406f0f:	89 45 d0             	mov    DWORD PTR [ebp-0x30],eax
  406f12:	89 4d e0             	mov    DWORD PTR [ebp-0x20],ecx
  406f15:	89 7d d4             	mov    DWORD PTR [ebp-0x2c],edi
  406f18:	75 09                	jne    0x406f23
  406f1a:	8d 8e a0 1b 00 00    	lea    ecx,[esi+0x1ba0]
  406f20:	89 4d e0             	mov    DWORD PTR [ebp-0x20],ecx
  406f23:	ff 4e 04             	dec    DWORD PTR [esi+0x4]
  406f26:	0f 85 3a ff ff ff    	jne    0x406e66
  406f2c:	e9 c2 f8 ff ff       	jmp    0x4067f3
  406f31:	8b 45 d4             	mov    eax,DWORD PTR [ebp-0x2c]
  406f34:	8b 7d d0             	mov    edi,DWORD PTR [ebp-0x30]
  406f37:	85 c0                	test   eax,eax
  406f39:	0f 85 91 00 00 00    	jne    0x406fd0
  406f3f:	8b 8e a0 9b 00 00    	mov    ecx,DWORD PTR [esi+0x9ba0]
  406f45:	3b f9                	cmp    edi,ecx
  406f47:	75 23                	jne    0x406f6c
  406f49:	8b 86 a4 9b 00 00    	mov    eax,DWORD PTR [esi+0x9ba4]
  406f4f:	8d 96 a0 1b 00 00    	lea    edx,[esi+0x1ba0]
  406f55:	3b c2                	cmp    eax,edx
  406f57:	74 13                	je     0x406f6c
  406f59:	8b fa                	mov    edi,edx
  406f5b:	3b f8                	cmp    edi,eax
  406f5d:	73 05                	jae    0x406f64
  406f5f:	2b c7                	sub    eax,edi
  406f61:	48                   	dec    eax
  406f62:	eb 04                	jmp    0x406f68
  406f64:	2b cf                	sub    ecx,edi
  406f66:	8b c1                	mov    eax,ecx
  406f68:	85 c0                	test   eax,eax
  406f6a:	75 64                	jne    0x406fd0
  406f6c:	ff 75 08             	push   DWORD PTR [ebp+0x8]
  406f6f:	89 be a8 9b 00 00    	mov    DWORD PTR [esi+0x9ba8],edi
  406f75:	e8 38 01 00 00       	call   0x4070b2
  406f7a:	8b be a8 9b 00 00    	mov    edi,DWORD PTR [esi+0x9ba8]
  406f80:	8b 8e a4 9b 00 00    	mov    ecx,DWORD PTR [esi+0x9ba4]
  406f86:	3b f9                	cmp    edi,ecx
  406f88:	89 7d d0             	mov    DWORD PTR [ebp-0x30],edi
  406f8b:	73 07                	jae    0x406f94
  406f8d:	8b c1                	mov    eax,ecx
  406f8f:	2b c7                	sub    eax,edi
  406f91:	48                   	dec    eax
  406f92:	eb 08                	jmp    0x406f9c
  406f94:	8b 86 a0 9b 00 00    	mov    eax,DWORD PTR [esi+0x9ba0]
  406f9a:	2b c7                	sub    eax,edi
  406f9c:	8b 96 a0 9b 00 00    	mov    edx,DWORD PTR [esi+0x9ba0]
  406fa2:	3b fa                	cmp    edi,edx
  406fa4:	89 55 f8             	mov    DWORD PTR [ebp-0x8],edx
  406fa7:	75 1f                	jne    0x406fc8
  406fa9:	8d 96 a0 1b 00 00    	lea    edx,[esi+0x1ba0]
  406faf:	3b ca                	cmp    ecx,edx
  406fb1:	74 15                	je     0x406fc8
  406fb3:	8b fa                	mov    edi,edx
  406fb5:	3b f9                	cmp    edi,ecx
  406fb7:	89 7d d0             	mov    DWORD PTR [ebp-0x30],edi
  406fba:	73 07                	jae    0x406fc3
  406fbc:	2b cf                	sub    ecx,edi
  406fbe:	49                   	dec    ecx
  406fbf:	8b c1                	mov    eax,ecx
  406fc1:	eb 05                	jmp    0x406fc8
  406fc3:	8b 45 f8             	mov    eax,DWORD PTR [ebp-0x8]
  406fc6:	2b c7                	sub    eax,edi
  406fc8:	85 c0                	test   eax,eax
  406fca:	0f 84 93 00 00 00    	je     0x407063
  406fd0:	8a 4e 08             	mov    cl,BYTE PTR [esi+0x8]
  406fd3:	88 0f                	mov    BYTE PTR [edi],cl
  406fd5:	47                   	inc    edi
  406fd6:	48                   	dec    eax
  406fd7:	89 7d d0             	mov    DWORD PTR [ebp-0x30],edi
  406fda:	89 45 d4             	mov    DWORD PTR [ebp-0x2c],eax
  406fdd:	e9 11 f8 ff ff       	jmp    0x4067f3
  406fe2:	83 fb 07             	cmp    ebx,0x7
  406fe5:	76 09                	jbe    0x406ff0
  406fe7:	83 eb 08             	sub    ebx,0x8
  406fea:	ff 45 cc             	inc    DWORD PTR [ebp-0x34]
  406fed:	ff 4d c8             	dec    DWORD PTR [ebp-0x38]
  406ff0:	8b 45 d0             	mov    eax,DWORD PTR [ebp-0x30]
  406ff3:	ff 75 08             	push   DWORD PTR [ebp+0x8]
  406ff6:	89 86 a8 9b 00 00    	mov    DWORD PTR [esi+0x9ba8],eax
  406ffc:	e8 b1 00 00 00       	call   0x4070b2
  407001:	8b 8e a8 9b 00 00    	mov    ecx,DWORD PTR [esi+0x9ba8]
  407007:	8b 96 a4 9b 00 00    	mov    edx,DWORD PTR [esi+0x9ba4]
  40700d:	3b ca                	cmp    ecx,edx
  40700f:	89 4d d0             	mov    DWORD PTR [ebp-0x30],ecx
  407012:	73 07                	jae    0x40701b
  407014:	8b c2                	mov    eax,edx
  407016:	2b c1                	sub    eax,ecx
  407018:	48                   	dec    eax
  407019:	eb 08                	jmp    0x407023
  40701b:	8b 86 a0 9b 00 00    	mov    eax,DWORD PTR [esi+0x9ba0]
  407021:	2b c1                	sub    eax,ecx
  407023:	3b ca                	cmp    ecx,edx
  407025:	89 45 d4             	mov    DWORD PTR [ebp-0x2c],eax
  407028:	75 39                	jne    0x407063
  40702a:	8b 86 14 05 00 00    	mov    eax,DWORD PTR [esi+0x514]
  407030:	83 f8 08             	cmp    eax,0x8
  407033:	89 06                	mov    DWORD PTR [esi],eax
  407035:	75 33                	jne    0x40706a
  407037:	8b 06                	mov    eax,DWORD PTR [esi]
  407039:	83 f8 0f             	cmp    eax,0xf
  40703c:	0f 86 32 f6 ff ff    	jbe    0x406674
  407042:	e9 93 f6 ff ff       	jmp    0x4066da
  407047:	8b 45 c0             	mov    eax,DWORD PTR [ebp-0x40]
  40704a:	33 ff                	xor    edi,edi
  40704c:	89 86 1c 05 00 00    	mov    DWORD PTR [esi+0x51c],eax
  407052:	8b 45 08             	mov    eax,DWORD PTR [ebp+0x8]
  407055:	89 9e 18 05 00 00    	mov    DWORD PTR [esi+0x518],ebx
  40705b:	89 78 04             	mov    DWORD PTR [eax+0x4],edi
  40705e:	e9 98 f6 ff ff       	jmp    0x4066fb
  407063:	33 ff                	xor    edi,edi
  407065:	e9 79 f6 ff ff       	jmp    0x4066e3
  40706a:	33 ff                	xor    edi,edi
  40706c:	47                   	inc    edi
  40706d:	e9 71 f6 ff ff       	jmp    0x4066e3
  407072:	6f                   	outs   dx,DWORD PTR ds:[esi]
  407073:	6c                   	ins    BYTE PTR es:[edi],dx
  407074:	40                   	inc    eax
  407075:	00 82 6c 40 00 18    	add    BYTE PTR [edx+0x1800406c],al
  40707b:	6d                   	ins    DWORD PTR es:[edi],dx
  40707c:	40                   	inc    eax
  40707d:	00 69 6d             	add    BYTE PTR [ecx+0x6d],ch
  407080:	40                   	inc    eax
  407081:	00 e7                	add    bh,ah
  407083:	6d                   	ins    DWORD PTR es:[edi],dx
  407084:	40                   	inc    eax
  407085:	00 2b                	add    BYTE PTR [ebx],ch
  407087:	6e                   	outs   dx,BYTE PTR ds:[esi]
  407088:	40                   	inc    eax
  407089:	00 31                	add    BYTE PTR [ecx],dh
  40708b:	6f                   	outs   dx,DWORD PTR ds:[esi]
  40708c:	40                   	inc    eax
  40708d:	00 e2                	add    dl,ah
  40708f:	6f                   	outs   dx,DWORD PTR ds:[esi]
  407090:	40                   	inc    eax
  407091:	00 9b 66 40 00 30    	add    BYTE PTR [ebx+0x30004066],bl
  407097:	68 40 00 55 68       	push   0x68550040
  40709c:	40                   	inc    eax
  40709d:	00 63 69             	add    BYTE PTR [ebx+0x69],ah
  4070a0:	40                   	inc    eax
  4070a1:	00 a2 69 40 00 85    	add    BYTE PTR [edx-0x7affbf97],ah
  4070a7:	6b 40 00 da          	imul   eax,DWORD PTR [eax+0x0],0xffffffda
  4070ab:	66 40                	inc    ax
  4070ad:	00 f0                	add    al,dh
  4070af:	6f                   	outs   dx,DWORD PTR ds:[esi]
  4070b0:	40                   	inc    eax
  4070b1:	00 53 56             	add    BYTE PTR [ebx+0x56],dl
  4070b4:	8b 74 24 0c          	mov    esi,DWORD PTR [esp+0xc]
  4070b8:	57                   	push   edi
  4070b9:	8b be b4 9b 00 00    	mov    edi,DWORD PTR [esi+0x9bb4]
  4070bf:	8b 9e b8 9b 00 00    	mov    ebx,DWORD PTR [esi+0x9bb8]
  4070c5:	3b fb                	cmp    edi,ebx
  4070c7:	76 06                	jbe    0x4070cf
  4070c9:	8b 9e b0 9b 00 00    	mov    ebx,DWORD PTR [esi+0x9bb0]
  4070cf:	8b 46 0c             	mov    eax,DWORD PTR [esi+0xc]
  4070d2:	2b df                	sub    ebx,edi
  4070d4:	3b d8                	cmp    ebx,eax
  4070d6:	72 02                	jb     0x4070da
  4070d8:	8b d8                	mov    ebx,eax
  4070da:	53                   	push   ebx
  4070db:	57                   	push   edi
  4070dc:	ff 76 08             	push   DWORD PTR [esi+0x8]
  4070df:	2b c3                	sub    eax,ebx
  4070e1:	89 46 0c             	mov    DWORD PTR [esi+0xc],eax
  4070e4:	e8 d1 eb ff ff       	call   0x405cba
  4070e9:	01 5e 08             	add    DWORD PTR [esi+0x8],ebx
  4070ec:	8b 86 b0 9b 00 00    	mov    eax,DWORD PTR [esi+0x9bb0]
  4070f2:	03 fb                	add    edi,ebx
  4070f4:	3b f8                	cmp    edi,eax
  4070f6:	75 16                	jne    0x40710e
  4070f8:	39 86 b8 9b 00 00    	cmp    DWORD PTR [esi+0x9bb8],eax
  4070fe:	8d be b0 1b 00 00    	lea    edi,[esi+0x1bb0]
  407104:	75 b9                	jne    0x4070bf
  407106:	89 be b8 9b 00 00    	mov    DWORD PTR [esi+0x9bb8],edi
  40710c:	eb b1                	jmp    0x4070bf
  40710e:	89 be b4 9b 00 00    	mov    DWORD PTR [esi+0x9bb4],edi
  407114:	5f                   	pop    edi
  407115:	5e                   	pop    esi
  407116:	5b                   	pop    ebx
  407117:	c2 04 00             	ret    0x4
  40711a:	55                   	push   ebp
  40711b:	8b ec                	mov    ebp,esp
  40711d:	81 ec ec 00 00 00    	sub    esp,0xec
  407123:	53                   	push   ebx
  407124:	56                   	push   esi
  407125:	8b 75 0c             	mov    esi,DWORD PTR [ebp+0xc]
  407128:	57                   	push   edi
  407129:	6a 10                	push   0x10
  40712b:	33 c0                	xor    eax,eax
  40712d:	59                   	pop    ecx
  40712e:	8d 7d 90             	lea    edi,[ebp-0x70]
  407131:	f3 ab                	rep stos DWORD PTR es:[edi],eax
  407133:	8b 4d 08             	mov    ecx,DWORD PTR [ebp+0x8]
  407136:	8b d6                	mov    edx,esi
  407138:	8b 01                	mov    eax,DWORD PTR [ecx]
  40713a:	83 c1 04             	add    ecx,0x4
  40713d:	8d 44 85 90          	lea    eax,[ebp+eax*4-0x70]
  407141:	ff 00                	inc    DWORD PTR [eax]
  407143:	4a                   	dec    edx
  407144:	75 f2                	jne    0x407138
  407146:	39 75 90             	cmp    DWORD PTR [ebp-0x70],esi
  407149:	75 13                	jne    0x40715e
  40714b:	8b 45 1c             	mov    eax,DWORD PTR [ebp+0x1c]
  40714e:	83 20 00             	and    DWORD PTR [eax],0x0
  407151:	8b 45 20             	mov    eax,DWORD PTR [ebp+0x20]
  407154:	83 20 00             	and    DWORD PTR [eax],0x0
  407157:	33 c0                	xor    eax,eax
  407159:	e9 f0 02 00 00       	jmp    0x40744e
  40715e:	8b 75 20             	mov    esi,DWORD PTR [ebp+0x20]
  407161:	33 db                	xor    ebx,ebx
  407163:	43                   	inc    ebx
  407164:	6a 0f                	push   0xf
  407166:	8b 3e                	mov    edi,DWORD PTR [esi]
  407168:	8b cb                	mov    ecx,ebx
  40716a:	89 7d 20             	mov    DWORD PTR [ebp+0x20],edi
  40716d:	5a                   	pop    edx
  40716e:	33 c0                	xor    eax,eax
  407170:	39 44 8d 90          	cmp    DWORD PTR [ebp+ecx*4-0x70],eax
  407174:	75 05                	jne    0x40717b
  407176:	41                   	inc    ecx
  407177:	3b ca                	cmp    ecx,edx
  407179:	76 f3                	jbe    0x40716e
  40717b:	3b f9                	cmp    edi,ecx
  40717d:	89 4d fc             	mov    DWORD PTR [ebp-0x4],ecx
  407180:	73 03                	jae    0x407185
  407182:	89 4d 20             	mov    DWORD PTR [ebp+0x20],ecx
  407185:	39 44 95 90          	cmp    DWORD PTR [ebp+edx*4-0x70],eax
  407189:	75 03                	jne    0x40718e
  40718b:	4a                   	dec    edx
  40718c:	75 f7                	jne    0x407185
  40718e:	39 55 20             	cmp    DWORD PTR [ebp+0x20],edx
  407191:	89 55 e8             	mov    DWORD PTR [ebp-0x18],edx
  407194:	76 03                	jbe    0x407199
  407196:	89 55 20             	mov    DWORD PTR [ebp+0x20],edx
  407199:	8b 7d 20             	mov    edi,DWORD PTR [ebp+0x20]
  40719c:	89 3e                	mov    DWORD PTR [esi],edi
  40719e:	d3 e3                	shl    ebx,cl
  4071a0:	eb 0d                	jmp    0x4071af
  4071a2:	2b 5c 8d 90          	sub    ebx,DWORD PTR [ebp+ecx*4-0x70]
  4071a6:	0f 88 9f 02 00 00    	js     0x40744b
  4071ac:	41                   	inc    ecx
  4071ad:	03 db                	add    ebx,ebx
  4071af:	3b ca                	cmp    ecx,edx
  4071b1:	72 ef                	jb     0x4071a2
  4071b3:	8b f2                	mov    esi,edx
  4071b5:	c1 e6 02             	shl    esi,0x2
  4071b8:	8d 4c 35 90          	lea    ecx,[ebp+esi*1-0x70]
  4071bc:	8b 39                	mov    edi,DWORD PTR [ecx]
  4071be:	2b df                	sub    ebx,edi
  4071c0:	89 5d d0             	mov    DWORD PTR [ebp-0x30],ebx
  4071c3:	0f 88 82 02 00 00    	js     0x40744b
  4071c9:	03 fb                	add    edi,ebx
  4071cb:	89 85 54 ff ff ff    	mov    DWORD PTR [ebp-0xac],eax
  4071d1:	89 39                	mov    DWORD PTR [ecx],edi
  4071d3:	33 c9                	xor    ecx,ecx
  4071d5:	4a                   	dec    edx
  4071d6:	74 13                	je     0x4071eb
  4071d8:	33 ff                	xor    edi,edi
  4071da:	03 4c 3d 94          	add    ecx,DWORD PTR [ebp+edi*1-0x6c]
  4071de:	83 c7 04             	add    edi,0x4
  4071e1:	4a                   	dec    edx
  4071e2:	89 8c 3d 54 ff ff ff 	mov    DWORD PTR [ebp+edi*1-0xac],ecx
  4071e9:	75 ef                	jne    0x4071da
  4071eb:	8b 5d 08             	mov    ebx,DWORD PTR [ebp+0x8]
  4071ee:	33 ff                	xor    edi,edi
  4071f0:	8b 0b                	mov    ecx,DWORD PTR [ebx]
  4071f2:	83 c3 04             	add    ebx,0x4
  4071f5:	3b c8                	cmp    ecx,eax
  4071f7:	74 13                	je     0x40720c
  4071f9:	8d 8c 8d 50 ff ff ff 	lea    ecx,[ebp+ecx*4-0xb0]
  407200:	8b 11                	mov    edx,DWORD PTR [ecx]
  407202:	89 3c 95 b0 d6 42 00 	mov    DWORD PTR [edx*4+0x42d6b0],edi
  407209:	42                   	inc    edx
  40720a:	89 11                	mov    DWORD PTR [ecx],edx
  40720c:	47                   	inc    edi
  40720d:	3b 7d 0c             	cmp    edi,DWORD PTR [ebp+0xc]
  407210:	72 de                	jb     0x4071f0
  407212:	8b 8c 35 50 ff ff ff 	mov    ecx,DWORD PTR [ebp+esi*1-0xb0]
  407219:	8b 5d 20             	mov    ebx,DWORD PTR [ebp+0x20]
  40721c:	83 4d f4 ff          	or     DWORD PTR [ebp-0xc],0xffffffff
  407220:	83 65 dc 00          	and    DWORD PTR [ebp-0x24],0x0
  407224:	89 4d 0c             	mov    DWORD PTR [ebp+0xc],ecx
  407227:	8b 4d fc             	mov    ecx,DWORD PTR [ebp-0x4]
  40722a:	f7 db                	neg    ebx
  40722c:	3b 4d e8             	cmp    ecx,DWORD PTR [ebp-0x18]
  40722f:	89 45 f8             	mov    DWORD PTR [ebp-0x8],eax
  407232:	89 85 50 ff ff ff    	mov    DWORD PTR [ebp-0xb0],eax
  407238:	c7 45 e0 b0 d6 42 00 	mov    DWORD PTR [ebp-0x20],0x42d6b0
  40723f:	89 85 14 ff ff ff    	mov    DWORD PTR [ebp-0xec],eax
  407245:	0f 8f f3 01 00 00    	jg     0x40743e
  40724b:	8d 51 ff             	lea    edx,[ecx-0x1]
  40724e:	8d 4c 8d 90          	lea    ecx,[ebp+ecx*4-0x70]
  407252:	89 55 d8             	mov    DWORD PTR [ebp-0x28],edx
  407255:	89 4d e4             	mov    DWORD PTR [ebp-0x1c],ecx
  407258:	8b 4d e4             	mov    ecx,DWORD PTR [ebp-0x1c]
  40725b:	8b 31                	mov    esi,DWORD PTR [ecx]
  40725d:	85 f6                	test   esi,esi
  40725f:	0f 84 c3 01 00 00    	je     0x407428
  407265:	eb 03                	jmp    0x40726a
  407267:	8b 75 d4             	mov    esi,DWORD PTR [ebp-0x2c]
  40726a:	8b 4d 20             	mov    ecx,DWORD PTR [ebp+0x20]
  40726d:	4e                   	dec    esi
  40726e:	03 cb                	add    ecx,ebx
  407270:	89 75 d4             	mov    DWORD PTR [ebp-0x2c],esi
  407273:	39 4d fc             	cmp    DWORD PTR [ebp-0x4],ecx
  407276:	89 4d ec             	mov    DWORD PTR [ebp-0x14],ecx
  407279:	0f 8e cc 00 00 00    	jle    0x40734b
  40727f:	46                   	inc    esi
  407280:	89 75 f0             	mov    DWORD PTR [ebp-0x10],esi
  407283:	8b 75 e8             	mov    esi,DWORD PTR [ebp-0x18]
  407286:	ff 45 f4             	inc    DWORD PTR [ebp-0xc]
  407289:	2b 75 ec             	sub    esi,DWORD PTR [ebp-0x14]
  40728c:	3b 75 20             	cmp    esi,DWORD PTR [ebp+0x20]
  40728f:	76 03                	jbe    0x407294
  407291:	8b 75 20             	mov    esi,DWORD PTR [ebp+0x20]
  407294:	8b 4d fc             	mov    ecx,DWORD PTR [ebp-0x4]
  407297:	33 d2                	xor    edx,edx
  407299:	2b 4d ec             	sub    ecx,DWORD PTR [ebp-0x14]
  40729c:	42                   	inc    edx
  40729d:	d3 e2                	shl    edx,cl
  40729f:	3b 55 f0             	cmp    edx,DWORD PTR [ebp-0x10]
  4072a2:	76 23                	jbe    0x4072c7
  4072a4:	8b 7d e4             	mov    edi,DWORD PTR [ebp-0x1c]
  4072a7:	83 c8 ff             	or     eax,0xffffffff
  4072aa:	2b 45 d4             	sub    eax,DWORD PTR [ebp-0x2c]
  4072ad:	03 d0                	add    edx,eax
  4072af:	3b ce                	cmp    ecx,esi
  4072b1:	73 14                	jae    0x4072c7
  4072b3:	eb 0d                	jmp    0x4072c2
  4072b5:	83 c7 04             	add    edi,0x4
  4072b8:	03 d2                	add    edx,edx
  4072ba:	8b 07                	mov    eax,DWORD PTR [edi]
  4072bc:	3b d0                	cmp    edx,eax
  4072be:	76 07                	jbe    0x4072c7
  4072c0:	2b d0                	sub    edx,eax
  4072c2:	41                   	inc    ecx
  4072c3:	3b ce                	cmp    ecx,esi
  4072c5:	72 ee                	jb     0x4072b5
  4072c7:	8b 55 28             	mov    edx,DWORD PTR [ebp+0x28]
  4072ca:	33 c0                	xor    eax,eax
  4072cc:	40                   	inc    eax
  4072cd:	8b 12                	mov    edx,DWORD PTR [edx]
  4072cf:	d3 e0                	shl    eax,cl
  4072d1:	89 45 dc             	mov    DWORD PTR [ebp-0x24],eax
  4072d4:	8d 3c 02             	lea    edi,[edx+eax*1]
  4072d7:	81 ff a0 05 00 00    	cmp    edi,0x5a0
  4072dd:	0f 87 68 01 00 00    	ja     0x40744b
  4072e3:	8b 45 24             	mov    eax,DWORD PTR [ebp+0x24]
  4072e6:	8d 04 90             	lea    eax,[eax+edx*4]
  4072e9:	8b 55 f4             	mov    edx,DWORD PTR [ebp-0xc]
  4072ec:	8d b4 95 14 ff ff ff 	lea    esi,[ebp+edx*4-0xec]
  4072f3:	8b 55 28             	mov    edx,DWORD PTR [ebp+0x28]
  4072f6:	89 3a                	mov    DWORD PTR [edx],edi
  4072f8:	8b 55 f4             	mov    edx,DWORD PTR [ebp-0xc]
  4072fb:	85 d2                	test   edx,edx
  4072fd:	89 06                	mov    DWORD PTR [esi],eax
  4072ff:	74 31                	je     0x407332
  407301:	8b 7d f8             	mov    edi,DWORD PTR [ebp-0x8]
  407304:	8b 76 fc             	mov    esi,DWORD PTR [esi-0x4]
  407307:	89 bc 95 50 ff ff ff 	mov    DWORD PTR [ebp+edx*4-0xb0],edi
  40730e:	8a 55 20             	mov    dl,BYTE PTR [ebp+0x20]
  407311:	88 55 09             	mov    BYTE PTR [ebp+0x9],dl
  407314:	88 4d 08             	mov    BYTE PTR [ebp+0x8],cl
  407317:	8b d7                	mov    edx,edi
  407319:	8b cb                	mov    ecx,ebx
  40731b:	d3 ea                	shr    edx,cl
  40731d:	8b c8                	mov    ecx,eax
  40731f:	2b ce                	sub    ecx,esi
  407321:	c1 f9 02             	sar    ecx,0x2
  407324:	2b ca                	sub    ecx,edx
  407326:	66 89 4d 0a          	mov    WORD PTR [ebp+0xa],cx
  40732a:	8b 4d 08             	mov    ecx,DWORD PTR [ebp+0x8]
  40732d:	89 0c 96             	mov    DWORD PTR [esi+edx*4],ecx
  407330:	eb 05                	jmp    0x407337
  407332:	8b 4d 1c             	mov    ecx,DWORD PTR [ebp+0x1c]
  407335:	89 01                	mov    DWORD PTR [ecx],eax
  407337:	8b 4d ec             	mov    ecx,DWORD PTR [ebp-0x14]
  40733a:	8b d9                	mov    ebx,ecx
  40733c:	03 4d 20             	add    ecx,DWORD PTR [ebp+0x20]
  40733f:	39 4d fc             	cmp    DWORD PTR [ebp-0x4],ecx
  407342:	89 4d ec             	mov    DWORD PTR [ebp-0x14],ecx
  407345:	0f 8f 38 ff ff ff    	jg     0x407283
  40734b:	8a 4d fc             	mov    cl,BYTE PTR [ebp-0x4]
  40734e:	8b 75 e0             	mov    esi,DWORD PTR [ebp-0x20]
  407351:	2a cb                	sub    cl,bl
  407353:	88 4d 09             	mov    BYTE PTR [ebp+0x9],cl
  407356:	8b 4d 0c             	mov    ecx,DWORD PTR [ebp+0xc]
  407359:	8d 0c 8d b0 d6 42 00 	lea    ecx,[ecx*4+0x42d6b0]
  407360:	3b f1                	cmp    esi,ecx
  407362:	72 06                	jb     0x40736a
  407364:	c6 45 08 c0          	mov    BYTE PTR [ebp+0x8],0xc0
  407368:	eb 43                	jmp    0x4073ad
  40736a:	8b 0e                	mov    ecx,DWORD PTR [esi]
  40736c:	3b 4d 10             	cmp    ecx,DWORD PTR [ebp+0x10]
  40736f:	73 1c                	jae    0x40738d
  407371:	81 f9 00 01 00 00    	cmp    ecx,0x100
  407377:	0f 92 c1             	setb   cl
  40737a:	fe c9                	dec    cl
  40737c:	83 e1 60             	and    ecx,0x60
  40737f:	88 4d 08             	mov    BYTE PTR [ebp+0x8],cl
  407382:	66 8b 0e             	mov    cx,WORD PTR [esi]
  407385:	83 c6 04             	add    esi,0x4
  407388:	89 75 e0             	mov    DWORD PTR [ebp-0x20],esi
  40738b:	eb 1c                	jmp    0x4073a9
  40738d:	2b 4d 10             	sub    ecx,DWORD PTR [ebp+0x10]
  407390:	8b 55 18             	mov    edx,DWORD PTR [ebp+0x18]
  407393:	03 c9                	add    ecx,ecx
  407395:	8a 14 11             	mov    dl,BYTE PTR [ecx+edx*1]
  407398:	80 c2 50             	add    dl,0x50
  40739b:	83 45 e0 04          	add    DWORD PTR [ebp-0x20],0x4
  40739f:	88 55 08             	mov    BYTE PTR [ebp+0x8],dl
  4073a2:	8b 55 14             	mov    edx,DWORD PTR [ebp+0x14]
  4073a5:	66 8b 0c 11          	mov    cx,WORD PTR [ecx+edx*1]
  4073a9:	66 89 4d 0a          	mov    WORD PTR [ebp+0xa],cx
  4073ad:	8b 4d fc             	mov    ecx,DWORD PTR [ebp-0x4]
  4073b0:	8b 55 f8             	mov    edx,DWORD PTR [ebp-0x8]
  4073b3:	33 ff                	xor    edi,edi
  4073b5:	2b cb                	sub    ecx,ebx
  4073b7:	47                   	inc    edi
  4073b8:	8b f7                	mov    esi,edi
  4073ba:	d3 e6                	shl    esi,cl
  4073bc:	8b cb                	mov    ecx,ebx
  4073be:	d3 ea                	shr    edx,cl
  4073c0:	eb 08                	jmp    0x4073ca
  4073c2:	8b 4d 08             	mov    ecx,DWORD PTR [ebp+0x8]
  4073c5:	89 0c 90             	mov    DWORD PTR [eax+edx*4],ecx
  4073c8:	03 d6                	add    edx,esi
  4073ca:	3b 55 dc             	cmp    edx,DWORD PTR [ebp-0x24]
  4073cd:	72 f3                	jb     0x4073c2
  4073cf:	8b 4d d8             	mov    ecx,DWORD PTR [ebp-0x28]
  4073d2:	8b 75 f8             	mov    esi,DWORD PTR [ebp-0x8]
  4073d5:	8b d7                	mov    edx,edi
  4073d7:	d3 e2                	shl    edx,cl
  4073d9:	eb 04                	jmp    0x4073df
  4073db:	33 f2                	xor    esi,edx
  4073dd:	d1 ea                	shr    edx,1
  4073df:	85 d6                	test   esi,edx
  4073e1:	75 f8                	jne    0x4073db
  4073e3:	8b cf                	mov    ecx,edi
  4073e5:	33 f2                	xor    esi,edx
  4073e7:	89 4d f0             	mov    DWORD PTR [ebp-0x10],ecx
  4073ea:	8b cb                	mov    ecx,ebx
  4073ec:	8b d7                	mov    edx,edi
  4073ee:	89 75 f8             	mov    DWORD PTR [ebp-0x8],esi
  4073f1:	d3 e2                	shl    edx,cl
  4073f3:	4a                   	dec    edx
  4073f4:	23 d6                	and    edx,esi
  4073f6:	8b ca                	mov    ecx,edx
  4073f8:	8b 55 f4             	mov    edx,DWORD PTR [ebp-0xc]
  4073fb:	3b 8c 95 50 ff ff ff 	cmp    ecx,DWORD PTR [ebp+edx*4-0xb0]
  407402:	74 1a                	je     0x40741e
  407404:	2b 5d 20             	sub    ebx,DWORD PTR [ebp+0x20]
  407407:	8b f7                	mov    esi,edi
  407409:	4a                   	dec    edx
  40740a:	8b cb                	mov    ecx,ebx
  40740c:	d3 e6                	shl    esi,cl
  40740e:	4e                   	dec    esi
  40740f:	23 75 f8             	and    esi,DWORD PTR [ebp-0x8]
  407412:	3b b4 95 50 ff ff ff 	cmp    esi,DWORD PTR [ebp+edx*4-0xb0]
  407419:	75 e9                	jne    0x407404
  40741b:	89 55 f4             	mov    DWORD PTR [ebp-0xc],edx
  40741e:	83 7d d4 00          	cmp    DWORD PTR [ebp-0x2c],0x0
  407422:	0f 85 3f fe ff ff    	jne    0x407267
  407428:	ff 45 fc             	inc    DWORD PTR [ebp-0x4]
  40742b:	83 45 e4 04          	add    DWORD PTR [ebp-0x1c],0x4
  40742f:	8b 4d fc             	mov    ecx,DWORD PTR [ebp-0x4]
  407432:	ff 45 d8             	inc    DWORD PTR [ebp-0x28]
  407435:	3b 4d e8             	cmp    ecx,DWORD PTR [ebp-0x18]
  407438:	0f 8e 1a fe ff ff    	jle    0x407258
  40743e:	33 c0                	xor    eax,eax
  407440:	39 45 d0             	cmp    DWORD PTR [ebp-0x30],eax
  407443:	74 09                	je     0x40744e
  407445:	83 7d e8 01          	cmp    DWORD PTR [ebp-0x18],0x1
  407449:	74 03                	je     0x40744e
  40744b:	83 c8 ff             	or     eax,0xffffffff
  40744e:	5f                   	pop    edi
  40744f:	5e                   	pop    esi
  407450:	5b                   	pop    ebx
  407451:	c9                   	leave  
  407452:	c2 24 00             	ret    0x24

