../malSamples/samples/Ransomware-exe-3b0cf9bc480a7fc4a560ab26cd35a72313b1fa49bf6ef208c434a32b3f1588c4

md5
c975edf27d1683d844191ad565c63bf8

sha1
f79f406e7a73b0578836fb6e182da96db1766e1f

sha256
3b0cf9bc480a7fc4a560ab26cd35a72313b1fa49bf6ef208c434a32b3f1588c4

strings
[Strings]
nth paddr      vaddr      len size section type    string
―――――――――――――――――――――――――――――――――――――――――――――――――――――――――
0   0x0000c848 0x0040e048 5   12   .rdata  utf16le State
1   0x0000c854 0x0040e054 7   16   .rdata  utf16le Running
2   0x0000c864 0x0040e064 8   18   .rdata  utf16le GetOwner
3   0x0000c878 0x0040e078 4   10   .rdata  utf16le User
4   0x0000c884 0x0040e084 6   14   .rdata  utf16le Domain
5   0x0000c894 0x0040e094 4   10   .rdata  utf16le Name
6   0x0000c8a0 0x0040e0a0 6   14   .rdata  utf16le ntuser
7   0x0000c8cc 0x0040e0cc 11  24   .rdata  utf16le DTrump4ever
8   0x0000c8f4 0x0040e0f4 17  36   .rdata  utf16le ERR0R D0UBLE RUN!
9   0x0000c945 0x0040e145 4   5    .rdata  ascii   K.$t
10  0x0000c975 0x0040e175 5   6    .rdata  ascii   K.$( 
11  0x0000c995 0x0040e195 4   5    .rdata  ascii   K.$A
12  0x0000c9a8 0x0040e1a8 11  24   .rdata  utf16le compute.exe
13  0x0000c9c0 0x0040e1c0 8   18   .rdata  utf16le vmms.exe
14  0x0000c9d4 0x0040e1d4 8   18   .rdata  utf16le vmwp.exe
15  0x0000c9e8 0x0040e1e8 11  24   .rdata  utf16le svchost.exe
16  0x0000ca00 0x0040e200 14  30   .rdata  utf16le ServicesActive
17  0x0000ca20 0x0040e220 5   6    .rdata  ascii   5(O/9
18  0x0000ca2b 0x0040e22b 4   5    .rdata  ascii   _)RN
19  0x0000ca30 0x0040e230 10  11   .rdata  ascii   81,(-VFU,S
20  0x0000ca3f 0x0040e23f 9   10   .rdata  ascii   $,X[=\+63
21  0x0000ca57 0x0040e257 5   6    .rdata  ascii   \a\b\t.G
22  0x0000ca61 0x0040e261 4   5    .rdata  ascii   \n\v\f\r
23  0x0000ca6a 0x0040e26a 5   6    .rdata  ascii   2([Z%
24  0x0000ca72 0x0040e272 9   10   .rdata  ascii   HF^EUCb^-
25  0x0000ca7f 0x0040e27f 6   7    .rdata  ascii   =%\n\v\f\r
26  0x0000ca87 0x0040e287 10  11   .rdata  ascii   \eBG6J?N&\1
27  0x0000ca92 0x0040e292 6   7    .rdata  ascii   ZJ)aP 
28  0x0000ca99 0x0040e299 6   7    .rdata  ascii   -]8Ta7
29  0x0000caa0 0x0040e2a0 8   9    .rdata  ascii   \e Wb9*;]
30  0x0000caa9 0x0040e2a9 5   6    .rdata  ascii   M]6,W
31  0x0000cabb 0x0040e2bb 4   5    .rdata  ascii   `D),
32  0x0000cac0 0x0040e2c0 9   10   .rdata  ascii   "VB2H/N5F
33  0x0000cad0 0x0040e2d0 7   8    .rdata  ascii   WU-!'+N
34  0x0000cad8 0x0040e2d8 6   7    .rdata  ascii    _XB7`
35  0x0000cae4 0x0040e2e4 12  13   .rdata  ascii   FFP>M=R/1"_c
36  0x0000cb02 0x0040e302 8   9    .rdata  ascii   '#[+c!)<
37  0x0000cb0c 0x0040e30c 4   5    .rdata  ascii   $bPc
38  0x0000cb11 0x0040e311 7   8    .rdata  ascii   Z&P&<H(
39  0x0000cb34 0x0040e334 14  30   .rdata  utf16le are added by R
40  0x0000cb54 0x0040e354 32  33   .rdata  ascii   expand 32-byte kexpand 16-byte k
41  0x0000cb79 0x0040e379 5   7    .rdata  utf8    ccƄ|| blocks=Basic Latin,Latin Extended-B
42  0x0000cb8d 0x0040e38d 5   7    .rdata  utf8    kkֱoo blocks=Basic Latin,Hebrew
43  0x0000cb96 0x0040e396 5   7    .rdata  utf8    őP00` blocks=Latin Extended-A,Basic Latin
44  0x0000cba4 0x0040e3a4 4   5    .rdata  ascii   }++V
45  0x0000cc03 0x0040e403 13  14   .rdata  ascii   =j&&LZ66lA??~
46  0x0000cc16 0x0040e416 5   7    .rdata  utf8    ̃\44h blocks=Combining Diacritical Marks,Basic Latin
47  0x0000cc2e 0x0040e42e 6   8    .rdata  utf8    ثS11b? blocks=Arabic,Basic Latin
48  0x0000cc3e 0x0040e43e 6   8    .rdata  utf8    Ǖe##F^ blocks=Latin Extended-B,Basic Latin
49  0x0000cc57 0x0040e457 4   5    .rdata  ascii   /\t\a\a
50  0x0000cc6c 0x0040e46c 5   7    .rdata  utf8    i''NͲ blocks=Basic Latin,Greek and Coptic
51  0x0000cc80 0x0040e480 5   6    .rdata  ascii   t,,X.
52  0x0000cc87 0x0040e487 5   6    .rdata  ascii   4-\e\e6
53  0x0000cc9c 0x0040e49c 5   6    .rdata  ascii   M;;va
54  0x0000cca7 0x0040e4a7 6   7    .rdata  ascii   }{))R>
55  0x0000ccb0 0x0040e4b0 4   5    .rdata  ascii   q//^
56  0x0000ccc8 0x0040e4c8 4   5    .rdata  ascii   `  @
57  0x0000cce3 0x0040e4e3 5   6    .rdata  ascii   gK99r
58  0x0000cd10 0x0040e510 4   5    .rdata  ascii   U33f
59  0x0000cd2c 0x0040e52c 4   5    .rdata  ascii   D<<x
60  0x0000cd4f 0x0040e54f 5   6    .rdata  ascii   !H88p
61  0x0000cd62 0x0040e562 6   8    .rdata  utf8    گc!!B0 blocks=Arabic,Basic Latin
62  0x0000cda4 0x0040e5a4 4   5    .rdata  ascii   G==z
63  0x0000cdc6 0x0040e5c6 9   11   .rdata  utf8    ܣf""D~**T blocks=Syriac,Basic Latin
64  0x0000cdfc 0x0040e5fc 8   9    .rdata  ascii   V22dN::t
65  0x0000ce0f 0x0040e60f 5   6    .rdata  ascii   \fl$$H
66  0x0000ce3e 0x0040e63e 5   7    .rdata  utf8    ȋY77n blocks=Latin Extended-B,Basic Latin
67  0x0000ce67 0x0040e667 6   9    .rdata  utf8    ϯeeʎzz blocks=Greek and Coptic,Basic Latin,IPA Extensions
68  0x0000ce80 0x0040e680 9   10   .rdata  ascii   o%%Jr..\$
69  0x0000cebc 0x0040e6bc 5   7    .rdata  utf8    B>>|ĵ blocks=Basic Latin,Latin Extended-A
70  0x0000cedc 0x0040e6dc 4   5    .rdata  ascii   _55j
71  0x0000cf30 0x0040e730 5   6    .rdata  ascii   x((Pz
72  0x0000cf5f 0x0040e75f 5   6    .rdata  ascii   )w--Z
73  0x0000cf77 0x0040e777 6   8    .rdata  utf8    ,ccƥ|| blocks=Basic Latin,Latin Extended-B
74  0x0000cf8b 0x0040e78b 7   10   .rdata  utf8    \rkkֽooޱ blocks=Basic Latin,Hebrew,Thaana
75  0x0000cf95 0x0040e795 6   8    .rdata  utf8    őT00`P blocks=Latin Extended-A,Basic Latin
76  0x0000cfa0 0x0040e7a0 7   9    .rdata  utf8    ggΩ++V} blocks=Basic Latin,Greek and Coptic
77  0x0000cfc1 0x0040e7c1 4   6    .rdata  utf8    ɉ@}} blocks=Latin Extended-B,Basic Latin
78  0x0000d004 0x0040e804 12  13   .rdata  ascii   &&Lj66lZ??~A
79  0x0000d015 0x0040e815 6   8    .rdata  utf8    ̃O44h\ blocks=Combining Diacritical Marks,Basic Latin
80  0x0000d02d 0x0040e82d 6   8    .rdata  utf8    ثs11bS blocks=Arabic,Basic Latin
81  0x0000d03d 0x0040e83d 6   8    .rdata  utf8    ǕR##Fe blocks=Latin Extended-B,Basic Latin
82  0x0000d06b 0x0040e86b 5   6    .rdata  ascii   &''Ni
83  0x0000d080 0x0040e880 4   5    .rdata  ascii   ,,Xt
84  0x0000d086 0x0040e886 11  13   .rdata  utf8    4.\e\e6-nnܲZZ blocks=Basic Latin,Syriac
85  0x0000d09c 0x0040e89c 4   5    .rdata  ascii   ;;vM
86  0x0000d0a8 0x0040e8a8 4   5    .rdata  ascii   ))R{
87  0x0000d0af 0x0040e8af 5   6    .rdata  ascii   >//^q
88  0x0000d0c7 0x0040e8c7 5   6    .rdata  ascii   ,  @`
89  0x0000d0e4 0x0040e8e4 6   7    .rdata  ascii   99rKJJ
90  0x0000d110 0x0040e910 4   5    .rdata  ascii   33fU
91  0x0000d12c 0x0040e92c 4   5    .rdata  ascii   <<xD
92  0x0000d150 0x0040e950 4   5    .rdata  ascii   88pH
93  0x0000d161 0x0040e961 6   8    .rdata  utf8    گu!!Bc blocks=Arabic,Basic Latin
94  0x0000d179 0x0040e979 4   6    .rdata  utf8    ́L\f\f blocks=Combining Diacritical Marks,Basic Latin
95  0x0000d1a4 0x0040e9a4 9   11   .rdata  utf8    ==zGddȬ]] blocks=Basic Latin,Latin Extended-B
96  0x0000d1b2 0x0040e9b2 4   5    .rdata  ascii   2+ss
97  0x0000d1c8 0x0040e9c8 8   9    .rdata  ascii   ""Df**T~
98  0x0000d1e9 0x0040e9e9 4   6    .rdata  utf8    ާy^^ blocks=Thaana,Basic Latin
99  0x0000d1fb 0x0040e9fb 11  12   .rdata  ascii   ;22dV::tN\n\n
100 0x0000d20e 0x0040ea0e 8   9    .rdata  ascii   \f\n$$Hl\\
101 0x0000d23d 0x0040ea3d 9   12   .rdata  utf8    ȋC77nYmmڷ blocks=Latin Extended-B,Basic Latin,Arabic
102 0x0000d24d 0x0040ea4d 4   6    .rdata  utf8    ձdNN blocks=Armenian,Basic Latin
103 0x0000d258 0x0040ea58 5   7    .rdata  utf8    llشVV blocks=Basic Latin,Arabic
104 0x0000d267 0x0040ea67 8   13   .rdata  utf8    %eeʯzz􎮮G blocks=Basic Latin,IPA Extensions,Supplementary Private Use Area-B
105 0x0000d280 0x0040ea80 8   9    .rdata  ascii   %%Jo..\r
106 0x0000d29d 0x0040ea9d 4   6    .rdata  utf8    ݡ|tt blocks=Arabic Supplement,Basic Latin
107 0x0000d2a6 0x0040eaa6 4   5    .rdata  ascii   >!KK
108 0x0000d2bc 0x0040eabc 4   5    .rdata  ascii   >>|B
109 0x0000d2c4 0x0040eac4 5   7    .rdata  utf8    ff̪HH blocks=Basic Latin,Combining Diacritical Marks
110 0x0000d2d8 0x0040ead8 9   11   .rdata  utf8    aa£55j_WW blocks=Basic Latin,Latin-1 Supplement
111 0x0000d306 0x0040eb06 5   7    .rdata  utf8    "3iiһ blocks=Basic Latin,Cyrillic
112 0x0000d329 0x0040eb29 4   6    .rdata  utf8    ·IUU blocks=Greek and Coptic,Basic Latin
113 0x0000d330 0x0040eb30 4   5    .rdata  ascii   ((Px
114 0x0000d354 0x0040eb54 5   7    .rdata  utf8    hhиAA blocks=Basic Latin,Cyrillic
115 0x0000d360 0x0040eb60 4   5    .rdata  ascii   --Zw
116 0x0000d376 0x0040eb76 6   8    .rdata  utf8    ,:cƥc| blocks=Basic Latin,Latin Extended-B
117 0x0000d38c 0x0040eb8c 8   12   .rdata  utf8    kֽkoޱoőT blocks=Basic Latin,Hebrew,Thaana,Latin Extended-A
118 0x0000d398 0x0040eb98 4   5    .rdata  ascii   0`P0
119 0x0000d3a0 0x0040eba0 7   9    .rdata  utf8    gΩg+V}+ blocks=Basic Latin,Greek and Coptic
120 0x0000d3b7 0x0040ebb7 4   7    .rdata  utf8    vʏEʂ blocks=Basic Latin,IPA Extensions
121 0x0000d3dc 0x0040ebdc 4   7    .rdata  utf8    ԳgԢ_ blocks=Armenian,Basic Latin,Cyrillic Supplement
122 0x0000d3f3 0x0040ebf3 6   10   .rdata  utf8    r\e[7u· blocks=Basic Latin,Latin-1 Supplement
123 0x0000d404 0x0040ec04 12  13   .rdata  ascii   &Lj&6lZ6?~A?
124 0x0000d418 0x0040ec18 4   5    .rdata  ascii   4h\4
125 0x0000d430 0x0040ec30 4   5    .rdata  ascii   1bS1
126 0x0000d440 0x0040ec40 6   8    .rdata  utf8    #Fe#Ý^ blocks=Basic Latin,Latin-1 Supplement
127 0x0000d46c 0x0040ec6c 4   5    .rdata  ascii   'Ni'
128 0x0000d480 0x0040ec80 4   5    .rdata  ascii   ,Xt,
129 0x0000d488 0x0040ec88 8   10   .rdata  utf8    \e6-\enܲnZ blocks=Basic Latin,Syriac
130 0x0000d49b 0x0040ec9b 14  18   .rdata  utf8    R;vM;ַaֳ}γ)R{) blocks=Basic Latin,Hebrew,Greek and Coptic
131 0x0000d4b0 0x0040ecb0 4   5    .rdata  ascii   /^q/
132 0x0000d4c8 0x0040ecc8 4   5    .rdata  ascii    @` 
133 0x0000d4d7 0x0040ecd7 14  19   .rdata  utf8    [jԾjˍF˾gپ9rK9J blocks=Basic Latin,Armenian,Spacing Modifier Letters,Arabic
134 0x0000d50f 0x0040ed0f 5   6    .rdata  ascii   M3fU3
135 0x0000d52b 0x0040ed2b 5   6    .rdata  ascii   P<xD<
136 0x0000d550 0x0040ed50 4   5    .rdata  ascii   8pH8
137 0x0000d55d 0x0040ed5d 4   7    .rdata  utf8    wvگu blocks=Basic Latin,Arabic
138 0x0000d564 0x0040ed64 4   5    .rdata  ascii   !Bc!
139 0x0000d598 0x0040ed98 4   7    .rdata  utf8    ēWħU blocks=Latin Extended-A,Basic Latin
140 0x0000d5a3 0x0040eda3 9   11   .rdata  utf8    ~=zG=dȬd] blocks=Basic Latin,Latin Extended-B
141 0x0000d5b7 0x0040edb7 4   6    .rdata  utf8    s` `
142 0x0000d5c8 0x0040edc8 8   9    .rdata  ascii   "Df"*T~*
143 0x0000d5fc 0x0040edfc 9   10   .rdata  ascii   2dV2:tN:\n
144 0x0000d610 0x0040ee10 5   6    .rdata  ascii   $Hl$\
145 0x0000d61c 0x0040ee1c 4   7    .rdata  utf8    ӽnӬC blocks=Cyrillic,Basic Latin
146 0x0000d640 0x0040ee40 7   9    .rdata  utf8    7nY7mڷm blocks=Basic Latin,Arabic
147 0x0000d658 0x0040ee58 4   6    .rdata  utf8    lشlV blocks=Basic Latin,Arabic
148 0x0000d668 0x0040ee68 4   6    .rdata  utf8    eʯez blocks=Basic Latin,IPA Extensions
149 0x0000d67f 0x0040ee7f 9   10   .rdata  ascii   x%Jo%.\r.
150 0x0000d691 0x0040ee91 4   7    .rdata  utf8    sǴƗQ blocks=Basic Latin,Latin Extended-B
151 0x0000d6bb 0x0040eebb 5   6    .rdata  ascii   p>|B>
152 0x0000d6c1 0x0040eec1 6   9    .rdata  utf8    qĵf̪fH blocks=Basic Latin,Latin Extended-A,Combining Diacritical Marks
153 0x0000d6d8 0x0040eed8 8   10   .rdata  utf8    a£a5j_5W blocks=Basic Latin,Latin-1 Supplement
154 0x0000d708 0x0040ef08 7   11   .rdata  utf8    iһi٩pَ\a blocks=Basic Latin,Cyrillic,Arabic
155 0x0000d72f 0x0040ef2f 8   11   .rdata  utf8    U(Px(ߥzߌ blocks=Basic Latin,NKo
156 0x0000d753 0x0040ef53 5   7    .rdata  utf8    BhиhA blocks=Basic Latin,Cyrillic
157 0x0000d760 0x0040ef60 4   5    .rdata  ascii   -Zw-
158 0x0000d78c 0x0040ef8c 6   9    .rdata  utf8    ֽkkޱoo blocks=Hebrew,Basic Latin,Thaana
159 0x0000d798 0x0040ef98 4   5    .rdata  ascii   `P00
160 0x0000d7a0 0x0040efa0 7   9    .rdata  utf8    ΩggV}++ blocks=Greek and Coptic,Basic Latin
161 0x0000d804 0x0040f004 12  13   .rdata  ascii   Lj&&lZ66~A??
162 0x0000d818 0x0040f018 5   6    .rdata  ascii   h\44Q
163 0x0000d830 0x0040f030 6   7    .rdata  ascii   bS11*?
164 0x0000d840 0x0040f040 4   5    .rdata  ascii   Fe##
165 0x0000d859 0x0040f059 5   6    .rdata  ascii   \t\a\a$6
166 0x0000d86c 0x0040f06c 4   5    .rdata  ascii   Ni''
167 0x0000d880 0x0040f080 6   7    .rdata  ascii   Xt,,4.
168 0x0000d888 0x0040f088 7   9    .rdata  utf8    6-\e\eܲnn blocks=Basic Latin,Syriac
169 0x0000d89a 0x0040f09a 6   7    .rdata  ascii   RRvM;;
170 0x0000d8a8 0x0040f0a8 4   5    .rdata  ascii   R{))
171 0x0000d8b0 0x0040f0b0 4   5    .rdata  ascii   ^q//
172 0x0000d8c8 0x0040f0c8 4   5    .rdata  ascii   @`  
173 0x0000d8d6 0x0040f0d6 5   7    .rdata  utf8    [[Ծjj blocks=Basic Latin,Armenian
174 0x0000d8e4 0x0040f0e4 4   5    .rdata  ascii   rK99
175 0x0000d90e 0x0040f10e 6   7    .rdata  ascii   MMfU33
176 0x0000d92a 0x0040f12a 7   8    .rdata  ascii   PPxD<<%
177 0x0000d950 0x0040f150 4   5    .rdata  ascii   pH88
178 0x0000d964 0x0040f164 6   7    .rdata  ascii   Bc!! 0
179 0x0000d97e 0x0040f17e 4   5    .rdata  ascii   \f\f&5
180 0x0000d992 0x0040f192 4   5    .rdata  ascii   DD.9
181 0x0000d9a2 0x0040f1a2 9   11   .rdata  utf8    ~~zG==Ȭdd blocks=Basic Latin,Latin Extended-B
182 0x0000d9ae 0x0040f1ae 4   5    .rdata  ascii   ]]2+
183 0x0000d9b6 0x0040f1b6 5   7    .rdata  utf8    ss ``
184 0x0000d9c8 0x0040f1c8 9   10   .rdata  ascii   Df""T~**;
185 0x0000d9fc 0x0040f1fc 8   9    .rdata  ascii   dV22tN::
186 0x0000da0a 0x0040f20a 4   5    .rdata  ascii   II\f\n
187 0x0000da10 0x0040f210 4   5    .rdata  ascii   Hl$$
188 0x0000da20 0x0040f220 6   10   .rdata  utf8    CשּׁĦbb9 blocks=Basic Latin,Alphabetic Presentation Forms,Latin Extended-A
189 0x0000da40 0x0040f240 7   9    .rdata  utf8    nY77ڷmm blocks=Basic Latin,Arabic
190 0x0000da52 0x0040f252 7   11   .rdata  utf8    NNI੩شll blocks=Basic Latin,Gurmukhi,Arabic
191 0x0000da6e 0x0040f26e 4   7    .rdata  utf8    zzG鮮 blocks=Basic Latin,CJK Unified Ideographs
192 0x0000da76 0x0040f276 4   6    .rdata  utf8    \b\boպ blocks=Basic Latin,Armenian
193 0x0000da7e 0x0040f27e 12  13   .rdata  ascii   xxJo%%\r..8$
194 0x0000daa2 0x0040f2a2 4   5    .rdata  ascii   tt>!
195 0x0000daaa 0x0040f2aa 4   6    .rdata  utf8    KKaܽ blocks=Basic Latin,Syriac
196 0x0000daba 0x0040f2ba 8   10   .rdata  utf8    pp|B>>qĵ blocks=Basic Latin,Latin Extended-A
197 0x0000dad8 0x0040f2d8 7   9    .rdata  utf8    £aaj_55 blocks=Latin-1 Supplement,Basic Latin
198 0x0000dae2 0x0040f2e2 4   6    .rdata  utf8    WWiй blocks=Basic Latin,Cyrillic
199 0x0000db2e 0x0040f32e 6   7    .rdata  ascii   UUPx((
200 0x0000db46 0x0040f346 4   6    .rdata  utf8    \r\reڿ blocks=Basic Latin,Arabic
201 0x0000db52 0x0040f352 5   7    .rdata  utf8    BBиhh blocks=Basic Latin,Cyrillic
202 0x0000db60 0x0040f360 4   5    .rdata  ascii   Zw--
203 0x0000db6e 0x0040f36e 4   6    .rdata  utf8    TTmֻ blocks=Basic Latin,Hebrew
204 0x0000db78 0x0040f378 16  17   .rdata  ascii   cccc||||wwww{{{{
205 0x0000db8c 0x0040f38c 8   9    .rdata  ascii   kkkkoooo
206 0x0000db98 0x0040f398 4   5    .rdata  ascii   0000
207 0x0000dba0 0x0040f3a0 8   9    .rdata  ascii   gggg++++
208 0x0000dbb4 0x0040f3b4 4   5    .rdata  ascii   vvvv
209 0x0000dbc4 0x0040f3c4 4   5    .rdata  ascii   }}}}
210 0x0000dbcc 0x0040f3cc 8   9    .rdata  ascii   YYYYGGGG
211 0x0000dbf0 0x0040f3f0 4   5    .rdata  ascii   rrrr
212 0x0000dc04 0x0040f404 12  13   .rdata  ascii   &&&&6666????
213 0x0000dc18 0x0040f418 4   5    .rdata  ascii   4444
214 0x0000dc28 0x0040f428 4   5    .rdata  ascii   qqqq
215 0x0000dc30 0x0040f430 4   5    .rdata  ascii   1111
216 0x0000dc40 0x0040f440 4   5    .rdata  ascii   ####
217 0x0000dc58 0x0040f458 4   5    .rdata  ascii   \a\a\a\a
218 0x0000dc6c 0x0040f46c 4   5    .rdata  ascii   ''''
219 0x0000dc74 0x0040f474 8   9    .rdata  ascii   uuuu\t\t\t\t
220 0x0000dc80 0x0040f480 4   5    .rdata  ascii   ,,,,
221 0x0000dc88 0x0040f488 12  13   .rdata  ascii   \e\e\e\ennnnZZZZ
222 0x0000dc98 0x0040f498 8   9    .rdata  ascii   RRRR;;;;
223 0x0000dca8 0x0040f4a8 4   5    .rdata  ascii   ))))
224 0x0000dcb0 0x0040f4b0 4   5    .rdata  ascii   ////
225 0x0000dcb8 0x0040f4b8 4   5    .rdata  ascii   SSSS
226 0x0000dcc8 0x0040f4c8 4   5    .rdata  ascii       
227 0x0000dcd4 0x0040f4d4 8   9    .rdata  ascii   [[[[jjjj
228 0x0000dce4 0x0040f4e4 16  17   .rdata  ascii   9999JJJJLLLLXXXX
229 0x0000dd08 0x0040f508 12  13   .rdata  ascii   CCCCMMMM3333
230 0x0000dd18 0x0040f518 4   5    .rdata  ascii   EEEE
231 0x0000dd28 0x0040f528 8   9    .rdata  ascii   PPPP<<<<
232 0x0000dd38 0x0040f538 4   5    .rdata  ascii   QQQQ
233 0x0000dd40 0x0040f540 4   5    .rdata  ascii   @@@@
234 0x0000dd50 0x0040f550 4   5    .rdata  ascii   8888
235 0x0000dd64 0x0040f564 4   5    .rdata  ascii   !!!!
236 0x0000dd7c 0x0040f57c 4   5    .rdata  ascii   \f\f\f\f
237 0x0000dd88 0x0040f588 4   5    .rdata  ascii   ____
238 0x0000dd90 0x0040f590 4   5    .rdata  ascii   DDDD
239 0x0000dda0 0x0040f5a0 16  17   .rdata  ascii   ~~~~====dddd]]]]
240 0x0000ddb4 0x0040f5b4 8   9    .rdata  ascii   ssss````
241 0x0000ddc0 0x0040f5c0 4   5    .rdata  ascii   OOOO
242 0x0000ddc8 0x0040f5c8 8   9    .rdata  ascii   """"****
243 0x0000ddd8 0x0040f5d8 4   5    .rdata  ascii   FFFF
244 0x0000ddec 0x0040f5ec 8   9    .rdata  ascii   ^^^^\v\v\v\v
245 0x0000ddfc 0x0040f5fc 16  17   .rdata  ascii   2222::::\n\n\n\nIIII
246 0x0000de10 0x0040f610 8   9    .rdata  ascii   $$$$\\\\
247 0x0000de24 0x0040f624 4   5    .rdata  ascii   bbbb
248 0x0000de34 0x0040f634 4   5    .rdata  ascii   yyyy
249 0x0000de40 0x0040f640 8   9    .rdata  ascii   7777mmmm
250 0x0000de50 0x0040f650 4   5    .rdata  ascii   NNNN
251 0x0000de58 0x0040f658 8   9    .rdata  ascii   llllVVVV
252 0x0000de68 0x0040f668 8   9    .rdata  ascii   eeeezzzz
253 0x0000de74 0x0040f674 4   5    .rdata  ascii   \b\b\b\b
254 0x0000de7c 0x0040f67c 12  13   .rdata  ascii   xxxx%%%%....
255 0x0000dea0 0x0040f6a0 4   5    .rdata  ascii   tttt
256 0x0000dea8 0x0040f6a8 4   5    .rdata  ascii   KKKK
257 0x0000deb8 0x0040f6b8 8   9    .rdata  ascii   pppp>>>>
258 0x0000dec4 0x0040f6c4 8   9    .rdata  ascii   ffffHHHH
259 0x0000ded8 0x0040f6d8 12  13   .rdata  ascii   aaaa5555WWWW
260 0x0000df08 0x0040f708 4   5    .rdata  ascii   iiii
261 0x0000df2c 0x0040f72c 8   9    .rdata  ascii   UUUU((((
262 0x0000df44 0x0040f744 4   5    .rdata  ascii   \r\r\r\r
263 0x0000df50 0x0040f750 12  13   .rdata  ascii   BBBBhhhhAAAA
264 0x0000df60 0x0040f760 4   5    .rdata  ascii   ----
265 0x0000df6c 0x0040f76c 4   5    .rdata  ascii   TTTT
266 0x0000df7b 0x0040f77b 6   8    .rdata  utf8    QSeA~ä blocks=Basic Latin,Latin-1 Supplement
267 0x0000dfa1 0x0040f7a1 4   6    .rdata  utf8    v̈%L blocks=Basic Latin,Combining Diacritical Marks
268 0x0000dfae 0x0040f7ae 5   7    .rdata  utf8    *ŀD5& blocks=Basic Latin,Latin Extended-A
269 0x0000dfed 0x0040f7ed 5   6    .rdata  ascii   !tX)i
270 0x0000e038 0x0040f838 4   5    .rdata  ascii   XhHp
271 0x0000e056 0x0040f856 4   5    .rdata  ascii   Uf\a(
272 0x0000e097 0x0040f897 4   6    .rdata  utf8    ĝS.4 blocks=Latin Extended-A,Basic Latin
273 0x0000e0f7 0x0040f8f7 4   5    .rdata  ascii   yG\n|
274 0x0000e114 0x0040f914 4   5    .rdata  ascii   NrZl
275 0x0000e121 0x0040f921 7   9    .rdata  utf8    ծ='9-6d blocks=Armenian,Basic Latin
276 0x0000e134 0x0040f934 4   5    .rdata  ascii   :.6$
277 0x0000e14f 0x0040f94f 5   6    .rdata  ascii   aiKwZ
278 0x0000e17b 0x0040f97b 4   5    .rdata  ascii   WL\au
279 0x0000e191 0x0040f991 5   6    .rdata  ascii   ;fD4~
280 0x0000e197 0x0040f997 4   5    .rdata  ascii   [v)C
281 0x0000e1ae 0x0040f9ae 4   5    .rdata  ascii   cB@"
282 0x0000e1b6 0x0040f9b6 4   6    .rdata  utf8    Ƅ}$J blocks=Latin Extended-B,Basic Latin
283 0x0000e202 0x0040fa02 5   9    .rdata  utf8    ʌ6\vԘρ blocks=IPA Extensions,Basic Latin,Cyrillic Supplement,Greek and Coptic
284 0x0000e222 0x0040fa22 6   7    .rdata  ascii   _jbF~T
285 0x0000e28b 0x0040fa8b 6   7    .rdata  ascii   11#?*0
286 0x0000e2f9 0x0040faf9 4   6    .rdata  utf8    aךz\f blocks=Basic Latin,Hebrew
287 0x0000e340 0x0040fb40 6   7    .rdata  ascii   ,4$8_@
288 0x0000e34c 0x0040fb4c 7   10   .rdata  utf8    \f%⼋I<(A blocks=Basic Latin,Kangxi Radicals
289 0x0000e370 0x0040fb70 6   7    .rdata  ascii   t\lHBW
290 0x0000e37a 0x0040fb7a 6   7    .rdata  ascii   QPeA~S
291 0x0000e399 0x0040fb99 5   6    .rdata  ascii   0 Umv
292 0x0000e3eb 0x0040fbeb 4   5    .rdata  ascii   -!tX
293 0x0000e425 0x0040fc25 5   6    .rdata  ascii   SbEwd
294 0x0000e438 0x0040fc38 4   5    .rdata  ascii   hHpX
295 0x0000e455 0x0040fc55 4   5    .rdata  ascii   Uf*(
296 0x0000e496 0x0040fc96 4   6    .rdata  utf8    ĊS.4 blocks=Latin Extended-A,Basic Latin
297 0x0000e4e6 0x0040fce6 4   7    .rdata  utf8    gwB谽 blocks=Basic Latin,CJK Unified Ideographs
298 0x0000e50d 0x0040fd0d 4   5    .rdata  ascii   +2Hp
299 0x0000e514 0x0040fd14 4   5    .rdata  ascii   rZlN
300 0x0000e524 0x0040fd24 4   5    .rdata  ascii   9-6'
301 0x0000e52d 0x0040fd2d 5   6    .rdata  ascii   \h!T[
302 0x0000e534 0x0040fd34 7   8    .rdata  ascii   .6$:g\n\f
303 0x0000e550 0x0040fd50 4   5    .rdata  ascii   KwZi
304 0x0000e596 0x0040fd96 4   5    .rdata  ascii   [4)C
305 0x0000e5b5 0x0040fdb5 4   6    .rdata  utf8    Ƅ $J blocks=Latin Extended-B,Basic Latin
306 0x0000e5f0 0x0040fdf0 6   8    .rdata  utf8    ,}Vؐ3" blocks=Basic Latin,Arabic
307 0x0000e624 0x0040fe24 4   5    .rdata  ascii   F~Tb
308 0x0000e66f 0x0040fe6f 4   6    .rdata  utf8    ~ϼ!\b blocks=Basic Latin,Greek and Coptic
309 0x0000e68c 0x0040fe8c 4   5    .rdata  ascii   #?*1
310 0x0000e696 0x0040fe96 6   9    .rdata  utf8    5<Nt7ʂ blocks=Basic Latin,IPA Extensions
311 0x0000e6d1 0x0040fed1 5   7    .rdata  utf8    ,xQeF
312 0x0000e72e 0x0040ff2e 4   5    .rdata  ascii   _[o=
313 0x0000e73f 0x0040ff3f 6   7    .rdata  ascii   >4$8,@
314 0x0000e74f 0x0040ff4f 4   5    .rdata  ascii   \fI<(
315 0x0000e76f 0x0040ff6f 6   7    .rdata  ascii   p\lHtW
316 0x0000e77c 0x0040ff7c 4   5    .rdata  ascii   A~Se
317 0x0000e7f1 0x0040fff1 5   7    .rdata  utf8    I)iɎD blocks=Basic Latin,Latin Extended-B
318 0x0000e822 0x00410022 5   6    .rdata  ascii   `3SbE
319 0x0000e837 0x00410037 6   7    .rdata  ascii   +HpXhE
320 0x0000e863 0x00410063 6   8    .rdata  utf8    {7ӥ\b(0 blocks=Basic Latin,Cyrillic
321 0x0000e8fa 0x004100fa 4   5    .rdata  ascii   G\nB|
322 0x0000e913 0x00410113 5   6    .rdata  ascii   pZlNr
323 0x0000e924 0x00410124 4   5    .rdata  ascii   -6'9
324 0x0000e933 0x00410133 7   8    .rdata  ascii   T6$:.\n\f
325 0x0000e94f 0x0041014f 5   6    .rdata  ascii    wZiK
326 0x0000e95f 0x0041015f 4   5    .rdata  ascii   *"<C
327 0x0000e995 0x00410195 4   5    .rdata  ascii   [4~C
328 0x0000e9b2 0x004101b2 4   6    .rdata  utf8    @"Ƅ  blocks=Basic Latin,Latin Extended-B
329 0x0000ea24 0x00410224 4   5    .rdata  ascii   ~TbF
330 0x0000ea5a 0x0041025a 4   5    .rdata  ascii   \txYn
331 0x0000ea8c 0x0041028c 4   5    .rdata  ascii   ?*1#
332 0x0000ea97 0x00410297 4   5    .rdata  ascii   fNt7
333 0x0000eb40 0x00410340 4   5    .rdata  ascii   $8,4
334 0x0000eb4e 0x0041034e 4   5    .rdata  ascii   \f%<(
335 0x0000eb70 0x00410370 4   5    .rdata  ascii   lHt\
336 0x0000eb76 0x00410376 4   5    .rdata  ascii   BWQP
337 0x0000eb7c 0x0041037c 4   5    .rdata  ascii   ~SeA
338 0x0000ebee 0x004103ee 5   6    .rdata  ascii   !tI)i
339 0x0000ec01 0x00410401 4   5    .rdata  ascii   k>X'
340 0x0000ec21 0x00410421 5   6    .rdata  ascii   `3QbE
341 0x0000ec36 0x00410436 6   7    .rdata  ascii   +\bpXhH
342 0x0000ec64 0x00410464 4   6    .rdata  utf8    ӥ\b70 blocks=Cyrillic,Basic Latin
343 0x0000ece2 0x004104e2 4   5    .rdata  ascii   C@gw
344 0x0000ecf7 0x004104f7 5   7    .rdata  utf8    ȡG\n|| blocks=Latin Extended-B,Basic Latin
345 0x0000ed14 0x00410514 4   5    .rdata  ascii   lNrZ
346 0x0000ed22 0x00410522 7   9    .rdata  utf8    ծ6'9-\nd blocks=Armenian,Basic Latin
347 0x0000ed32 0x00410532 7   8    .rdata  ascii   T[$:.6\f
348 0x0000ed50 0x00410550 4   5    .rdata  ascii   ZiKw
349 0x0000ed92 0x00410592 5   6    .rdata  ascii   ;f[4~
350 0x0000edb7 0x004105b7 4   6    .rdata  utf8    ƅ}$J blocks=Latin Extended-B,Basic Latin
351 0x0000ee03 0x00410603 5   9    .rdata  utf8    ʘ6\vԦρ blocks=IPA Extensions,Basic Latin,Cyrillic Supplement,Greek and Coptic
352 0x0000ee23 0x00410623 5   6    .rdata  ascii   _TbF~
353 0x0000ee59 0x00410659 4   5    .rdata  ascii   \tx&n
354 0x0000ee8c 0x0041068c 4   5    .rdata  ascii   *1#?
355 0x0000ef3f 0x0041073f 5   6    .rdata  ascii   h8,4$
356 0x0000ef6f 0x0041076f 5   6    .rdata  ascii   2Ht\l
357 0x0000ef78 0x00410778 12  13   .rdata  ascii   RRRR\t\t\t\tjjjj
358 0x0000ef88 0x00410788 8   9    .rdata  ascii   00006666
359 0x0000ef94 0x00410794 4   5    .rdata  ascii   8888
360 0x0000ef9c 0x0041079c 4   5    .rdata  ascii   @@@@
361 0x0000efb8 0x004107b8 4   5    .rdata  ascii   ||||
362 0x0000efc0 0x004107c0 4   5    .rdata  ascii   9999
363 0x0000efcc 0x004107cc 4   5    .rdata  ascii   ////
364 0x0000efd8 0x004107d8 4   5    .rdata  ascii   4444
365 0x0000efe0 0x004107e0 8   9    .rdata  ascii   CCCCDDDD
366 0x0000eff8 0x004107f8 8   9    .rdata  ascii   TTTT{{{{
367 0x0000f004 0x00410804 4   5    .rdata  ascii   2222
368 0x0000f010 0x00410810 8   9    .rdata  ascii   ####====
369 0x0000f01c 0x0041081c 4   5    .rdata  ascii   LLLL
370 0x0000f024 0x00410824 8   9    .rdata  ascii   \v\v\v\vBBBB
371 0x0000f034 0x00410834 12  13   .rdata  ascii   NNNN\b\b\b\b....
372 0x0000f044 0x00410844 8   9    .rdata  ascii   ffff((((
373 0x0000f050 0x00410850 4   5    .rdata  ascii   $$$$
374 0x0000f058 0x00410858 8   9    .rdata  ascii   vvvv[[[[
375 0x0000f064 0x00410864 8   9    .rdata  ascii   IIIImmmm
376 0x0000f074 0x00410874 8   9    .rdata  ascii   %%%%rrrr
377 0x0000f084 0x00410884 4   5    .rdata  ascii   dddd
378 0x0000f08c 0x0041088c 4   5    .rdata  ascii   hhhh
379 0x0000f0a0 0x004108a0 4   5    .rdata  ascii   \\\\
380 0x0000f0a8 0x004108a8 8   9    .rdata  ascii   ]]]]eeee
381 0x0000f0b8 0x004108b8 16  17   .rdata  ascii   llllppppHHHHPPPP
382 0x0000f0d8 0x004108d8 4   5    .rdata  ascii   ^^^^
383 0x0000f0e0 0x004108e0 8   9    .rdata  ascii   FFFFWWWW
384 0x0000f114 0x00410914 4   5    .rdata  ascii   \n\n\n\n
385 0x0000f120 0x00410920 4   5    .rdata  ascii   XXXX
386 0x0000f130 0x00410930 4   5    .rdata  ascii   EEEE
387 0x0000f13c 0x0041093c 4   5    .rdata  ascii   ,,,,
388 0x0000f14c 0x0041094c 4   5    .rdata  ascii   ????
389 0x0000f174 0x00410974 8   9    .rdata  ascii   kkkk::::
390 0x0000f184 0x00410984 12  13   .rdata  ascii   AAAAOOOOgggg
391 0x0000f1b4 0x004109b4 4   5    .rdata  ascii   ssss
392 0x0000f1c0 0x004109c0 8   9    .rdata  ascii   tttt""""
393 0x0000f1d0 0x004109d0 4   5    .rdata  ascii   5555
394 0x0000f1e0 0x004109e0 4   5    .rdata  ascii   7777
395 0x0000f1ec 0x004109ec 4   5    .rdata  ascii   uuuu
396 0x0000f1f4 0x004109f4 8   9    .rdata  ascii   nnnnGGGG
397 0x0000f204 0x00410a04 4   5    .rdata  ascii   qqqq
398 0x0000f20c 0x00410a0c 4   5    .rdata  ascii   ))))
399 0x0000f218 0x00410a18 4   5    .rdata  ascii   oooo
400 0x0000f220 0x00410a20 4   5    .rdata  ascii   bbbb
401 0x0000f234 0x00410a34 4   5    .rdata  ascii   \e\e\e\e
402 0x0000f23c 0x00410a3c 12  13   .rdata  ascii   VVVV>>>>KKKK
403 0x0000f250 0x00410a50 8   9    .rdata  ascii   yyyy    
404 0x0000f268 0x00410a68 4   5    .rdata  ascii   xxxx
405 0x0000f270 0x00410a70 4   5    .rdata  ascii   ZZZZ
406 0x0000f284 0x00410a84 4   5    .rdata  ascii   3333
407 0x0000f28c 0x00410a8c 4   5    .rdata  ascii   \a\a\a\a
408 0x0000f294 0x00410a94 4   5    .rdata  ascii   1111
409 0x0000f2a4 0x00410aa4 8   9    .rdata  ascii   YYYY''''
410 0x0000f2b4 0x00410ab4 12  13   .rdata  ascii   ____````QQQQ
411 0x0000f2d0 0x00410ad0 12  13   .rdata  ascii   JJJJ\r\r\r\r----
412 0x0000f2e0 0x00410ae0 4   5    .rdata  ascii   zzzz
413 0x0000f300 0x00410b00 8   9    .rdata  ascii   ;;;;MMMM
414 0x0000f30c 0x00410b0c 4   5    .rdata  ascii   ****
415 0x0000f324 0x00410b24 4   5    .rdata  ascii   <<<<
416 0x0000f32c 0x00410b2c 4   5    .rdata  ascii   SSSS
417 0x0000f334 0x00410b34 4   5    .rdata  ascii   aaaa
418 0x0000f33c 0x00410b3c 4   5    .rdata  ascii   ++++
419 0x0000f344 0x00410b44 4   5    .rdata  ascii   ~~~~
420 0x0000f34c 0x00410b4c 4   5    .rdata  ascii   wwww
421 0x0000f354 0x00410b54 4   5    .rdata  ascii   &&&&
422 0x0000f35c 0x00410b5c 4   5    .rdata  ascii   iiii
423 0x0000f364 0x00410b64 20  21   .rdata  ascii   ccccUUUU!!!!\f\f\f\f}}}}
424 0x0000f506 0x00410d06 11  12   .rdata  ascii   CloseHandle
425 0x0000f514 0x00410d14 9   10   .rdata  ascii   lstrcmpiW
426 0x0000f520 0x00410d20 5   6    .rdata  ascii   Sleep
427 0x0000f528 0x00410d28 19  20   .rdata  ascii   VerSetConditionMask
428 0x0000f53e 0x00410d3e 18  19   .rdata  ascii   VerifyVersionInfoW
429 0x0000f554 0x00410d54 8   9    .rdata  ascii   lstrcmpA
430 0x0000f560 0x00410d60 17  18   .rdata  ascii   SetThreadPriority
431 0x0000f572 0x00410d72 12  13   .rdata  ascii   KERNEL32.dll
432 0x0000f582 0x00410d82 11  12   .rdata  ascii   MessageBoxW
433 0x0000f58e 0x00410d8e 10  11   .rdata  ascii   USER32.dll
434 0x0000f59a 0x00410d9a 12  13   .rdata  ascii   OLEAUT32.dll
0   0x0000f600 0x00411000 4   5    .data   ascii   6}I0
1   0x0000f608 0x00411008 5   6    .data   ascii   h`KKz
2   0x0000f668 0x00411068 4   10   .data   utf16le \\?\
3   0x0000f893 0x00411293 6   7    .data   ascii   W6Vg;1
4   0x0000f913 0x00411313 5   6    .data   ascii   JyIoU
5   0x0000f978 0x00411378 4   5    .data   ascii   To>@
6   0x0000f981 0x00411381 4   5    .data   ascii   F"^G
7   0x0000f9b7 0x004113b7 6   7    .data   ascii   (Z"$dI
8   0x0000f9c8 0x004113c8 7   9    .data   utf8    ]U+֛t9~ blocks=Basic Latin,Hebrew
9   0x0000f9e1 0x004113e1 5   7    .data   utf8    \nhхi\r blocks=Basic Latin,Cyrillic
10  0x0000fa3b 0x0041143b 4   5    .data   ascii   t:ps
11  0x0000fa53 0x00411453 8   9    .data   ascii   ~*\f\a8WC%
12  0x0000fa77 0x00411477 4   5    .data   ascii   /*nY
13  0x0000faa4 0x004114a4 4   5    .data   ascii   \(Ls
14  0x0000faee 0x004114ee 4   5    .data   ascii   zeM~
15  0x0000fafd 0x004114fd 6   8    .data   utf8    036{rȎ blocks=Basic Latin,Latin Extended-B
16  0x0000fc2f 0x0041162f 5   6    .data   ascii   \ezy9\t
17  0x0000fc70 0x00411670 5   6    .data   ascii   \bKA2n
18  0x0000fc79 0x00411679 4   5    .data   ascii   r&b:
19  0x0000fc92 0x00411692 6   7    .data   ascii   \aa]aC>
20  0x0000fcba 0x004116ba 4   5    .data   ascii   W%\aR
21  0x0000fd32 0x00411732 4   7    .data   utf8    \a,ᚑA blocks=Basic Latin,Ogham
22  0x0000fd48 0x00411748 6   8    .data   utf8    \n(λ>q\e blocks=Basic Latin,Greek and Coptic
23  0x0000fd5b 0x0041175b 6   7    .data   ascii   T<<8Bp
24  0x0000fd69 0x00411769 5   6    .data   ascii   /LimP
25  0x0000fdb2 0x004117b2 4   5    .data   ascii   m6w]
26  0x0000fded 0x004117ed 5   6    .data   ascii   ^Rfcu
27  0x0000fe0a 0x0041180a 4   5    .data   ascii   |cao
28  0x0000fe40 0x00411840 4   7    .data   utf8    ~mmɥ blocks=Basic Latin,IPA Extensions
29  0x0000fe6d 0x0041186d 4   5    .data   ascii   (`\v<
30  0x0000fe98 0x00411898 4   5    .data   ascii   \vZH&
31  0x0000fedb 0x004118db 5   6    .data   ascii   e7ztl
32  0x0000fee1 0x004118e1 5   7    .data   utf8    \bUeݯE blocks=Basic Latin,Arabic Supplement
33  0x0000fee8 0x004118e8 4   5    .data   ascii   N51`
34  0x0000ff28 0x00411928 4   6    .data   utf8    k\+B
35  0x0000ff37 0x00411937 5   7    .data   utf8    I'6Çr blocks=Basic Latin,Latin-1 Supplement
36  0x0000ff42 0x00411942 6   7    .data   ascii   f\eLkW"
37  0x0000ff59 0x00411959 9   12   .data   utf8    `?q2/弝g_B blocks=Basic Latin,CJK Unified Ideographs
38  0x0000ff7e 0x0041197e 4   5    .data   ascii   _/! 
39  0x0000ff99 0x00411999 6   8    .data   utf8    ̿\f39!> blocks=Combining Diacritical Marks,Basic Latin
40  0x0000ffe2 0x004119e2 5   6    .data   ascii   Xz<g%
41  0x00010005 0x00411a05 5   8    .data   utf8    3UuD blocks=Basic Latin,Private Use Area
42  0x0001000f 0x00411a0f 5   6    .data   ascii   {R@;s
43  0x00010028 0x00411a28 4   5    .data   ascii   }zny
44  0x00010074 0x00411a74 4   5    .data   ascii   !7ev
45  0x000100a7 0x00411aa7 4   7    .data   utf8    X;(ꆦ blocks=Basic Latin,Yi Syllables
46  0x000100b0 0x00411ab0 4   5    .data   ascii   \aorD
47  0x000100cd 0x00411acd 4   5    .data   ascii   VQ\e\b
48  0x00010101 0x00411b01 4   6    .data   utf8    T*ՇX blocks=Basic Latin,Armenian
49  0x0001013c 0x00411b3c 4   5    .data   ascii   \eB,d
50  0x000101c0 0x00411bc0 4   5    .data   ascii   f/H/
51  0x000101eb 0x00411beb 5   7    .data   utf8    Lƈ }g blocks=Basic Latin,Latin Extended-B
52  0x000101f9 0x00411bf9 4   7    .data   utf8    Mċ]֧ blocks=Basic Latin,Latin Extended-A,Hebrew
53  0x000102b0 0x00411cb0 6   7    .data   ascii   ]wo\t'b
54  0x000102cb 0x00411ccb 5   7    .data   utf8    0CI\vу blocks=Basic Latin,Cyrillic
55  0x000102ed 0x00411ced 4   7    .data   utf8    \vNϗX blocks=Basic Latin,Greek and Coptic
56  0x000102f4 0x00411cf4 5   6    .data   ascii   `bJES
57  0x00010337 0x00411d37 5   7    .data   utf8    \r)&;ѝ blocks=Basic Latin,Cyrillic
58  0x000103a0 0x00411da0 7   9    .data   utf8    DfjXُ\f9 blocks=Basic Latin,Arabic
59  0x000103bf 0x00411dbf 4   5    .data   ascii   AHm7
60  0x000103d1 0x00411dd1 4   5    .data   ascii   >XSe
61  0x000103da 0x00411dda 4   5    .data   ascii   uvvE
62  0x000103e8 0x00411de8 4   5    .data   ascii   @ymx
63  0x00010410 0x00411e10 5   6    .data   ascii   /@w,l
64  0x0001045c 0x00411e5c 4   6    .data   utf8    +2Aχ blocks=Basic Latin,Greek and Coptic
65  0x0001049d 0x00411e9d 5   6    .data   ascii   BJ/cR
66  0x000104db 0x00411edb 5   7    .data   utf8    g7ڿ\e} blocks=Basic Latin,Arabic
67  0x00010560 0x00411f60 4   5    .data   ascii   ;W/@
68  0x00010589 0x00411f89 6   8    .data   utf8    ׇ0D>~) blocks=Hebrew,Basic Latin
69  0x00010598 0x00411f98 4   5    .data   ascii   q/V`
70  0x000105b2 0x00411fb2 4   6    .data   utf8    \r2Մ( blocks=Basic Latin,Armenian
71  0x000105cd 0x00411fcd 5   6    .data   ascii   MRI;?
72  0x000105f7 0x00411ff7 4   5    .data   ascii   T\t0p
73  0x00010628 0x00412028 4   5    .data   ascii   xi}x
74  0x000106aa 0x004120aa 4   5    .data   ascii   Mu\fB
75  0x000106c2 0x004120c2 4   5    .data   ascii   -\brz
76  0x000106ce 0x004120ce 10  12   .data   utf8    mw_ӗN(y{a\n blocks=Basic Latin,Cyrillic
77  0x00010702 0x00412102 4   5    .data   ascii   Ua\aH
78  0x00010763 0x00412163 4   5    .data   ascii   g.V\v
79  0x00010778 0x00412178 4   6    .data   utf8    u7Kߥ blocks=Basic Latin,NKo
80  0x00010790 0x00412190 4   5    .data   ascii   bCIs
81  0x000107c3 0x004121c3 5   6    .data   ascii   x\v[2T
82  0x0001080a 0x0041220a 10  14   .data   utf8    ~\a@3B"ܻ⊒oa blocks=Basic Latin,Syriac,Mathematical Operators
83  0x00010865 0x00412265 5   6    .data   ascii   U#<eL
84  0x00010897 0x00412297 4   5    .data   ascii   ,\apj
85  0x000108a2 0x004122a2 4   7    .data   utf8    Zü/û blocks=Basic Latin,Latin-1 Supplement
86  0x000108d8 0x004122d8 4   5    .data   ascii   ~7*M
87  0x00010901 0x00412301 4   5    .data   ascii   dxRS
88  0x00010922 0x00412322 4   5    .data   ascii   0%3X
89  0x0001092e 0x0041232e 4   5    .data   ascii   b%]K
90  0x0001096a 0x0041236a 6   9    .data   utf8    ݐ`͍Hcm blocks=Arabic Supplement,Basic Latin,Combining Diacritical Marks
91  0x0001099e 0x0041239e 8   10   .data   utf8    fz"]_tƦU blocks=Basic Latin,Latin Extended-B
92  0x000109be 0x004123be 5   6    .data   ascii   M(lB~
93  0x000109c4 0x004123c4 7   8    .data   ascii   O\f))ANM
94  0x000109cc 0x004123cc 4   5    .data   ascii   fqIm
95  0x00010a4f 0x0041244f 4   6    .data   utf8    0Ք%2 blocks=Basic Latin,Armenian
96  0x00010a79 0x00412479 5   7    .data   utf8    /%;-ߨ blocks=Basic Latin,NKo
97  0x00010a9a 0x0041249a 4   5    .data   ascii   t[\vJ
98  0x00010aae 0x004124ae 4   5    .data   ascii   ]_kn
99  0x00010ac6 0x004124c6 5   6    .data   ascii   M/\t\vw
100 0x00010b68 0x00412568 4   10   .data   utf16le \v0\r`
101 0x00010bd8 0x004125d8 5   7    .data   utf8    \t\v͂cL blocks=Basic Latin,Combining Diacritical Marks
102 0x00010be5 0x004125e5 5   6    .data   ascii   e{!)4
103 0x00010c09 0x00412609 4   5    .data   ascii   .)j/
104 0x00010c58 0x00412658 4   5    .data   ascii   AG*H
105 0x00010c8c 0x0041268c 4   6    .data   utf8    buH@
106 0x00010cac 0x004126ac 4   6    .data   utf8    L@̀8 blocks=Basic Latin,Combining Diacritical Marks
107 0x00010d8d 0x0041278d 4   7    .data   utf8    â̹\ti blocks=Latin-1 Supplement,Combining Diacritical Marks,Basic Latin
108 0x00010dd3 0x004127d3 5   6    .data   ascii   u*+q]
109 0x00010ded 0x004127ed 5   8    .data   utf8    ':竢s+ blocks=Basic Latin,CJK Unified Ideographs
110 0x00010e04 0x00412804 4   5    .data   ascii   d\aY_
111 0x00010e20 0x00412820 5   7    .data   utf8    XхXw2 blocks=Basic Latin,Cyrillic
112 0x00010e46 0x00412846 4   5    .data   ascii   \tbI3
113 0x00010e6e 0x0041286e 4   5    .data   ascii   l)+~
114 0x00010e75 0x00412875 7   8    .data   ascii   z-o$eOj
115 0x00010e8f 0x0041288f 5   6    .data   ascii   SJPf\n
116 0x00010ee7 0x004128e7 4   5    .data   ascii   $N@u
117 0x00010ef2 0x004128f2 5   6    .data   ascii   zgQJD
118 0x00010f13 0x00412913 6   8    .data   utf8    WILЉqL blocks=Basic Latin,Cyrillic
119 0x00010f31 0x00412931 4   5    .data   ascii   ,nR(
120 0x00010f37 0x00412937 4   5    .data   ascii   OH|)
121 0x00010f84 0x00412984 5   6    .data   ascii   %#>;]
122 0x00010faf 0x004129af 5   7    .data   utf8    ۨs}wt blocks=Arabic,Basic Latin
123 0x00010ff7 0x004129f7 6   8    .data   utf8    }{ǯ`KZ blocks=Basic Latin,Latin Extended-B
124 0x00011003 0x00412a03 4   5    .data   ascii   Bm +
125 0x0001109d 0x00412a9d 4   5    .data   ascii   t5Qb
126 0x000110b5 0x00412ab5 4   5    .data   ascii   -I*F
127 0x0001110b 0x00412b0b 4   6    .data   utf8    `Ưp4 blocks=Basic Latin,Latin Extended-B
128 0x00011118 0x00412b18 7   8    .data   ascii   ~<;)o 9
129 0x0001113a 0x00412b3a 4   5    .data   ascii   7/[6
130 0x00011194 0x00412b94 4   5    .data   ascii   %6 z
131 0x000111ed 0x00412bed 5   7    .data   utf8    ҝFq/F blocks=Cyrillic,Basic Latin
132 0x00011224 0x00412c24 5   6    .data   ascii   Q&N+H
133 0x0001123b 0x00412c3b 6   7    .data   ascii   zs\r/5+
134 0x00011242 0x00412c42 5   6    .data   ascii   .n3y1
135 0x000112b8 0x00412cb8 5   6    .data   ascii   yy\b=\e
136 0x0001136a 0x00412d6a 4   5    .data   ascii   XL]{
137 0x00011388 0x00412d88 4   5    .data   ascii   oL(f
138 0x000113be 0x00412dbe 5   7    .data   utf8    \vۑ}gg blocks=Basic Latin,Arabic
139 0x00011445 0x00412e45 6   8    .data   utf8    մ+eY\a" blocks=Armenian,Basic Latin
140 0x00011487 0x00412e87 4   5    .data   ascii   h1T\r
141 0x000114bf 0x00412ebf 4   6    .data   utf8    scj˶ blocks=Basic Latin,Spacing Modifier Letters
142 0x000114e9 0x00412ee9 4   6    .data   utf8    s\җt blocks=Basic Latin,Cyrillic
143 0x00011512 0x00412f12 4   5    .data   ascii   ;,te
144 0x00011533 0x00412f33 4   5    .data   ascii   |z]k
145 0x00011543 0x00412f43 4   5    .data   ascii   18(}
146 0x00011548 0x00412f48 6   9    .data   utf8    ;Щ"3\ٳ blocks=Basic Latin,Cyrillic,Arabic
147 0x000115da 0x00412fda 4   5    .data   ascii    uO8
148 0x00011603 0x00413003 5   7    .data   utf8    لW4:U blocks=Arabic,Basic Latin


funcs
0x00404883    1 16           entry0
0x004047d8   16 171          fcn.004047d8
0x004054af    1 14           fcn.004054af
0x00406824    6 38           fcn.00406824
0x00406d14   14 165          fcn.00406d14
0x0040643f    5 82           fcn.0040643f
0x00405174    6 77           fcn.00405174
0x004051c1    1 21           fcn.004051c1
0x0040515e    1 22           fcn.0040515e
0x0040684a    6 46           fcn.0040684a
0x00406491    8 97           fcn.00406491
0x00406e5e    6 59           fcn.00406e5e
0x00406cb4   10 96           fcn.00406cb4
0x00406595    1 34           fcn.00406595
0x004072ce    1 58           fcn.004072ce
0x00406fbd    5 88           fcn.00406fbd
0x00407015    5 112          fcn.00407015
0x00406e99   13 147          fcn.00406e99
0x00405438    1 21           fcn.00405438
0x004068f9    8 65           fcn.004068f9
0x0040542a    1 14           fcn.0040542a
0x00406bc9   12 110          fcn.00406bc9
0x00401fbc    5 48           fcn.00401fbc
0x00407118    7 64           fcn.00407118
0x004069f0    3 19           fcn.004069f0
0x0040c41f  253 3146         fcn.0040c41f
0x0040d069   15 102          fcn.0040d069
0x004022ea   38 1041         fcn.004022ea
0x004064f2    7 99           fcn.004064f2
0x00405777    3 151          fcn.00405777
0x00405fd5    3 63           fcn.00405fd5
0x00406342    7 62           fcn.00406342
0x004051fb    3 46           fcn.004051fb
0x0040544d    3 84           fcn.0040544d
0x004069b5    5 59           fcn.004069b5
0x00406a03    5 34           fcn.00406a03
0x0040695a    1 38           fcn.0040695a
0x004051d6    5 37           fcn.004051d6
0x00401ce8   14 304          fcn.00401ce8
0x004058b4    5 60           fcn.004058b4
0x004054bd    5 57           fcn.004054bd
0x004055e6    8 188          fcn.004055e6
0x004056a2    5 118          fcn.004056a2
0x00405cb3    8 127          fcn.00405cb3
0x004058fe   12 115          fcn.004058fe
0x0040583e    5 118          fcn.0040583e
0x00405508   18 222          fcn.00405508
0x00405a21    1 30           fcn.00405a21
0x00402174    6 234          fcn.00402174
0x0040225e    3 140          fcn.0040225e
0x004066ef    7 65           fcn.004066ef
0x00406db9   14 165          fcn.00406db9
0x00401fec    6 392          fcn.00401fec
0x004013d9    6 79           fcn.004013d9
0x004026fb   12 138          fcn.004026fb
0x00406c75    7 63           fcn.00406c75
0x00405d32    3 80           fcn.00405d32
0x0040731d    6 201          fcn.0040731d
0x00401e18   10 420          fcn.00401e18
0x00406f2c    3 36           fcn.00406f2c
0x00406f7f    3 40           fcn.00406f7f
0x004071c7   11 151          fcn.004071c7
0x00406f50    1 47           fcn.00406f50
0x0040a1d5    1 139          fcn.0040a1d5
0x0040a531    1 724          fcn.0040a531
0x00409bf7    5 527          fcn.00409bf7
0x0040b609    3 69           fcn.0040b609
0x0040a805    3 582          fcn.0040a805
0x0040b599    3 60           fcn.0040b599
0x0040a504    3 45           fcn.0040a504
0x0040aa97    1 1230         fcn.0040aa97
0x0040b079    1 432          fcn.0040b079
0x0040af65    3 276          fcn.0040af65
0x0040b229    1 73           fcn.0040b229
0x0040b272    1 807          fcn.0040b272
0x0040d2f0    3 52           fcn.0040d2f0
0x00409e06   13 975          fcn.00409e06
0x0040aa4b    1 76           fcn.0040aa4b
0x0040a260   27 676          fcn.0040a260
0x00407308    1 21           fcn.00407308
0x00405bc6    7 65           fcn.00405bc6
0x0040326b    7 58           fcn.0040326b
0x00402e57    5 173          fcn.00402e57
0x00403215    9 86           fcn.00403215
0x00402f04   17 449          fcn.00402f04
0x00405718    9 95           fcn.00405718
0x00405416    3 20           fcn.00405416
0x00404302    5 1098         fcn.00404302
0x00408939   21 550          fcn.00408939
0x00406a69   16 103          fcn.00406a69
0x00406602    9 68           fcn.00406602
0x00406878    1 33           fcn.00406878
0x004032a5    3 147          fcn.004032a5
0x00407c7a    8 57           fcn.00407c7a
0x0040474c    6 140          fcn.0040474c
0x00407fa7    1 26           fcn.00407fa7
0x00408057    1 28           fcn.00408057
0x00407f76    1 20           fcn.00407f76
0x0040834d    1 38           fcn.0040834d
0x00407f62    1 20           fcn.00407f62
0x0040510a    5 41           fcn.0040510a
0x0040838c    1 25           fcn.0040838c
0x00408373    1 25           fcn.00408373
0x00405a3f    1 6            fcn.00405a3f
0x00405fc7    1 14           fcn.00405fc7
0x004061ed   21 341          fcn.004061ed
0x00408073    6 97           fcn.00408073
0x004036c8    1 217          fcn.004036c8
0x0040725e    1 55           fcn.0040725e
0x00406fa7    1 22           fcn.00406fa7
0x0040c368    3 43           fcn.0040c368
0x0040b64e   24 316          fcn.0040b64e
0x00408f85    4 111          fcn.00408f85
0x00408f67    1 30           fcn.00408f67
0x00408ebe   13 169          fcn.00408ebe
0x00408441    6 65           fcn.00408441
0x00407b9d    6 136          fcn.00407b9d
0x00407c25    1 6            fcn.00407c25
0x004034f4    1 42           fcn.004034f4
0x004080d4    1 26           fcn.004080d4
0x004034d2    1 34           fcn.004034d2
0x00407f01    9 97           fcn.00407f01
0x00408122   29 555          fcn.00408122
0x00408482    9 258          fcn.00408482
0x004086e6   14 364          fcn.004086e6
0x00407e44    6 95           fcn.00407e44
0x00407f8a    1 29           fcn.00407f8a
0x004080ee    1 26           fcn.004080ee
0x004037a1    8 230          fcn.004037a1
0x00403d31   10 134          fcn.00403d31
0x00403cba    5 119          fcn.00403cba
0x00403887    8 112          fcn.00403887
0x00408108    1 26           fcn.00408108
0x004054fc    1 6            fcn.004054fc
0x004030c5    7 186          fcn.004030c5
0x00407c36    6 68           fcn.00407c36
0x0040423b   16 199          fcn.0040423b
0x00405b1f    9 119          fcn.00405b1f
0x004038f7   35 633          fcn.004038f7
0x00404efa   19 528          fcn.00404efa
0x004065b7    4 75           fcn.004065b7
0x00401428    7 235          fcn.00401428
0x0040351e   34 426          fcn.0040351e
0x00407e1f    1 37           fcn.00407e1f
0x004083d1    5 43           fcn.004083d1
0x00405dbd    1 16           fcn.00405dbd
0x00405d9b    1 14           fcn.00405d9b
0x00405dcd    9 121          fcn.00405dcd
0x004083a5    1 25           fcn.004083a5
0x00408b60    4 5771 -> 39   fcn.00408b60
0x004076e5   42 421          fcn.004076e5
0x00401513   35 2005         fcn.00401513
0x00404893   20 858          fcn.00404893
0x00405b02    1 29           fcn.00405b02
0x00407c2b    1 11           fcn.00407c2b
0x004059ce    4 83           fcn.004059ce
0x00407d2b    9 244          fcn.00407d2b
0x00403db7   10 301          fcn.00403db7
0x00408b5f    1 1            fcn.00408b5f
0x00407acc    1 43           fcn.00407acc
0x00404bed    3 83           fcn.00404bed
0x00406380    3 34           fcn.00406380
0x004063a2    3 34           fcn.004063a2
0x00405c85    5 46           fcn.00405c85
0x00406014    7 62           fcn.00406014
0x00404df5   13 261          fcn.00404df5
0x00404c40   23 437          fcn.00404c40
0x004083be    1 19           fcn.004083be
0x00405229    7 183          fcn.00405229
0x00405971    4 38           fcn.00405971
0x004060d5    8 73           fcn.004060d5
0x00405c07   13 126          fcn.00405c07
0x00405e46   20 309          fcn.00405e46
0x00405da9    1 20           fcn.00405da9
0x0040611e   15 170          fcn.0040611e
0x004061c8    3 37           fcn.004061c8
0x00406052    4 131          fcn.00406052
0x0040d200    4 45           fcn.0040d200
0x004063c4    1 123          fcn.004063c4
0x0040532d   10 188          fcn.0040532d
0x004052e0    4 77           fcn.004052e0
0x00406ad0   23 163          fcn.00406ad0
0x00406646   14 113          fcn.00406646
0x004066b7    8 56           fcn.004066b7
0x00406730   13 244          fcn.00406730
0x00406a25    8 68           fcn.00406a25
0x0040693a    1 32           fcn.0040693a
0x00405150    1 14           fcn.00405150
0x00406555    4 30           fcn.00406555
0x004068b7    8 66           fcn.004068b7
0x00406573    4 34           fcn.00406573
0x00405133    1 29           fcn.00405133
0x00406c37    7 62           fcn.00406c37
0x00406980    5 53           fcn.00406980
0x00406b73    5 86           fcn.00406b73
0x00408b81    1 39           fcn.00408b81
0x00409775   15 1154         fcn.00409775
0x00408b65    1 28           fcn.00408b65
0x00409252    4 1315         fcn.00409252
0x004072a9    5 37           fcn.004072a9
0x00405b96    9 1073 -> 124  fcn.00405b96
0x00408d45    1 77           fcn.00408d45
0x00408dda    8 120          fcn.00408dda
0x00407158    5 111          fcn.00407158
0x004058f0    1 14           fcn.004058f0
0x004054a1    1 14           fcn.004054a1
0x00408d92    7 72           fcn.00408d92
0x00405a45    1 14           fcn.00405a45
0x00407085   10 147          fcn.00407085
0x004079b0    1 21           fcn.004079b0
0x004079c5    6 51           fcn.004079c5
0x00406899    7 30           fcn.00406899
0x004073e6   15 213          fcn.004073e6
0x0040766a   13 123          fcn.0040766a
0x0040580e    1 7            fcn.0040580e
0x004074bb    4 31           fcn.004074bb
0x00405815    1 41           fcn.00405815
0x004079f8    9 212          fcn.004079f8
0x00407cb3    8 120          fcn.00407cb3
0x00407af7    3 73           fcn.00407af7
0x00407b40    7 93           fcn.00407b40
0x00405d82    1 25           fcn.00405d82
0x00405a53   14 152          fcn.00405a53
0x00405aeb    1 23           fcn.00405aeb
0x00407ea3    6 94           fcn.00407ea3
0x004054f6    1 6            fcn.004054f6
0x00405502    1 6            fcn.00405502
0x004083fc    6 69           fcn.004083fc
0x00408584   25 354          fcn.00408584
0x00407fc1    9 150          fcn.00407fc1
0x00408852   16 231          fcn.00408852
0x00408e52    3 108          fcn.00408e52
0x00407295    4 20           fcn.00407295
0x00408ba8   31 413          fcn.00408ba8
0x00408ff4    5 606          fcn.00408ff4
0x0040b5d5    1 52           fcn.0040b5d5
0x0040b78a    3 3038         fcn.0040b78a
0x0040c393   19 91           fcn.0040c393
0x0040d114   23 223          fcn.0040d114
0x0040d0cf    8 69           fcn.0040d0cf
0x0040c3ee    6 49           fcn.0040c3ee
0x00401000    1 25           fcn.00401000
0x00401019    8 82           fcn.00401019
0x0040106b    1 19           fcn.0040106b
0x0040107e    1 19           fcn.0040107e
0x00401091    1 31           fcn.00401091
0x004010b0    1 19           fcn.004010b0
0x004010c3    1 19           fcn.004010c3
0x004010d6    3 64           fcn.004010d6
0x00401116    1 19           fcn.00401116
0x00401129    3 64           fcn.00401129
0x00401169    1 31           fcn.00401169
0x00401188    1 31           fcn.00401188
0x004011a7    8 93           fcn.004011a7
0x00401204    1 48           fcn.00401204
0x00401234    1 19           fcn.00401234
0x00401247    1 48           fcn.00401247
0x00401277    1 19           fcn.00401277
0x0040128a    1 31           fcn.0040128a
0x004012a9    3 50           fcn.004012a9
0x004012db    3 50           fcn.004012db
0x0040130d    3 50           fcn.0040130d
0x0040133f    1 154          fcn.0040133f
0x00402785    1 19           fcn.00402785
0x00402798    3 34           fcn.00402798
0x004027ba   10 79           fcn.004027ba
0x00402809   35 935          fcn.00402809
0x00402bb5   20 674          fcn.00402bb5
0x0040317f    4 65           fcn.0040317f
0x004031c0    6 85           fcn.004031c0
0x00403338    7 68           fcn.00403338
0x0040337c   18 342          fcn.0040337c
0x00403b70   26 330          fcn.00403b70
0x00403ee4    8 104          fcn.00403ee4
0x00403f4c    7 98           fcn.00403f4c
0x00403fae   15 653          fcn.00403fae
0x004053e9    4 45           fcn.004053e9
0x004074fc    1 49           fcn.004074fc
0x0040752d    1 49           fcn.0040752d
0x0040755e    1 49           fcn.0040755e
0x0040759b    1 48           fcn.0040759b
0x004075cb    1 49           fcn.004075cb
0x00407608    1 49           fcn.00407608
0x00407639    1 49           fcn.00407639
0x0040788a    1 49           fcn.0040788a
0x004078bb    1 49           fcn.004078bb
0x004078ec    1 49           fcn.004078ec
0x0040791d    1 49           fcn.0040791d
0x0040794e    1 49           fcn.0040794e
0x0040797f    1 49           fcn.0040797f
0x0040d239    1 19           fcn.0040d239
0x0040d270    7 117          fcn.0040d270


arch
x86

size
124928

bintype
pe

opsystem
windows

file
PE32 executable (GUI) Intel 80386, for MS Windows


objdump

../malSamples/samples/Ransomware-exe-3b0cf9bc480a7fc4a560ab26cd35a72313b1fa49bf6ef208c434a32b3f1588c4:     file format pei-i386
architecture: i386, flags 0x0000012f:
HAS_RELOC, EXEC_P, HAS_LINENO, HAS_DEBUG, HAS_LOCALS, D_PAGED
start address 0x00404883


Disassembly of section .text:

00401000 <.text>:
  401000:	55                   	push   ebp
  401001:	8b ec                	mov    ebp,esp
  401003:	ff 75 0c             	push   DWORD PTR [ebp+0xc]
  401006:	e8 19 58 00 00       	call   0x406824
  40100b:	50                   	push   eax
  40100c:	ff 75 08             	push   DWORD PTR [ebp+0x8]
  40100f:	e8 00 5d 00 00       	call   0x406d14
  401014:	83 c4 0c             	add    esp,0xc
  401017:	5d                   	pop    ebp
  401018:	c3                   	ret    
  401019:	55                   	push   ebp
  40101a:	8b ec                	mov    ebp,esp
  40101c:	ff 75 0c             	push   DWORD PTR [ebp+0xc]
  40101f:	e8 1b 54 00 00       	call   0x40643f
  401024:	59                   	pop    ecx
  401025:	85 c0                	test   eax,eax
  401027:	74 40                	je     0x401069
  401029:	56                   	push   esi
  40102a:	57                   	push   edi
  40102b:	50                   	push   eax
  40102c:	e8 19 58 00 00       	call   0x40684a
  401031:	6a 08                	push   0x8
  401033:	8b f8                	mov    edi,eax
  401035:	e8 3a 41 00 00       	call   0x405174
  40103a:	8b f0                	mov    esi,eax
  40103c:	59                   	pop    ecx
  40103d:	59                   	pop    ecx
  40103e:	85 f6                	test   esi,esi
  401040:	74 25                	je     0x401067
  401042:	8b 55 08             	mov    edx,DWORD PTR [ebp+0x8]
  401045:	83 66 04 00          	and    DWORD PTR [esi+0x4],0x0
  401049:	89 3e                	mov    DWORD PTR [esi],edi
  40104b:	8b 0a                	mov    ecx,DWORD PTR [edx]
  40104d:	0b 4a 04             	or     ecx,DWORD PTR [edx+0x4]
  401050:	74 08                	je     0x40105a
  401052:	8b 42 0c             	mov    eax,DWORD PTR [edx+0xc]
  401055:	89 70 04             	mov    DWORD PTR [eax+0x4],esi
  401058:	eb 03                	jmp    0x40105d
  40105a:	89 72 08             	mov    DWORD PTR [edx+0x8],esi
  40105d:	83 02 01             	add    DWORD PTR [edx],0x1
  401060:	89 72 0c             	mov    DWORD PTR [edx+0xc],esi
  401063:	83 52 04 00          	adc    DWORD PTR [edx+0x4],0x0
  401067:	5f                   	pop    edi
  401068:	5e                   	pop    esi
  401069:	5d                   	pop    ebp
  40106a:	c3                   	ret    
  40106b:	55                   	push   ebp
  40106c:	8b ec                	mov    ebp,esp
  40106e:	8b 45 08             	mov    eax,DWORD PTR [ebp+0x8]
  401071:	8b 40 08             	mov    eax,DWORD PTR [eax+0x8]
  401074:	a3 d4 35 41 00       	mov    ds:0x4135d4,eax
  401079:	33 c0                	xor    eax,eax
  40107b:	40                   	inc    eax
  40107c:	5d                   	pop    ebp
  40107d:	c3                   	ret    
  40107e:	55                   	push   ebp
  40107f:	8b ec                	mov    ebp,esp
  401081:	8b 45 08             	mov    eax,DWORD PTR [ebp+0x8]
  401084:	8b 40 08             	mov    eax,DWORD PTR [eax+0x8]
  401087:	a3 b4 35 41 00       	mov    ds:0x4135b4,eax
  40108c:	33 c0                	xor    eax,eax
  40108e:	40                   	inc    eax
  40108f:	5d                   	pop    ebp
  401090:	c3                   	ret    
  401091:	55                   	push   ebp
  401092:	8b ec                	mov    ebp,esp
  401094:	8b 45 08             	mov    eax,DWORD PTR [ebp+0x8]
  401097:	ff 70 0c             	push   DWORD PTR [eax+0xc]
  40109a:	e8 a0 53 00 00       	call   0x40643f
  40109f:	59                   	pop    ecx
  4010a0:	33 c9                	xor    ecx,ecx
  4010a2:	a3 18 35 41 00       	mov    ds:0x413518,eax
  4010a7:	85 c0                	test   eax,eax
  4010a9:	0f 95 c1             	setne  cl
  4010ac:	8b c1                	mov    eax,ecx
  4010ae:	5d                   	pop    ebp
  4010af:	c3                   	ret    
  4010b0:	55                   	push   ebp
  4010b1:	8b ec                	mov    ebp,esp
  4010b3:	8b 45 08             	mov    eax,DWORD PTR [ebp+0x8]
  4010b6:	8b 40 08             	mov    eax,DWORD PTR [eax+0x8]
  4010b9:	a3 98 35 41 00       	mov    ds:0x413598,eax
  4010be:	33 c0                	xor    eax,eax
  4010c0:	40                   	inc    eax
  4010c1:	5d                   	pop    ebp
  4010c2:	c3                   	ret    
  4010c3:	55                   	push   ebp
  4010c4:	8b ec                	mov    ebp,esp
  4010c6:	8b 45 08             	mov    eax,DWORD PTR [ebp+0x8]
  4010c9:	8b 40 08             	mov    eax,DWORD PTR [eax+0x8]
  4010cc:	a3 b8 35 41 00       	mov    ds:0x4135b8,eax
  4010d1:	33 c0                	xor    eax,eax
  4010d3:	40                   	inc    eax
  4010d4:	5d                   	pop    ebp
  4010d5:	c3                   	ret    
  4010d6:	55                   	push   ebp
  4010d7:	8b ec                	mov    ebp,esp
  4010d9:	8b 45 08             	mov    eax,DWORD PTR [ebp+0x8]
  4010dc:	56                   	push   esi
  4010dd:	ff 70 0c             	push   DWORD PTR [eax+0xc]
  4010e0:	e8 5a 53 00 00       	call   0x40643f
  4010e5:	8b f0                	mov    esi,eax
  4010e7:	59                   	pop    ecx
  4010e8:	85 f6                	test   esi,esi
  4010ea:	74 27                	je     0x401113
  4010ec:	83 65 08 00          	and    DWORD PTR [ebp+0x8],0x0
  4010f0:	8d 45 08             	lea    eax,[ebp+0x8]
  4010f3:	50                   	push   eax
  4010f4:	56                   	push   esi
  4010f5:	e8 97 53 00 00       	call   0x406491
  4010fa:	56                   	push   esi
  4010fb:	a3 24 35 41 00       	mov    ds:0x413524,eax
  401100:	e8 bc 40 00 00       	call   0x4051c1
  401105:	33 c0                	xor    eax,eax
  401107:	83 c4 0c             	add    esp,0xc
  40110a:	39 05 24 35 41 00    	cmp    DWORD PTR ds:0x413524,eax
  401110:	0f 95 c0             	setne  al
  401113:	5e                   	pop    esi
  401114:	5d                   	pop    ebp
  401115:	c3                   	ret    
  401116:	55                   	push   ebp
  401117:	8b ec                	mov    ebp,esp
  401119:	8b 45 08             	mov    eax,DWORD PTR [ebp+0x8]
  40111c:	8b 40 08             	mov    eax,DWORD PTR [eax+0x8]
  40111f:	a3 b0 35 41 00       	mov    ds:0x4135b0,eax
  401124:	33 c0                	xor    eax,eax
  401126:	40                   	inc    eax
  401127:	5d                   	pop    ebp
  401128:	c3                   	ret    
  401129:	55                   	push   ebp
  40112a:	8b ec                	mov    ebp,esp
  40112c:	8b 45 08             	mov    eax,DWORD PTR [ebp+0x8]
  40112f:	56                   	push   esi
  401130:	ff 70 0c             	push   DWORD PTR [eax+0xc]
  401133:	e8 07 53 00 00       	call   0x40643f
  401138:	8b f0                	mov    esi,eax
  40113a:	59                   	pop    ecx
  40113b:	85 f6                	test   esi,esi
  40113d:	74 27                	je     0x401166
  40113f:	83 65 08 00          	and    DWORD PTR [ebp+0x8],0x0
  401143:	8d 45 08             	lea    eax,[ebp+0x8]
  401146:	50                   	push   eax
  401147:	56                   	push   esi
  401148:	e8 44 53 00 00       	call   0x406491
  40114d:	56                   	push   esi
  40114e:	a3 1c 35 41 00       	mov    ds:0x41351c,eax
  401153:	e8 69 40 00 00       	call   0x4051c1
  401158:	33 c0                	xor    eax,eax
  40115a:	83 c4 0c             	add    esp,0xc
  40115d:	39 05 1c 35 41 00    	cmp    DWORD PTR ds:0x41351c,eax
  401163:	0f 95 c0             	setne  al
  401166:	5e                   	pop    esi
  401167:	5d                   	pop    ebp
  401168:	c3                   	ret    
  401169:	55                   	push   ebp
  40116a:	8b ec                	mov    ebp,esp
  40116c:	8b 45 08             	mov    eax,DWORD PTR [ebp+0x8]
  40116f:	ff 70 0c             	push   DWORD PTR [eax+0xc]
  401172:	e8 c8 52 00 00       	call   0x40643f
  401177:	59                   	pop    ecx
  401178:	33 c9                	xor    ecx,ecx
  40117a:	a3 20 35 41 00       	mov    ds:0x413520,eax
  40117f:	85 c0                	test   eax,eax
  401181:	0f 95 c1             	setne  cl
  401184:	8b c1                	mov    eax,ecx
  401186:	5d                   	pop    ebp
  401187:	c3                   	ret    
  401188:	55                   	push   ebp
  401189:	8b ec                	mov    ebp,esp
  40118b:	8b 45 08             	mov    eax,DWORD PTR [ebp+0x8]
  40118e:	ff 70 0c             	push   DWORD PTR [eax+0xc]
  401191:	e8 a9 52 00 00       	call   0x40643f
  401196:	59                   	pop    ecx
  401197:	33 c9                	xor    ecx,ecx
  401199:	a3 10 35 41 00       	mov    ds:0x413510,eax
  40119e:	85 c0                	test   eax,eax
  4011a0:	0f 95 c1             	setne  cl
  4011a3:	8b c1                	mov    eax,ecx
  4011a5:	5d                   	pop    ebp
  4011a6:	c3                   	ret    
  4011a7:	55                   	push   ebp
  4011a8:	8b ec                	mov    ebp,esp
  4011aa:	8b 45 08             	mov    eax,DWORD PTR [ebp+0x8]
  4011ad:	56                   	push   esi
  4011ae:	ff 70 0c             	push   DWORD PTR [eax+0xc]
  4011b1:	e8 89 52 00 00       	call   0x40643f
  4011b6:	8b f0                	mov    esi,eax
  4011b8:	59                   	pop    ecx
  4011b9:	85 f6                	test   esi,esi
  4011bb:	74 44                	je     0x401201
  4011bd:	53                   	push   ebx
  4011be:	57                   	push   edi
  4011bf:	8d 45 08             	lea    eax,[ebp+0x8]
  4011c2:	33 ff                	xor    edi,edi
  4011c4:	50                   	push   eax
  4011c5:	56                   	push   esi
  4011c6:	89 7d 08             	mov    DWORD PTR [ebp+0x8],edi
  4011c9:	e8 c3 52 00 00       	call   0x406491
  4011ce:	56                   	push   esi
  4011cf:	8b d8                	mov    ebx,eax
  4011d1:	e8 eb 3f 00 00       	call   0x4051c1
  4011d6:	83 c4 0c             	add    esp,0xc
  4011d9:	85 db                	test   ebx,ebx
  4011db:	75 04                	jne    0x4011e1
  4011dd:	33 c0                	xor    eax,eax
  4011df:	eb 1e                	jmp    0x4011ff
  4011e1:	83 7d 08 20          	cmp    DWORD PTR [ebp+0x8],0x20
  4011e5:	75 0f                	jne    0x4011f6
  4011e7:	6a 08                	push   0x8
  4011e9:	59                   	pop    ecx
  4011ea:	8b f3                	mov    esi,ebx
  4011ec:	bf 20 34 41 00       	mov    edi,0x413420
  4011f1:	f3 a5                	rep movs DWORD PTR es:[edi],DWORD PTR ds:[esi]
  4011f3:	33 ff                	xor    edi,edi
  4011f5:	47                   	inc    edi
  4011f6:	53                   	push   ebx
  4011f7:	e8 c5 3f 00 00       	call   0x4051c1
  4011fc:	59                   	pop    ecx
  4011fd:	8b c7                	mov    eax,edi
  4011ff:	5f                   	pop    edi
  401200:	5b                   	pop    ebx
  401201:	5e                   	pop    esi
  401202:	5d                   	pop    ebp
  401203:	c3                   	ret    
  401204:	55                   	push   ebp
  401205:	8b ec                	mov    ebp,esp
  401207:	68 19 10 40 00       	push   0x401019
  40120c:	33 c0                	xor    eax,eax
  40120e:	68 78 35 41 00       	push   0x413578
  401213:	ff 75 08             	push   DWORD PTR [ebp+0x8]
  401216:	a3 84 35 41 00       	mov    ds:0x413584,eax
  40121b:	a3 80 35 41 00       	mov    ds:0x413580,eax
  401220:	a3 78 35 41 00       	mov    ds:0x413578,eax
  401225:	a3 7c 35 41 00       	mov    ds:0x41357c,eax
  40122a:	e8 2f 5c 00 00       	call   0x406e5e
  40122f:	83 c4 0c             	add    esp,0xc
  401232:	5d                   	pop    ebp
  401233:	c3                   	ret    
  401234:	55                   	push   ebp
  401235:	8b ec                	mov    ebp,esp
  401237:	8b 45 08             	mov    eax,DWORD PTR [ebp+0x8]
  40123a:	8b 40 08             	mov    eax,DWORD PTR [eax+0x8]
  40123d:	a3 a0 35 41 00       	mov    ds:0x4135a0,eax
  401242:	33 c0                	xor    eax,eax
  401244:	40                   	inc    eax
  401245:	5d                   	pop    ebp
  401246:	c3                   	ret    
  401247:	55                   	push   ebp
  401248:	8b ec                	mov    ebp,esp
  40124a:	68 19 10 40 00       	push   0x401019
  40124f:	33 c0                	xor    eax,eax
  401251:	68 88 35 41 00       	push   0x413588
  401256:	ff 75 08             	push   DWORD PTR [ebp+0x8]
  401259:	a3 94 35 41 00       	mov    ds:0x413594,eax
  40125e:	a3 90 35 41 00       	mov    ds:0x413590,eax
  401263:	a3 88 35 41 00       	mov    ds:0x413588,eax
  401268:	a3 8c 35 41 00       	mov    ds:0x41358c,eax
  40126d:	e8 ec 5b 00 00       	call   0x406e5e
  401272:	83 c4 0c             	add    esp,0xc
  401275:	5d                   	pop    ebp
  401276:	c3                   	ret    
  401277:	55                   	push   ebp
  401278:	8b ec                	mov    ebp,esp
  40127a:	8b 45 08             	mov    eax,DWORD PTR [ebp+0x8]
  40127d:	8b 40 08             	mov    eax,DWORD PTR [eax+0x8]
  401280:	a3 9c 35 41 00       	mov    ds:0x41359c,eax
  401285:	33 c0                	xor    eax,eax
  401287:	40                   	inc    eax
  401288:	5d                   	pop    ebp
  401289:	c3                   	ret    
  40128a:	55                   	push   ebp
  40128b:	8b ec                	mov    ebp,esp
  40128d:	8b 45 08             	mov    eax,DWORD PTR [ebp+0x8]
  401290:	ff 70 0c             	push   DWORD PTR [eax+0xc]
  401293:	e8 a7 51 00 00       	call   0x40643f
  401298:	59                   	pop    ecx
  401299:	33 c9                	xor    ecx,ecx
  40129b:	a3 14 35 41 00       	mov    ds:0x413514,eax
  4012a0:	85 c0                	test   eax,eax
  4012a2:	0f 95 c1             	setne  cl
  4012a5:	8b c1                	mov    eax,ecx
  4012a7:	5d                   	pop    ebp
  4012a8:	c3                   	ret    
  4012a9:	55                   	push   ebp
  4012aa:	8b ec                	mov    ebp,esp
  4012ac:	56                   	push   esi
  4012ad:	8b 75 08             	mov    esi,DWORD PTR [ebp+0x8]
  4012b0:	57                   	push   edi
  4012b1:	bf 6c 35 41 00       	mov    edi,0x41356c
  4012b6:	ff 76 08             	push   DWORD PTR [esi+0x8]
  4012b9:	6a 00                	push   0x0
  4012bb:	57                   	push   edi
  4012bc:	e8 f3 59 00 00       	call   0x406cb4
  4012c1:	83 c4 0c             	add    esp,0xc
  4012c4:	85 c0                	test   eax,eax
  4012c6:	74 0f                	je     0x4012d7
  4012c8:	68 00 10 40 00       	push   0x401000
  4012cd:	57                   	push   edi
  4012ce:	56                   	push   esi
  4012cf:	e8 8a 5b 00 00       	call   0x406e5e
  4012d4:	83 c4 0c             	add    esp,0xc
  4012d7:	5f                   	pop    edi
  4012d8:	5e                   	pop    esi
  4012d9:	5d                   	pop    ebp
  4012da:	c3                   	ret    
  4012db:	55                   	push   ebp
  4012dc:	8b ec                	mov    ebp,esp
  4012de:	56                   	push   esi
  4012df:	8b 75 08             	mov    esi,DWORD PTR [ebp+0x8]
  4012e2:	57                   	push   edi
  4012e3:	bf 60 35 41 00       	mov    edi,0x413560
  4012e8:	ff 76 08             	push   DWORD PTR [esi+0x8]
  4012eb:	6a 00                	push   0x0
  4012ed:	57                   	push   edi
  4012ee:	e8 c1 59 00 00       	call   0x406cb4
  4012f3:	83 c4 0c             	add    esp,0xc
  4012f6:	85 c0                	test   eax,eax
  4012f8:	74 0f                	je     0x401309
  4012fa:	68 00 10 40 00       	push   0x401000
  4012ff:	57                   	push   edi
  401300:	56                   	push   esi
  401301:	e8 58 5b 00 00       	call   0x406e5e
  401306:	83 c4 0c             	add    esp,0xc
  401309:	5f                   	pop    edi
  40130a:	5e                   	pop    esi
  40130b:	5d                   	pop    ebp
  40130c:	c3                   	ret    
  40130d:	55                   	push   ebp
  40130e:	8b ec                	mov    ebp,esp
  401310:	56                   	push   esi
  401311:	8b 75 08             	mov    esi,DWORD PTR [ebp+0x8]
  401314:	57                   	push   edi
  401315:	bf 54 35 41 00       	mov    edi,0x413554
  40131a:	ff 76 08             	push   DWORD PTR [esi+0x8]
  40131d:	6a 00                	push   0x0
  40131f:	57                   	push   edi
  401320:	e8 8f 59 00 00       	call   0x406cb4
  401325:	83 c4 0c             	add    esp,0xc
  401328:	85 c0                	test   eax,eax
  40132a:	74 0f                	je     0x40133b
  40132c:	68 00 10 40 00       	push   0x401000
  401331:	57                   	push   edi
  401332:	56                   	push   esi
  401333:	e8 26 5b 00 00       	call   0x406e5e
  401338:	83 c4 0c             	add    esp,0xc
  40133b:	5f                   	pop    edi
  40133c:	5e                   	pop    esi
  40133d:	5d                   	pop    ebp
  40133e:	c3                   	ret    
  40133f:	55                   	push   ebp
  401340:	8b ec                	mov    ebp,esp
  401342:	83 ec 30             	sub    esp,0x30
  401345:	56                   	push   esi
  401346:	8d 45 fc             	lea    eax,[ebp-0x4]
  401349:	be 78 12 41 00       	mov    esi,0x411278
  40134e:	50                   	push   eax
  40134f:	6a 03                	push   0x3
  401351:	6a 10                	push   0x10
  401353:	68 5b 12 00 00       	push   0x125b
  401358:	56                   	push   esi
  401359:	e8 37 52 00 00       	call   0x406595
  40135e:	8d 45 f8             	lea    eax,[ebp-0x8]
  401361:	c6 45 ff 00          	mov    BYTE PTR [ebp-0x1],0x0
  401365:	50                   	push   eax
  401366:	6a 03                	push   0x3
  401368:	6a 09                	push   0x9
  40136a:	68 c0 0d 00 00       	push   0xdc0
  40136f:	56                   	push   esi
  401370:	e8 20 52 00 00       	call   0x406595
  401375:	8d 45 f4             	lea    eax,[ebp-0xc]
  401378:	c6 45 fb 00          	mov    BYTE PTR [ebp-0x5],0x0
  40137c:	50                   	push   eax
  40137d:	6a 03                	push   0x3
  40137f:	6a 0a                	push   0xa
  401381:	68 18 0e 00 00       	push   0xe18
  401386:	56                   	push   esi
  401387:	e8 09 52 00 00       	call   0x406595
  40138c:	8d 45 fc             	lea    eax,[ebp-0x4]
  40138f:	c6 45 f7 00          	mov    BYTE PTR [ebp-0x9],0x0
  401393:	89 45 d0             	mov    DWORD PTR [ebp-0x30],eax
  401396:	8d 45 f8             	lea    eax,[ebp-0x8]
  401399:	6a 02                	push   0x2
  40139b:	59                   	pop    ecx
  40139c:	89 45 dc             	mov    DWORD PTR [ebp-0x24],eax
  40139f:	8d 45 f4             	lea    eax,[ebp-0xc]
  4013a2:	89 45 e8             	mov    DWORD PTR [ebp-0x18],eax
  4013a5:	8d 45 d0             	lea    eax,[ebp-0x30]
  4013a8:	6a 03                	push   0x3
  4013aa:	50                   	push   eax
  4013ab:	ff 75 08             	push   DWORD PTR [ebp+0x8]
  4013ae:	89 4d d4             	mov    DWORD PTR [ebp-0x2c],ecx
  4013b1:	c7 45 d8 0d 13 40 00 	mov    DWORD PTR [ebp-0x28],0x40130d
  4013b8:	89 4d e0             	mov    DWORD PTR [ebp-0x20],ecx
  4013bb:	c7 45 e4 db 12 40 00 	mov    DWORD PTR [ebp-0x1c],0x4012db
  4013c2:	89 4d ec             	mov    DWORD PTR [ebp-0x14],ecx
  4013c5:	c7 45 f0 a9 12 40 00 	mov    DWORD PTR [ebp-0x10],0x4012a9
  4013cc:	e8 c8 5a 00 00       	call   0x406e99
  4013d1:	83 c4 48             	add    esp,0x48
  4013d4:	5e                   	pop    esi
  4013d5:	8b e5                	mov    esp,ebp
  4013d7:	5d                   	pop    ebp
  4013d8:	c3                   	ret    
  4013d9:	55                   	push   ebp
  4013da:	8b ec                	mov    ebp,esp
  4013dc:	51                   	push   ecx
  4013dd:	53                   	push   ebx
  4013de:	56                   	push   esi
  4013df:	8d 45 fc             	lea    eax,[ebp-0x4]
  4013e2:	33 f6                	xor    esi,esi
  4013e4:	50                   	push   eax
  4013e5:	e8 4e 40 00 00       	call   0x405438
  4013ea:	8b d8                	mov    ebx,eax
  4013ec:	59                   	pop    ecx
  4013ed:	85 db                	test   ebx,ebx
  4013ef:	74 31                	je     0x401422
  4013f1:	57                   	push   edi
  4013f2:	33 ff                	xor    edi,edi
  4013f4:	47                   	inc    edi
  4013f5:	39 7d fc             	cmp    DWORD PTR [ebp-0x4],edi
  4013f8:	7e 1e                	jle    0x401418
  4013fa:	ff 75 08             	push   DWORD PTR [ebp+0x8]
  4013fd:	ff 34 bb             	push   DWORD PTR [ebx+edi*4]
  401400:	e8 f4 54 00 00       	call   0x4068f9
  401405:	8b f0                	mov    esi,eax
  401407:	f7 de                	neg    esi
  401409:	59                   	pop    ecx
  40140a:	1b f6                	sbb    esi,esi
  40140c:	59                   	pop    ecx
  40140d:	83 c6 01             	add    esi,0x1
  401410:	75 06                	jne    0x401418
  401412:	47                   	inc    edi
  401413:	3b 7d fc             	cmp    edi,DWORD PTR [ebp-0x4]
  401416:	7c e2                	jl     0x4013fa
  401418:	53                   	push   ebx
  401419:	e8 0c 40 00 00       	call   0x40542a
  40141e:	59                   	pop    ecx
  40141f:	8b c6                	mov    eax,esi
  401421:	5f                   	pop    edi
  401422:	5e                   	pop    esi
  401423:	5b                   	pop    ebx
  401424:	8b e5                	mov    esp,ebp
  401426:	5d                   	pop    ebp
  401427:	c3                   	ret    
  401428:	55                   	push   ebp
  401429:	8b ec                	mov    ebp,esp
  40142b:	83 ec 50             	sub    esp,0x50
  40142e:	56                   	push   esi
  40142f:	33 f6                	xor    esi,esi
  401431:	c7 45 f4 54 35 41 00 	mov    DWORD PTR [ebp-0xc],0x413554
  401438:	57                   	push   edi
  401439:	c7 45 f8 60 35 41 00 	mov    DWORD PTR [ebp-0x8],0x413560
  401440:	8b fe                	mov    edi,esi
  401442:	c7 45 fc 6c 35 41 00 	mov    DWORD PTR [ebp-0x4],0x41356c
  401449:	ff 74 bd f4          	push   DWORD PTR [ebp+edi*4-0xc]
  40144d:	e8 77 57 00 00       	call   0x406bc9
  401452:	47                   	inc    edi
  401453:	59                   	pop    ecx
  401454:	83 ff 03             	cmp    edi,0x3
  401457:	72 f0                	jb     0x401449
  401459:	68 78 35 41 00       	push   0x413578
  40145e:	e8 59 0b 00 00       	call   0x401fbc
  401463:	c7 04 24 88 35 41 00 	mov    DWORD PTR [esp],0x413588
  40146a:	e8 4d 0b 00 00       	call   0x401fbc
  40146f:	a1 10 35 41 00       	mov    eax,ds:0x413510
  401474:	89 45 b0             	mov    DWORD PTR [ebp-0x50],eax
  401477:	a1 14 35 41 00       	mov    eax,ds:0x413514
  40147c:	89 45 b4             	mov    DWORD PTR [ebp-0x4c],eax
  40147f:	a1 18 35 41 00       	mov    eax,ds:0x413518
  401484:	89 45 b8             	mov    DWORD PTR [ebp-0x48],eax
  401487:	a1 1c 35 41 00       	mov    eax,ds:0x41351c
  40148c:	89 45 bc             	mov    DWORD PTR [ebp-0x44],eax
  40148f:	a1 20 35 41 00       	mov    eax,ds:0x413520
  401494:	89 45 c0             	mov    DWORD PTR [ebp-0x40],eax
  401497:	a1 24 35 41 00       	mov    eax,ds:0x413524
  40149c:	89 45 c4             	mov    DWORD PTR [ebp-0x3c],eax
  40149f:	a1 28 35 41 00       	mov    eax,ds:0x413528
  4014a4:	89 45 c8             	mov    DWORD PTR [ebp-0x38],eax
  4014a7:	a1 2c 35 41 00       	mov    eax,ds:0x41352c
  4014ac:	89 45 cc             	mov    DWORD PTR [ebp-0x34],eax
  4014af:	a1 30 35 41 00       	mov    eax,ds:0x413530
  4014b4:	89 45 d0             	mov    DWORD PTR [ebp-0x30],eax
  4014b7:	a1 34 35 41 00       	mov    eax,ds:0x413534
  4014bc:	89 45 d4             	mov    DWORD PTR [ebp-0x2c],eax
  4014bf:	a1 38 35 41 00       	mov    eax,ds:0x413538
  4014c4:	89 45 d8             	mov    DWORD PTR [ebp-0x28],eax
  4014c7:	a1 3c 35 41 00       	mov    eax,ds:0x41353c
  4014cc:	89 45 dc             	mov    DWORD PTR [ebp-0x24],eax
  4014cf:	a1 40 35 41 00       	mov    eax,ds:0x413540
  4014d4:	89 45 e0             	mov    DWORD PTR [ebp-0x20],eax
  4014d7:	a1 44 35 41 00       	mov    eax,ds:0x413544
  4014dc:	89 45 e4             	mov    DWORD PTR [ebp-0x1c],eax
  4014df:	a1 48 35 41 00       	mov    eax,ds:0x413548
  4014e4:	89 45 e8             	mov    DWORD PTR [ebp-0x18],eax
  4014e7:	a1 4c 35 41 00       	mov    eax,ds:0x41354c
  4014ec:	89 45 ec             	mov    DWORD PTR [ebp-0x14],eax
  4014ef:	a1 50 35 41 00       	mov    eax,ds:0x413550
  4014f4:	59                   	pop    ecx
  4014f5:	89 45 f0             	mov    DWORD PTR [ebp-0x10],eax
  4014f8:	8b 44 b5 b0          	mov    eax,DWORD PTR [ebp+esi*4-0x50]
  4014fc:	85 c0                	test   eax,eax
  4014fe:	74 07                	je     0x401507
  401500:	50                   	push   eax
  401501:	e8 bb 3c 00 00       	call   0x4051c1
  401506:	59                   	pop    ecx
  401507:	46                   	inc    esi
  401508:	83 fe 11             	cmp    esi,0x11
  40150b:	72 eb                	jb     0x4014f8
  40150d:	5f                   	pop    edi
  40150e:	5e                   	pop    esi
  40150f:	8b e5                	mov    esp,ebp
  401511:	5d                   	pop    ebp
  401512:	c3                   	ret    
  401513:	55                   	push   ebp
  401514:	8b ec                	mov    ebp,esp
  401516:	81 ec cc 01 00 00    	sub    esp,0x1cc
  40151c:	53                   	push   ebx
  40151d:	56                   	push   esi
  40151e:	57                   	push   edi
  40151f:	ff 35 24 40 41 00    	push   DWORD PTR ds:0x414024
  401525:	be 28 40 41 00       	mov    esi,0x414028
  40152a:	56                   	push   esi
  40152b:	6a 00                	push   0x0
  40152d:	e8 e6 5b 00 00       	call   0x407118
  401532:	83 c4 0c             	add    esp,0xc
  401535:	3b 05 20 40 41 00    	cmp    eax,DWORD PTR ds:0x414020
  40153b:	75 75                	jne    0x4015b2
  40153d:	ff 35 24 40 41 00    	push   DWORD PTR ds:0x414024
  401543:	e8 2c 3c 00 00       	call   0x405174
  401548:	8b d8                	mov    ebx,eax
  40154a:	59                   	pop    ecx
  40154b:	85 db                	test   ebx,ebx
  40154d:	74 63                	je     0x4015b2
  40154f:	53                   	push   ebx
  401550:	ff 35 24 40 41 00    	push   DWORD PTR ds:0x414024
  401556:	56                   	push   esi
  401557:	6a 20                	push   0x20
  401559:	68 00 40 41 00       	push   0x414000
  40155e:	e8 6b 5d 00 00       	call   0x4072ce
  401563:	83 a5 78 fe ff ff 00 	and    DWORD PTR [ebp-0x188],0x0
  40156a:	8d bd 7c fe ff ff    	lea    edi,[ebp-0x184]
  401570:	33 c0                	xor    eax,eax
  401572:	ab                   	stos   DWORD PTR es:[edi],eax
  401573:	53                   	push   ebx
  401574:	ab                   	stos   DWORD PTR es:[edi],eax
  401575:	ab                   	stos   DWORD PTR es:[edi],eax
  401576:	ab                   	stos   DWORD PTR es:[edi],eax
  401577:	ab                   	stos   DWORD PTR es:[edi],eax
  401578:	c7 85 80 fe ff ff 74 	mov    DWORD PTR [ebp-0x180],0x405174
  40157f:	51 40 00 
  401582:	c7 85 84 fe ff ff c1 	mov    DWORD PTR [ebp-0x17c],0x4051c1
  401589:	51 40 00 
  40158c:	e8 5f 54 00 00       	call   0x4069f0
  401591:	50                   	push   eax
  401592:	8d 85 78 fe ff ff    	lea    eax,[ebp-0x188]
  401598:	53                   	push   ebx
  401599:	50                   	push   eax
  40159a:	e8 80 ae 00 00       	call   0x40c41f
  40159f:	8b f0                	mov    esi,eax
  4015a1:	83 c4 24             	add    esp,0x24
  4015a4:	89 75 bc             	mov    DWORD PTR [ebp-0x44],esi
  4015a7:	85 f6                	test   esi,esi
  4015a9:	75 10                	jne    0x4015bb
  4015ab:	53                   	push   ebx
  4015ac:	e8 10 3c 00 00       	call   0x4051c1
  4015b1:	59                   	pop    ecx
  4015b2:	33 c0                	xor    eax,eax
  4015b4:	5f                   	pop    edi
  4015b5:	5e                   	pop    esi
  4015b6:	5b                   	pop    ebx
  4015b7:	8b e5                	mov    esp,ebp
  4015b9:	5d                   	pop    ebp
  4015ba:	c3                   	ret    
  4015bb:	8d 45 fc             	lea    eax,[ebp-0x4]
  4015be:	50                   	push   eax
  4015bf:	6a 02                	push   0x2
  4015c1:	6a 0f                	push   0xf
  4015c3:	68 fb 0d 00 00       	push   0xdfb
  4015c8:	68 78 12 41 00       	push   0x411278
  4015cd:	e8 c3 4f 00 00       	call   0x406595
  4015d2:	8d 45 e8             	lea    eax,[ebp-0x18]
  4015d5:	c6 45 fe 00          	mov    BYTE PTR [ebp-0x2],0x0
  4015d9:	50                   	push   eax
  4015da:	6a 03                	push   0x3
  4015dc:	5f                   	pop    edi
  4015dd:	57                   	push   edi
  4015de:	6a 10                	push   0x10
  4015e0:	68 45 10 00 00       	push   0x1045
  4015e5:	68 78 12 41 00       	push   0x411278
  4015ea:	e8 a6 4f 00 00       	call   0x406595
  4015ef:	8d 45 e4             	lea    eax,[ebp-0x1c]
  4015f2:	c6 45 eb 00          	mov    BYTE PTR [ebp-0x15],0x0
  4015f6:	50                   	push   eax
  4015f7:	57                   	push   edi
  4015f8:	6a 05                	push   0x5
  4015fa:	68 d0 09 00 00       	push   0x9d0
  4015ff:	68 78 12 41 00       	push   0x411278
  401604:	e8 8c 4f 00 00       	call   0x406595
  401609:	8d 45 e0             	lea    eax,[ebp-0x20]
  40160c:	c6 45 e7 00          	mov    BYTE PTR [ebp-0x19],0x0
  401610:	50                   	push   eax
  401611:	57                   	push   edi
  401612:	6a 10                	push   0x10
  401614:	68 08 08 00 00       	push   0x808
  401619:	68 78 12 41 00       	push   0x411278
  40161e:	e8 72 4f 00 00       	call   0x406595
  401623:	83 c4 50             	add    esp,0x50
  401626:	c6 45 e3 00          	mov    BYTE PTR [ebp-0x1d],0x0
  40162a:	8d 45 dc             	lea    eax,[ebp-0x24]
  40162d:	50                   	push   eax
  40162e:	57                   	push   edi
  40162f:	6a 10                	push   0x10
  401631:	68 73 01 00 00       	push   0x173
  401636:	68 78 12 41 00       	push   0x411278
  40163b:	e8 55 4f 00 00       	call   0x406595
  401640:	8d 45 d8             	lea    eax,[ebp-0x28]
  401643:	c6 45 df 00          	mov    BYTE PTR [ebp-0x21],0x0
  401647:	50                   	push   eax
  401648:	57                   	push   edi
  401649:	6a 0b                	push   0xb
  40164b:	68 b6 11 00 00       	push   0x11b6
  401650:	68 78 12 41 00       	push   0x411278
  401655:	e8 3b 4f 00 00       	call   0x406595
  40165a:	8d 45 d4             	lea    eax,[ebp-0x2c]
  40165d:	c6 45 db 00          	mov    BYTE PTR [ebp-0x25],0x0
  401661:	50                   	push   eax
  401662:	57                   	push   edi
  401663:	6a 05                	push   0x5
  401665:	68 c9 07 00 00       	push   0x7c9
  40166a:	68 78 12 41 00       	push   0x411278
  40166f:	e8 21 4f 00 00       	call   0x406595
  401674:	8d 45 d0             	lea    eax,[ebp-0x30]
  401677:	c6 45 d7 00          	mov    BYTE PTR [ebp-0x29],0x0
  40167b:	50                   	push   eax
  40167c:	57                   	push   edi
  40167d:	6a 07                	push   0x7
  40167f:	68 24 0c 00 00       	push   0xc24
  401684:	68 78 12 41 00       	push   0x411278
  401689:	e8 07 4f 00 00       	call   0x406595
  40168e:	83 c4 50             	add    esp,0x50
  401691:	c6 45 d3 00          	mov    BYTE PTR [ebp-0x2d],0x0
  401695:	8d 45 cc             	lea    eax,[ebp-0x34]
  401698:	50                   	push   eax
  401699:	57                   	push   edi
  40169a:	6a 0f                	push   0xf
  40169c:	68 60 0e 00 00       	push   0xe60
  4016a1:	68 78 12 41 00       	push   0x411278
  4016a6:	e8 ea 4e 00 00       	call   0x406595
  4016ab:	8d 45 b0             	lea    eax,[ebp-0x50]
  4016ae:	c6 45 cf 00          	mov    BYTE PTR [ebp-0x31],0x0
  4016b2:	50                   	push   eax
  4016b3:	6a 05                	push   0x5
  4016b5:	6a 04                	push   0x4
  4016b7:	68 07 0a 00 00       	push   0xa07
  4016bc:	68 78 12 41 00       	push   0x411278
  4016c1:	e8 cf 4e 00 00       	call   0x406595
  4016c6:	8d 45 a8             	lea    eax,[ebp-0x58]
  4016c9:	c6 45 b5 00          	mov    BYTE PTR [ebp-0x4b],0x0
  4016cd:	50                   	push   eax
  4016ce:	6a 05                	push   0x5
  4016d0:	6a 09                	push   0x9
  4016d2:	68 e9 04 00 00       	push   0x4e9
  4016d7:	68 78 12 41 00       	push   0x411278
  4016dc:	e8 b4 4e 00 00       	call   0x406595
  4016e1:	8d 45 c8             	lea    eax,[ebp-0x38]
  4016e4:	c6 45 ad 00          	mov    BYTE PTR [ebp-0x53],0x0
  4016e8:	50                   	push   eax
  4016e9:	57                   	push   edi
  4016ea:	6a 06                	push   0x6
  4016ec:	5f                   	pop    edi
  4016ed:	57                   	push   edi
  4016ee:	68 74 11 00 00       	push   0x1174
  4016f3:	68 78 12 41 00       	push   0x411278
  4016f8:	e8 98 4e 00 00       	call   0x406595
  4016fd:	83 c4 50             	add    esp,0x50
  401700:	c6 45 cb 00          	mov    BYTE PTR [ebp-0x35],0x0
  401704:	8d 45 f8             	lea    eax,[ebp-0x8]
  401707:	50                   	push   eax
  401708:	6a 02                	push   0x2
  40170a:	6a 08                	push   0x8
  40170c:	68 2a 08 00 00       	push   0x82a
  401711:	68 78 12 41 00       	push   0x411278
  401716:	e8 7a 4e 00 00       	call   0x406595
  40171b:	8d 45 a0             	lea    eax,[ebp-0x60]
  40171e:	c6 45 fa 00          	mov    BYTE PTR [ebp-0x6],0x0
  401722:	50                   	push   eax
  401723:	57                   	push   edi
  401724:	57                   	push   edi
  401725:	68 8b 10 00 00       	push   0x108b
  40172a:	68 78 12 41 00       	push   0x411278
  40172f:	e8 61 4e 00 00       	call   0x406595
  401734:	8d 45 c4             	lea    eax,[ebp-0x3c]
  401737:	c6 45 a6 00          	mov    BYTE PTR [ebp-0x5a],0x0
  40173b:	50                   	push   eax
  40173c:	6a 03                	push   0x3
  40173e:	6a 0f                	push   0xf
  401740:	68 e5 07 00 00       	push   0x7e5
  401745:	68 78 12 41 00       	push   0x411278
  40174a:	e8 46 4e 00 00       	call   0x406595
  40174f:	8d 45 98             	lea    eax,[ebp-0x68]
  401752:	c6 45 c7 00          	mov    BYTE PTR [ebp-0x39],0x0
  401756:	50                   	push   eax
  401757:	57                   	push   edi
  401758:	6a 0e                	push   0xe
  40175a:	68 fb 0a 00 00       	push   0xafb
  40175f:	68 78 12 41 00       	push   0x411278
  401764:	e8 2c 4e 00 00       	call   0x406595
  401769:	83 c4 50             	add    esp,0x50
  40176c:	c6 45 9e 00          	mov    BYTE PTR [ebp-0x62],0x0
  401770:	8d 45 c0             	lea    eax,[ebp-0x40]
  401773:	50                   	push   eax
  401774:	6a 03                	push   0x3
  401776:	6a 0f                	push   0xf
  401778:	68 2a 10 00 00       	push   0x102a
  40177d:	68 78 12 41 00       	push   0x411278
  401782:	e8 0e 4e 00 00       	call   0x406595
  401787:	8d 45 fc             	lea    eax,[ebp-0x4]
  40178a:	c6 45 c3 00          	mov    BYTE PTR [ebp-0x3d],0x0
  40178e:	89 85 c0 fe ff ff    	mov    DWORD PTR [ebp-0x140],eax
  401794:	8d 45 e8             	lea    eax,[ebp-0x18]
  401797:	89 85 cc fe ff ff    	mov    DWORD PTR [ebp-0x134],eax
  40179d:	8d 45 e4             	lea    eax,[ebp-0x1c]
  4017a0:	6a 05                	push   0x5
  4017a2:	5a                   	pop    edx
  4017a3:	89 85 d8 fe ff ff    	mov    DWORD PTR [ebp-0x128],eax
  4017a9:	8d 45 e0             	lea    eax,[ebp-0x20]
  4017ac:	89 95 c4 fe ff ff    	mov    DWORD PTR [ebp-0x13c],edx
  4017b2:	c7 85 c8 fe ff ff a7 	mov    DWORD PTR [ebp-0x138],0x4011a7
  4017b9:	11 40 00 
  4017bc:	89 95 d0 fe ff ff    	mov    DWORD PTR [ebp-0x130],edx
  4017c2:	c7 85 d4 fe ff ff 88 	mov    DWORD PTR [ebp-0x12c],0x401188
  4017c9:	11 40 00 
  4017cc:	89 95 dc fe ff ff    	mov    DWORD PTR [ebp-0x124],edx
  4017d2:	c7 85 e0 fe ff ff 8a 	mov    DWORD PTR [ebp-0x120],0x40128a
  4017d9:	12 40 00 
  4017dc:	89 85 e4 fe ff ff    	mov    DWORD PTR [ebp-0x11c],eax
  4017e2:	89 bd e8 fe ff ff    	mov    DWORD PTR [ebp-0x118],edi
  4017e8:	c7 85 ec fe ff ff 7e 	mov    DWORD PTR [ebp-0x114],0x40107e
  4017ef:	10 40 00 
  4017f2:	8d 45 dc             	lea    eax,[ebp-0x24]
  4017f5:	89 95 18 ff ff ff    	mov    DWORD PTR [ebp-0xe8],edx
  4017fb:	89 85 f0 fe ff ff    	mov    DWORD PTR [ebp-0x110],eax
  401801:	33 ff                	xor    edi,edi
  401803:	8d 45 d8             	lea    eax,[ebp-0x28]
  401806:	89 95 30 ff ff ff    	mov    DWORD PTR [ebp-0xd0],edx
  40180c:	89 85 fc fe ff ff    	mov    DWORD PTR [ebp-0x104],eax
  401812:	47                   	inc    edi
  401813:	8d 45 d4             	lea    eax,[ebp-0x2c]
  401816:	89 95 3c ff ff ff    	mov    DWORD PTR [ebp-0xc4],edx
  40181c:	89 85 08 ff ff ff    	mov    DWORD PTR [ebp-0xf8],eax
  401822:	8d 45 d0             	lea    eax,[ebp-0x30]
  401825:	89 85 14 ff ff ff    	mov    DWORD PTR [ebp-0xec],eax
  40182b:	8d 45 cc             	lea    eax,[ebp-0x34]
  40182e:	89 85 20 ff ff ff    	mov    DWORD PTR [ebp-0xe0],eax
  401834:	8d 45 b0             	lea    eax,[ebp-0x50]
  401837:	89 85 2c ff ff ff    	mov    DWORD PTR [ebp-0xd4],eax
  40183d:	8d 45 a8             	lea    eax,[ebp-0x58]
  401840:	89 85 38 ff ff ff    	mov    DWORD PTR [ebp-0xc8],eax
  401846:	8d 45 c8             	lea    eax,[ebp-0x38]
  401849:	89 85 44 ff ff ff    	mov    DWORD PTR [ebp-0xbc],eax
  40184f:	8d 45 f8             	lea    eax,[ebp-0x8]
  401852:	6a 02                	push   0x2
  401854:	59                   	pop    ecx
  401855:	89 85 50 ff ff ff    	mov    DWORD PTR [ebp-0xb0],eax
  40185b:	8d 45 a0             	lea    eax,[ebp-0x60]
  40185e:	89 85 5c ff ff ff    	mov    DWORD PTR [ebp-0xa4],eax
  401864:	8d 45 c4             	lea    eax,[ebp-0x3c]
  401867:	6a 06                	push   0x6
  401869:	89 85 68 ff ff ff    	mov    DWORD PTR [ebp-0x98],eax
  40186f:	8d 45 c0             	lea    eax,[ebp-0x40]
  401872:	89 8d 00 ff ff ff    	mov    DWORD PTR [ebp-0x100],ecx
  401878:	89 8d 0c ff ff ff    	mov    DWORD PTR [ebp-0xf4],ecx
  40187e:	59                   	pop    ecx
  40187f:	6a 03                	push   0x3
  401881:	89 85 74 ff ff ff    	mov    DWORD PTR [ebp-0x8c],eax
  401887:	8d 45 98             	lea    eax,[ebp-0x68]
  40188a:	89 95 48 ff ff ff    	mov    DWORD PTR [ebp-0xb8],edx
  401890:	5a                   	pop    edx
  401891:	89 45 80             	mov    DWORD PTR [ebp-0x80],eax
  401894:	8d 85 c0 fe ff ff    	lea    eax,[ebp-0x140]
  40189a:	6a 11                	push   0x11
  40189c:	50                   	push   eax
  40189d:	56                   	push   esi
  40189e:	89 bd f4 fe ff ff    	mov    DWORD PTR [ebp-0x10c],edi
  4018a4:	c7 85 f8 fe ff ff 3f 	mov    DWORD PTR [ebp-0x108],0x40133f
  4018ab:	13 40 00 
  4018ae:	c7 85 04 ff ff ff 04 	mov    DWORD PTR [ebp-0xfc],0x401204
  4018b5:	12 40 00 
  4018b8:	c7 85 10 ff ff ff 47 	mov    DWORD PTR [ebp-0xf0],0x401247
  4018bf:	12 40 00 
  4018c2:	c7 85 1c ff ff ff 91 	mov    DWORD PTR [ebp-0xe4],0x401091
  4018c9:	10 40 00 
  4018cc:	89 8d 24 ff ff ff    	mov    DWORD PTR [ebp-0xdc],ecx
  4018d2:	c7 85 28 ff ff ff 16 	mov    DWORD PTR [ebp-0xd8],0x401116
  4018d9:	11 40 00 
  4018dc:	c7 85 34 ff ff ff 29 	mov    DWORD PTR [ebp-0xcc],0x401129
  4018e3:	11 40 00 
  4018e6:	c7 85 40 ff ff ff 69 	mov    DWORD PTR [ebp-0xc0],0x401169
  4018ed:	11 40 00 
  4018f0:	c7 85 4c ff ff ff d6 	mov    DWORD PTR [ebp-0xb4],0x4010d6
  4018f7:	10 40 00 
  4018fa:	89 95 54 ff ff ff    	mov    DWORD PTR [ebp-0xac],edx
  401900:	c7 85 58 ff ff ff b0 	mov    DWORD PTR [ebp-0xa8],0x4010b0
  401907:	10 40 00 
  40190a:	89 95 60 ff ff ff    	mov    DWORD PTR [ebp-0xa0],edx
  401910:	c7 85 64 ff ff ff 77 	mov    DWORD PTR [ebp-0x9c],0x401277
  401917:	12 40 00 
  40191a:	89 8d 6c ff ff ff    	mov    DWORD PTR [ebp-0x94],ecx
  401920:	c7 85 70 ff ff ff 6b 	mov    DWORD PTR [ebp-0x90],0x40106b
  401927:	10 40 00 
  40192a:	89 8d 78 ff ff ff    	mov    DWORD PTR [ebp-0x88],ecx
  401930:	c7 85 7c ff ff ff c3 	mov    DWORD PTR [ebp-0x84],0x4010c3
  401937:	10 40 00 
  40193a:	89 55 84             	mov    DWORD PTR [ebp-0x7c],edx
  40193d:	c7 45 88 34 12 40 00 	mov    DWORD PTR [ebp-0x78],0x401234
  401944:	e8 50 55 00 00       	call   0x406e99
  401949:	ff 75 bc             	push   DWORD PTR [ebp-0x44]
  40194c:	8b f0                	mov    esi,eax
  40194e:	8d 85 78 fe ff ff    	lea    eax,[ebp-0x188]
  401954:	50                   	push   eax
  401955:	e8 0f b7 00 00       	call   0x40d069
  40195a:	53                   	push   ebx
  40195b:	e8 61 38 00 00       	call   0x4051c1
  401960:	83 c4 2c             	add    esp,0x2c
  401963:	85 f6                	test   esi,esi
  401965:	0f 84 47 fc ff ff    	je     0x4015b2
  40196b:	e8 7a 09 00 00       	call   0x4022ea
  401970:	a3 34 35 41 00       	mov    ds:0x413534,eax
  401975:	bb 78 12 41 00       	mov    ebx,0x411278
  40197a:	8d 45 ec             	lea    eax,[ebp-0x14]
  40197d:	50                   	push   eax
  40197e:	6a 08                	push   0x8
  401980:	6a 09                	push   0x9
  401982:	68 e3 0c 00 00       	push   0xce3
  401987:	53                   	push   ebx
  401988:	e8 08 4c 00 00       	call   0x406595
  40198d:	33 c0                	xor    eax,eax
  40198f:	66 89 45 f4          	mov    WORD PTR [ebp-0xc],ax
  401993:	8d 45 8c             	lea    eax,[ebp-0x74]
  401996:	50                   	push   eax
  401997:	6a 08                	push   0x8
  401999:	6a 05                	push   0x5
  40199b:	68 b9 0a 00 00       	push   0xab9
  4019a0:	53                   	push   ebx
  4019a1:	e8 ef 4b 00 00       	call   0x406595
  4019a6:	33 c0                	xor    eax,eax
  4019a8:	66 89 45 94          	mov    WORD PTR [ebp-0x6c],ax
  4019ac:	8d 85 b4 fe ff ff    	lea    eax,[ebp-0x14c]
  4019b2:	50                   	push   eax
  4019b3:	6a 0a                	push   0xa
  4019b5:	6a 0e                	push   0xe
  4019b7:	68 80 12 00 00       	push   0x1280
  4019bc:	53                   	push   ebx
  4019bd:	e8 d3 4b 00 00       	call   0x406595
  4019c2:	33 c0                	xor    eax,eax
  4019c4:	50                   	push   eax
  4019c5:	6a 20                	push   0x20
  4019c7:	68 20 34 41 00       	push   0x413420
  4019cc:	66 89 85 be fe ff ff 	mov    WORD PTR [ebp-0x142],ax
  4019d3:	e8 1a 4b 00 00       	call   0x4064f2
  4019d8:	83 c4 48             	add    esp,0x48
  4019db:	a3 2c 35 41 00       	mov    ds:0x41352c,eax
  4019e0:	e8 92 3d 00 00       	call   0x405777
  4019e5:	a3 30 35 41 00       	mov    ds:0x413530,eax
  4019ea:	85 c0                	test   eax,eax
  4019ec:	75 0f                	jne    0x4019fd
  4019ee:	8d 45 ec             	lea    eax,[ebp-0x14]
  4019f1:	50                   	push   eax
  4019f2:	e8 be 4f 00 00       	call   0x4069b5
  4019f7:	59                   	pop    ecx
  4019f8:	a3 30 35 41 00       	mov    ds:0x413530,eax
  4019fd:	e8 e6 02 00 00       	call   0x401ce8
  401a02:	a3 28 35 41 00       	mov    ds:0x413528,eax
  401a07:	e8 a8 3e 00 00       	call   0x4058b4
  401a0c:	a3 38 35 41 00       	mov    ds:0x413538,eax
  401a11:	85 c0                	test   eax,eax
  401a13:	75 0f                	jne    0x401a24
  401a15:	8d 45 ec             	lea    eax,[ebp-0x14]
  401a18:	50                   	push   eax
  401a19:	e8 97 4f 00 00       	call   0x4069b5
  401a1e:	59                   	pop    ecx
  401a1f:	a3 38 35 41 00       	mov    ds:0x413538,eax
  401a24:	e8 94 3a 00 00       	call   0x4054bd
  401a29:	a3 3c 35 41 00       	mov    ds:0x41353c,eax
  401a2e:	85 c0                	test   eax,eax
  401a30:	75 0f                	jne    0x401a41
  401a32:	8d 45 ec             	lea    eax,[ebp-0x14]
  401a35:	50                   	push   eax
  401a36:	e8 7a 4f 00 00       	call   0x4069b5
  401a3b:	59                   	pop    ecx
  401a3c:	a3 3c 35 41 00       	mov    ds:0x41353c,eax
  401a41:	e8 a0 3b 00 00       	call   0x4055e6
  401a46:	a3 40 35 41 00       	mov    ds:0x413540,eax
  401a4b:	85 c0                	test   eax,eax
  401a4d:	75 0f                	jne    0x401a5e
  401a4f:	8d 45 ec             	lea    eax,[ebp-0x14]
  401a52:	50                   	push   eax
  401a53:	e8 5d 4f 00 00       	call   0x4069b5
  401a58:	59                   	pop    ecx
  401a59:	a3 40 35 41 00       	mov    ds:0x413540,eax
  401a5e:	e8 3f 3c 00 00       	call   0x4056a2
  401a63:	a3 44 35 41 00       	mov    ds:0x413544,eax
  401a68:	85 c0                	test   eax,eax
  401a6a:	75 0f                	jne    0x401a7b
  401a6c:	8d 45 ec             	lea    eax,[ebp-0x14]
  401a6f:	50                   	push   eax
  401a70:	e8 40 4f 00 00       	call   0x4069b5
  401a75:	59                   	pop    ecx
  401a76:	a3 44 35 41 00       	mov    ds:0x413544,eax
  401a7b:	e8 7e 3e 00 00       	call   0x4058fe
  401a80:	85 c0                	test   eax,eax
  401a82:	8d 95 b4 fe ff ff    	lea    edx,[ebp-0x14c]
  401a88:	8d 4d 8c             	lea    ecx,[ebp-0x74]
  401a8b:	0f 44 ca             	cmove  ecx,edx
  401a8e:	51                   	push   ecx
  401a8f:	e8 21 4f 00 00       	call   0x4069b5
  401a94:	59                   	pop    ecx
  401a95:	a3 48 35 41 00       	mov    ds:0x413548,eax
  401a9a:	e8 9f 3d 00 00       	call   0x40583e
  401a9f:	a3 4c 35 41 00       	mov    ds:0x41354c,eax
  401aa4:	85 c0                	test   eax,eax
  401aa6:	75 0f                	jne    0x401ab7
  401aa8:	8d 45 ec             	lea    eax,[ebp-0x14]
  401aab:	50                   	push   eax
  401aac:	e8 04 4f 00 00       	call   0x4069b5
  401ab1:	59                   	pop    ecx
  401ab2:	a3 4c 35 41 00       	mov    ds:0x41354c,eax
  401ab7:	8d 45 b8             	lea    eax,[ebp-0x48]
  401aba:	50                   	push   eax
  401abb:	e8 48 3a 00 00       	call   0x405508
  401ac0:	6b 4d b8 16          	imul   ecx,DWORD PTR [ebp-0x48],0x16
  401ac4:	8b f0                	mov    esi,eax
  401ac6:	6a 00                	push   0x0
  401ac8:	51                   	push   ecx
  401ac9:	56                   	push   esi
  401aca:	e8 23 4a 00 00       	call   0x4064f2
  401acf:	56                   	push   esi
  401ad0:	a3 50 35 41 00       	mov    ds:0x413550,eax
  401ad5:	e8 e7 36 00 00       	call   0x4051c1
  401ada:	e8 42 3f 00 00       	call   0x405a21
  401adf:	f7 d8                	neg    eax
  401ae1:	1b c0                	sbb    eax,eax
  401ae3:	83 e0 ea             	and    eax,0xffffffea
  401ae6:	83 c0 56             	add    eax,0x56
  401ae9:	a3 ac 35 41 00       	mov    ds:0x4135ac,eax
  401aee:	e8 81 06 00 00       	call   0x402174
  401af3:	e8 66 07 00 00       	call   0x40225e
  401af8:	e8 ef 04 00 00       	call   0x401fec
  401afd:	8d 85 68 fe ff ff    	lea    eax,[ebp-0x198]
  401b03:	50                   	push   eax
  401b04:	6a 0c                	push   0xc
  401b06:	6a 05                	push   0x5
  401b08:	68 26 04 00 00       	push   0x426
  401b0d:	53                   	push   ebx
  401b0e:	e8 82 4a 00 00       	call   0x406595
  401b13:	33 c0                	xor    eax,eax
  401b15:	66 89 85 74 fe ff ff 	mov    WORD PTR [ebp-0x18c],ax
  401b1c:	8d 85 34 fe ff ff    	lea    eax,[ebp-0x1cc]
  401b22:	50                   	push   eax
  401b23:	6a 10                	push   0x10
  401b25:	6a 0f                	push   0xf
  401b27:	68 29 07 00 00       	push   0x729
  401b2c:	53                   	push   ebx
  401b2d:	e8 63 4a 00 00       	call   0x406595
  401b32:	33 c0                	xor    eax,eax
  401b34:	66 89 85 44 fe ff ff 	mov    WORD PTR [ebp-0x1bc],ax
  401b3b:	8d 85 a8 fe ff ff    	lea    eax,[ebp-0x158]
  401b41:	50                   	push   eax
  401b42:	6a 0a                	push   0xa
  401b44:	5e                   	pop    esi
  401b45:	56                   	push   esi
  401b46:	56                   	push   esi
  401b47:	68 38 0d 00 00       	push   0xd38
  401b4c:	53                   	push   ebx
  401b4d:	e8 43 4a 00 00       	call   0x406595
  401b52:	83 c4 50             	add    esp,0x50
  401b55:	33 c0                	xor    eax,eax
  401b57:	66 89 85 b2 fe ff ff 	mov    WORD PTR [ebp-0x14e],ax
  401b5e:	8d 85 48 fe ff ff    	lea    eax,[ebp-0x1b8]
  401b64:	50                   	push   eax
  401b65:	6a 0e                	push   0xe
  401b67:	6a 0d                	push   0xd
  401b69:	68 8b 11 00 00       	push   0x118b
  401b6e:	53                   	push   ebx
  401b6f:	e8 21 4a 00 00       	call   0x406595
  401b74:	33 c0                	xor    eax,eax
  401b76:	66 89 85 56 fe ff ff 	mov    WORD PTR [ebp-0x1aa],ax
  401b7d:	8d 85 58 fe ff ff    	lea    eax,[ebp-0x1a8]
  401b83:	50                   	push   eax
  401b84:	6a 0c                	push   0xc
  401b86:	6a 0e                	push   0xe
  401b88:	6a 2f                	push   0x2f
  401b8a:	53                   	push   ebx
  401b8b:	e8 05 4a 00 00       	call   0x406595
  401b90:	33 c0                	xor    eax,eax
  401b92:	66 89 85 64 fe ff ff 	mov    WORD PTR [ebp-0x19c],ax
  401b99:	8d 85 68 fe ff ff    	lea    eax,[ebp-0x198]
  401b9f:	50                   	push   eax
  401ba0:	e8 34 f8 ff ff       	call   0x4013d9
  401ba5:	f7 d8                	neg    eax
  401ba7:	1b c0                	sbb    eax,eax
  401ba9:	40                   	inc    eax
  401baa:	a3 c4 35 41 00       	mov    ds:0x4135c4,eax
  401baf:	8d 85 34 fe ff ff    	lea    eax,[ebp-0x1cc]
  401bb5:	50                   	push   eax
  401bb6:	e8 1e f8 ff ff       	call   0x4013d9
  401bbb:	f7 d8                	neg    eax
  401bbd:	1b c0                	sbb    eax,eax
  401bbf:	40                   	inc    eax
  401bc0:	a3 c8 35 41 00       	mov    ds:0x4135c8,eax
  401bc5:	8d 85 a8 fe ff ff    	lea    eax,[ebp-0x158]
  401bcb:	50                   	push   eax
  401bcc:	e8 08 f8 ff ff       	call   0x4013d9
  401bd1:	a3 cc 35 41 00       	mov    ds:0x4135cc,eax
  401bd6:	8d 85 48 fe ff ff    	lea    eax,[ebp-0x1b8]
  401bdc:	50                   	push   eax
  401bdd:	e8 f7 f7 ff ff       	call   0x4013d9
  401be2:	f7 d8                	neg    eax
  401be4:	1b c0                	sbb    eax,eax
  401be6:	40                   	inc    eax
  401be7:	a3 d0 35 41 00       	mov    ds:0x4135d0,eax
  401bec:	8d 85 58 fe ff ff    	lea    eax,[ebp-0x1a8]
  401bf2:	50                   	push   eax
  401bf3:	e8 e1 f7 ff ff       	call   0x4013d9
  401bf8:	a3 d8 35 41 00       	mov    ds:0x4135d8,eax
  401bfd:	8d 85 9c fe ff ff    	lea    eax,[ebp-0x164]
  401c03:	50                   	push   eax
  401c04:	56                   	push   esi
  401c05:	6a 0b                	push   0xb
  401c07:	68 bb 02 00 00       	push   0x2bb
  401c0c:	53                   	push   ebx
  401c0d:	e8 83 49 00 00       	call   0x406595
  401c12:	33 c0                	xor    eax,eax
  401c14:	83 c4 50             	add    esp,0x50
  401c17:	66 89 85 a6 fe ff ff 	mov    WORD PTR [ebp-0x15a],ax
  401c1e:	8d 85 9c fe ff ff    	lea    eax,[ebp-0x164]
  401c24:	50                   	push   eax
  401c25:	e8 af f7 ff ff       	call   0x4013d9
  401c2a:	a3 bc 35 41 00       	mov    ds:0x4135bc,eax
  401c2f:	8d 85 90 fe ff ff    	lea    eax,[ebp-0x170]
  401c35:	50                   	push   eax
  401c36:	56                   	push   esi
  401c37:	6a 0b                	push   0xb
  401c39:	68 9e 0d 00 00       	push   0xd9e
  401c3e:	53                   	push   ebx
  401c3f:	e8 51 49 00 00       	call   0x406595
  401c44:	33 c0                	xor    eax,eax
  401c46:	66 89 85 9a fe ff ff 	mov    WORD PTR [ebp-0x166],ax
  401c4d:	8d 85 90 fe ff ff    	lea    eax,[ebp-0x170]
  401c53:	50                   	push   eax
  401c54:	e8 80 f7 ff ff       	call   0x4013d9
  401c59:	83 c4 1c             	add    esp,0x1c
  401c5c:	a3 c0 35 41 00       	mov    ds:0x4135c0,eax
  401c61:	83 3d 2c 35 41 00 00 	cmp    DWORD PTR ds:0x41352c,0x0
  401c68:	74 75                	je     0x401cdf
  401c6a:	83 3d 30 35 41 00 00 	cmp    DWORD PTR ds:0x413530,0x0
  401c71:	74 6c                	je     0x401cdf
  401c73:	83 3d 34 35 41 00 00 	cmp    DWORD PTR ds:0x413534,0x0
  401c7a:	74 63                	je     0x401cdf
  401c7c:	83 3d 28 35 41 00 00 	cmp    DWORD PTR ds:0x413528,0x0
  401c83:	74 5a                	je     0x401cdf
  401c85:	83 3d 38 35 41 00 00 	cmp    DWORD PTR ds:0x413538,0x0
  401c8c:	74 51                	je     0x401cdf
  401c8e:	83 3d 3c 35 41 00 00 	cmp    DWORD PTR ds:0x41353c,0x0
  401c95:	74 48                	je     0x401cdf
  401c97:	83 3d 40 35 41 00 00 	cmp    DWORD PTR ds:0x413540,0x0
  401c9e:	74 3f                	je     0x401cdf
  401ca0:	83 3d 44 35 41 00 00 	cmp    DWORD PTR ds:0x413544,0x0
  401ca7:	74 36                	je     0x401cdf
  401ca9:	83 3d 48 35 41 00 00 	cmp    DWORD PTR ds:0x413548,0x0
  401cb0:	74 2d                	je     0x401cdf
  401cb2:	83 3d 4c 35 41 00 00 	cmp    DWORD PTR ds:0x41354c,0x0
  401cb9:	74 24                	je     0x401cdf
  401cbb:	83 3d 50 35 41 00 00 	cmp    DWORD PTR ds:0x413550,0x0
  401cc2:	74 1b                	je     0x401cdf
  401cc4:	83 3d 1c 35 41 00 00 	cmp    DWORD PTR ds:0x41351c,0x0
  401ccb:	74 12                	je     0x401cdf
  401ccd:	83 3d 20 35 41 00 00 	cmp    DWORD PTR ds:0x413520,0x0
  401cd4:	74 09                	je     0x401cdf
  401cd6:	83 3d 24 35 41 00 00 	cmp    DWORD PTR ds:0x413524,0x0
  401cdd:	75 02                	jne    0x401ce1
  401cdf:	33 ff                	xor    edi,edi
  401ce1:	8b c7                	mov    eax,edi
  401ce3:	e9 cc f8 ff ff       	jmp    0x4015b4
  401ce8:	55                   	push   ebp
  401ce9:	8b ec                	mov    ebp,esp
  401ceb:	83 ec 4c             	sub    esp,0x4c
  401cee:	53                   	push   ebx
  401cef:	56                   	push   esi
  401cf0:	57                   	push   edi
  401cf1:	8d 45 b4             	lea    eax,[ebp-0x4c]
  401cf4:	be 78 12 41 00       	mov    esi,0x411278
  401cf9:	50                   	push   eax
  401cfa:	6a 32                	push   0x32
  401cfc:	6a 10                	push   0x10
  401cfe:	68 44 03 00 00       	push   0x344
  401d03:	56                   	push   esi
  401d04:	e8 8c 48 00 00       	call   0x406595
  401d09:	33 c0                	xor    eax,eax
  401d0b:	66 89 45 e6          	mov    WORD PTR [ebp-0x1a],ax
  401d0f:	8d 45 e8             	lea    eax,[ebp-0x18]
  401d12:	50                   	push   eax
  401d13:	6a 0e                	push   0xe
  401d15:	6a 07                	push   0x7
  401d17:	68 9f 0c 00 00       	push   0xc9f
  401d1c:	56                   	push   esi
  401d1d:	e8 73 48 00 00       	call   0x406595
  401d22:	33 c0                	xor    eax,eax
  401d24:	66 89 45 f6          	mov    WORD PTR [ebp-0xa],ax
  401d28:	8d 45 fc             	lea    eax,[ebp-0x4]
  401d2b:	50                   	push   eax
  401d2c:	8d 45 f8             	lea    eax,[ebp-0x8]
  401d2f:	50                   	push   eax
  401d30:	8d 45 e8             	lea    eax,[ebp-0x18]
  401d33:	50                   	push   eax
  401d34:	8d 45 b4             	lea    eax,[ebp-0x4c]
  401d37:	50                   	push   eax
  401d38:	68 02 00 00 80       	push   0x80000002
  401d3d:	e8 71 3f 00 00       	call   0x405cb3
  401d42:	8b f0                	mov    esi,eax
  401d44:	83 c4 3c             	add    esp,0x3c
  401d47:	bf 6c 35 41 00       	mov    edi,0x41356c
  401d4c:	bb 01 00 00 80       	mov    ebx,0x80000001
  401d51:	85 f6                	test   esi,esi
  401d53:	75 1f                	jne    0x401d74
  401d55:	8d 45 fc             	lea    eax,[ebp-0x4]
  401d58:	50                   	push   eax
  401d59:	8d 45 f8             	lea    eax,[ebp-0x8]
  401d5c:	50                   	push   eax
  401d5d:	8d 45 e8             	lea    eax,[ebp-0x18]
  401d60:	50                   	push   eax
  401d61:	8d 45 b4             	lea    eax,[ebp-0x4c]
  401d64:	50                   	push   eax
  401d65:	53                   	push   ebx
  401d66:	e8 48 3f 00 00       	call   0x405cb3
  401d6b:	8b f0                	mov    esi,eax
  401d6d:	83 c4 14             	add    esp,0x14
  401d70:	85 f6                	test   esi,esi
  401d72:	74 15                	je     0x401d89
  401d74:	83 7d f8 01          	cmp    DWORD PTR [ebp-0x8],0x1
  401d78:	0f 84 85 00 00 00    	je     0x401e03
  401d7e:	85 f6                	test   esi,esi
  401d80:	74 07                	je     0x401d89
  401d82:	56                   	push   esi
  401d83:	e8 39 34 00 00       	call   0x4051c1
  401d88:	59                   	pop    ecx
  401d89:	6a 0a                	push   0xa
  401d8b:	6a 05                	push   0x5
  401d8d:	e8 69 09 00 00       	call   0x4026fb
  401d92:	59                   	pop    ecx
  401d93:	59                   	pop    ecx
  401d94:	eb 22                	jmp    0x401db8
  401d96:	8d 46 02             	lea    eax,[esi+0x2]
  401d99:	50                   	push   eax
  401d9a:	57                   	push   edi
  401d9b:	e8 d5 4e 00 00       	call   0x406c75
  401da0:	59                   	pop    ecx
  401da1:	59                   	pop    ecx
  401da2:	56                   	push   esi
  401da3:	85 c0                	test   eax,eax
  401da5:	74 19                	je     0x401dc0
  401da7:	e8 15 34 00 00       	call   0x4051c1
  401dac:	6a 0a                	push   0xa
  401dae:	6a 05                	push   0x5
  401db0:	e8 46 09 00 00       	call   0x4026fb
  401db5:	83 c4 0c             	add    esp,0xc
  401db8:	8b f0                	mov    esi,eax
  401dba:	85 f6                	test   esi,esi
  401dbc:	75 d8                	jne    0x401d96
  401dbe:	eb 51                	jmp    0x401e11
  401dc0:	e8 3e 4c 00 00       	call   0x406a03
  401dc5:	8d 04 45 02 00 00 00 	lea    eax,[eax*2+0x2]
  401dcc:	50                   	push   eax
  401dcd:	56                   	push   esi
  401dce:	89 45 fc             	mov    DWORD PTR [ebp-0x4],eax
  401dd1:	8d 45 e8             	lea    eax,[ebp-0x18]
  401dd4:	6a 01                	push   0x1
  401dd6:	50                   	push   eax
  401dd7:	8d 45 b4             	lea    eax,[ebp-0x4c]
  401dda:	50                   	push   eax
  401ddb:	68 02 00 00 80       	push   0x80000002
  401de0:	e8 4d 3f 00 00       	call   0x405d32
  401de5:	83 c4 1c             	add    esp,0x1c
  401de8:	85 c0                	test   eax,eax
  401dea:	75 17                	jne    0x401e03
  401dec:	ff 75 fc             	push   DWORD PTR [ebp-0x4]
  401def:	8d 45 e8             	lea    eax,[ebp-0x18]
  401df2:	56                   	push   esi
  401df3:	6a 01                	push   0x1
  401df5:	50                   	push   eax
  401df6:	8d 45 b4             	lea    eax,[ebp-0x4c]
  401df9:	50                   	push   eax
  401dfa:	53                   	push   ebx
  401dfb:	e8 32 3f 00 00       	call   0x405d32
  401e00:	83 c4 18             	add    esp,0x18
  401e03:	8d 46 02             	lea    eax,[esi+0x2]
  401e06:	50                   	push   eax
  401e07:	57                   	push   edi
  401e08:	e8 ac 4f 00 00       	call   0x406db9
  401e0d:	59                   	pop    ecx
  401e0e:	59                   	pop    ecx
  401e0f:	8b c6                	mov    eax,esi
  401e11:	5f                   	pop    edi
  401e12:	5e                   	pop    esi
  401e13:	5b                   	pop    ebx
  401e14:	8b e5                	mov    esp,ebp
  401e16:	5d                   	pop    ebp
  401e17:	c3                   	ret    
  401e18:	55                   	push   ebp
  401e19:	8b ec                	mov    ebp,esp
  401e1b:	81 ec 88 01 00 00    	sub    esp,0x188
  401e21:	53                   	push   ebx
  401e22:	56                   	push   esi
  401e23:	57                   	push   edi
  401e24:	8d 45 b4             	lea    eax,[ebp-0x4c]
  401e27:	bb 78 12 41 00       	mov    ebx,0x411278
  401e2c:	50                   	push   eax
  401e2d:	6a 32                	push   0x32
  401e2f:	6a 10                	push   0x10
  401e31:	68 44 03 00 00       	push   0x344
  401e36:	53                   	push   ebx
  401e37:	e8 59 47 00 00       	call   0x406595
  401e3c:	33 c0                	xor    eax,eax
  401e3e:	66 89 45 e6          	mov    WORD PTR [ebp-0x1a],ax
  401e42:	8d 45 e8             	lea    eax,[ebp-0x18]
  401e45:	50                   	push   eax
  401e46:	6a 10                	push   0x10
  401e48:	6a 07                	push   0x7
  401e4a:	68 7b 0d 00 00       	push   0xd7b
  401e4f:	53                   	push   ebx
  401e50:	e8 40 47 00 00       	call   0x406595
  401e55:	8b 7d 08             	mov    edi,DWORD PTR [ebp+0x8]
  401e58:	33 c0                	xor    eax,eax
  401e5a:	66 89 45 f8          	mov    WORD PTR [ebp-0x8],ax
  401e5e:	8d 45 fc             	lea    eax,[ebp-0x4]
  401e61:	57                   	push   edi
  401e62:	50                   	push   eax
  401e63:	8d 45 e8             	lea    eax,[ebp-0x18]
  401e66:	50                   	push   eax
  401e67:	8d 45 b4             	lea    eax,[ebp-0x4c]
  401e6a:	50                   	push   eax
  401e6b:	68 02 00 00 80       	push   0x80000002
  401e70:	e8 3e 3e 00 00       	call   0x405cb3
  401e75:	8b f0                	mov    esi,eax
  401e77:	83 c4 3c             	add    esp,0x3c
  401e7a:	85 f6                	test   esi,esi
  401e7c:	75 20                	jne    0x401e9e
  401e7e:	57                   	push   edi
  401e7f:	8d 45 fc             	lea    eax,[ebp-0x4]
  401e82:	50                   	push   eax
  401e83:	8d 45 e8             	lea    eax,[ebp-0x18]
  401e86:	50                   	push   eax
  401e87:	8d 45 b4             	lea    eax,[ebp-0x4c]
  401e8a:	50                   	push   eax
  401e8b:	68 01 00 00 80       	push   0x80000001
  401e90:	e8 1e 3e 00 00       	call   0x405cb3
  401e95:	8b f0                	mov    esi,eax
  401e97:	83 c4 14             	add    esp,0x14
  401e9a:	85 f6                	test   esi,esi
  401e9c:	74 0a                	je     0x401ea8
  401e9e:	83 7d fc 03          	cmp    DWORD PTR [ebp-0x4],0x3
  401ea2:	0f 84 0b 01 00 00    	je     0x401fb3
  401ea8:	be 00 00 02 00       	mov    esi,0x20000
  401ead:	56                   	push   esi
  401eae:	e8 c1 32 00 00       	call   0x405174
  401eb3:	8b d8                	mov    ebx,eax
  401eb5:	59                   	pop    ecx
  401eb6:	85 db                	test   ebx,ebx
  401eb8:	75 07                	jne    0x401ec1
  401eba:	33 c0                	xor    eax,eax
  401ebc:	e9 f4 00 00 00       	jmp    0x401fb5
  401ec1:	8d 85 78 fe ff ff    	lea    eax,[ebp-0x188]
  401ec7:	50                   	push   eax
  401ec8:	68 3a 01 00 00       	push   0x13a
  401ecd:	6a 09                	push   0x9
  401ecf:	68 79 0e 00 00       	push   0xe79
  401ed4:	68 78 12 41 00       	push   0x411278
  401ed9:	e8 b7 46 00 00       	call   0x406595
  401ede:	33 c0                	xor    eax,eax
  401ee0:	66 89 45 b2          	mov    WORD PTR [ebp-0x4e],ax
  401ee4:	a1 28 35 41 00       	mov    eax,ds:0x413528
  401ee9:	83 c0 02             	add    eax,0x2
  401eec:	50                   	push   eax
  401eed:	ff 35 50 35 41 00    	push   DWORD PTR ds:0x413550
  401ef3:	8d 85 78 fe ff ff    	lea    eax,[ebp-0x188]
  401ef9:	ff 35 ac 35 41 00    	push   DWORD PTR ds:0x4135ac
  401eff:	ff 35 4c 35 41 00    	push   DWORD PTR ds:0x41354c
  401f05:	ff 35 48 35 41 00    	push   DWORD PTR ds:0x413548
  401f0b:	ff 35 44 35 41 00    	push   DWORD PTR ds:0x413544
  401f11:	ff 35 40 35 41 00    	push   DWORD PTR ds:0x413540
  401f17:	ff 35 3c 35 41 00    	push   DWORD PTR ds:0x41353c
  401f1d:	ff 35 38 35 41 00    	push   DWORD PTR ds:0x413538
  401f23:	ff 35 34 35 41 00    	push   DWORD PTR ds:0x413534
  401f29:	ff 35 30 35 41 00    	push   DWORD PTR ds:0x413530
  401f2f:	ff 35 2c 35 41 00    	push   DWORD PTR ds:0x41352c
  401f35:	ff 35 14 35 41 00    	push   DWORD PTR ds:0x413514
  401f3b:	ff 35 10 35 41 00    	push   DWORD PTR ds:0x413510
  401f41:	68 07 02 00 00       	push   0x207
  401f46:	50                   	push   eax
  401f47:	56                   	push   esi
  401f48:	53                   	push   ebx
  401f49:	ff 15 4c 27 41 00    	call   DWORD PTR ds:0x41274c
  401f4f:	83 c4 5c             	add    esp,0x5c
  401f52:	57                   	push   edi
  401f53:	53                   	push   ebx
  401f54:	e8 aa 4a 00 00       	call   0x406a03
  401f59:	59                   	pop    ecx
  401f5a:	03 c0                	add    eax,eax
  401f5c:	50                   	push   eax
  401f5d:	53                   	push   ebx
  401f5e:	68 00 10 41 00       	push   0x411000
  401f63:	e8 b5 53 00 00       	call   0x40731d
  401f68:	53                   	push   ebx
  401f69:	8b f0                	mov    esi,eax
  401f6b:	e8 51 32 00 00       	call   0x4051c1
  401f70:	83 c4 14             	add    esp,0x14
  401f73:	85 f6                	test   esi,esi
  401f75:	0f 84 3f ff ff ff    	je     0x401eba
  401f7b:	ff 37                	push   DWORD PTR [edi]
  401f7d:	8d 45 e8             	lea    eax,[ebp-0x18]
  401f80:	56                   	push   esi
  401f81:	6a 03                	push   0x3
  401f83:	50                   	push   eax
  401f84:	8d 45 b4             	lea    eax,[ebp-0x4c]
  401f87:	50                   	push   eax
  401f88:	68 02 00 00 80       	push   0x80000002
  401f8d:	e8 a0 3d 00 00       	call   0x405d32
  401f92:	83 c4 18             	add    esp,0x18
  401f95:	85 c0                	test   eax,eax
  401f97:	75 1a                	jne    0x401fb3
  401f99:	ff 37                	push   DWORD PTR [edi]
  401f9b:	8d 45 e8             	lea    eax,[ebp-0x18]
  401f9e:	56                   	push   esi
  401f9f:	6a 03                	push   0x3
  401fa1:	50                   	push   eax
  401fa2:	8d 45 b4             	lea    eax,[ebp-0x4c]
  401fa5:	50                   	push   eax
  401fa6:	68 01 00 00 80       	push   0x80000001
  401fab:	e8 82 3d 00 00       	call   0x405d32
  401fb0:	83 c4 18             	add    esp,0x18
  401fb3:	8b c6                	mov    eax,esi
  401fb5:	5f                   	pop    edi
  401fb6:	5e                   	pop    esi
  401fb7:	5b                   	pop    ebx
  401fb8:	8b e5                	mov    esp,ebp
  401fba:	5d                   	pop    ebp
  401fbb:	c3                   	ret    
  401fbc:	55                   	push   ebp
  401fbd:	8b ec                	mov    ebp,esp
  401fbf:	57                   	push   edi
  401fc0:	8b 7d 08             	mov    edi,DWORD PTR [ebp+0x8]
  401fc3:	83 7f 08 00          	cmp    DWORD PTR [edi+0x8],0x0
  401fc7:	74 20                	je     0x401fe9
  401fc9:	56                   	push   esi
  401fca:	8b 77 08             	mov    esi,DWORD PTR [edi+0x8]
  401fcd:	8b 46 04             	mov    eax,DWORD PTR [esi+0x4]
  401fd0:	89 47 08             	mov    DWORD PTR [edi+0x8],eax
  401fd3:	ff 36                	push   DWORD PTR [esi]
  401fd5:	e8 e7 31 00 00       	call   0x4051c1
  401fda:	56                   	push   esi
  401fdb:	e8 e1 31 00 00       	call   0x4051c1
  401fe0:	83 7f 08 00          	cmp    DWORD PTR [edi+0x8],0x0
  401fe4:	59                   	pop    ecx
  401fe5:	59                   	pop    ecx
  401fe6:	75 e2                	jne    0x401fca
  401fe8:	5e                   	pop    esi
  401fe9:	5f                   	pop    edi
  401fea:	5d                   	pop    ebp
  401feb:	c3                   	ret    
  401fec:	55                   	push   ebp
  401fed:	8b ec                	mov    ebp,esp
  401fef:	81 ec 9c 00 00 00    	sub    esp,0x9c
  401ff5:	8d 45 fc             	lea    eax,[ebp-0x4]
  401ff8:	56                   	push   esi
  401ff9:	50                   	push   eax
  401ffa:	e8 19 fe ff ff       	call   0x401e18
  401fff:	8b f0                	mov    esi,eax
  402001:	59                   	pop    ecx
  402002:	85 f6                	test   esi,esi
  402004:	0f 84 65 01 00 00    	je     0x40216f
  40200a:	57                   	push   edi
  40200b:	6a 01                	push   0x1
  40200d:	ff 75 fc             	push   DWORD PTR [ebp-0x4]
  402010:	56                   	push   esi
  402011:	e8 dc 44 00 00       	call   0x4064f2
  402016:	56                   	push   esi
  402017:	8b f8                	mov    edi,eax
  402019:	e8 a3 31 00 00       	call   0x4051c1
  40201e:	83 c4 10             	add    esp,0x10
  402021:	85 ff                	test   edi,edi
  402023:	75 07                	jne    0x40202c
  402025:	33 c0                	xor    eax,eax
  402027:	e9 42 01 00 00       	jmp    0x40216e
  40202c:	8d 45 bc             	lea    eax,[ebp-0x44]
  40202f:	be 78 12 41 00       	mov    esi,0x411278
  402034:	50                   	push   eax
  402035:	6a 0a                	push   0xa
  402037:	6a 0c                	push   0xc
  402039:	68 b5 08 00 00       	push   0x8b5
  40203e:	56                   	push   esi
  40203f:	e8 51 45 00 00       	call   0x406595
  402044:	33 c0                	xor    eax,eax
  402046:	66 89 45 c6          	mov    WORD PTR [ebp-0x3a],ax
  40204a:	8d 45 b0             	lea    eax,[ebp-0x50]
  40204d:	50                   	push   eax
  40204e:	6a 0a                	push   0xa
  402050:	6a 0b                	push   0xb
  402052:	68 db 06 00 00       	push   0x6db
  402057:	56                   	push   esi
  402058:	e8 38 45 00 00       	call   0x406595
  40205d:	33 c0                	xor    eax,eax
  40205f:	66 89 45 ba          	mov    WORD PTR [ebp-0x46],ax
  402063:	8d 45 a4             	lea    eax,[ebp-0x5c]
  402066:	50                   	push   eax
  402067:	6a 0a                	push   0xa
  402069:	6a 0b                	push   0xb
  40206b:	68 e0 0d 00 00       	push   0xde0
  402070:	56                   	push   esi
  402071:	e8 1f 45 00 00       	call   0x406595
  402076:	33 c0                	xor    eax,eax
  402078:	66 89 45 ae          	mov    WORD PTR [ebp-0x52],ax
  40207c:	8d 85 7c ff ff ff    	lea    eax,[ebp-0x84]
  402082:	50                   	push   eax
  402083:	6a 14                	push   0x14
  402085:	6a 0d                	push   0xd
  402087:	6a 50                	push   0x50
  402089:	56                   	push   esi
  40208a:	e8 06 45 00 00       	call   0x406595
  40208f:	83 c4 50             	add    esp,0x50
  402092:	33 c0                	xor    eax,eax
  402094:	66 89 45 90          	mov    WORD PTR [ebp-0x70],ax
  402098:	8d 85 64 ff ff ff    	lea    eax,[ebp-0x9c]
  40209e:	50                   	push   eax
  40209f:	6a 14                	push   0x14
  4020a1:	6a 0f                	push   0xf
  4020a3:	68 31 0e 00 00       	push   0xe31
  4020a8:	56                   	push   esi
  4020a9:	e8 e7 44 00 00       	call   0x406595
  4020ae:	33 c0                	xor    eax,eax
  4020b0:	66 89 85 78 ff ff ff 	mov    WORD PTR [ebp-0x88],ax
  4020b7:	8d 45 94             	lea    eax,[ebp-0x6c]
  4020ba:	50                   	push   eax
  4020bb:	6a 0c                	push   0xc
  4020bd:	6a 0e                	push   0xe
  4020bf:	68 25 11 00 00       	push   0x1125
  4020c4:	56                   	push   esi
  4020c5:	e8 cb 44 00 00       	call   0x406595
  4020ca:	33 c0                	xor    eax,eax
  4020cc:	66 89 45 a0          	mov    WORD PTR [ebp-0x60],ax
  4020d0:	8d 45 f0             	lea    eax,[ebp-0x10]
  4020d3:	50                   	push   eax
  4020d4:	6a 08                	push   0x8
  4020d6:	6a 04                	push   0x4
  4020d8:	68 cd 04 00 00       	push   0x4cd
  4020dd:	56                   	push   esi
  4020de:	e8 b2 44 00 00       	call   0x406595
  4020e3:	33 c0                	xor    eax,eax
  4020e5:	66 89 45 f8          	mov    WORD PTR [ebp-0x8],ax
  4020e9:	8d 45 94             	lea    eax,[ebp-0x6c]
  4020ec:	50                   	push   eax
  4020ed:	ff 35 38 35 41 00    	push   DWORD PTR ds:0x413538
  4020f3:	e8 01 48 00 00       	call   0x4068f9
  4020f8:	83 c4 44             	add    esp,0x44
  4020fb:	89 7d d4             	mov    DWORD PTR [ebp-0x2c],edi
  4020fe:	85 c0                	test   eax,eax
  402100:	8d 4d f0             	lea    ecx,[ebp-0x10]
  402103:	8d 45 bc             	lea    eax,[ebp-0x44]
  402106:	0f 45 0d 38 35 41 00 	cmovne ecx,DWORD PTR ds:0x413538
  40210d:	89 45 c8             	mov    DWORD PTR [ebp-0x38],eax
  402110:	a1 30 35 41 00       	mov    eax,ds:0x413530
  402115:	89 45 cc             	mov    DWORD PTR [ebp-0x34],eax
  402118:	8d 45 b0             	lea    eax,[ebp-0x50]
  40211b:	89 45 d0             	mov    DWORD PTR [ebp-0x30],eax
  40211e:	8d 45 a4             	lea    eax,[ebp-0x5c]
  402121:	89 45 d8             	mov    DWORD PTR [ebp-0x28],eax
  402124:	a1 28 35 41 00       	mov    eax,ds:0x413528
  402129:	83 c0 02             	add    eax,0x2
  40212c:	89 4d e4             	mov    DWORD PTR [ebp-0x1c],ecx
  40212f:	89 45 dc             	mov    DWORD PTR [ebp-0x24],eax
  402132:	8d 4d c8             	lea    ecx,[ebp-0x38]
  402135:	8d 85 7c ff ff ff    	lea    eax,[ebp-0x84]
  40213b:	89 45 e0             	mov    DWORD PTR [ebp-0x20],eax
  40213e:	8d 85 64 ff ff ff    	lea    eax,[ebp-0x9c]
  402144:	6a 05                	push   0x5
  402146:	51                   	push   ecx
  402147:	ff 35 24 35 41 00    	push   DWORD PTR ds:0x413524
  40214d:	89 45 e8             	mov    DWORD PTR [ebp-0x18],eax
  402150:	a1 20 35 41 00       	mov    eax,ds:0x413520
  402155:	89 45 ec             	mov    DWORD PTR [ebp-0x14],eax
  402158:	e8 92 45 00 00       	call   0x4066ef
  40215d:	57                   	push   edi
  40215e:	a3 24 35 41 00       	mov    ds:0x413524,eax
  402163:	e8 59 30 00 00       	call   0x4051c1
  402168:	33 c0                	xor    eax,eax
  40216a:	83 c4 10             	add    esp,0x10
  40216d:	40                   	inc    eax
  40216e:	5f                   	pop    edi
  40216f:	5e                   	pop    esi
  402170:	8b e5                	mov    esp,ebp
  402172:	5d                   	pop    ebp
  402173:	c3                   	ret    
  402174:	55                   	push   ebp
  402175:	8b ec                	mov    ebp,esp
  402177:	83 ec 40             	sub    esp,0x40
  40217a:	8d 45 fc             	lea    eax,[ebp-0x4]
  40217d:	56                   	push   esi
  40217e:	50                   	push   eax
  40217f:	e8 94 fc ff ff       	call   0x401e18
  402184:	8b f0                	mov    esi,eax
  402186:	59                   	pop    ecx
  402187:	85 f6                	test   esi,esi
  402189:	0f 84 ca 00 00 00    	je     0x402259
  40218f:	57                   	push   edi
  402190:	6a 01                	push   0x1
  402192:	ff 75 fc             	push   DWORD PTR [ebp-0x4]
  402195:	56                   	push   esi
  402196:	e8 57 43 00 00       	call   0x4064f2
  40219b:	56                   	push   esi
  40219c:	8b f8                	mov    edi,eax
  40219e:	e8 1e 30 00 00       	call   0x4051c1
  4021a3:	83 c4 10             	add    esp,0x10
  4021a6:	85 ff                	test   edi,edi
  4021a8:	75 07                	jne    0x4021b1
  4021aa:	33 c0                	xor    eax,eax
  4021ac:	e9 a7 00 00 00       	jmp    0x402258
  4021b1:	8d 45 f0             	lea    eax,[ebp-0x10]
  4021b4:	be 78 12 41 00       	mov    esi,0x411278
  4021b9:	50                   	push   eax
  4021ba:	6a 0a                	push   0xa
  4021bc:	6a 0c                	push   0xc
  4021be:	68 b5 08 00 00       	push   0x8b5
  4021c3:	56                   	push   esi
  4021c4:	e8 cc 43 00 00       	call   0x406595
  4021c9:	33 c0                	xor    eax,eax
  4021cb:	66 89 45 fa          	mov    WORD PTR [ebp-0x6],ax
  4021cf:	8d 45 e4             	lea    eax,[ebp-0x1c]
  4021d2:	50                   	push   eax
  4021d3:	6a 0a                	push   0xa
  4021d5:	6a 0b                	push   0xb
  4021d7:	68 db 06 00 00       	push   0x6db
  4021dc:	56                   	push   esi
  4021dd:	e8 b3 43 00 00       	call   0x406595
  4021e2:	33 c0                	xor    eax,eax
  4021e4:	66 89 45 ee          	mov    WORD PTR [ebp-0x12],ax
  4021e8:	8d 45 d8             	lea    eax,[ebp-0x28]
  4021eb:	50                   	push   eax
  4021ec:	6a 0a                	push   0xa
  4021ee:	6a 0b                	push   0xb
  4021f0:	68 e0 0d 00 00       	push   0xde0
  4021f5:	56                   	push   esi
  4021f6:	e8 9a 43 00 00       	call   0x406595
  4021fb:	33 c0                	xor    eax,eax
  4021fd:	89 7d cc             	mov    DWORD PTR [ebp-0x34],edi
  402200:	66 89 45 e2          	mov    WORD PTR [ebp-0x1e],ax
  402204:	8d 45 f0             	lea    eax,[ebp-0x10]
  402207:	89 45 c0             	mov    DWORD PTR [ebp-0x40],eax
  40220a:	a1 30 35 41 00       	mov    eax,ds:0x413530
  40220f:	89 45 c4             	mov    DWORD PTR [ebp-0x3c],eax
  402212:	8d 45 e4             	lea    eax,[ebp-0x1c]
  402215:	89 45 c8             	mov    DWORD PTR [ebp-0x38],eax
  402218:	8d 45 d8             	lea    eax,[ebp-0x28]
  40221b:	89 45 d0             	mov    DWORD PTR [ebp-0x30],eax
  40221e:	a1 28 35 41 00       	mov    eax,ds:0x413528
  402223:	83 c0 02             	add    eax,0x2
  402226:	89 45 d4             	mov    DWORD PTR [ebp-0x2c],eax
  402229:	8d 45 c0             	lea    eax,[ebp-0x40]
  40222c:	6a 03                	push   0x3
  40222e:	50                   	push   eax
  40222f:	ff 35 1c 35 41 00    	push   DWORD PTR ds:0x41351c
  402235:	e8 b5 44 00 00       	call   0x4066ef
  40223a:	83 c4 48             	add    esp,0x48
  40223d:	a3 1c 35 41 00       	mov    ds:0x41351c,eax
  402242:	50                   	push   eax
  402243:	e8 bb 47 00 00       	call   0x406a03
  402248:	57                   	push   edi
  402249:	a3 a4 35 41 00       	mov    ds:0x4135a4,eax
  40224e:	e8 6e 2f 00 00       	call   0x4051c1
  402253:	59                   	pop    ecx
  402254:	33 c0                	xor    eax,eax
  402256:	59                   	pop    ecx
  402257:	40                   	inc    eax
  402258:	5f                   	pop    edi
  402259:	5e                   	pop    esi
  40225a:	8b e5                	mov    esp,ebp
  40225c:	5d                   	pop    ebp
  40225d:	c3                   	ret    
  40225e:	55                   	push   ebp
  40225f:	8b ec                	mov    ebp,esp
  402261:	83 ec 14             	sub    esp,0x14
  402264:	56                   	push   esi
  402265:	8d 45 ec             	lea    eax,[ebp-0x14]
  402268:	50                   	push   eax
  402269:	6a 0a                	push   0xa
  40226b:	6a 0b                	push   0xb
  40226d:	68 e0 0d 00 00       	push   0xde0
  402272:	68 78 12 41 00       	push   0x411278
  402277:	e8 19 43 00 00       	call   0x406595
  40227c:	33 c0                	xor    eax,eax
  40227e:	66 89 45 f6          	mov    WORD PTR [ebp-0xa],ax
  402282:	8d 45 ec             	lea    eax,[ebp-0x14]
  402285:	89 45 f8             	mov    DWORD PTR [ebp-0x8],eax
  402288:	a1 28 35 41 00       	mov    eax,ds:0x413528
  40228d:	83 c0 02             	add    eax,0x2
  402290:	89 45 fc             	mov    DWORD PTR [ebp-0x4],eax
  402293:	8d 45 f8             	lea    eax,[ebp-0x8]
  402296:	6a 01                	push   0x1
  402298:	50                   	push   eax
  402299:	ff 35 20 35 41 00    	push   DWORD PTR ds:0x413520
  40229f:	e8 4b 44 00 00       	call   0x4066ef
  4022a4:	50                   	push   eax
  4022a5:	a3 20 35 41 00       	mov    ds:0x413520,eax
  4022aa:	e8 54 47 00 00       	call   0x406a03
  4022af:	ff 35 20 35 41 00    	push   DWORD PTR ds:0x413520
  4022b5:	a3 a8 35 41 00       	mov    ds:0x4135a8,eax
  4022ba:	e8 f6 46 00 00       	call   0x4069b5
  4022bf:	8b f0                	mov    esi,eax
  4022c1:	83 c4 28             	add    esp,0x28
  4022c4:	85 f6                	test   esi,esi
  4022c6:	74 1a                	je     0x4022e2
  4022c8:	56                   	push   esi
  4022c9:	e8 7c 45 00 00       	call   0x40684a
  4022ce:	50                   	push   eax
  4022cf:	68 60 35 41 00       	push   0x413560
  4022d4:	e8 e0 4a 00 00       	call   0x406db9
  4022d9:	56                   	push   esi
  4022da:	e8 e2 2e 00 00       	call   0x4051c1
  4022df:	83 c4 10             	add    esp,0x10
  4022e2:	33 c0                	xor    eax,eax
  4022e4:	40                   	inc    eax
  4022e5:	5e                   	pop    esi
  4022e6:	8b e5                	mov    esp,ebp
  4022e8:	5d                   	pop    ebp
  4022e9:	c3                   	ret    
  4022ea:	55                   	push   ebp
  4022eb:	8b ec                	mov    ebp,esp
  4022ed:	81 ec ac 00 00 00    	sub    esp,0xac
  4022f3:	53                   	push   ebx
  4022f4:	56                   	push   esi
  4022f5:	57                   	push   edi
  4022f6:	8d 85 74 ff ff ff    	lea    eax,[ebp-0x8c]
  4022fc:	be 78 12 41 00       	mov    esi,0x411278
  402301:	50                   	push   eax
  402302:	6a 32                	push   0x32
  402304:	6a 10                	push   0x10
  402306:	68 44 03 00 00       	push   0x344
  40230b:	56                   	push   esi
  40230c:	e8 84 42 00 00       	call   0x406595
  402311:	33 c0                	xor    eax,eax
  402313:	66 89 45 a6          	mov    WORD PTR [ebp-0x5a],ax
  402317:	8d 45 d0             	lea    eax,[ebp-0x30]
  40231a:	50                   	push   eax
  40231b:	6a 06                	push   0x6
  40231d:	6a 0e                	push   0xe
  40231f:	68 13 01 00 00       	push   0x113
  402324:	56                   	push   esi
  402325:	e8 6b 42 00 00       	call   0x406595
  40232a:	33 c0                	xor    eax,eax
  40232c:	66 89 45 d6          	mov    WORD PTR [ebp-0x2a],ax
  402330:	8d 45 c4             	lea    eax,[ebp-0x3c]
  402333:	50                   	push   eax
  402334:	6a 08                	push   0x8
  402336:	6a 06                	push   0x6
  402338:	68 8d 05 00 00       	push   0x58d
  40233d:	56                   	push   esi
  40233e:	e8 52 42 00 00       	call   0x406595
  402343:	33 c0                	xor    eax,eax
  402345:	66 89 45 cc          	mov    WORD PTR [ebp-0x34],ax
  402349:	8d 45 b8             	lea    eax,[ebp-0x48]
  40234c:	50                   	push   eax
  40234d:	6a 0a                	push   0xa
  40234f:	6a 06                	push   0x6
  402351:	68 57 0d 00 00       	push   0xd57
  402356:	56                   	push   esi
  402357:	e8 39 42 00 00       	call   0x406595
  40235c:	83 c4 50             	add    esp,0x50
  40235f:	33 c0                	xor    eax,eax
  402361:	66 89 45 c2          	mov    WORD PTR [ebp-0x3e],ax
  402365:	8d 45 a8             	lea    eax,[ebp-0x58]
  402368:	50                   	push   eax
  402369:	6a 0c                	push   0xc
  40236b:	6a 0d                	push   0xd
  40236d:	68 4a 11 00 00       	push   0x114a
  402372:	56                   	push   esi
  402373:	e8 1d 42 00 00       	call   0x406595
  402378:	33 c0                	xor    eax,eax
  40237a:	bf 02 00 00 80       	mov    edi,0x80000002
  40237f:	66 89 45 b4          	mov    WORD PTR [ebp-0x4c],ax
  402383:	8d 45 f4             	lea    eax,[ebp-0xc]
  402386:	50                   	push   eax
  402387:	8d 45 e8             	lea    eax,[ebp-0x18]
  40238a:	50                   	push   eax
  40238b:	8d 45 d0             	lea    eax,[ebp-0x30]
  40238e:	50                   	push   eax
  40238f:	8d 85 74 ff ff ff    	lea    eax,[ebp-0x8c]
  402395:	50                   	push   eax
  402396:	57                   	push   edi
  402397:	e8 17 39 00 00       	call   0x405cb3
  40239c:	8b d8                	mov    ebx,eax
  40239e:	8d 77 ff             	lea    esi,[edi-0x1]
  4023a1:	83 c4 28             	add    esp,0x28
  4023a4:	89 5d ec             	mov    DWORD PTR [ebp-0x14],ebx
  4023a7:	85 db                	test   ebx,ebx
  4023a9:	75 1f                	jne    0x4023ca
  4023ab:	8d 45 f4             	lea    eax,[ebp-0xc]
  4023ae:	50                   	push   eax
  4023af:	8d 45 e8             	lea    eax,[ebp-0x18]
  4023b2:	50                   	push   eax
  4023b3:	8d 45 d0             	lea    eax,[ebp-0x30]
  4023b6:	50                   	push   eax
  4023b7:	8d 85 74 ff ff ff    	lea    eax,[ebp-0x8c]
  4023bd:	50                   	push   eax
  4023be:	56                   	push   esi
  4023bf:	e8 ef 38 00 00       	call   0x405cb3
  4023c4:	83 c4 14             	add    esp,0x14
  4023c7:	89 45 ec             	mov    DWORD PTR [ebp-0x14],eax
  4023ca:	8d 45 f0             	lea    eax,[ebp-0x10]
  4023cd:	50                   	push   eax
  4023ce:	8d 45 e4             	lea    eax,[ebp-0x1c]
  4023d1:	50                   	push   eax
  4023d2:	8d 45 c4             	lea    eax,[ebp-0x3c]
  4023d5:	50                   	push   eax
  4023d6:	8d 85 74 ff ff ff    	lea    eax,[ebp-0x8c]
  4023dc:	50                   	push   eax
  4023dd:	57                   	push   edi
  4023de:	e8 d0 38 00 00       	call   0x405cb3
  4023e3:	8b f8                	mov    edi,eax
  4023e5:	83 c4 14             	add    esp,0x14
  4023e8:	89 7d d8             	mov    DWORD PTR [ebp-0x28],edi
  4023eb:	85 ff                	test   edi,edi
  4023ed:	75 21                	jne    0x402410
  4023ef:	8d 45 f0             	lea    eax,[ebp-0x10]
  4023f2:	50                   	push   eax
  4023f3:	8d 45 e4             	lea    eax,[ebp-0x1c]
  4023f6:	50                   	push   eax
  4023f7:	8d 45 c4             	lea    eax,[ebp-0x3c]
  4023fa:	50                   	push   eax
  4023fb:	8d 85 74 ff ff ff    	lea    eax,[ebp-0x8c]
  402401:	50                   	push   eax
  402402:	56                   	push   esi
  402403:	e8 ab 38 00 00       	call   0x405cb3
  402408:	83 c4 14             	add    esp,0x14
  40240b:	89 45 d8             	mov    DWORD PTR [ebp-0x28],eax
  40240e:	8b f8                	mov    edi,eax
  402410:	8d 45 fc             	lea    eax,[ebp-0x4]
  402413:	50                   	push   eax
  402414:	8d 45 e0             	lea    eax,[ebp-0x20]
  402417:	50                   	push   eax
  402418:	8d 45 b8             	lea    eax,[ebp-0x48]
  40241b:	50                   	push   eax
  40241c:	8d 85 74 ff ff ff    	lea    eax,[ebp-0x8c]
  402422:	50                   	push   eax
  402423:	68 02 00 00 80       	push   0x80000002
  402428:	e8 86 38 00 00       	call   0x405cb3
  40242d:	8b d8                	mov    ebx,eax
  40242f:	83 c4 14             	add    esp,0x14
  402432:	85 db                	test   ebx,ebx
  402434:	75 1e                	jne    0x402454
  402436:	8d 45 fc             	lea    eax,[ebp-0x4]
  402439:	50                   	push   eax
  40243a:	8d 45 e0             	lea    eax,[ebp-0x20]
  40243d:	50                   	push   eax
  40243e:	8d 45 b8             	lea    eax,[ebp-0x48]
  402441:	50                   	push   eax
  402442:	8d 85 74 ff ff ff    	lea    eax,[ebp-0x8c]
  402448:	50                   	push   eax
  402449:	56                   	push   esi
  40244a:	e8 64 38 00 00       	call   0x405cb3
  40244f:	83 c4 14             	add    esp,0x14
  402452:	8b d8                	mov    ebx,eax
  402454:	8d 45 f8             	lea    eax,[ebp-0x8]
  402457:	50                   	push   eax
  402458:	8d 45 dc             	lea    eax,[ebp-0x24]
  40245b:	50                   	push   eax
  40245c:	8d 45 a8             	lea    eax,[ebp-0x58]
  40245f:	50                   	push   eax
  402460:	8d 85 74 ff ff ff    	lea    eax,[ebp-0x8c]
  402466:	50                   	push   eax
  402467:	68 02 00 00 80       	push   0x80000002
  40246c:	e8 42 38 00 00       	call   0x405cb3
  402471:	8b f0                	mov    esi,eax
  402473:	83 c4 14             	add    esp,0x14
  402476:	85 f6                	test   esi,esi
  402478:	75 22                	jne    0x40249c
  40247a:	8d 45 f8             	lea    eax,[ebp-0x8]
  40247d:	50                   	push   eax
  40247e:	8d 45 dc             	lea    eax,[ebp-0x24]
  402481:	50                   	push   eax
  402482:	8d 45 a8             	lea    eax,[ebp-0x58]
  402485:	50                   	push   eax
  402486:	8d 85 74 ff ff ff    	lea    eax,[ebp-0x8c]
  40248c:	50                   	push   eax
  40248d:	68 01 00 00 80       	push   0x80000001
  402492:	e8 1c 38 00 00       	call   0x405cb3
  402497:	83 c4 14             	add    esp,0x14
  40249a:	8b f0                	mov    esi,eax
  40249c:	8b 45 ec             	mov    eax,DWORD PTR [ebp-0x14]
  40249f:	6a 03                	push   0x3
  4024a1:	59                   	pop    ecx
  4024a2:	85 c0                	test   eax,eax
  4024a4:	74 75                	je     0x40251b
  4024a6:	83 7d f4 20          	cmp    DWORD PTR [ebp-0xc],0x20
  4024aa:	75 6f                	jne    0x40251b
  4024ac:	39 4d e8             	cmp    DWORD PTR [ebp-0x18],ecx
  4024af:	75 6a                	jne    0x40251b
  4024b1:	85 ff                	test   edi,edi
  4024b3:	74 66                	je     0x40251b
  4024b5:	83 7d f0 20          	cmp    DWORD PTR [ebp-0x10],0x20
  4024b9:	75 60                	jne    0x40251b
  4024bb:	39 4d e4             	cmp    DWORD PTR [ebp-0x1c],ecx
  4024be:	75 5b                	jne    0x40251b
  4024c0:	85 db                	test   ebx,ebx
  4024c2:	74 57                	je     0x40251b
  4024c4:	83 7d fc 58          	cmp    DWORD PTR [ebp-0x4],0x58
  4024c8:	75 51                	jne    0x40251b
  4024ca:	39 4d e0             	cmp    DWORD PTR [ebp-0x20],ecx
  4024cd:	75 4c                	jne    0x40251b
  4024cf:	85 f6                	test   esi,esi
  4024d1:	74 48                	je     0x40251b
  4024d3:	83 7d f8 58          	cmp    DWORD PTR [ebp-0x8],0x58
  4024d7:	75 42                	jne    0x40251b
  4024d9:	39 4d dc             	cmp    DWORD PTR [ebp-0x24],ecx
  4024dc:	75 3d                	jne    0x40251b
  4024de:	6a 20                	push   0x20
  4024e0:	50                   	push   eax
  4024e1:	68 20 34 41 00       	push   0x413420
  4024e6:	e8 eb 2c 00 00       	call   0x4051d6
  4024eb:	6a 20                	push   0x20
  4024ed:	57                   	push   edi
  4024ee:	68 40 34 41 00       	push   0x413440
  4024f3:	e8 de 2c 00 00       	call   0x4051d6
  4024f8:	6a 58                	push   0x58
  4024fa:	53                   	push   ebx
  4024fb:	bf 60 34 41 00       	mov    edi,0x413460
  402500:	57                   	push   edi
  402501:	e8 d0 2c 00 00       	call   0x4051d6
  402506:	6a 58                	push   0x58
  402508:	56                   	push   esi
  402509:	68 b8 34 41 00       	push   0x4134b8
  40250e:	e8 c3 2c 00 00       	call   0x4051d6
  402513:	83 c4 30             	add    esp,0x30
  402516:	e9 9f 01 00 00       	jmp    0x4026ba
  40251b:	8d 85 54 ff ff ff    	lea    eax,[ebp-0xac]
  402521:	68 40 34 41 00       	push   0x413440
  402526:	50                   	push   eax
  402527:	e8 00 4a 00 00       	call   0x406f2c
  40252c:	6a 20                	push   0x20
  40252e:	5f                   	pop    edi
  40252f:	8d 45 fc             	lea    eax,[ebp-0x4]
  402532:	89 7d f0             	mov    DWORD PTR [ebp-0x10],edi
  402535:	50                   	push   eax
  402536:	57                   	push   edi
  402537:	8d 85 54 ff ff ff    	lea    eax,[ebp-0xac]
  40253d:	89 7d f4             	mov    DWORD PTR [ebp-0xc],edi
  402540:	50                   	push   eax
  402541:	68 20 34 41 00       	push   0x413420
  402546:	e8 d2 4d 00 00       	call   0x40731d
  40254b:	8b d8                	mov    ebx,eax
  40254d:	8d 45 f8             	lea    eax,[ebp-0x8]
  402550:	50                   	push   eax
  402551:	57                   	push   edi
  402552:	8d 85 54 ff ff ff    	lea    eax,[ebp-0xac]
  402558:	50                   	push   eax
  402559:	68 20 10 41 00       	push   0x411020
  40255e:	e8 ba 4d 00 00       	call   0x40731d
  402563:	8b f0                	mov    esi,eax
  402565:	8d 85 54 ff ff ff    	lea    eax,[ebp-0xac]
  40256b:	57                   	push   edi
  40256c:	50                   	push   eax
  40256d:	e8 96 4d 00 00       	call   0x407308
  402572:	83 c4 30             	add    esp,0x30
  402575:	85 db                	test   ebx,ebx
  402577:	0f 84 75 01 00 00    	je     0x4026f2
  40257d:	85 f6                	test   esi,esi
  40257f:	0f 84 6d 01 00 00    	je     0x4026f2
  402585:	ff 75 fc             	push   DWORD PTR [ebp-0x4]
  402588:	bf 60 34 41 00       	mov    edi,0x413460
  40258d:	53                   	push   ebx
  40258e:	57                   	push   edi
  40258f:	e8 42 2c 00 00       	call   0x4051d6
  402594:	ff 75 f8             	push   DWORD PTR [ebp-0x8]
  402597:	56                   	push   esi
  402598:	68 b8 34 41 00       	push   0x4134b8
  40259d:	e8 34 2c 00 00       	call   0x4051d6
  4025a2:	ff 75 f4             	push   DWORD PTR [ebp-0xc]
  4025a5:	8d 45 d0             	lea    eax,[ebp-0x30]
  4025a8:	68 20 34 41 00       	push   0x413420
  4025ad:	6a 03                	push   0x3
  4025af:	50                   	push   eax
  4025b0:	8d 85 74 ff ff ff    	lea    eax,[ebp-0x8c]
  4025b6:	50                   	push   eax
  4025b7:	68 02 00 00 80       	push   0x80000002
  4025bc:	e8 71 37 00 00       	call   0x405d32
  4025c1:	83 c4 30             	add    esp,0x30
  4025c4:	85 c0                	test   eax,eax
  4025c6:	75 22                	jne    0x4025ea
  4025c8:	ff 75 f4             	push   DWORD PTR [ebp-0xc]
  4025cb:	8d 45 d0             	lea    eax,[ebp-0x30]
  4025ce:	68 20 34 41 00       	push   0x413420
  4025d3:	6a 03                	push   0x3
  4025d5:	50                   	push   eax
  4025d6:	8d 85 74 ff ff ff    	lea    eax,[ebp-0x8c]
  4025dc:	50                   	push   eax
  4025dd:	68 01 00 00 80       	push   0x80000001
  4025e2:	e8 4b 37 00 00       	call   0x405d32
  4025e7:	83 c4 18             	add    esp,0x18
  4025ea:	ff 75 f0             	push   DWORD PTR [ebp-0x10]
  4025ed:	8d 45 c4             	lea    eax,[ebp-0x3c]
  4025f0:	68 40 34 41 00       	push   0x413440
  4025f5:	6a 03                	push   0x3
  4025f7:	50                   	push   eax
  4025f8:	8d 85 74 ff ff ff    	lea    eax,[ebp-0x8c]
  4025fe:	50                   	push   eax
  4025ff:	68 02 00 00 80       	push   0x80000002
  402604:	e8 29 37 00 00       	call   0x405d32
  402609:	83 c4 18             	add    esp,0x18
  40260c:	85 c0                	test   eax,eax
  40260e:	75 22                	jne    0x402632
  402610:	ff 75 f0             	push   DWORD PTR [ebp-0x10]
  402613:	8d 45 c4             	lea    eax,[ebp-0x3c]
  402616:	68 40 34 41 00       	push   0x413440
  40261b:	6a 03                	push   0x3
  40261d:	50                   	push   eax
  40261e:	8d 85 74 ff ff ff    	lea    eax,[ebp-0x8c]
  402624:	50                   	push   eax
  402625:	68 01 00 00 80       	push   0x80000001
  40262a:	e8 03 37 00 00       	call   0x405d32
  40262f:	83 c4 18             	add    esp,0x18
  402632:	ff 75 fc             	push   DWORD PTR [ebp-0x4]
  402635:	8d 45 b8             	lea    eax,[ebp-0x48]
  402638:	57                   	push   edi
  402639:	6a 03                	push   0x3
  40263b:	50                   	push   eax
  40263c:	8d 85 74 ff ff ff    	lea    eax,[ebp-0x8c]
  402642:	50                   	push   eax
  402643:	68 02 00 00 80       	push   0x80000002
  402648:	e8 e5 36 00 00       	call   0x405d32
  40264d:	83 c4 18             	add    esp,0x18
  402650:	85 c0                	test   eax,eax
  402652:	75 1e                	jne    0x402672
  402654:	ff 75 fc             	push   DWORD PTR [ebp-0x4]
  402657:	8d 45 b8             	lea    eax,[ebp-0x48]
  40265a:	57                   	push   edi
  40265b:	6a 03                	push   0x3
  40265d:	50                   	push   eax
  40265e:	8d 85 74 ff ff ff    	lea    eax,[ebp-0x8c]
  402664:	50                   	push   eax
  402665:	68 01 00 00 80       	push   0x80000001
  40266a:	e8 c3 36 00 00       	call   0x405d32
  40266f:	83 c4 18             	add    esp,0x18
  402672:	ff 75 f8             	push   DWORD PTR [ebp-0x8]
  402675:	8d 45 a8             	lea    eax,[ebp-0x58]
  402678:	68 b8 34 41 00       	push   0x4134b8
  40267d:	6a 03                	push   0x3
  40267f:	50                   	push   eax
  402680:	8d 85 74 ff ff ff    	lea    eax,[ebp-0x8c]
  402686:	50                   	push   eax
  402687:	68 02 00 00 80       	push   0x80000002
  40268c:	e8 a1 36 00 00       	call   0x405d32
  402691:	83 c4 18             	add    esp,0x18
  402694:	85 c0                	test   eax,eax
  402696:	75 22                	jne    0x4026ba
  402698:	ff 75 f8             	push   DWORD PTR [ebp-0x8]
  40269b:	8d 45 a8             	lea    eax,[ebp-0x58]
  40269e:	68 b8 34 41 00       	push   0x4134b8
  4026a3:	6a 03                	push   0x3
  4026a5:	50                   	push   eax
  4026a6:	8d 85 74 ff ff ff    	lea    eax,[ebp-0x8c]
  4026ac:	50                   	push   eax
  4026ad:	68 01 00 00 80       	push   0x80000001
  4026b2:	e8 7b 36 00 00       	call   0x405d32
  4026b7:	83 c4 18             	add    esp,0x18
  4026ba:	8b 45 ec             	mov    eax,DWORD PTR [ebp-0x14]
  4026bd:	85 c0                	test   eax,eax
  4026bf:	74 07                	je     0x4026c8
  4026c1:	50                   	push   eax
  4026c2:	e8 fa 2a 00 00       	call   0x4051c1
  4026c7:	59                   	pop    ecx
  4026c8:	8b 45 d8             	mov    eax,DWORD PTR [ebp-0x28]
  4026cb:	85 c0                	test   eax,eax
  4026cd:	74 07                	je     0x4026d6
  4026cf:	50                   	push   eax
  4026d0:	e8 ec 2a 00 00       	call   0x4051c1
  4026d5:	59                   	pop    ecx
  4026d6:	53                   	push   ebx
  4026d7:	e8 e5 2a 00 00       	call   0x4051c1
  4026dc:	56                   	push   esi
  4026dd:	e8 df 2a 00 00       	call   0x4051c1
  4026e2:	6a 00                	push   0x0
  4026e4:	ff 75 fc             	push   DWORD PTR [ebp-0x4]
  4026e7:	57                   	push   edi
  4026e8:	e8 05 3e 00 00       	call   0x4064f2
  4026ed:	83 c4 14             	add    esp,0x14
  4026f0:	eb 02                	jmp    0x4026f4
  4026f2:	33 c0                	xor    eax,eax
  4026f4:	5f                   	pop    edi
  4026f5:	5e                   	pop    esi
  4026f6:	5b                   	pop    ebx
  4026f7:	8b e5                	mov    esp,ebp
  4026f9:	5d                   	pop    ebp
  4026fa:	c3                   	ret    
  4026fb:	55                   	push   ebp
  4026fc:	8b ec                	mov    ebp,esp
  4026fe:	51                   	push   ecx
  4026ff:	83 7d 08 00          	cmp    DWORD PTR [ebp+0x8],0x0
  402703:	75 04                	jne    0x402709
  402705:	33 c0                	xor    eax,eax
  402707:	eb 78                	jmp    0x402781
  402709:	57                   	push   edi
  40270a:	ff 75 0c             	push   DWORD PTR [ebp+0xc]
  40270d:	ff 75 08             	push   DWORD PTR [ebp+0x8]
  402710:	e8 b1 34 00 00       	call   0x405bc6
  402715:	8b f8                	mov    edi,eax
  402717:	59                   	pop    ecx
  402718:	59                   	pop    ecx
  402719:	85 ff                	test   edi,edi
  40271b:	74 63                	je     0x402780
  40271d:	8d 04 7d 04 00 00 00 	lea    eax,[edi*2+0x4]
  402724:	53                   	push   ebx
  402725:	50                   	push   eax
  402726:	e8 49 2a 00 00       	call   0x405174
  40272b:	8b d8                	mov    ebx,eax
  40272d:	89 5d fc             	mov    DWORD PTR [ebp-0x4],ebx
  402730:	59                   	pop    ecx
  402731:	85 db                	test   ebx,ebx
  402733:	74 4a                	je     0x40277f
  402735:	6a 2e                	push   0x2e
  402737:	58                   	pop    eax
  402738:	66 89 03             	mov    WORD PTR [ebx],ax
  40273b:	85 ff                	test   edi,edi
  40273d:	74 3e                	je     0x40277d
  40273f:	8d 43 02             	lea    eax,[ebx+0x2]
  402742:	8b d8                	mov    ebx,eax
  402744:	56                   	push   esi
  402745:	6a 01                	push   0x1
  402747:	6a 00                	push   0x0
  402749:	e8 78 34 00 00       	call   0x405bc6
  40274e:	6a 09                	push   0x9
  402750:	59                   	pop    ecx
  402751:	8b f0                	mov    esi,eax
  402753:	6a 19                	push   0x19
  402755:	58                   	pop    eax
  402756:	85 f6                	test   esi,esi
  402758:	0f 45 c8             	cmovne ecx,eax
  40275b:	51                   	push   ecx
  40275c:	6a 00                	push   0x0
  40275e:	e8 63 34 00 00       	call   0x405bc6
  402763:	66 03 04 75 40 e0 40 	add    ax,WORD PTR [esi*2+0x40e040]
  40276a:	00 
  40276b:	83 c4 10             	add    esp,0x10
  40276e:	66 89 03             	mov    WORD PTR [ebx],ax
  402771:	8d 5b 02             	lea    ebx,[ebx+0x2]
  402774:	83 ef 01             	sub    edi,0x1
  402777:	75 cc                	jne    0x402745
  402779:	8b 5d fc             	mov    ebx,DWORD PTR [ebp-0x4]
  40277c:	5e                   	pop    esi
  40277d:	8b c3                	mov    eax,ebx
  40277f:	5b                   	pop    ebx
  402780:	5f                   	pop    edi
  402781:	8b e5                	mov    esp,ebp
  402783:	5d                   	pop    ebp
  402784:	c3                   	ret    
  402785:	55                   	push   ebp
  402786:	8b ec                	mov    ebp,esp
  402788:	8b 4d 08             	mov    ecx,DWORD PTR [ebp+0x8]
  40278b:	33 c0                	xor    eax,eax
  40278d:	40                   	inc    eax
  40278e:	f0 0f c1 41 04       	lock xadd DWORD PTR [ecx+0x4],eax
  402793:	40                   	inc    eax
  402794:	5d                   	pop    ebp
  402795:	c2 04 00             	ret    0x4
  402798:	55                   	push   ebp
  402799:	8b ec                	mov    ebp,esp
  40279b:	8b 4d 08             	mov    ecx,DWORD PTR [ebp+0x8]
  40279e:	56                   	push   esi
  40279f:	83 ce ff             	or     esi,0xffffffff
  4027a2:	f0 0f c1 71 04       	lock xadd DWORD PTR [ecx+0x4],esi
  4027a7:	4e                   	dec    esi
  4027a8:	75 09                	jne    0x4027b3
  4027aa:	8b 49 0c             	mov    ecx,DWORD PTR [ecx+0xc]
  4027ad:	51                   	push   ecx
  4027ae:	8b 11                	mov    edx,DWORD PTR [ecx]
  4027b0:	ff 52 08             	call   DWORD PTR [edx+0x8]
  4027b3:	8b c6                	mov    eax,esi
  4027b5:	5e                   	pop    esi
  4027b6:	5d                   	pop    ebp
  4027b7:	c2 04 00             	ret    0x4
  4027ba:	55                   	push   ebp
  4027bb:	8b ec                	mov    ebp,esp
  4027bd:	56                   	push   esi
  4027be:	8b 75 0c             	mov    esi,DWORD PTR [ebp+0xc]
  4027c1:	33 c9                	xor    ecx,ecx
  4027c3:	57                   	push   edi
  4027c4:	bf 68 0c 41 00       	mov    edi,0x410c68
  4027c9:	8b d1                	mov    edx,ecx
  4027cb:	8b 04 96             	mov    eax,DWORD PTR [esi+edx*4]
  4027ce:	3b 04 97             	cmp    eax,DWORD PTR [edi+edx*4]
  4027d1:	75 08                	jne    0x4027db
  4027d3:	42                   	inc    edx
  4027d4:	83 fa 04             	cmp    edx,0x4
  4027d7:	75 f2                	jne    0x4027cb
  4027d9:	eb 13                	jmp    0x4027ee
  4027db:	ba 18 e1 40 00       	mov    edx,0x40e118
  4027e0:	8b 04 8e             	mov    eax,DWORD PTR [esi+ecx*4]
  4027e3:	3b 04 8a             	cmp    eax,DWORD PTR [edx+ecx*4]
  4027e6:	75 16                	jne    0x4027fe
  4027e8:	41                   	inc    ecx
  4027e9:	83 f9 04             	cmp    ecx,0x4
  4027ec:	75 f2                	jne    0x4027e0
  4027ee:	8b 45 10             	mov    eax,DWORD PTR [ebp+0x10]
  4027f1:	8b 4d 08             	mov    ecx,DWORD PTR [ebp+0x8]
  4027f4:	89 08                	mov    DWORD PTR [eax],ecx
  4027f6:	f0 ff 41 04          	lock inc DWORD PTR [ecx+0x4]
  4027fa:	33 c0                	xor    eax,eax
  4027fc:	eb 05                	jmp    0x402803
  4027fe:	b8 02 40 00 80       	mov    eax,0x80004002
  402803:	5f                   	pop    edi
  402804:	5e                   	pop    esi
  402805:	5d                   	pop    ebp
  402806:	c2 0c 00             	ret    0xc
  402809:	55                   	push   ebp
  40280a:	8b ec                	mov    ebp,esp
  40280c:	81 ec fc 00 00 00    	sub    esp,0xfc
  402812:	8d 45 d8             	lea    eax,[ebp-0x28]
  402815:	53                   	push   ebx
  402816:	56                   	push   esi
  402817:	8b 35 28 e0 40 00    	mov    esi,DWORD PTR ds:0x40e028
  40281d:	57                   	push   edi
  40281e:	50                   	push   eax
  40281f:	33 ff                	xor    edi,edi
  402821:	ff d6                	call   esi
  402823:	8d 45 c8             	lea    eax,[ebp-0x38]
  402826:	50                   	push   eax
  402827:	ff d6                	call   esi
  402829:	8d 45 b8             	lea    eax,[ebp-0x48]
  40282c:	50                   	push   eax
  40282d:	ff d6                	call   esi
  40282f:	8d 45 e8             	lea    eax,[ebp-0x18]
  402832:	50                   	push   eax
  402833:	ff d6                	call   esi
  402835:	8d 85 6c ff ff ff    	lea    eax,[ebp-0x94]
  40283b:	50                   	push   eax
  40283c:	ff d6                	call   esi
  40283e:	8d 85 5c ff ff ff    	lea    eax,[ebp-0xa4]
  402844:	50                   	push   eax
  402845:	ff d6                	call   esi
  402847:	8d 45 9c             	lea    eax,[ebp-0x64]
  40284a:	50                   	push   eax
  40284b:	ff d6                	call   esi
  40284d:	33 db                	xor    ebx,ebx
  40284f:	39 5d 0c             	cmp    DWORD PTR [ebp+0xc],ebx
  402852:	0f 8e 4d 03 00 00    	jle    0x402ba5
  402858:	8b 45 10             	mov    eax,DWORD PTR [ebp+0x10]
  40285b:	83 65 fc 00          	and    DWORD PTR [ebp-0x4],0x0
  40285f:	83 65 f8 00          	and    DWORD PTR [ebp-0x8],0x0
  402863:	8b 34 98             	mov    esi,DWORD PTR [eax+ebx*4]
  402866:	8d 85 04 ff ff ff    	lea    eax,[ebp-0xfc]
  40286c:	50                   	push   eax
  40286d:	6a 1c                	push   0x1c
  40286f:	6a 0c                	push   0xc
  402871:	68 94 01 00 00       	push   0x194
  402876:	68 78 12 41 00       	push   0x411278
  40287b:	e8 15 3d 00 00       	call   0x406595
  402880:	83 c4 14             	add    esp,0x14
  402883:	8d 4d d8             	lea    ecx,[ebp-0x28]
  402886:	33 d2                	xor    edx,edx
  402888:	33 c0                	xor    eax,eax
  40288a:	66 89 85 20 ff ff ff 	mov    WORD PTR [ebp-0xe0],ax
  402891:	8b 06                	mov    eax,DWORD PTR [esi]
  402893:	52                   	push   edx
  402894:	52                   	push   edx
  402895:	51                   	push   ecx
  402896:	52                   	push   edx
  402897:	8d 8d 04 ff ff ff    	lea    ecx,[ebp-0xfc]
  40289d:	51                   	push   ecx
  40289e:	56                   	push   esi
  40289f:	ff 50 10             	call   DWORD PTR [eax+0x10]
  4028a2:	85 c0                	test   eax,eax
  4028a4:	0f 88 8e 02 00 00    	js     0x402b38
  4028aa:	6a 09                	push   0x9
  4028ac:	58                   	pop    eax
  4028ad:	66 39 45 d8          	cmp    WORD PTR [ebp-0x28],ax
  4028b1:	74 0b                	je     0x4028be
  4028b3:	66 83 7d d8 0d       	cmp    WORD PTR [ebp-0x28],0xd
  4028b8:	0f 85 7a 02 00 00    	jne    0x402b38
  4028be:	8b 45 e0             	mov    eax,DWORD PTR [ebp-0x20]
  4028c1:	8d 55 fc             	lea    edx,[ebp-0x4]
  4028c4:	52                   	push   edx
  4028c5:	68 38 e1 40 00       	push   0x40e138
  4028ca:	50                   	push   eax
  4028cb:	8b 08                	mov    ecx,DWORD PTR [eax]
  4028cd:	ff 11                	call   DWORD PTR [ecx]
  4028cf:	85 c0                	test   eax,eax
  4028d1:	0f 88 61 02 00 00    	js     0x402b38
  4028d7:	8d 85 7c ff ff ff    	lea    eax,[ebp-0x84]
  4028dd:	50                   	push   eax
  4028de:	6a 0e                	push   0xe
  4028e0:	6a 05                	push   0x5
  4028e2:	68 17 0a 00 00       	push   0xa17
  4028e7:	68 78 12 41 00       	push   0x411278
  4028ec:	e8 a4 3c 00 00       	call   0x406595
  4028f1:	83 c4 14             	add    esp,0x14
  4028f4:	8d 55 c8             	lea    edx,[ebp-0x38]
  4028f7:	33 f6                	xor    esi,esi
  4028f9:	33 c0                	xor    eax,eax
  4028fb:	66 89 45 8a          	mov    WORD PTR [ebp-0x76],ax
  4028ff:	8b 45 fc             	mov    eax,DWORD PTR [ebp-0x4]
  402902:	56                   	push   esi
  402903:	56                   	push   esi
  402904:	52                   	push   edx
  402905:	8b 08                	mov    ecx,DWORD PTR [eax]
  402907:	8d 95 7c ff ff ff    	lea    edx,[ebp-0x84]
  40290d:	56                   	push   esi
  40290e:	52                   	push   edx
  40290f:	50                   	push   eax
  402910:	ff 51 10             	call   DWORD PTR [ecx+0x10]
  402913:	85 c0                	test   eax,eax
  402915:	0f 88 1d 02 00 00    	js     0x402b38
  40291b:	6a 08                	push   0x8
  40291d:	58                   	pop    eax
  40291e:	66 39 45 c8          	cmp    WORD PTR [ebp-0x38],ax
  402922:	0f 85 10 02 00 00    	jne    0x402b38
  402928:	8d 85 40 ff ff ff    	lea    eax,[ebp-0xc0]
  40292e:	be 78 12 41 00       	mov    esi,0x411278
  402933:	50                   	push   eax
  402934:	6a 1a                	push   0x1a
  402936:	6a 09                	push   0x9
  402938:	58                   	pop    eax
  402939:	50                   	push   eax
  40293a:	68 49 04 00 00       	push   0x449
  40293f:	56                   	push   esi
  402940:	e8 50 3c 00 00       	call   0x406595
  402945:	33 c0                	xor    eax,eax
  402947:	66 89 85 5a ff ff ff 	mov    WORD PTR [ebp-0xa6],ax
  40294e:	8d 85 24 ff ff ff    	lea    eax,[ebp-0xdc]
  402954:	50                   	push   eax
  402955:	6a 1a                	push   0x1a
  402957:	6a 0f                	push   0xf
  402959:	68 cb 0a 00 00       	push   0xacb
  40295e:	56                   	push   esi
  40295f:	e8 31 3c 00 00       	call   0x406595
  402964:	8b 35 04 e0 40 00    	mov    esi,DWORD PTR ds:0x40e004
  40296a:	83 c4 28             	add    esp,0x28
  40296d:	33 c0                	xor    eax,eax
  40296f:	66 89 85 3e ff ff ff 	mov    WORD PTR [ebp-0xc2],ax
  402976:	8d 85 40 ff ff ff    	lea    eax,[ebp-0xc0]
  40297c:	50                   	push   eax
  40297d:	ff 75 d0             	push   DWORD PTR [ebp-0x30]
  402980:	ff d6                	call   esi
  402982:	85 c0                	test   eax,eax
  402984:	0f 85 a2 00 00 00    	jne    0x402a2c
  40298a:	8d 45 ac             	lea    eax,[ebp-0x54]
  40298d:	50                   	push   eax
  40298e:	6a 08                	push   0x8
  402990:	58                   	pop    eax
  402991:	50                   	push   eax
  402992:	6a 0b                	push   0xb
  402994:	68 c5 0c 00 00       	push   0xcc5
  402999:	68 78 12 41 00       	push   0x411278
  40299e:	e8 f2 3b 00 00       	call   0x406595
  4029a3:	83 c4 14             	add    esp,0x14
  4029a6:	8d 55 e8             	lea    edx,[ebp-0x18]
  4029a9:	33 c0                	xor    eax,eax
  4029ab:	66 89 45 b4          	mov    WORD PTR [ebp-0x4c],ax
  4029af:	8b 45 fc             	mov    eax,DWORD PTR [ebp-0x4]
  4029b2:	6a 00                	push   0x0
  4029b4:	6a 00                	push   0x0
  4029b6:	52                   	push   edx
  4029b7:	8b 08                	mov    ecx,DWORD PTR [eax]
  4029b9:	8d 55 ac             	lea    edx,[ebp-0x54]
  4029bc:	6a 00                	push   0x0
  4029be:	52                   	push   edx
  4029bf:	50                   	push   eax
  4029c0:	ff 51 10             	call   DWORD PTR [ecx+0x10]
  4029c3:	85 c0                	test   eax,eax
  4029c5:	0f 88 6d 01 00 00    	js     0x402b38
  4029cb:	8b 45 fc             	mov    eax,DWORD PTR [ebp-0x4]
  4029ce:	8d 55 9c             	lea    edx,[ebp-0x64]
  4029d1:	6a 00                	push   0x0
  4029d3:	6a 00                	push   0x0
  4029d5:	52                   	push   edx
  4029d6:	8b 08                	mov    ecx,DWORD PTR [eax]
  4029d8:	6a 00                	push   0x0
  4029da:	68 48 e0 40 00       	push   0x40e048
  4029df:	50                   	push   eax
  4029e0:	ff 51 10             	call   DWORD PTR [ecx+0x10]
  4029e3:	85 c0                	test   eax,eax
  4029e5:	0f 88 4d 01 00 00    	js     0x402b38
  4029eb:	6a 08                	push   0x8
  4029ed:	58                   	pop    eax
  4029ee:	66 39 45 e8          	cmp    WORD PTR [ebp-0x18],ax
  4029f2:	0f 85 40 01 00 00    	jne    0x402b38
  4029f8:	ff 75 f0             	push   DWORD PTR [ebp-0x10]
  4029fb:	e8 6b 08 00 00       	call   0x40326b
  402a00:	59                   	pop    ecx
  402a01:	85 c0                	test   eax,eax
  402a03:	0f 84 2f 01 00 00    	je     0x402b38
  402a09:	68 54 e0 40 00       	push   0x40e054
  402a0e:	ff 75 a4             	push   DWORD PTR [ebp-0x5c]
  402a11:	ff d6                	call   esi
  402a13:	85 c0                	test   eax,eax
  402a15:	0f 85 1d 01 00 00    	jne    0x402b38
  402a1b:	ff 75 fc             	push   DWORD PTR [ebp-0x4]
  402a1e:	8b 75 08             	mov    esi,DWORD PTR [ebp+0x8]
  402a21:	56                   	push   esi
  402a22:	e8 30 04 00 00       	call   0x402e57
  402a27:	e9 0a 01 00 00       	jmp    0x402b36
  402a2c:	8d 85 24 ff ff ff    	lea    eax,[ebp-0xdc]
  402a32:	50                   	push   eax
  402a33:	ff 75 d0             	push   DWORD PTR [ebp-0x30]
  402a36:	ff d6                	call   esi
  402a38:	85 c0                	test   eax,eax
  402a3a:	0f 85 f8 00 00 00    	jne    0x402b38
  402a40:	8d 45 8c             	lea    eax,[ebp-0x74]
  402a43:	50                   	push   eax
  402a44:	6a 0c                	push   0xc
  402a46:	6a 08                	push   0x8
  402a48:	58                   	pop    eax
  402a49:	50                   	push   eax
  402a4a:	68 ac 04 00 00       	push   0x4ac
  402a4f:	68 78 12 41 00       	push   0x411278
  402a54:	e8 3c 3b 00 00       	call   0x406595
  402a59:	83 c4 14             	add    esp,0x14
  402a5c:	8d 55 b8             	lea    edx,[ebp-0x48]
  402a5f:	33 f6                	xor    esi,esi
  402a61:	33 c0                	xor    eax,eax
  402a63:	66 89 45 98          	mov    WORD PTR [ebp-0x68],ax
  402a67:	8b 45 fc             	mov    eax,DWORD PTR [ebp-0x4]
  402a6a:	56                   	push   esi
  402a6b:	56                   	push   esi
  402a6c:	52                   	push   edx
  402a6d:	8b 08                	mov    ecx,DWORD PTR [eax]
  402a6f:	8d 55 8c             	lea    edx,[ebp-0x74]
  402a72:	56                   	push   esi
  402a73:	52                   	push   edx
  402a74:	50                   	push   eax
  402a75:	ff 51 10             	call   DWORD PTR [ecx+0x10]
  402a78:	85 c0                	test   eax,eax
  402a7a:	0f 88 b8 00 00 00    	js     0x402b38
  402a80:	6a 08                	push   0x8
  402a82:	58                   	pop    eax
  402a83:	66 39 45 b8          	cmp    WORD PTR [ebp-0x48],ax
  402a87:	0f 85 ab 00 00 00    	jne    0x402b38
  402a8d:	85 ff                	test   edi,edi
  402a8f:	75 0d                	jne    0x402a9e
  402a91:	68 64 e0 40 00       	push   0x40e064
  402a96:	ff 15 20 e0 40 00    	call   DWORD PTR ds:0x40e020
  402a9c:	8b f8                	mov    edi,eax
  402a9e:	8b 75 08             	mov    esi,DWORD PTR [ebp+0x8]
  402aa1:	8d 45 f8             	lea    eax,[ebp-0x8]
  402aa4:	6a 00                	push   0x0
  402aa6:	50                   	push   eax
  402aa7:	33 c0                	xor    eax,eax
  402aa9:	8b 4e 0c             	mov    ecx,DWORD PTR [esi+0xc]
  402aac:	50                   	push   eax
  402aad:	50                   	push   eax
  402aae:	50                   	push   eax
  402aaf:	8b 11                	mov    edx,DWORD PTR [ecx]
  402ab1:	57                   	push   edi
  402ab2:	ff 75 c0             	push   DWORD PTR [ebp-0x40]
  402ab5:	51                   	push   ecx
  402ab6:	ff 52 60             	call   DWORD PTR [edx+0x60]
  402ab9:	85 c0                	test   eax,eax
  402abb:	78 7b                	js     0x402b38
  402abd:	8b 45 f8             	mov    eax,DWORD PTR [ebp-0x8]
  402ac0:	8d 95 6c ff ff ff    	lea    edx,[ebp-0x94]
  402ac6:	6a 00                	push   0x0
  402ac8:	6a 00                	push   0x0
  402aca:	52                   	push   edx
  402acb:	8b 08                	mov    ecx,DWORD PTR [eax]
  402acd:	6a 00                	push   0x0
  402acf:	68 78 e0 40 00       	push   0x40e078
  402ad4:	50                   	push   eax
  402ad5:	ff 51 10             	call   DWORD PTR [ecx+0x10]
  402ad8:	85 c0                	test   eax,eax
  402ada:	78 5c                	js     0x402b38
  402adc:	8b 45 f8             	mov    eax,DWORD PTR [ebp-0x8]
  402adf:	8d 95 5c ff ff ff    	lea    edx,[ebp-0xa4]
  402ae5:	6a 00                	push   0x0
  402ae7:	6a 00                	push   0x0
  402ae9:	52                   	push   edx
  402aea:	8b 08                	mov    ecx,DWORD PTR [eax]
  402aec:	6a 00                	push   0x0
  402aee:	68 84 e0 40 00       	push   0x40e084
  402af3:	50                   	push   eax
  402af4:	ff 51 10             	call   DWORD PTR [ecx+0x10]
  402af7:	85 c0                	test   eax,eax
  402af9:	78 3d                	js     0x402b38
  402afb:	8b 45 fc             	mov    eax,DWORD PTR [ebp-0x4]
  402afe:	8d 55 e8             	lea    edx,[ebp-0x18]
  402b01:	6a 00                	push   0x0
  402b03:	6a 00                	push   0x0
  402b05:	52                   	push   edx
  402b06:	8b 08                	mov    ecx,DWORD PTR [eax]
  402b08:	6a 00                	push   0x0
  402b0a:	68 94 e0 40 00       	push   0x40e094
  402b0f:	50                   	push   eax
  402b10:	ff 51 10             	call   DWORD PTR [ecx+0x10]
  402b13:	85 c0                	test   eax,eax
  402b15:	78 21                	js     0x402b38
  402b17:	6a 08                	push   0x8
  402b19:	58                   	pop    eax
  402b1a:	66 39 45 e8          	cmp    WORD PTR [ebp-0x18],ax
  402b1e:	75 18                	jne    0x402b38
  402b20:	ff 75 f0             	push   DWORD PTR [ebp-0x10]
  402b23:	e8 ed 06 00 00       	call   0x403215
  402b28:	59                   	pop    ecx
  402b29:	85 c0                	test   eax,eax
  402b2b:	74 0b                	je     0x402b38
  402b2d:	ff 75 fc             	push   DWORD PTR [ebp-0x4]
  402b30:	56                   	push   esi
  402b31:	e8 ce 03 00 00       	call   0x402f04
  402b36:	59                   	pop    ecx
  402b37:	59                   	pop    ecx
  402b38:	8b 35 2c e0 40 00    	mov    esi,DWORD PTR ds:0x40e02c
  402b3e:	8d 45 d8             	lea    eax,[ebp-0x28]
  402b41:	50                   	push   eax
  402b42:	ff d6                	call   esi
  402b44:	8d 45 c8             	lea    eax,[ebp-0x38]
  402b47:	50                   	push   eax
  402b48:	ff d6                	call   esi
  402b4a:	8d 45 b8             	lea    eax,[ebp-0x48]
  402b4d:	50                   	push   eax
  402b4e:	ff d6                	call   esi
  402b50:	8d 45 e8             	lea    eax,[ebp-0x18]
  402b53:	50                   	push   eax
  402b54:	ff d6                	call   esi
  402b56:	8d 85 6c ff ff ff    	lea    eax,[ebp-0x94]
  402b5c:	50                   	push   eax
  402b5d:	ff d6                	call   esi
  402b5f:	8d 85 5c ff ff ff    	lea    eax,[ebp-0xa4]
  402b65:	50                   	push   eax
  402b66:	ff d6                	call   esi
  402b68:	8d 45 9c             	lea    eax,[ebp-0x64]
  402b6b:	50                   	push   eax
  402b6c:	ff d6                	call   esi
  402b6e:	8b 4d fc             	mov    ecx,DWORD PTR [ebp-0x4]
  402b71:	85 c9                	test   ecx,ecx
  402b73:	74 06                	je     0x402b7b
  402b75:	8b 01                	mov    eax,DWORD PTR [ecx]
  402b77:	51                   	push   ecx
  402b78:	ff 50 08             	call   DWORD PTR [eax+0x8]
  402b7b:	8b 4d f8             	mov    ecx,DWORD PTR [ebp-0x8]
  402b7e:	85 c9                	test   ecx,ecx
  402b80:	74 06                	je     0x402b88
  402b82:	8b 01                	mov    eax,DWORD PTR [ecx]
  402b84:	51                   	push   ecx
  402b85:	ff 50 08             	call   DWORD PTR [eax+0x8]
  402b88:	83 65 f8 00          	and    DWORD PTR [ebp-0x8],0x0
  402b8c:	83 65 fc 00          	and    DWORD PTR [ebp-0x4],0x0
  402b90:	43                   	inc    ebx
  402b91:	3b 5d 0c             	cmp    ebx,DWORD PTR [ebp+0xc]
  402b94:	0f 8c be fc ff ff    	jl     0x402858
  402b9a:	85 ff                	test   edi,edi
  402b9c:	74 07                	je     0x402ba5
  402b9e:	57                   	push   edi
  402b9f:	ff 15 24 e0 40 00    	call   DWORD PTR ds:0x40e024
  402ba5:	5f                   	pop    edi
  402ba6:	5e                   	pop    esi
  402ba7:	33 c0                	xor    eax,eax
  402ba9:	5b                   	pop    ebx
  402baa:	8b e5                	mov    esp,ebp
  402bac:	5d                   	pop    ebp
  402bad:	c2 0c 00             	ret    0xc
  402bb0:	33 c0                	xor    eax,eax
  402bb2:	c2 14 00             	ret    0x14
  402bb5:	55                   	push   ebp
  402bb6:	8b ec                	mov    ebp,esp
  402bb8:	81 ec c4 01 00 00    	sub    esp,0x1c4
  402bbe:	53                   	push   ebx
  402bbf:	33 db                	xor    ebx,ebx
  402bc1:	53                   	push   ebx
  402bc2:	53                   	push   ebx
  402bc3:	ff 15 90 25 41 00    	call   DWORD PTR ds:0x412590
  402bc9:	85 c0                	test   eax,eax
  402bcb:	79 08                	jns    0x402bd5
  402bcd:	33 c0                	xor    eax,eax
  402bcf:	40                   	inc    eax
  402bd0:	e9 7b 02 00 00       	jmp    0x402e50
  402bd5:	8d 45 f4             	lea    eax,[ebp-0xc]
  402bd8:	50                   	push   eax
  402bd9:	68 48 e1 40 00       	push   0x40e148
  402bde:	6a 01                	push   0x1
  402be0:	53                   	push   ebx
  402be1:	68 58 e1 40 00       	push   0x40e158
  402be6:	ff 15 a8 28 41 00    	call   DWORD PTR ds:0x4128a8
  402bec:	85 c0                	test   eax,eax
  402bee:	79 08                	jns    0x402bf8
  402bf0:	6a 02                	push   0x2
  402bf2:	58                   	pop    eax
  402bf3:	e9 58 02 00 00       	jmp    0x402e50
  402bf8:	56                   	push   esi
  402bf9:	57                   	push   edi
  402bfa:	e8 22 2e 00 00       	call   0x405a21
  402bff:	8b 3d 2c e0 40 00    	mov    edi,DWORD PTR ds:0x40e02c
  402c05:	6a 03                	push   0x3
  402c07:	5e                   	pop    esi
  402c08:	85 c0                	test   eax,eax
  402c0a:	74 4d                	je     0x402c59
  402c0c:	8d 45 d8             	lea    eax,[ebp-0x28]
  402c0f:	50                   	push   eax
  402c10:	ff 15 28 e0 40 00    	call   DWORD PTR ds:0x40e028
  402c16:	8d 45 80             	lea    eax,[ebp-0x80]
  402c19:	66 89 75 d8          	mov    WORD PTR [ebp-0x28],si
  402c1d:	50                   	push   eax
  402c1e:	6a 2c                	push   0x2c
  402c20:	6a 0a                	push   0xa
  402c22:	68 71 04 00 00       	push   0x471
  402c27:	68 78 12 41 00       	push   0x411278
  402c2c:	c7 45 e0 40 00 00 00 	mov    DWORD PTR [ebp-0x20],0x40
  402c33:	e8 5d 39 00 00       	call   0x406595
  402c38:	83 c4 14             	add    esp,0x14
  402c3b:	8d 55 d8             	lea    edx,[ebp-0x28]
  402c3e:	33 c0                	xor    eax,eax
  402c40:	66 89 45 ac          	mov    WORD PTR [ebp-0x54],ax
  402c44:	8b 45 f4             	mov    eax,DWORD PTR [ebp-0xc]
  402c47:	52                   	push   edx
  402c48:	53                   	push   ebx
  402c49:	8d 55 80             	lea    edx,[ebp-0x80]
  402c4c:	8b 08                	mov    ecx,DWORD PTR [eax]
  402c4e:	52                   	push   edx
  402c4f:	50                   	push   eax
  402c50:	ff 51 20             	call   DWORD PTR [ecx+0x20]
  402c53:	8d 45 d8             	lea    eax,[ebp-0x28]
  402c56:	50                   	push   eax
  402c57:	ff d7                	call   edi
  402c59:	8d 45 e8             	lea    eax,[ebp-0x18]
  402c5c:	50                   	push   eax
  402c5d:	68 88 e1 40 00       	push   0x40e188
  402c62:	68 01 44 00 00       	push   0x4401
  402c67:	53                   	push   ebx
  402c68:	68 68 e1 40 00       	push   0x40e168
  402c6d:	ff 15 a8 28 41 00    	call   DWORD PTR ds:0x4128a8
  402c73:	85 c0                	test   eax,eax
  402c75:	0f 88 c2 01 00 00    	js     0x402e3d
  402c7b:	8d 45 b0             	lea    eax,[ebp-0x50]
  402c7e:	50                   	push   eax
  402c7f:	6a 14                	push   0x14
  402c81:	6a 08                	push   0x8
  402c83:	58                   	pop    eax
  402c84:	50                   	push   eax
  402c85:	68 d4 03 00 00       	push   0x3d4
  402c8a:	68 78 12 41 00       	push   0x411278
  402c8f:	e8 01 39 00 00       	call   0x406595
  402c94:	8b 1d 20 e0 40 00    	mov    ebx,DWORD PTR ds:0x40e020
  402c9a:	33 c0                	xor    eax,eax
  402c9c:	83 c4 14             	add    esp,0x14
  402c9f:	66 89 45 c4          	mov    WORD PTR [ebp-0x3c],ax
  402ca3:	8d 45 b0             	lea    eax,[ebp-0x50]
  402ca6:	50                   	push   eax
  402ca7:	ff d3                	call   ebx
  402ca9:	8b 4d e8             	mov    ecx,DWORD PTR [ebp-0x18]
  402cac:	8d 75 f8             	lea    esi,[ebp-0x8]
  402caf:	56                   	push   esi
  402cb0:	ff 75 f4             	push   DWORD PTR [ebp-0xc]
  402cb3:	33 f6                	xor    esi,esi
  402cb5:	8b 11                	mov    edx,DWORD PTR [ecx]
  402cb7:	56                   	push   esi
  402cb8:	56                   	push   esi
  402cb9:	56                   	push   esi
  402cba:	56                   	push   esi
  402cbb:	56                   	push   esi
  402cbc:	50                   	push   eax
  402cbd:	51                   	push   ecx
  402cbe:	ff 52 0c             	call   DWORD PTR [edx+0xc]
  402cc1:	85 c0                	test   eax,eax
  402cc3:	0f 88 74 01 00 00    	js     0x402e3d
  402cc9:	56                   	push   esi
  402cca:	56                   	push   esi
  402ccb:	6a 03                	push   0x3
  402ccd:	6a 03                	push   0x3
  402ccf:	56                   	push   esi
  402cd0:	56                   	push   esi
  402cd1:	6a 0a                	push   0xa
  402cd3:	ff 75 f8             	push   DWORD PTR [ebp-0x8]
  402cd6:	ff 15 ac 27 41 00    	call   DWORD PTR ds:0x4127ac
  402cdc:	85 c0                	test   eax,eax
  402cde:	0f 88 59 01 00 00    	js     0x402e3d
  402ce4:	8d 45 e0             	lea    eax,[ebp-0x20]
  402ce7:	89 75 f0             	mov    DWORD PTR [ebp-0x10],esi
  402cea:	50                   	push   eax
  402ceb:	6a 06                	push   0x6
  402ced:	6a 07                	push   0x7
  402cef:	68 09 11 00 00       	push   0x1109
  402cf4:	be 78 12 41 00       	mov    esi,0x411278
  402cf9:	56                   	push   esi
  402cfa:	e8 96 38 00 00       	call   0x406595
  402cff:	33 c0                	xor    eax,eax
  402d01:	66 89 45 e6          	mov    WORD PTR [ebp-0x1a],ax
  402d05:	8d 85 3c ff ff ff    	lea    eax,[ebp-0xc4]
  402d0b:	50                   	push   eax
  402d0c:	6a 3c                	push   0x3c
  402d0e:	6a 04                	push   0x4
  402d10:	68 27 05 00 00       	push   0x527
  402d15:	56                   	push   esi
  402d16:	e8 7a 38 00 00       	call   0x406595
  402d1b:	33 c0                	xor    eax,eax
  402d1d:	83 c4 28             	add    esp,0x28
  402d20:	66 89 85 78 ff ff ff 	mov    WORD PTR [ebp-0x88],ax
  402d27:	8d 45 e0             	lea    eax,[ebp-0x20]
  402d2a:	50                   	push   eax
  402d2b:	ff d3                	call   ebx
  402d2d:	8b f0                	mov    esi,eax
  402d2f:	8d 85 3c ff ff ff    	lea    eax,[ebp-0xc4]
  402d35:	50                   	push   eax
  402d36:	ff d3                	call   ebx
  402d38:	8b 4d f8             	mov    ecx,DWORD PTR [ebp-0x8]
  402d3b:	8d 7d f0             	lea    edi,[ebp-0x10]
  402d3e:	57                   	push   edi
  402d3f:	6a 00                	push   0x0
  402d41:	6a 30                	push   0x30
  402d43:	8b 11                	mov    edx,DWORD PTR [ecx]
  402d45:	50                   	push   eax
  402d46:	56                   	push   esi
  402d47:	51                   	push   ecx
  402d48:	ff 52 50             	call   DWORD PTR [edx+0x50]
  402d4b:	8b 3d 2c e0 40 00    	mov    edi,DWORD PTR ds:0x40e02c
  402d51:	85 c0                	test   eax,eax
  402d53:	0f 88 e4 00 00 00    	js     0x402e3d
  402d59:	33 f6                	xor    esi,esi
  402d5b:	e9 bc 00 00 00       	jmp    0x402e1c
  402d60:	8b 45 ec             	mov    eax,DWORD PTR [ebp-0x14]
  402d63:	8d 55 c8             	lea    edx,[ebp-0x38]
  402d66:	56                   	push   esi
  402d67:	56                   	push   esi
  402d68:	52                   	push   edx
  402d69:	8b 08                	mov    ecx,DWORD PTR [eax]
  402d6b:	56                   	push   esi
  402d6c:	68 c4 e0 40 00       	push   0x40e0c4
  402d71:	50                   	push   eax
  402d72:	ff 51 10             	call   DWORD PTR [ecx+0x10]
  402d75:	85 c0                	test   eax,eax
  402d77:	0f 88 90 00 00 00    	js     0x402e0d
  402d7d:	6a 08                	push   0x8
  402d7f:	58                   	pop    eax
  402d80:	66 39 45 c8          	cmp    WORD PTR [ebp-0x38],ax
  402d84:	0f 85 83 00 00 00    	jne    0x402e0d
  402d8a:	68 00 01 00 00       	push   0x100
  402d8f:	8d 85 3c fe ff ff    	lea    eax,[ebp-0x1c4]
  402d95:	56                   	push   esi
  402d96:	50                   	push   eax
  402d97:	e8 5f 24 00 00       	call   0x4051fb
  402d9c:	8d 85 7c ff ff ff    	lea    eax,[ebp-0x84]
  402da2:	50                   	push   eax
  402da3:	6a 30                	push   0x30
  402da5:	6a 0c                	push   0xc
  402da7:	68 2f 0a 00 00       	push   0xa2f
  402dac:	68 78 12 41 00       	push   0x411278
  402db1:	e8 df 37 00 00       	call   0x406595
  402db6:	ff 75 d0             	push   DWORD PTR [ebp-0x30]
  402db9:	33 c0                	xor    eax,eax
  402dbb:	66 89 45 ac          	mov    WORD PTR [ebp-0x54],ax
  402dbf:	8d 85 7c ff ff ff    	lea    eax,[ebp-0x84]
  402dc5:	50                   	push   eax
  402dc6:	8d 85 3c fe ff ff    	lea    eax,[ebp-0x1c4]
  402dcc:	50                   	push   eax
  402dcd:	ff 15 94 26 41 00    	call   DWORD PTR ds:0x412694
  402dd3:	83 c4 2c             	add    esp,0x2c
  402dd6:	85 c0                	test   eax,eax
  402dd8:	74 2d                	je     0x402e07
  402dda:	8d 85 3c fe ff ff    	lea    eax,[ebp-0x1c4]
  402de0:	50                   	push   eax
  402de1:	ff d3                	call   ebx
  402de3:	8b 4d f8             	mov    ecx,DWORD PTR [ebp-0x8]
  402de6:	56                   	push   esi
  402de7:	ff 75 f4             	push   DWORD PTR [ebp-0xc]
  402dea:	8b 11                	mov    edx,DWORD PTR [ecx]
  402dec:	56                   	push   esi
  402ded:	50                   	push   eax
  402dee:	51                   	push   ecx
  402def:	ff 52 40             	call   DWORD PTR [edx+0x40]
  402df2:	68 80 00 00 00       	push   0x80
  402df7:	8d 85 3c fe ff ff    	lea    eax,[ebp-0x1c4]
  402dfd:	56                   	push   esi
  402dfe:	50                   	push   eax
  402dff:	e8 f7 23 00 00       	call   0x4051fb
  402e04:	83 c4 0c             	add    esp,0xc
  402e07:	8d 45 c8             	lea    eax,[ebp-0x38]
  402e0a:	50                   	push   eax
  402e0b:	ff d7                	call   edi
  402e0d:	8b 45 ec             	mov    eax,DWORD PTR [ebp-0x14]
  402e10:	50                   	push   eax
  402e11:	8b 08                	mov    ecx,DWORD PTR [eax]
  402e13:	ff 51 08             	call   DWORD PTR [ecx+0x8]
  402e16:	8d 45 c8             	lea    eax,[ebp-0x38]
  402e19:	50                   	push   eax
  402e1a:	ff d7                	call   edi
  402e1c:	8b 45 f0             	mov    eax,DWORD PTR [ebp-0x10]
  402e1f:	8d 55 fc             	lea    edx,[ebp-0x4]
  402e22:	52                   	push   edx
  402e23:	8d 55 ec             	lea    edx,[ebp-0x14]
  402e26:	89 75 fc             	mov    DWORD PTR [ebp-0x4],esi
  402e29:	52                   	push   edx
  402e2a:	8b 08                	mov    ecx,DWORD PTR [eax]
  402e2c:	6a 01                	push   0x1
  402e2e:	6a ff                	push   0xffffffff
  402e30:	50                   	push   eax
  402e31:	ff 51 10             	call   DWORD PTR [ecx+0x10]
  402e34:	39 75 fc             	cmp    DWORD PTR [ebp-0x4],esi
  402e37:	0f 85 23 ff ff ff    	jne    0x402d60
  402e3d:	8b 45 e8             	mov    eax,DWORD PTR [ebp-0x18]
  402e40:	50                   	push   eax
  402e41:	8b 08                	mov    ecx,DWORD PTR [eax]
  402e43:	ff 51 08             	call   DWORD PTR [ecx+0x8]
  402e46:	ff 15 78 26 41 00    	call   DWORD PTR ds:0x412678
  402e4c:	5f                   	pop    edi
  402e4d:	33 c0                	xor    eax,eax
  402e4f:	5e                   	pop    esi
  402e50:	5b                   	pop    ebx
  402e51:	8b e5                	mov    esp,ebp
  402e53:	5d                   	pop    ebp
  402e54:	c2 04 00             	ret    0x4
  402e57:	55                   	push   ebp
  402e58:	8b ec                	mov    ebp,esp
  402e5a:	83 ec 38             	sub    esp,0x38
  402e5d:	53                   	push   ebx
  402e5e:	56                   	push   esi
  402e5f:	57                   	push   edi
  402e60:	8d 45 e0             	lea    eax,[ebp-0x20]
  402e63:	50                   	push   eax
  402e64:	ff 15 28 e0 40 00    	call   DWORD PTR ds:0x40e028
  402e6a:	8d 45 c8             	lea    eax,[ebp-0x38]
  402e6d:	bf 78 12 41 00       	mov    edi,0x411278
  402e72:	50                   	push   eax
  402e73:	6a 16                	push   0x16
  402e75:	6a 08                	push   0x8
  402e77:	68 7f 02 00 00       	push   0x27f
  402e7c:	57                   	push   edi
  402e7d:	e8 13 37 00 00       	call   0x406595
  402e82:	33 c0                	xor    eax,eax
  402e84:	83 c4 14             	add    esp,0x14
  402e87:	66 89 45 de          	mov    WORD PTR [ebp-0x22],ax
  402e8b:	8d 45 c8             	lea    eax,[ebp-0x38]
  402e8e:	50                   	push   eax
  402e8f:	ff 15 20 e0 40 00    	call   DWORD PTR ds:0x40e020
  402e95:	8b f0                	mov    esi,eax
  402e97:	8d 45 f0             	lea    eax,[ebp-0x10]
  402e9a:	50                   	push   eax
  402e9b:	6a 0c                	push   0xc
  402e9d:	6a 08                	push   0x8
  402e9f:	68 ac 04 00 00       	push   0x4ac
  402ea4:	57                   	push   edi
  402ea5:	e8 eb 36 00 00       	call   0x406595
  402eaa:	83 c4 14             	add    esp,0x14
  402ead:	8d 55 e0             	lea    edx,[ebp-0x20]
  402eb0:	33 db                	xor    ebx,ebx
  402eb2:	33 c0                	xor    eax,eax
  402eb4:	66 89 45 fc          	mov    WORD PTR [ebp-0x4],ax
  402eb8:	8b 45 0c             	mov    eax,DWORD PTR [ebp+0xc]
  402ebb:	53                   	push   ebx
  402ebc:	53                   	push   ebx
  402ebd:	52                   	push   edx
  402ebe:	8b 08                	mov    ecx,DWORD PTR [eax]
  402ec0:	8d 55 f0             	lea    edx,[ebp-0x10]
  402ec3:	53                   	push   ebx
  402ec4:	52                   	push   edx
  402ec5:	50                   	push   eax
  402ec6:	ff 51 10             	call   DWORD PTR [ecx+0x10]
  402ec9:	8b f8                	mov    edi,eax
  402ecb:	85 ff                	test   edi,edi
  402ecd:	78 17                	js     0x402ee6
  402ecf:	8b 45 08             	mov    eax,DWORD PTR [ebp+0x8]
  402ed2:	53                   	push   ebx
  402ed3:	53                   	push   ebx
  402ed4:	53                   	push   ebx
  402ed5:	8b 40 0c             	mov    eax,DWORD PTR [eax+0xc]
  402ed8:	53                   	push   ebx
  402ed9:	53                   	push   ebx
  402eda:	56                   	push   esi
  402edb:	ff 75 e8             	push   DWORD PTR [ebp-0x18]
  402ede:	8b 08                	mov    ecx,DWORD PTR [eax]
  402ee0:	50                   	push   eax
  402ee1:	ff 51 60             	call   DWORD PTR [ecx+0x60]
  402ee4:	8b f8                	mov    edi,eax
  402ee6:	8d 45 e0             	lea    eax,[ebp-0x20]
  402ee9:	50                   	push   eax
  402eea:	ff 15 2c e0 40 00    	call   DWORD PTR ds:0x40e02c
  402ef0:	85 f6                	test   esi,esi
  402ef2:	74 07                	je     0x402efb
  402ef4:	56                   	push   esi
  402ef5:	ff 15 24 e0 40 00    	call   DWORD PTR ds:0x40e024
  402efb:	8b c7                	mov    eax,edi
  402efd:	5f                   	pop    edi
  402efe:	5e                   	pop    esi
  402eff:	5b                   	pop    ebx
  402f00:	8b e5                	mov    esp,ebp
  402f02:	5d                   	pop    ebp
  402f03:	c3                   	ret    
  402f04:	55                   	push   ebp
  402f05:	8b ec                	mov    ebp,esp
  402f07:	81 ec 80 00 00 00    	sub    esp,0x80
  402f0d:	53                   	push   ebx
  402f0e:	56                   	push   esi
  402f0f:	8b 35 28 e0 40 00    	mov    esi,DWORD PTR ds:0x40e028
  402f15:	8d 45 b0             	lea    eax,[ebp-0x50]
  402f18:	57                   	push   edi
  402f19:	33 ff                	xor    edi,edi
  402f1b:	50                   	push   eax
  402f1c:	89 7d f8             	mov    DWORD PTR [ebp-0x8],edi
  402f1f:	89 7d fc             	mov    DWORD PTR [ebp-0x4],edi
  402f22:	89 7d f4             	mov    DWORD PTR [ebp-0xc],edi
  402f25:	ff d6                	call   esi
  402f27:	8d 45 c0             	lea    eax,[ebp-0x40]
  402f2a:	50                   	push   eax
  402f2b:	ff d6                	call   esi
  402f2d:	8d 45 9c             	lea    eax,[ebp-0x64]
  402f30:	bb 78 12 41 00       	mov    ebx,0x411278
  402f35:	50                   	push   eax
  402f36:	6a 12                	push   0x12
  402f38:	6a 07                	push   0x7
  402f3a:	68 ec 0b 00 00       	push   0xbec
  402f3f:	53                   	push   ebx
  402f40:	e8 50 36 00 00       	call   0x406595
  402f45:	33 c0                	xor    eax,eax
  402f47:	66 89 45 ae          	mov    WORD PTR [ebp-0x52],ax
  402f4b:	8d 45 80             	lea    eax,[ebp-0x80]
  402f4e:	50                   	push   eax
  402f4f:	6a 1a                	push   0x1a
  402f51:	6a 0f                	push   0xf
  402f53:	68 cb 0a 00 00       	push   0xacb
  402f58:	53                   	push   ebx
  402f59:	e8 37 36 00 00       	call   0x406595
  402f5e:	8b 35 20 e0 40 00    	mov    esi,DWORD PTR ds:0x40e020
  402f64:	33 c0                	xor    eax,eax
  402f66:	83 c4 28             	add    esp,0x28
  402f69:	66 89 45 9a          	mov    WORD PTR [ebp-0x66],ax
  402f6d:	8d 45 9c             	lea    eax,[ebp-0x64]
  402f70:	50                   	push   eax
  402f71:	ff d6                	call   esi
  402f73:	8b d8                	mov    ebx,eax
  402f75:	8d 45 80             	lea    eax,[ebp-0x80]
  402f78:	50                   	push   eax
  402f79:	ff d6                	call   esi
  402f7b:	8b 75 08             	mov    esi,DWORD PTR [ebp+0x8]
  402f7e:	57                   	push   edi
  402f7f:	8d 7d f4             	lea    edi,[ebp-0xc]
  402f82:	89 45 f0             	mov    DWORD PTR [ebp-0x10],eax
  402f85:	57                   	push   edi
  402f86:	8b 4e 0c             	mov    ecx,DWORD PTR [esi+0xc]
  402f89:	6a 00                	push   0x0
  402f8b:	6a 00                	push   0x0
  402f8d:	50                   	push   eax
  402f8e:	8b 11                	mov    edx,DWORD PTR [ecx]
  402f90:	51                   	push   ecx
  402f91:	ff 52 18             	call   DWORD PTR [edx+0x18]
  402f94:	8b f8                	mov    edi,eax
  402f96:	85 ff                	test   edi,edi
  402f98:	0f 88 ce 00 00 00    	js     0x40306c
  402f9e:	8d 45 e0             	lea    eax,[ebp-0x20]
  402fa1:	50                   	push   eax
  402fa2:	6a 0c                	push   0xc
  402fa4:	6a 08                	push   0x8
  402fa6:	68 ac 04 00 00       	push   0x4ac
  402fab:	68 78 12 41 00       	push   0x411278
  402fb0:	e8 e0 35 00 00       	call   0x406595
  402fb5:	83 c4 14             	add    esp,0x14
  402fb8:	8d 55 b0             	lea    edx,[ebp-0x50]
  402fbb:	33 ff                	xor    edi,edi
  402fbd:	33 c0                	xor    eax,eax
  402fbf:	66 89 45 ec          	mov    WORD PTR [ebp-0x14],ax
  402fc3:	8b 45 0c             	mov    eax,DWORD PTR [ebp+0xc]
  402fc6:	57                   	push   edi
  402fc7:	57                   	push   edi
  402fc8:	52                   	push   edx
  402fc9:	8b 08                	mov    ecx,DWORD PTR [eax]
  402fcb:	8d 55 e0             	lea    edx,[ebp-0x20]
  402fce:	57                   	push   edi
  402fcf:	52                   	push   edx
  402fd0:	50                   	push   eax
  402fd1:	ff 51 10             	call   DWORD PTR [ecx+0x10]
  402fd4:	8b f8                	mov    edi,eax
  402fd6:	85 ff                	test   edi,edi
  402fd8:	0f 88 8e 00 00 00    	js     0x40306c
  402fde:	8b 45 f4             	mov    eax,DWORD PTR [ebp-0xc]
  402fe1:	8d 55 f8             	lea    edx,[ebp-0x8]
  402fe4:	6a 00                	push   0x0
  402fe6:	52                   	push   edx
  402fe7:	6a 00                	push   0x0
  402fe9:	8b 08                	mov    ecx,DWORD PTR [eax]
  402feb:	53                   	push   ebx
  402fec:	50                   	push   eax
  402fed:	ff 51 4c             	call   DWORD PTR [ecx+0x4c]
  402ff0:	8b f8                	mov    edi,eax
  402ff2:	85 ff                	test   edi,edi
  402ff4:	78 76                	js     0x40306c
  402ff6:	8b 45 f8             	mov    eax,DWORD PTR [ebp-0x8]
  402ff9:	8d 55 fc             	lea    edx,[ebp-0x4]
  402ffc:	52                   	push   edx
  402ffd:	6a 00                	push   0x0
  402fff:	50                   	push   eax
  403000:	8b 08                	mov    ecx,DWORD PTR [eax]
  403002:	ff 51 3c             	call   DWORD PTR [ecx+0x3c]
  403005:	8b f8                	mov    edi,eax
  403007:	85 ff                	test   edi,edi
  403009:	78 61                	js     0x40306c
  40300b:	6a 03                	push   0x3
  40300d:	58                   	pop    eax
  40300e:	66 89 45 c0          	mov    WORD PTR [ebp-0x40],ax
  403012:	8d 45 d0             	lea    eax,[ebp-0x30]
  403015:	50                   	push   eax
  403016:	6a 0c                	push   0xc
  403018:	6a 05                	push   0x5
  40301a:	68 cc 01 00 00       	push   0x1cc
  40301f:	68 78 12 41 00       	push   0x411278
  403024:	c7 45 c8 39 30 00 00 	mov    DWORD PTR [ebp-0x38],0x3039
  40302b:	e8 65 35 00 00       	call   0x406595
  403030:	83 c4 14             	add    esp,0x14
  403033:	8d 55 c0             	lea    edx,[ebp-0x40]
  403036:	33 c0                	xor    eax,eax
  403038:	66 89 45 dc          	mov    WORD PTR [ebp-0x24],ax
  40303c:	8b 45 fc             	mov    eax,DWORD PTR [ebp-0x4]
  40303f:	6a 00                	push   0x0
  403041:	52                   	push   edx
  403042:	6a 00                	push   0x0
  403044:	8b 08                	mov    ecx,DWORD PTR [eax]
  403046:	8d 55 d0             	lea    edx,[ebp-0x30]
  403049:	52                   	push   edx
  40304a:	50                   	push   eax
  40304b:	ff 51 14             	call   DWORD PTR [ecx+0x14]
  40304e:	8b f8                	mov    edi,eax
  403050:	85 ff                	test   edi,edi
  403052:	78 18                	js     0x40306c
  403054:	8b 46 0c             	mov    eax,DWORD PTR [esi+0xc]
  403057:	33 d2                	xor    edx,edx
  403059:	52                   	push   edx
  40305a:	52                   	push   edx
  40305b:	ff 75 fc             	push   DWORD PTR [ebp-0x4]
  40305e:	8b 08                	mov    ecx,DWORD PTR [eax]
  403060:	52                   	push   edx
  403061:	52                   	push   edx
  403062:	53                   	push   ebx
  403063:	ff 75 b8             	push   DWORD PTR [ebp-0x48]
  403066:	50                   	push   eax
  403067:	ff 51 60             	call   DWORD PTR [ecx+0x60]
  40306a:	8b f8                	mov    edi,eax
  40306c:	8b 4d fc             	mov    ecx,DWORD PTR [ebp-0x4]
  40306f:	85 c9                	test   ecx,ecx
  403071:	74 06                	je     0x403079
  403073:	8b 01                	mov    eax,DWORD PTR [ecx]
  403075:	51                   	push   ecx
  403076:	ff 50 08             	call   DWORD PTR [eax+0x8]
  403079:	8b 4d f8             	mov    ecx,DWORD PTR [ebp-0x8]
  40307c:	85 c9                	test   ecx,ecx
  40307e:	74 06                	je     0x403086
  403080:	8b 01                	mov    eax,DWORD PTR [ecx]
  403082:	51                   	push   ecx
  403083:	ff 50 08             	call   DWORD PTR [eax+0x8]
  403086:	8b 4d f4             	mov    ecx,DWORD PTR [ebp-0xc]
  403089:	85 c9                	test   ecx,ecx
  40308b:	74 06                	je     0x403093
  40308d:	8b 01                	mov    eax,DWORD PTR [ecx]
  40308f:	51                   	push   ecx
  403090:	ff 50 08             	call   DWORD PTR [eax+0x8]
  403093:	8b 35 2c e0 40 00    	mov    esi,DWORD PTR ds:0x40e02c
  403099:	8d 45 b0             	lea    eax,[ebp-0x50]
  40309c:	50                   	push   eax
  40309d:	ff d6                	call   esi
  40309f:	8d 45 c0             	lea    eax,[ebp-0x40]
  4030a2:	50                   	push   eax
  4030a3:	ff d6                	call   esi
  4030a5:	8b 35 24 e0 40 00    	mov    esi,DWORD PTR ds:0x40e024
  4030ab:	85 db                	test   ebx,ebx
  4030ad:	74 03                	je     0x4030b2
  4030af:	53                   	push   ebx
  4030b0:	ff d6                	call   esi
  4030b2:	8b 45 f0             	mov    eax,DWORD PTR [ebp-0x10]
  4030b5:	85 c0                	test   eax,eax
  4030b7:	74 03                	je     0x4030bc
  4030b9:	50                   	push   eax
  4030ba:	ff d6                	call   esi
  4030bc:	8b c7                	mov    eax,edi
  4030be:	5f                   	pop    edi
  4030bf:	5e                   	pop    esi
  4030c0:	5b                   	pop    ebx
  4030c1:	8b e5                	mov    esp,ebp
  4030c3:	5d                   	pop    ebp
  4030c4:	c3                   	ret    
  4030c5:	55                   	push   ebp
  4030c6:	8b ec                	mov    ebp,esp
  4030c8:	83 ec 78             	sub    esp,0x78
  4030cb:	83 3d d4 35 41 00 00 	cmp    DWORD PTR ds:0x4135d4,0x0
  4030d2:	0f 84 a3 00 00 00    	je     0x40317b
  4030d8:	56                   	push   esi
  4030d9:	8d 45 fc             	lea    eax,[ebp-0x4]
  4030dc:	50                   	push   eax
  4030dd:	6a 00                	push   0x0
  4030df:	e8 34 26 00 00       	call   0x405718
  4030e4:	8b f0                	mov    esi,eax
  4030e6:	59                   	pop    ecx
  4030e7:	59                   	pop    ecx
  4030e8:	85 f6                	test   esi,esi
  4030ea:	0f 84 8a 00 00 00    	je     0x40317a
  4030f0:	57                   	push   edi
  4030f1:	8d 45 88             	lea    eax,[ebp-0x78]
  4030f4:	bf 78 12 41 00       	mov    edi,0x411278
  4030f9:	50                   	push   eax
  4030fa:	6a 5a                	push   0x5a
  4030fc:	6a 08                	push   0x8
  4030fe:	68 83 00 00 00       	push   0x83
  403103:	57                   	push   edi
  403104:	e8 8c 34 00 00       	call   0x406595
  403109:	33 c0                	xor    eax,eax
  40310b:	66 89 45 e2          	mov    WORD PTR [ebp-0x1e],ax
  40310f:	8d 45 e4             	lea    eax,[ebp-0x1c]
  403112:	50                   	push   eax
  403113:	6a 14                	push   0x14
  403115:	6a 09                	push   0x9
  403117:	68 78 0a 00 00       	push   0xa78
  40311c:	57                   	push   edi
  40311d:	e8 73 34 00 00       	call   0x406595
  403122:	33 c0                	xor    eax,eax
  403124:	66 89 45 f8          	mov    WORD PTR [ebp-0x8],ax
  403128:	8b 45 fc             	mov    eax,DWORD PTR [ebp-0x4]
  40312b:	8d 04 45 02 00 00 00 	lea    eax,[eax*2+0x2]
  403132:	50                   	push   eax
  403133:	56                   	push   esi
  403134:	6a 01                	push   0x1
  403136:	8d 45 e4             	lea    eax,[ebp-0x1c]
  403139:	50                   	push   eax
  40313a:	8d 45 88             	lea    eax,[ebp-0x78]
  40313d:	50                   	push   eax
  40313e:	68 02 00 00 80       	push   0x80000002
  403143:	e8 ea 2b 00 00       	call   0x405d32
  403148:	83 c4 40             	add    esp,0x40
  40314b:	5f                   	pop    edi
  40314c:	85 c0                	test   eax,eax
  40314e:	75 23                	jne    0x403173
  403150:	8b 45 fc             	mov    eax,DWORD PTR [ebp-0x4]
  403153:	8d 04 45 02 00 00 00 	lea    eax,[eax*2+0x2]
  40315a:	50                   	push   eax
  40315b:	56                   	push   esi
  40315c:	6a 01                	push   0x1
  40315e:	8d 45 e4             	lea    eax,[ebp-0x1c]
  403161:	50                   	push   eax
  403162:	8d 45 88             	lea    eax,[ebp-0x78]
  403165:	50                   	push   eax
  403166:	68 01 00 00 80       	push   0x80000001
  40316b:	e8 c2 2b 00 00       	call   0x405d32
  403170:	83 c4 18             	add    esp,0x18
  403173:	56                   	push   esi
  403174:	e8 48 20 00 00       	call   0x4051c1
  403179:	59                   	pop    ecx
  40317a:	5e                   	pop    esi
  40317b:	8b e5                	mov    esp,ebp
  40317d:	5d                   	pop    ebp
  40317e:	c3                   	ret    
  40317f:	55                   	push   ebp
  403180:	8b ec                	mov    ebp,esp
  403182:	56                   	push   esi
  403183:	8b 75 0c             	mov    esi,DWORD PTR [ebp+0xc]
  403186:	57                   	push   edi
  403187:	8d 46 24             	lea    eax,[esi+0x24]
  40318a:	50                   	push   eax
  40318b:	e8 85 00 00 00       	call   0x403215
  403190:	8b f8                	mov    edi,eax
  403192:	59                   	pop    ecx
  403193:	85 ff                	test   edi,edi
  403195:	74 23                	je     0x4031ba
  403197:	ff 76 08             	push   DWORD PTR [esi+0x8]
  40319a:	6a 00                	push   0x0
  40319c:	6a 01                	push   0x1
  40319e:	ff 15 1c 26 41 00    	call   DWORD PTR ds:0x41261c
  4031a4:	8b f0                	mov    esi,eax
  4031a6:	85 f6                	test   esi,esi
  4031a8:	74 10                	je     0x4031ba
  4031aa:	6a 00                	push   0x0
  4031ac:	56                   	push   esi
  4031ad:	ff 15 58 28 41 00    	call   DWORD PTR ds:0x412858
  4031b3:	56                   	push   esi
  4031b4:	e8 5d 22 00 00       	call   0x405416
  4031b9:	59                   	pop    ecx
  4031ba:	8b c7                	mov    eax,edi
  4031bc:	5f                   	pop    edi
  4031bd:	5e                   	pop    esi
  4031be:	5d                   	pop    ebp
  4031bf:	c3                   	ret    
  4031c0:	55                   	push   ebp
  4031c1:	8b ec                	mov    ebp,esp
  4031c3:	83 ec 0c             	sub    esp,0xc
  4031c6:	8d 45 fc             	lea    eax,[ebp-0x4]
  4031c9:	56                   	push   esi
  4031ca:	50                   	push   eax
  4031cb:	e8 48 ec ff ff       	call   0x401e18
  4031d0:	8b f0                	mov    esi,eax
  4031d2:	59                   	pop    ecx
  4031d3:	85 f6                	test   esi,esi
  4031d5:	74 39                	je     0x403210
  4031d7:	57                   	push   edi
  4031d8:	ff 75 0c             	push   DWORD PTR [ebp+0xc]
  4031db:	e8 22 11 00 00       	call   0x404302
  4031e0:	8b f8                	mov    edi,eax
  4031e2:	59                   	pop    ecx
  4031e3:	85 ff                	test   edi,edi
  4031e5:	74 21                	je     0x403208
  4031e7:	8d 45 f8             	lea    eax,[ebp-0x8]
  4031ea:	50                   	push   eax
  4031eb:	8d 45 f4             	lea    eax,[ebp-0xc]
  4031ee:	50                   	push   eax
  4031ef:	ff 75 fc             	push   DWORD PTR [ebp-0x4]
  4031f2:	56                   	push   esi
  4031f3:	57                   	push   edi
  4031f4:	e8 40 57 00 00       	call   0x408939
  4031f9:	57                   	push   edi
  4031fa:	8b f0                	mov    esi,eax
  4031fc:	e8 c0 1f 00 00       	call   0x4051c1
  403201:	83 c4 18             	add    esp,0x18
  403204:	85 f6                	test   esi,esi
  403206:	74 07                	je     0x40320f
  403208:	56                   	push   esi
  403209:	e8 b3 1f 00 00       	call   0x4051c1
  40320e:	59                   	pop    ecx
  40320f:	5f                   	pop    edi
  403210:	5e                   	pop    esi
  403211:	8b e5                	mov    esp,ebp
  403213:	5d                   	pop    ebp
  403214:	c3                   	ret    
  403215:	55                   	push   ebp
  403216:	8b ec                	mov    ebp,esp
  403218:	53                   	push   ebx
  403219:	57                   	push   edi
  40321a:	8b 7d 08             	mov    edi,DWORD PTR [ebp+0x8]
  40321d:	33 db                	xor    ebx,ebx
  40321f:	68 b8 e0 40 00       	push   0x40e0b8
  403224:	57                   	push   edi
  403225:	e8 20 36 00 00       	call   0x40684a
  40322a:	59                   	pop    ecx
  40322b:	50                   	push   eax
  40322c:	e8 38 38 00 00       	call   0x406a69
  403231:	59                   	pop    ecx
  403232:	59                   	pop    ecx
  403233:	85 c0                	test   eax,eax
  403235:	74 2e                	je     0x403265
  403237:	2b c7                	sub    eax,edi
  403239:	d1 f8                	sar    eax,1
  40323b:	33 c9                	xor    ecx,ecx
  40323d:	56                   	push   esi
  40323e:	66 89 0c 47          	mov    WORD PTR [edi+eax*2],cx
  403242:	8b 35 80 35 41 00    	mov    esi,DWORD PTR ds:0x413580
  403248:	eb 11                	jmp    0x40325b
  40324a:	57                   	push   edi
  40324b:	ff 36                	push   DWORD PTR [esi]
  40324d:	e8 b0 33 00 00       	call   0x406602
  403252:	59                   	pop    ecx
  403253:	59                   	pop    ecx
  403254:	85 c0                	test   eax,eax
  403256:	75 09                	jne    0x403261
  403258:	8b 76 04             	mov    esi,DWORD PTR [esi+0x4]
  40325b:	85 f6                	test   esi,esi
  40325d:	75 eb                	jne    0x40324a
  40325f:	eb 03                	jmp    0x403264
  403261:	33 db                	xor    ebx,ebx
  403263:	43                   	inc    ebx
  403264:	5e                   	pop    esi
  403265:	5f                   	pop    edi
  403266:	8b c3                	mov    eax,ebx
  403268:	5b                   	pop    ebx
  403269:	5d                   	pop    ebp
  40326a:	c3                   	ret    
  40326b:	55                   	push   ebp
  40326c:	8b ec                	mov    ebp,esp
  40326e:	56                   	push   esi
  40326f:	57                   	push   edi
  403270:	ff 75 08             	push   DWORD PTR [ebp+0x8]
  403273:	33 ff                	xor    edi,edi
  403275:	e8 d0 35 00 00       	call   0x40684a
  40327a:	8b 35 90 35 41 00    	mov    esi,DWORD PTR ds:0x413590
  403280:	59                   	pop    ecx
  403281:	eb 13                	jmp    0x403296
  403283:	ff 75 08             	push   DWORD PTR [ebp+0x8]
  403286:	ff 36                	push   DWORD PTR [esi]
  403288:	e8 75 33 00 00       	call   0x406602
  40328d:	59                   	pop    ecx
  40328e:	59                   	pop    ecx
  40328f:	85 c0                	test   eax,eax
  403291:	75 09                	jne    0x40329c
  403293:	8b 76 04             	mov    esi,DWORD PTR [esi+0x4]
  403296:	85 f6                	test   esi,esi
  403298:	75 e9                	jne    0x403283
  40329a:	eb 03                	jmp    0x40329f
  40329c:	33 ff                	xor    edi,edi
  40329e:	47                   	inc    edi
  40329f:	8b c7                	mov    eax,edi
  4032a1:	5f                   	pop    edi
  4032a2:	5e                   	pop    esi
  4032a3:	5d                   	pop    ebp
  4032a4:	c3                   	ret    
  4032a5:	55                   	push   ebp
  4032a6:	8b ec                	mov    ebp,esp
  4032a8:	51                   	push   ecx
  4032a9:	51                   	push   ecx
  4032aa:	56                   	push   esi
  4032ab:	57                   	push   edi
  4032ac:	8d 45 f8             	lea    eax,[ebp-0x8]
  4032af:	33 ff                	xor    edi,edi
  4032b1:	50                   	push   eax
  4032b2:	6a 06                	push   0x6
  4032b4:	6a 0c                	push   0xc
  4032b6:	68 a4 02 00 00       	push   0x2a4
  4032bb:	68 78 12 41 00       	push   0x411278
  4032c0:	e8 d0 32 00 00       	call   0x406595
  4032c5:	ff 75 08             	push   DWORD PTR [ebp+0x8]
  4032c8:	33 c0                	xor    eax,eax
  4032ca:	66 89 45 fe          	mov    WORD PTR [ebp-0x2],ax
  4032ce:	e8 30 37 00 00       	call   0x406a03
  4032d3:	8b f0                	mov    esi,eax
  4032d5:	8d 45 f8             	lea    eax,[ebp-0x8]
  4032d8:	50                   	push   eax
  4032d9:	e8 25 37 00 00       	call   0x406a03
  4032de:	03 f0                	add    esi,eax
  4032e0:	8d 04 75 02 00 00 00 	lea    eax,[esi*2+0x2]
  4032e7:	50                   	push   eax
  4032e8:	e8 87 1e 00 00       	call   0x405174
  4032ed:	ff 75 08             	push   DWORD PTR [ebp+0x8]
  4032f0:	8b f0                	mov    esi,eax
  4032f2:	56                   	push   esi
  4032f3:	e8 62 36 00 00       	call   0x40695a
  4032f8:	8d 45 f8             	lea    eax,[ebp-0x8]
  4032fb:	50                   	push   eax
  4032fc:	56                   	push   esi
  4032fd:	e8 76 35 00 00       	call   0x406878
  403302:	83 c4 30             	add    esp,0x30
  403305:	57                   	push   edi
  403306:	68 00 01 00 04       	push   0x4000100
  40330b:	6a 02                	push   0x2
  40330d:	57                   	push   edi
  40330e:	6a 04                	push   0x4
  403310:	68 00 00 00 40       	push   0x40000000
  403315:	56                   	push   esi
  403316:	ff 15 14 27 41 00    	call   DWORD PTR ds:0x412714
  40331c:	83 f8 ff             	cmp    eax,0xffffffff
  40331f:	74 08                	je     0x403329
  403321:	50                   	push   eax
  403322:	47                   	inc    edi
  403323:	ff 15 00 e0 40 00    	call   DWORD PTR ds:0x40e000
  403329:	56                   	push   esi
  40332a:	e8 92 1e 00 00       	call   0x4051c1
  40332f:	59                   	pop    ecx
  403330:	8b c7                	mov    eax,edi
  403332:	5f                   	pop    edi
  403333:	5e                   	pop    esi
  403334:	8b e5                	mov    esp,ebp
  403336:	5d                   	pop    ebp
  403337:	c3                   	ret    
  403338:	55                   	push   ebp
  403339:	8b ec                	mov    ebp,esp
  40333b:	ff 75 0c             	push   DWORD PTR [ebp+0xc]
  40333e:	e8 62 ff ff ff       	call   0x4032a5
  403343:	59                   	pop    ecx
  403344:	85 c0                	test   eax,eax
  403346:	75 0c                	jne    0x403354
  403348:	6a 01                	push   0x1
  40334a:	ff 75 0c             	push   DWORD PTR [ebp+0xc]
  40334d:	e8 28 49 00 00       	call   0x407c7a
  403352:	59                   	pop    ecx
  403353:	59                   	pop    ecx
  403354:	a1 a0 35 41 00       	mov    eax,ds:0x4135a0
  403359:	85 c0                	test   eax,eax
  40335b:	74 0f                	je     0x40336c
  40335d:	39 05 40 30 41 00    	cmp    DWORD PTR ds:0x413040,eax
  403363:	73 10                	jae    0x403375
  403365:	f0 ff 05 40 30 41 00 	lock inc DWORD PTR ds:0x413040
  40336c:	ff 75 0c             	push   DWORD PTR [ebp+0xc]
  40336f:	e8 d8 13 00 00       	call   0x40474c
  403374:	59                   	pop    ecx
  403375:	33 c0                	xor    eax,eax
  403377:	40                   	inc    eax
  403378:	33 d2                	xor    edx,edx
  40337a:	5d                   	pop    ebp
  40337b:	c3                   	ret    
  40337c:	55                   	push   ebp
  40337d:	8b ec                	mov    ebp,esp
  40337f:	83 ec 4c             	sub    esp,0x4c
  403382:	83 3d cc 35 41 00 00 	cmp    DWORD PTR ds:0x4135cc,0x0
  403389:	74 08                	je     0x403393
  40338b:	33 c0                	xor    eax,eax
  40338d:	40                   	inc    eax
  40338e:	e9 3b 01 00 00       	jmp    0x4034ce
  403393:	56                   	push   esi
  403394:	8b 75 0c             	mov    esi,DWORD PTR [ebp+0xc]
  403397:	85 f6                	test   esi,esi
  403399:	75 08                	jne    0x4033a3
  40339b:	33 c0                	xor    eax,eax
  40339d:	40                   	inc    eax
  40339e:	e9 2a 01 00 00       	jmp    0x4034cd
  4033a3:	53                   	push   ebx
  4033a4:	ff 75 08             	push   DWORD PTR [ebp+0x8]
  4033a7:	e8 9e 34 00 00       	call   0x40684a
  4033ac:	56                   	push   esi
  4033ad:	e8 98 34 00 00       	call   0x40684a
  4033b2:	83 3d 58 30 41 00 00 	cmp    DWORD PTR ds:0x413058,0x0
  4033b9:	59                   	pop    ecx
  4033ba:	59                   	pop    ecx
  4033bb:	75 5e                	jne    0x40341b
  4033bd:	83 3d 5c 30 41 00 00 	cmp    DWORD PTR ds:0x41305c,0x0
  4033c4:	bb 68 10 41 00       	mov    ebx,0x411068
  4033c9:	75 32                	jne    0x4033fd
  4033cb:	68 04 01 00 00       	push   0x104
  4033d0:	53                   	push   ebx
  4033d1:	e8 2d 36 00 00       	call   0x406a03
  4033d6:	59                   	pop    ecx
  4033d7:	8d 04 45 68 10 41 00 	lea    eax,[eax*2+0x411068]
  4033de:	50                   	push   eax
  4033df:	ff 15 6c 28 41 00    	call   DWORD PTR ds:0x41286c
  4033e5:	53                   	push   ebx
  4033e6:	ff 15 6c 26 41 00    	call   DWORD PTR ds:0x41266c
  4033ec:	53                   	push   ebx
  4033ed:	e8 58 34 00 00       	call   0x40684a
  4033f2:	59                   	pop    ecx
  4033f3:	c7 05 5c 30 41 00 01 	mov    DWORD PTR ds:0x41305c,0x1
  4033fa:	00 00 00 
  4033fd:	ff 75 08             	push   DWORD PTR [ebp+0x8]
  403400:	53                   	push   ebx
  403401:	e8 f3 34 00 00       	call   0x4068f9
  403406:	59                   	pop    ecx
  403407:	59                   	pop    ecx
  403408:	85 c0                	test   eax,eax
  40340a:	75 0f                	jne    0x40341b
  40340c:	c7 05 58 30 41 00 01 	mov    DWORD PTR ds:0x413058,0x1
  403413:	00 00 00 
  403416:	e9 b1 00 00 00       	jmp    0x4034cc
  40341b:	8d 45 dc             	lea    eax,[ebp-0x24]
  40341e:	bb 78 12 41 00       	mov    ebx,0x411278
  403423:	50                   	push   eax
  403424:	6a 1a                	push   0x1a
  403426:	6a 0d                	push   0xd
  403428:	68 8d 0b 00 00       	push   0xb8d
  40342d:	53                   	push   ebx
  40342e:	e8 62 31 00 00       	call   0x406595
  403433:	33 c0                	xor    eax,eax
  403435:	66 89 45 f6          	mov    WORD PTR [ebp-0xa],ax
  403439:	8d 45 b4             	lea    eax,[ebp-0x4c]
  40343c:	50                   	push   eax
  40343d:	6a 26                	push   0x26
  40343f:	6a 07                	push   0x7
  403441:	68 02 0d 00 00       	push   0xd02
  403446:	53                   	push   ebx
  403447:	e8 49 31 00 00       	call   0x406595
  40344c:	33 c0                	xor    eax,eax
  40344e:	66 89 45 da          	mov    WORD PTR [ebp-0x26],ax
  403452:	8d 45 dc             	lea    eax,[ebp-0x24]
  403455:	50                   	push   eax
  403456:	56                   	push   esi
  403457:	e8 9d 34 00 00       	call   0x4068f9
  40345c:	83 c4 30             	add    esp,0x30
  40345f:	85 c0                	test   eax,eax
  403461:	74 66                	je     0x4034c9
  403463:	8d 45 b4             	lea    eax,[ebp-0x4c]
  403466:	50                   	push   eax
  403467:	56                   	push   esi
  403468:	e8 8c 34 00 00       	call   0x4068f9
  40346d:	59                   	pop    ecx
  40346e:	59                   	pop    ecx
  40346f:	85 c0                	test   eax,eax
  403471:	74 56                	je     0x4034c9
  403473:	8d 45 dc             	lea    eax,[ebp-0x24]
  403476:	50                   	push   eax
  403477:	ff 75 08             	push   DWORD PTR [ebp+0x8]
  40347a:	e8 ea 35 00 00       	call   0x406a69
  40347f:	59                   	pop    ecx
  403480:	59                   	pop    ecx
  403481:	85 c0                	test   eax,eax
  403483:	74 30                	je     0x4034b5
  403485:	8d 45 f8             	lea    eax,[ebp-0x8]
  403488:	50                   	push   eax
  403489:	6a 06                	push   0x6
  40348b:	6a 0a                	push   0xa
  40348d:	68 63 02 00 00       	push   0x263
  403492:	53                   	push   ebx
  403493:	e8 fd 30 00 00       	call   0x406595
  403498:	33 c0                	xor    eax,eax
  40349a:	66 89 45 fe          	mov    WORD PTR [ebp-0x2],ax
  40349e:	8d 45 f8             	lea    eax,[ebp-0x8]
  4034a1:	50                   	push   eax
  4034a2:	ff 75 08             	push   DWORD PTR [ebp+0x8]
  4034a5:	e8 bf 35 00 00       	call   0x406a69
  4034aa:	83 c4 1c             	add    esp,0x1c
  4034ad:	f7 d8                	neg    eax
  4034af:	1b c0                	sbb    eax,eax
  4034b1:	f7 d8                	neg    eax
  4034b3:	eb 17                	jmp    0x4034cc
  4034b5:	56                   	push   esi
  4034b6:	68 54 35 41 00       	push   0x413554
  4034bb:	e8 b5 37 00 00       	call   0x406c75
  4034c0:	f7 d8                	neg    eax
  4034c2:	59                   	pop    ecx
  4034c3:	1b c0                	sbb    eax,eax
  4034c5:	59                   	pop    ecx
  4034c6:	40                   	inc    eax
  4034c7:	eb 03                	jmp    0x4034cc
  4034c9:	33 c0                	xor    eax,eax
  4034cb:	40                   	inc    eax
  4034cc:	5b                   	pop    ebx
  4034cd:	5e                   	pop    esi
  4034ce:	8b e5                	mov    esp,ebp
  4034d0:	5d                   	pop    ebp
  4034d1:	c3                   	ret    
  4034d2:	55                   	push   ebp
  4034d3:	8b ec                	mov    ebp,esp
  4034d5:	8b 45 0c             	mov    eax,DWORD PTR [ebp+0xc]
  4034d8:	50                   	push   eax
  4034d9:	6a 00                	push   0x0
  4034db:	6a 00                	push   0x0
  4034dd:	ff 75 08             	push   DWORD PTR [ebp+0x8]
  4034e0:	c7 80 54 01 00 00 03 	mov    DWORD PTR [eax+0x154],0x3
  4034e7:	00 00 00 
  4034ea:	e8 b8 4a 00 00       	call   0x407fa7
  4034ef:	83 c4 10             	add    esp,0x10
  4034f2:	5d                   	pop    ebp
  4034f3:	c3                   	ret    
  4034f4:	55                   	push   ebp
  4034f5:	8b ec                	mov    ebp,esp
  4034f7:	56                   	push   esi
  4034f8:	8b 75 0c             	mov    esi,DWORD PTR [ebp+0xc]
  4034fb:	6a 40                	push   0x40
  4034fd:	8d 86 10 01 00 00    	lea    eax,[esi+0x110]
  403503:	50                   	push   eax
  403504:	e8 ff 3d 00 00       	call   0x407308
  403509:	56                   	push   esi
  40350a:	e8 48 4b 00 00       	call   0x408057
  40350f:	56                   	push   esi
  403510:	ff 75 08             	push   DWORD PTR [ebp+0x8]
  403513:	e8 5e 4a 00 00       	call   0x407f76
  403518:	83 c4 14             	add    esp,0x14
  40351b:	5e                   	pop    esi
  40351c:	5d                   	pop    ebp
  40351d:	c3                   	ret    
  40351e:	55                   	push   ebp
  40351f:	8b ec                	mov    ebp,esp
  403521:	81 ec ec 00 00 00    	sub    esp,0xec
  403527:	53                   	push   ebx
  403528:	56                   	push   esi
  403529:	57                   	push   edi
  40352a:	33 db                	xor    ebx,ebx
  40352c:	33 ff                	xor    edi,edi
  40352e:	53                   	push   ebx
  40352f:	6a 03                	push   0x3
  403531:	47                   	inc    edi
  403532:	57                   	push   edi
  403533:	68 00 00 00 80       	push   0x80000000
  403538:	ff 75 0c             	push   DWORD PTR [ebp+0xc]
  40353b:	e8 0d 4e 00 00       	call   0x40834d
  403540:	8b f0                	mov    esi,eax
  403542:	83 c4 14             	add    esp,0x14
  403545:	85 f6                	test   esi,esi
  403547:	74 17                	je     0x403560
  403549:	39 5d 14             	cmp    DWORD PTR [ebp+0x14],ebx
  40354c:	7f 3b                	jg     0x403589
  40354e:	7c 09                	jl     0x403559
  403550:	81 7d 10 e8 00 00 00 	cmp    DWORD PTR [ebp+0x10],0xe8
  403557:	73 30                	jae    0x403589
  403559:	56                   	push   esi
  40355a:	e8 b7 1e 00 00       	call   0x405416
  40355f:	59                   	pop    ecx
  403560:	83 7d 14 00          	cmp    DWORD PTR [ebp+0x14],0x0
  403564:	bb 00 00 10 00       	mov    ebx,0x100000
  403569:	7f 0a                	jg     0x403575
  40356b:	7c 05                	jl     0x403572
  40356d:	39 5d 10             	cmp    DWORD PTR [ebp+0x10],ebx
  403570:	73 03                	jae    0x403575
  403572:	8b 5d 10             	mov    ebx,DWORD PTR [ebp+0x10]
  403575:	8b 7d 08             	mov    edi,DWORD PTR [ebp+0x8]
  403578:	8d 83 60 01 00 00    	lea    eax,[ebx+0x160]
  40357e:	50                   	push   eax
  40357f:	57                   	push   edi
  403580:	e8 dd 49 00 00       	call   0x407f62
  403585:	59                   	pop    ecx
  403586:	59                   	pop    ecx
  403587:	eb 7e                	jmp    0x403607
  403589:	6a 02                	push   0x2
  40358b:	6a ff                	push   0xffffffff
  40358d:	68 18 ff ff ff       	push   0xffffff18
  403592:	56                   	push   esi
  403593:	e8 f4 4d 00 00       	call   0x40838c
  403598:	8d 45 fc             	lea    eax,[ebp-0x4]
  40359b:	50                   	push   eax
  40359c:	68 e8 00 00 00       	push   0xe8
  4035a1:	8d 85 14 ff ff ff    	lea    eax,[ebp-0xec]
  4035a7:	50                   	push   eax
  4035a8:	56                   	push   esi
  4035a9:	e8 c5 4d 00 00       	call   0x408373
  4035ae:	83 c4 20             	add    esp,0x20
  4035b1:	85 c0                	test   eax,eax
  4035b3:	74 09                	je     0x4035be
  4035b5:	81 7d fc e8 00 00 00 	cmp    DWORD PTR [ebp-0x4],0xe8
  4035bc:	74 02                	je     0x4035c0
  4035be:	8b fb                	mov    edi,ebx
  4035c0:	56                   	push   esi
  4035c1:	e8 50 1e 00 00       	call   0x405416
  4035c6:	59                   	pop    ecx
  4035c7:	85 ff                	test   edi,edi
  4035c9:	74 95                	je     0x403560
  4035cb:	6a 20                	push   0x20
  4035cd:	8d 45 c4             	lea    eax,[ebp-0x3c]
  4035d0:	50                   	push   eax
  4035d1:	53                   	push   ebx
  4035d2:	e8 41 3b 00 00       	call   0x407118
  4035d7:	83 c4 0c             	add    esp,0xc
  4035da:	39 45 ec             	cmp    DWORD PTR [ebp-0x14],eax
  4035dd:	75 81                	jne    0x403560
  4035df:	33 c0                	xor    eax,eax
  4035e1:	e9 db 00 00 00       	jmp    0x4036c1
  4035e6:	e8 54 24 00 00       	call   0x405a3f
  4035eb:	83 f8 08             	cmp    eax,0x8
  4035ee:	75 ef                	jne    0x4035df
  4035f0:	6a 64                	push   0x64
  4035f2:	e8 d0 29 00 00       	call   0x405fc7
  4035f7:	8d 83 60 01 00 00    	lea    eax,[ebx+0x160]
  4035fd:	50                   	push   eax
  4035fe:	57                   	push   edi
  4035ff:	e8 5e 49 00 00       	call   0x407f62
  403604:	83 c4 0c             	add    esp,0xc
  403607:	8b f0                	mov    esi,eax
  403609:	85 f6                	test   esi,esi
  40360b:	74 d9                	je     0x4035e6
  40360d:	6a 03                	push   0x3
  40360f:	59                   	pop    ecx
  403610:	33 c0                	xor    eax,eax
  403612:	89 9e 58 01 00 00    	mov    DWORD PTR [esi+0x158],ebx
  403618:	8b 5d 0c             	mov    ebx,DWORD PTR [ebp+0xc]
  40361b:	51                   	push   ecx
  40361c:	89 86 54 01 00 00    	mov    DWORD PTR [esi+0x154],eax
  403622:	89 86 50 01 00 00    	mov    DWORD PTR [esi+0x150],eax
  403628:	89 4d fc             	mov    DWORD PTR [ebp-0x4],ecx
  40362b:	50                   	push   eax
  40362c:	eb 6d                	jmp    0x40369b
  40362e:	e8 0c 24 00 00       	call   0x405a3f
  403633:	8b 55 fc             	mov    edx,DWORD PTR [ebp-0x4]
  403636:	8b ca                	mov    ecx,edx
  403638:	4a                   	dec    edx
  403639:	89 55 fc             	mov    DWORD PTR [ebp-0x4],edx
  40363c:	85 c9                	test   ecx,ecx
  40363e:	74 33                	je     0x403673
  403640:	83 f8 05             	cmp    eax,0x5
  403643:	75 3a                	jne    0x40367f
  403645:	6a 00                	push   0x0
  403647:	53                   	push   ebx
  403648:	e8 2d 46 00 00       	call   0x407c7a
  40364d:	59                   	pop    ecx
  40364e:	59                   	pop    ecx
  40364f:	85 c0                	test   eax,eax
  403651:	74 65                	je     0x4036b8
  403653:	53                   	push   ebx
  403654:	ff 15 1c 28 41 00    	call   DWORD PTR ds:0x41281c
  40365a:	83 f8 ff             	cmp    eax,0xffffffff
  40365d:	74 14                	je     0x403673
  40365f:	a8 01                	test   al,0x1
  403661:	74 34                	je     0x403697
  403663:	68 80 00 00 00       	push   0x80
  403668:	53                   	push   ebx
  403669:	ff 15 64 28 41 00    	call   DWORD PTR ds:0x412864
  40366f:	85 c0                	test   eax,eax
  403671:	75 24                	jne    0x403697
  403673:	56                   	push   esi
  403674:	57                   	push   edi
  403675:	e8 fc 48 00 00       	call   0x407f76
  40367a:	59                   	pop    ecx
  40367b:	33 c0                	xor    eax,eax
  40367d:	eb 41                	jmp    0x4036c0
  40367f:	83 f8 20             	cmp    eax,0x20
  403682:	75 13                	jne    0x403697
  403684:	53                   	push   ebx
  403685:	e8 63 2b 00 00       	call   0x4061ed
  40368a:	c7 04 24 e8 03 00 00 	mov    DWORD PTR [esp],0x3e8
  403691:	e8 31 29 00 00       	call   0x405fc7
  403696:	59                   	pop    ecx
  403697:	6a 03                	push   0x3
  403699:	6a 00                	push   0x0
  40369b:	68 00 00 00 c0       	push   0xc0000000
  4036a0:	ff 75 14             	push   DWORD PTR [ebp+0x14]
  4036a3:	ff 75 10             	push   DWORD PTR [ebp+0x10]
  4036a6:	53                   	push   ebx
  4036a7:	56                   	push   esi
  4036a8:	e8 c6 49 00 00       	call   0x408073
  4036ad:	83 c4 1c             	add    esp,0x1c
  4036b0:	85 c0                	test   eax,eax
  4036b2:	0f 84 76 ff ff ff    	je     0x40362e
  4036b8:	56                   	push   esi
  4036b9:	e8 0a 00 00 00       	call   0x4036c8
  4036be:	8b c6                	mov    eax,esi
  4036c0:	59                   	pop    ecx
  4036c1:	5f                   	pop    edi
  4036c2:	5e                   	pop    esi
  4036c3:	5b                   	pop    ebx
  4036c4:	8b e5                	mov    esp,ebp
  4036c6:	5d                   	pop    ebp
  4036c7:	c3                   	ret    
  4036c8:	55                   	push   ebp
  4036c9:	8b ec                	mov    ebp,esp
  4036cb:	8b 45 08             	mov    eax,DWORD PTR [ebp+0x8]
  4036ce:	83 ec 40             	sub    esp,0x40
  4036d1:	53                   	push   ebx
  4036d2:	56                   	push   esi
  4036d3:	57                   	push   edi
  4036d4:	6a 16                	push   0x16
  4036d6:	59                   	pop    ecx
  4036d7:	8d 78 28             	lea    edi,[eax+0x28]
  4036da:	be 60 34 41 00       	mov    esi,0x413460
  4036df:	f3 a5                	rep movs DWORD PTR es:[edi],DWORD PTR ds:[esi]
  4036e1:	6a 16                	push   0x16
  4036e3:	59                   	pop    ecx
  4036e4:	8d 98 d8 00 00 00    	lea    ebx,[eax+0xd8]
  4036ea:	be b8 34 41 00       	mov    esi,0x4134b8
  4036ef:	8d b8 80 00 00 00    	lea    edi,[eax+0x80]
  4036f5:	8d 45 e0             	lea    eax,[ebp-0x20]
  4036f8:	53                   	push   ebx
  4036f9:	f3 a5                	rep movs DWORD PTR es:[edi],DWORD PTR ds:[esi]
  4036fb:	50                   	push   eax
  4036fc:	e8 2b 38 00 00       	call   0x406f2c
  403701:	8d 45 c0             	lea    eax,[ebp-0x40]
  403704:	50                   	push   eax
  403705:	8d 45 e0             	lea    eax,[ebp-0x20]
  403708:	68 40 34 41 00       	push   0x413440
  40370d:	50                   	push   eax
  40370e:	e8 4b 3b 00 00       	call   0x40725e
  403713:	8d 45 e0             	lea    eax,[ebp-0x20]
  403716:	6a 20                	push   0x20
  403718:	50                   	push   eax
  403719:	e8 ea 3b 00 00       	call   0x407308
  40371e:	8b 75 08             	mov    esi,DWORD PTR [ebp+0x8]
  403721:	8d 45 c0             	lea    eax,[ebp-0x40]
  403724:	6a 40                	push   0x40
  403726:	68 00 01 00 00       	push   0x100
  40372b:	50                   	push   eax
  40372c:	8d be 10 01 00 00    	lea    edi,[esi+0x110]
  403732:	57                   	push   edi
  403733:	e8 4d 58 00 00       	call   0x408f85
  403738:	8d 45 c0             	lea    eax,[ebp-0x40]
  40373b:	6a 20                	push   0x20
  40373d:	50                   	push   eax
  40373e:	e8 c5 3b 00 00       	call   0x407308
  403743:	81 c6 f8 00 00 00    	add    esi,0xf8
  403749:	6a 08                	push   0x8
  40374b:	56                   	push   esi
  40374c:	e8 76 3a 00 00       	call   0x4071c7
  403751:	56                   	push   esi
  403752:	57                   	push   edi
  403753:	e8 0f 58 00 00       	call   0x408f67
  403758:	83 c4 44             	add    esp,0x44
  40375b:	6a 20                	push   0x20
  40375d:	53                   	push   ebx
  40375e:	6a 00                	push   0x0
  403760:	e8 b3 39 00 00       	call   0x407118
  403765:	8b 4d 08             	mov    ecx,DWORD PTR [ebp+0x8]
  403768:	6a 04                	push   0x4
  40376a:	89 81 00 01 00 00    	mov    DWORD PTR [ecx+0x100],eax
  403770:	a1 98 35 41 00       	mov    eax,ds:0x413598
  403775:	89 81 04 01 00 00    	mov    DWORD PTR [ecx+0x104],eax
  40377b:	a1 9c 35 41 00       	mov    eax,ds:0x41359c
  403780:	89 81 08 01 00 00    	mov    DWORD PTR [ecx+0x108],eax
  403786:	8d 81 0c 01 00 00    	lea    eax,[ecx+0x10c]
  40378c:	83 20 00             	and    DWORD PTR [eax],0x0
  40378f:	50                   	push   eax
  403790:	50                   	push   eax
  403791:	57                   	push   edi
  403792:	e8 27 57 00 00       	call   0x408ebe
  403797:	83 c4 1c             	add    esp,0x1c
  40379a:	5f                   	pop    edi
  40379b:	5e                   	pop    esi
  40379c:	5b                   	pop    ebx
  40379d:	8b e5                	mov    esp,ebp
  40379f:	5d                   	pop    ebp
  4037a0:	c3                   	ret    
  4037a1:	55                   	push   ebp
  4037a2:	8b ec                	mov    ebp,esp
  4037a4:	83 ec 0c             	sub    esp,0xc
  4037a7:	53                   	push   ebx
  4037a8:	56                   	push   esi
  4037a9:	57                   	push   edi
  4037aa:	8b 7d 0c             	mov    edi,DWORD PTR [ebp+0xc]
  4037ad:	ff 77 14             	push   DWORD PTR [edi+0x14]
  4037b0:	e8 61 1c 00 00       	call   0x405416
  4037b5:	ff 77 18             	push   DWORD PTR [edi+0x18]
  4037b8:	83 67 14 00          	and    DWORD PTR [edi+0x14],0x0
  4037bc:	e8 42 32 00 00       	call   0x406a03
  4037c1:	8d 04 45 80 00 00 00 	lea    eax,[eax*2+0x80]
  4037c8:	50                   	push   eax
  4037c9:	e8 a6 19 00 00       	call   0x405174
  4037ce:	8b f0                	mov    esi,eax
  4037d0:	83 c4 0c             	add    esp,0xc
  4037d3:	85 f6                	test   esi,esi
  4037d5:	74 2e                	je     0x403805
  4037d7:	ff 35 28 35 41 00    	push   DWORD PTR ds:0x413528
  4037dd:	ff 77 18             	push   DWORD PTR [edi+0x18]
  4037e0:	56                   	push   esi
  4037e1:	e8 74 31 00 00       	call   0x40695a
  4037e6:	59                   	pop    ecx
  4037e7:	59                   	pop    ecx
  4037e8:	50                   	push   eax
  4037e9:	e8 8a 30 00 00       	call   0x406878
  4037ee:	50                   	push   eax
  4037ef:	ff 77 18             	push   DWORD PTR [edi+0x18]
  4037f2:	e8 4a 4c 00 00       	call   0x408441
  4037f7:	ff 77 18             	push   DWORD PTR [edi+0x18]
  4037fa:	e8 c2 19 00 00       	call   0x4051c1
  4037ff:	83 c4 14             	add    esp,0x14
  403802:	89 77 18             	mov    DWORD PTR [edi+0x18],esi
  403805:	8b 47 20             	mov    eax,DWORD PTR [edi+0x20]
  403808:	89 45 fc             	mov    DWORD PTR [ebp-0x4],eax
  40380b:	8b 47 24             	mov    eax,DWORD PTR [edi+0x24]
  40380e:	8b 7d fc             	mov    edi,DWORD PTR [ebp-0x4]
  403811:	89 45 f8             	mov    DWORD PTR [ebp-0x8],eax
  403814:	8b 35 48 30 41 00    	mov    esi,DWORD PTR ds:0x413048
  40381a:	8b de                	mov    ebx,esi
  40381c:	8b 15 4c 30 41 00    	mov    edx,DWORD PTR ds:0x41304c
  403822:	03 df                	add    ebx,edi
  403824:	8b ca                	mov    ecx,edx
  403826:	89 55 f4             	mov    DWORD PTR [ebp-0xc],edx
  403829:	13 c8                	adc    ecx,eax
  40382b:	bf 48 30 41 00       	mov    edi,0x413048
  403830:	8b c6                	mov    eax,esi
  403832:	f0 0f c7 0f          	lock cmpxchg8b QWORD PTR [edi]
  403836:	8b 7d fc             	mov    edi,DWORD PTR [ebp-0x4]
  403839:	3b c6                	cmp    eax,esi
  40383b:	8b 45 f8             	mov    eax,DWORD PTR [ebp-0x8]
  40383e:	75 d4                	jne    0x403814
  403840:	3b 55 f4             	cmp    edx,DWORD PTR [ebp-0xc]
  403843:	75 cf                	jne    0x403814
  403845:	8b 35 50 30 41 00    	mov    esi,DWORD PTR ds:0x413050
  40384b:	bf 50 30 41 00       	mov    edi,0x413050
  403850:	8b 15 54 30 41 00    	mov    edx,DWORD PTR ds:0x413054
  403856:	8b de                	mov    ebx,esi
  403858:	83 c3 01             	add    ebx,0x1
  40385b:	89 55 f4             	mov    DWORD PTR [ebp-0xc],edx
  40385e:	8b ca                	mov    ecx,edx
  403860:	8b c6                	mov    eax,esi
  403862:	83 d1 00             	adc    ecx,0x0
  403865:	f0 0f c7 0f          	lock cmpxchg8b QWORD PTR [edi]
  403869:	8b 7d 0c             	mov    edi,DWORD PTR [ebp+0xc]
  40386c:	3b c6                	cmp    eax,esi
  40386e:	75 d5                	jne    0x403845
  403870:	3b 55 f4             	cmp    edx,DWORD PTR [ebp-0xc]
  403873:	75 d0                	jne    0x403845
  403875:	57                   	push   edi
  403876:	ff 75 08             	push   DWORD PTR [ebp+0x8]
  403879:	e8 76 fc ff ff       	call   0x4034f4
  40387e:	59                   	pop    ecx
  40387f:	59                   	pop    ecx
  403880:	5f                   	pop    edi
  403881:	5e                   	pop    esi
  403882:	5b                   	pop    ebx
  403883:	8b e5                	mov    esp,ebp
  403885:	5d                   	pop    ebp
  403886:	c3                   	ret    
  403887:	55                   	push   ebp
  403888:	8b ec                	mov    ebp,esp
  40388a:	8b 45 10             	mov    eax,DWORD PTR [ebp+0x10]
  40388d:	56                   	push   esi
  40388e:	8b 75 0c             	mov    esi,DWORD PTR [ebp+0xc]
  403891:	57                   	push   edi
  403892:	ff b6 58 01 00 00    	push   DWORD PTR [esi+0x158]
  403898:	8d be 5c 01 00 00    	lea    edi,[esi+0x15c]
  40389e:	c7 86 50 01 00 00 01 	mov    DWORD PTR [esi+0x150],0x1
  4038a5:	00 00 00 
  4038a8:	57                   	push   edi
  4038a9:	56                   	push   esi
  4038aa:	89 86 54 01 00 00    	mov    DWORD PTR [esi+0x154],eax
  4038b0:	e8 1f 48 00 00       	call   0x4080d4
  4038b5:	83 c4 0c             	add    esp,0xc
  4038b8:	eb 28                	jmp    0x4038e2
  4038ba:	e8 80 21 00 00       	call   0x405a3f
  4038bf:	3d e5 03 00 00       	cmp    eax,0x3e5
  4038c4:	74 2d                	je     0x4038f3
  4038c6:	83 f8 26             	cmp    eax,0x26
  4038c9:	74 1d                	je     0x4038e8
  4038cb:	6a 64                	push   0x64
  4038cd:	e8 f5 26 00 00       	call   0x405fc7
  4038d2:	ff b6 58 01 00 00    	push   DWORD PTR [esi+0x158]
  4038d8:	57                   	push   edi
  4038d9:	56                   	push   esi
  4038da:	e8 f5 47 00 00       	call   0x4080d4
  4038df:	83 c4 10             	add    esp,0x10
  4038e2:	85 c0                	test   eax,eax
  4038e4:	74 d4                	je     0x4038ba
  4038e6:	eb 0b                	jmp    0x4038f3
  4038e8:	56                   	push   esi
  4038e9:	ff 75 08             	push   DWORD PTR [ebp+0x8]
  4038ec:	e8 e1 fb ff ff       	call   0x4034d2
  4038f1:	59                   	pop    ecx
  4038f2:	59                   	pop    ecx
  4038f3:	5f                   	pop    edi
  4038f4:	5e                   	pop    esi
  4038f5:	5d                   	pop    ebp
  4038f6:	c3                   	ret    
  4038f7:	55                   	push   ebp
  4038f8:	8b ec                	mov    ebp,esp
  4038fa:	83 ec 50             	sub    esp,0x50
  4038fd:	53                   	push   ebx
  4038fe:	56                   	push   esi
  4038ff:	57                   	push   edi
  403900:	33 ff                	xor    edi,edi
  403902:	33 db                	xor    ebx,ebx
  403904:	47                   	inc    edi
  403905:	8b f3                	mov    esi,ebx
  403907:	39 1d cc 35 41 00    	cmp    DWORD PTR ds:0x4135cc,ebx
  40390d:	0f 84 9d 00 00 00    	je     0x4039b0
  403913:	8d 45 f0             	lea    eax,[ebp-0x10]
  403916:	50                   	push   eax
  403917:	e8 1c 1b 00 00       	call   0x405438
  40391c:	8b f8                	mov    edi,eax
  40391e:	59                   	pop    ecx
  40391f:	85 ff                	test   edi,edi
  403921:	75 07                	jne    0x40392a
  403923:	33 c0                	xor    eax,eax
  403925:	e9 3f 02 00 00       	jmp    0x403b69
  40392a:	83 7d f0 02          	cmp    DWORD PTR [ebp-0x10],0x2
  40392e:	7f 0d                	jg     0x40393d
  403930:	57                   	push   edi
  403931:	e8 f4 1a 00 00       	call   0x40542a
  403936:	33 c0                	xor    eax,eax
  403938:	e9 2b 02 00 00       	jmp    0x403b68
  40393d:	8b 0d bc 35 41 00    	mov    ecx,DWORD PTR ds:0x4135bc
  403943:	85 c9                	test   ecx,ecx
  403945:	a1 98 35 41 00       	mov    eax,ds:0x413598
  40394a:	6a 01                	push   0x1
  40394c:	5a                   	pop    edx
  40394d:	0f 45 c2             	cmovne eax,edx
  403950:	a3 98 35 41 00       	mov    ds:0x413598,eax
  403955:	39 1d c0 35 41 00    	cmp    DWORD PTR ds:0x4135c0,ebx
  40395b:	74 0a                	je     0x403967
  40395d:	89 1d 98 35 41 00    	mov    DWORD PTR ds:0x413598,ebx
  403963:	85 c9                	test   ecx,ecx
  403965:	75 bc                	jne    0x403923
  403967:	68 08 02 00 00       	push   0x208
  40396c:	e8 03 18 00 00       	call   0x405174
  403971:	8b f0                	mov    esi,eax
  403973:	59                   	pop    ecx
  403974:	85 f6                	test   esi,esi
  403976:	74 b8                	je     0x403930
  403978:	ff 77 08             	push   DWORD PTR [edi+0x8]
  40397b:	56                   	push   esi
  40397c:	e8 d9 2f 00 00       	call   0x40695a
  403981:	57                   	push   edi
  403982:	e8 a3 1a 00 00       	call   0x40542a
  403987:	56                   	push   esi
  403988:	e8 76 30 00 00       	call   0x406a03
  40398d:	83 c4 10             	add    esp,0x10
  403990:	33 ff                	xor    edi,edi
  403992:	47                   	inc    edi
  403993:	0f b7 4c 46 fe       	movzx  ecx,WORD PTR [esi+eax*2-0x2]
  403998:	6a 5c                	push   0x5c
  40399a:	5a                   	pop    edx
  40399b:	66 3b ca             	cmp    cx,dx
  40399e:	74 10                	je     0x4039b0
  4039a0:	83 f9 22             	cmp    ecx,0x22
  4039a3:	75 07                	jne    0x4039ac
  4039a5:	66 89 54 46 fe       	mov    WORD PTR [esi+eax*2-0x2],dx
  4039aa:	eb 04                	jmp    0x4039b0
  4039ac:	66 89 14 46          	mov    WORD PTR [esi+eax*2],dx
  4039b0:	68 70 3b 40 00       	push   0x403b70
  4039b5:	53                   	push   ebx
  4039b6:	8d 45 e0             	lea    eax,[ebp-0x20]
  4039b9:	89 1d 48 30 41 00    	mov    DWORD PTR ds:0x413048,ebx
  4039bf:	53                   	push   ebx
  4039c0:	50                   	push   eax
  4039c1:	89 1d 4c 30 41 00    	mov    DWORD PTR ds:0x41304c,ebx
  4039c7:	89 1d 50 30 41 00    	mov    DWORD PTR ds:0x413050,ebx
  4039cd:	89 1d 54 30 41 00    	mov    DWORD PTR ds:0x413054,ebx
  4039d3:	89 1d 44 30 41 00    	mov    DWORD PTR ds:0x413044,ebx
  4039d9:	e8 23 45 00 00       	call   0x407f01
  4039de:	83 c4 10             	add    esp,0x10
  4039e1:	85 c0                	test   eax,eax
  4039e3:	0f 84 3a ff ff ff    	je     0x403923
  4039e9:	8d 45 e0             	lea    eax,[ebp-0x20]
  4039ec:	89 5d b0             	mov    DWORD PTR [ebp-0x50],ebx
  4039ef:	c7 45 b4 7c 33 40 00 	mov    DWORD PTR [ebp-0x4c],0x40337c
  4039f6:	c7 45 b8 4c 3f 40 00 	mov    DWORD PTR [ebp-0x48],0x403f4c
  4039fd:	89 5d bc             	mov    DWORD PTR [ebp-0x44],ebx
  403a00:	89 45 c0             	mov    DWORD PTR [ebp-0x40],eax
  403a03:	89 5d c8             	mov    DWORD PTR [ebp-0x38],ebx
  403a06:	89 5d cc             	mov    DWORD PTR [ebp-0x34],ebx
  403a09:	89 5d d0             	mov    DWORD PTR [ebp-0x30],ebx
  403a0c:	89 5d d4             	mov    DWORD PTR [ebp-0x2c],ebx
  403a0f:	c7 45 d8 38 33 40 00 	mov    DWORD PTR [ebp-0x28],0x403338
  403a16:	c7 45 dc e4 3e 40 00 	mov    DWORD PTR [ebp-0x24],0x403ee4
  403a1d:	39 1d cc 35 41 00    	cmp    DWORD PTR ds:0x4135cc,ebx
  403a23:	0f 84 de 00 00 00    	je     0x403b07
  403a29:	56                   	push   esi
  403a2a:	ff 15 bc 25 41 00    	call   DWORD PTR ds:0x4125bc
  403a30:	56                   	push   esi
  403a31:	ff 15 e8 25 41 00    	call   DWORD PTR ds:0x4125e8
  403a37:	56                   	push   esi
  403a38:	85 c0                	test   eax,eax
  403a3a:	74 1e                	je     0x403a5a
  403a3c:	ff 15 6c 26 41 00    	call   DWORD PTR ds:0x41266c
  403a42:	8d 45 b0             	lea    eax,[ebp-0x50]
  403a45:	50                   	push   eax
  403a46:	56                   	push   esi
  403a47:	e8 d6 46 00 00       	call   0x408122
  403a4c:	56                   	push   esi
  403a4d:	e8 6f 17 00 00       	call   0x4051c1
  403a52:	83 c4 0c             	add    esp,0xc
  403a55:	e9 d0 00 00 00       	jmp    0x403b2a
  403a5a:	ff 15 70 27 41 00    	call   DWORD PTR ds:0x412770
  403a60:	85 c0                	test   eax,eax
  403a62:	0f 84 bb fe ff ff    	je     0x403923
  403a68:	53                   	push   ebx
  403a69:	8d 45 ec             	lea    eax,[ebp-0x14]
  403a6c:	50                   	push   eax
  403a6d:	8d 45 fc             	lea    eax,[ebp-0x4]
  403a70:	50                   	push   eax
  403a71:	6a ff                	push   0xffffffff
  403a73:	8d 45 f4             	lea    eax,[ebp-0xc]
  403a76:	50                   	push   eax
  403a77:	57                   	push   edi
  403a78:	56                   	push   esi
  403a79:	ff 15 94 27 41 00    	call   DWORD PTR ds:0x412794
  403a7f:	85 c0                	test   eax,eax
  403a81:	0f 85 9c fe ff ff    	jne    0x403923
  403a87:	56                   	push   esi
  403a88:	ff 15 6c 26 41 00    	call   DWORD PTR ds:0x41266c
  403a8e:	8b 5d f4             	mov    ebx,DWORD PTR [ebp-0xc]
  403a91:	68 00 08 00 00       	push   0x800
  403a96:	e8 d9 16 00 00       	call   0x405174
  403a9b:	59                   	pop    ecx
  403a9c:	8b 4d fc             	mov    ecx,DWORD PTR [ebp-0x4]
  403a9f:	8b f8                	mov    edi,eax
  403aa1:	33 c0                	xor    eax,eax
  403aa3:	89 45 f8             	mov    DWORD PTR [ebp-0x8],eax
  403aa6:	85 c9                	test   ecx,ecx
  403aa8:	74 52                	je     0x403afc
  403aaa:	f6 43 04 03          	test   BYTE PTR [ebx+0x4],0x3
  403aae:	75 41                	jne    0x403af1
  403ab0:	56                   	push   esi
  403ab1:	57                   	push   edi
  403ab2:	e8 c1 2d 00 00       	call   0x406878
  403ab7:	59                   	pop    ecx
  403ab8:	59                   	pop    ecx
  403ab9:	57                   	push   edi
  403aba:	ff 15 6c 26 41 00    	call   DWORD PTR ds:0x41266c
  403ac0:	ff 33                	push   DWORD PTR [ebx]
  403ac2:	57                   	push   edi
  403ac3:	e8 b0 2d 00 00       	call   0x406878
  403ac8:	59                   	pop    ecx
  403ac9:	59                   	pop    ecx
  403aca:	57                   	push   edi
  403acb:	ff 15 6c 26 41 00    	call   DWORD PTR ds:0x41266c
  403ad1:	8d 45 b0             	lea    eax,[ebp-0x50]
  403ad4:	50                   	push   eax
  403ad5:	57                   	push   edi
  403ad6:	e8 47 46 00 00       	call   0x408122
  403adb:	68 00 08 00 00       	push   0x800
  403ae0:	6a 00                	push   0x0
  403ae2:	57                   	push   edi
  403ae3:	e8 13 17 00 00       	call   0x4051fb
  403ae8:	8b 4d fc             	mov    ecx,DWORD PTR [ebp-0x4]
  403aeb:	83 c4 14             	add    esp,0x14
  403aee:	8b 45 f8             	mov    eax,DWORD PTR [ebp-0x8]
  403af1:	40                   	inc    eax
  403af2:	83 c3 0c             	add    ebx,0xc
  403af5:	89 45 f8             	mov    DWORD PTR [ebp-0x8],eax
  403af8:	3b c1                	cmp    eax,ecx
  403afa:	72 ae                	jb     0x403aaa
  403afc:	ff 75 f4             	push   DWORD PTR [ebp-0xc]
  403aff:	ff 15 98 28 41 00    	call   DWORD PTR ds:0x412898
  403b05:	eb 23                	jmp    0x403b2a
  403b07:	39 1d c8 35 41 00    	cmp    DWORD PTR ds:0x4135c8,ebx
  403b0d:	74 0a                	je     0x403b19
  403b0f:	8d 45 b0             	lea    eax,[ebp-0x50]
  403b12:	50                   	push   eax
  403b13:	e8 6a 49 00 00       	call   0x408482
  403b18:	59                   	pop    ecx
  403b19:	39 1d c4 35 41 00    	cmp    DWORD PTR ds:0x4135c4,ebx
  403b1f:	74 09                	je     0x403b2a
  403b21:	8d 45 b0             	lea    eax,[ebp-0x50]
  403b24:	50                   	push   eax
  403b25:	e8 bc 4b 00 00       	call   0x4086e6
  403b2a:	a1 54 30 41 00       	mov    eax,ds:0x413054
  403b2f:	3b 45 d4             	cmp    eax,DWORD PTR [ebp-0x2c]
  403b32:	77 20                	ja     0x403b54
  403b34:	73 14                	jae    0x403b4a
  403b36:	6a 64                	push   0x64
  403b38:	e8 8a 24 00 00       	call   0x405fc7
  403b3d:	a1 54 30 41 00       	mov    eax,ds:0x413054
  403b42:	59                   	pop    ecx
  403b43:	3b 45 d4             	cmp    eax,DWORD PTR [ebp-0x2c]
  403b46:	72 ee                	jb     0x403b36
  403b48:	77 0a                	ja     0x403b54
  403b4a:	a1 50 30 41 00       	mov    eax,ds:0x413050
  403b4f:	3b 45 d0             	cmp    eax,DWORD PTR [ebp-0x30]
  403b52:	72 e2                	jb     0x403b36
  403b54:	8d 4d e0             	lea    ecx,[ebp-0x20]
  403b57:	68 44 30 41 00       	push   0x413044
  403b5c:	51                   	push   ecx
  403b5d:	e8 e2 42 00 00       	call   0x407e44
  403b62:	33 d2                	xor    edx,edx
  403b64:	59                   	pop    ecx
  403b65:	8d 42 01             	lea    eax,[edx+0x1]
  403b68:	59                   	pop    ecx
  403b69:	5f                   	pop    edi
  403b6a:	5e                   	pop    esi
  403b6b:	5b                   	pop    ebx
  403b6c:	8b e5                	mov    esp,ebp
  403b6e:	5d                   	pop    ebp
  403b6f:	c3                   	ret    
  403b70:	55                   	push   ebp
  403b71:	8b ec                	mov    ebp,esp
  403b73:	83 ec 0c             	sub    esp,0xc
  403b76:	8d 45 fc             	lea    eax,[ebp-0x4]
  403b79:	56                   	push   esi
  403b7a:	8b 75 08             	mov    esi,DWORD PTR [ebp+0x8]
  403b7d:	6a ff                	push   0xffffffff
  403b7f:	50                   	push   eax
  403b80:	8d 45 f4             	lea    eax,[ebp-0xc]
  403b83:	50                   	push   eax
  403b84:	8d 45 f8             	lea    eax,[ebp-0x8]
  403b87:	50                   	push   eax
  403b88:	56                   	push   esi
  403b89:	e8 fc 43 00 00       	call   0x407f8a
  403b8e:	83 c4 14             	add    esp,0x14
  403b91:	83 3d 44 30 41 00 00 	cmp    DWORD PTR ds:0x413044,0x0
  403b98:	0f 85 0f 01 00 00    	jne    0x403cad
  403b9e:	57                   	push   edi
  403b9f:	33 ff                	xor    edi,edi
  403ba1:	85 c0                	test   eax,eax
  403ba3:	0f 84 cb 00 00 00    	je     0x403c74
  403ba9:	57                   	push   edi
  403baa:	ff 75 f8             	push   DWORD PTR [ebp-0x8]
  403bad:	ff 75 fc             	push   DWORD PTR [ebp-0x4]
  403bb0:	e8 39 45 00 00       	call   0x4080ee
  403bb5:	8b 4d fc             	mov    ecx,DWORD PTR [ebp-0x4]
  403bb8:	83 c4 0c             	add    esp,0xc
  403bbb:	83 3d 98 35 41 00 02 	cmp    DWORD PTR ds:0x413598,0x2
  403bc2:	75 5a                	jne    0x403c1e
  403bc4:	83 b9 50 01 00 00 02 	cmp    DWORD PTR [ecx+0x150],0x2
  403bcb:	75 51                	jne    0x403c1e
  403bcd:	8b 45 f8             	mov    eax,DWORD PTR [ebp-0x8]
  403bd0:	29 41 20             	sub    DWORD PTR [ecx+0x20],eax
  403bd3:	19 79 24             	sbb    DWORD PTR [ecx+0x24],edi
  403bd6:	8b 45 fc             	mov    eax,DWORD PTR [ebp-0x4]
  403bd9:	8b 0d 9c 35 41 00    	mov    ecx,DWORD PTR ds:0x41359c
  403bdf:	c1 e1 14             	shl    ecx,0x14
  403be2:	39 78 24             	cmp    DWORD PTR [eax+0x24],edi
  403be5:	7c 25                	jl     0x403c0c
  403be7:	7f 05                	jg     0x403bee
  403be9:	39 48 20             	cmp    DWORD PTR [eax+0x20],ecx
  403bec:	76 1e                	jbe    0x403c0c
  403bee:	57                   	push   edi
  403bef:	51                   	push   ecx
  403bf0:	50                   	push   eax
  403bf1:	e8 f8 44 00 00       	call   0x4080ee
  403bf6:	8b 4d fc             	mov    ecx,DWORD PTR [ebp-0x4]
  403bf9:	83 c4 0c             	add    esp,0xc
  403bfc:	a1 9c 35 41 00       	mov    eax,ds:0x41359c
  403c01:	c1 e0 14             	shl    eax,0x14
  403c04:	29 41 20             	sub    DWORD PTR [ecx+0x20],eax
  403c07:	19 79 24             	sbb    DWORD PTR [ecx+0x24],edi
  403c0a:	eb 0f                	jmp    0x403c1b
  403c0c:	ff 70 24             	push   DWORD PTR [eax+0x24]
  403c0f:	ff 70 20             	push   DWORD PTR [eax+0x20]
  403c12:	50                   	push   eax
  403c13:	e8 d6 44 00 00       	call   0x4080ee
  403c18:	83 c4 0c             	add    esp,0xc
  403c1b:	8b 4d fc             	mov    ecx,DWORD PTR [ebp-0x4]
  403c1e:	8b 81 54 01 00 00    	mov    eax,DWORD PTR [ecx+0x154]
  403c24:	83 e8 01             	sub    eax,0x1
  403c27:	74 3d                	je     0x403c66
  403c29:	83 e8 01             	sub    eax,0x1
  403c2c:	74 1d                	je     0x403c4b
  403c2e:	83 e8 01             	sub    eax,0x1
  403c31:	74 0e                	je     0x403c41
  403c33:	83 e8 01             	sub    eax,0x1
  403c36:	75 51                	jne    0x403c89
  403c38:	51                   	push   ecx
  403c39:	56                   	push   esi
  403c3a:	e8 62 fb ff ff       	call   0x4037a1
  403c3f:	eb 46                	jmp    0x403c87
  403c41:	6a 04                	push   0x4
  403c43:	51                   	push   ecx
  403c44:	e8 e8 00 00 00       	call   0x403d31
  403c49:	eb 3c                	jmp    0x403c87
  403c4b:	33 c0                	xor    eax,eax
  403c4d:	40                   	inc    eax
  403c4e:	39 05 98 35 41 00    	cmp    DWORD PTR ds:0x413598,eax
  403c54:	6a 03                	push   0x3
  403c56:	5a                   	pop    edx
  403c57:	0f 44 c2             	cmove  eax,edx
  403c5a:	50                   	push   eax
  403c5b:	ff 75 f8             	push   DWORD PTR [ebp-0x8]
  403c5e:	51                   	push   ecx
  403c5f:	e8 56 00 00 00       	call   0x403cba
  403c64:	eb 09                	jmp    0x403c6f
  403c66:	6a 02                	push   0x2
  403c68:	51                   	push   ecx
  403c69:	56                   	push   esi
  403c6a:	e8 18 fc ff ff       	call   0x403887
  403c6f:	83 c4 0c             	add    esp,0xc
  403c72:	eb 15                	jmp    0x403c89
  403c74:	e8 c6 1d 00 00       	call   0x405a3f
  403c79:	83 f8 26             	cmp    eax,0x26
  403c7c:	75 0b                	jne    0x403c89
  403c7e:	ff 75 fc             	push   DWORD PTR [ebp-0x4]
  403c81:	56                   	push   esi
  403c82:	e8 4b f8 ff ff       	call   0x4034d2
  403c87:	59                   	pop    ecx
  403c88:	59                   	pop    ecx
  403c89:	6a ff                	push   0xffffffff
  403c8b:	8d 45 fc             	lea    eax,[ebp-0x4]
  403c8e:	50                   	push   eax
  403c8f:	8d 45 f4             	lea    eax,[ebp-0xc]
  403c92:	50                   	push   eax
  403c93:	8d 45 f8             	lea    eax,[ebp-0x8]
  403c96:	50                   	push   eax
  403c97:	56                   	push   esi
  403c98:	e8 ed 42 00 00       	call   0x407f8a
  403c9d:	83 c4 14             	add    esp,0x14
  403ca0:	39 3d 44 30 41 00    	cmp    DWORD PTR ds:0x413044,edi
  403ca6:	0f 84 f5 fe ff ff    	je     0x403ba1
  403cac:	5f                   	pop    edi
  403cad:	f0 ff 4e 08          	lock dec DWORD PTR [esi+0x8]
  403cb1:	33 c0                	xor    eax,eax
  403cb3:	5e                   	pop    esi
  403cb4:	8b e5                	mov    esp,ebp
  403cb6:	5d                   	pop    ebp
  403cb7:	c2 04 00             	ret    0x4
  403cba:	55                   	push   ebp
  403cbb:	8b ec                	mov    ebp,esp
  403cbd:	56                   	push   esi
  403cbe:	8b 75 08             	mov    esi,DWORD PTR [ebp+0x8]
  403cc1:	57                   	push   edi
  403cc2:	ff 75 0c             	push   DWORD PTR [ebp+0xc]
  403cc5:	8d be 5c 01 00 00    	lea    edi,[esi+0x15c]
  403ccb:	57                   	push   edi
  403ccc:	8d 86 10 01 00 00    	lea    eax,[esi+0x110]
  403cd2:	57                   	push   edi
  403cd3:	50                   	push   eax
  403cd4:	e8 e5 51 00 00       	call   0x408ebe
  403cd9:	8b 45 10             	mov    eax,DWORD PTR [ebp+0x10]
  403cdc:	89 86 54 01 00 00    	mov    DWORD PTR [esi+0x154],eax
  403ce2:	8b 45 0c             	mov    eax,DWORD PTR [ebp+0xc]
  403ce5:	f7 d8                	neg    eax
  403ce7:	c7 86 50 01 00 00 02 	mov    DWORD PTR [esi+0x150],0x2
  403cee:	00 00 00 
  403cf1:	99                   	cdq    
  403cf2:	52                   	push   edx
  403cf3:	50                   	push   eax
  403cf4:	56                   	push   esi
  403cf5:	e8 f4 43 00 00       	call   0x4080ee
  403cfa:	ff 75 0c             	push   DWORD PTR [ebp+0xc]
  403cfd:	57                   	push   edi
  403cfe:	56                   	push   esi
  403cff:	e8 04 44 00 00       	call   0x408108
  403d04:	83 c4 28             	add    esp,0x28
  403d07:	eb 20                	jmp    0x403d29
  403d09:	e8 31 1d 00 00       	call   0x405a3f
  403d0e:	3d e5 03 00 00       	cmp    eax,0x3e5
  403d13:	74 18                	je     0x403d2d
  403d15:	6a 64                	push   0x64
  403d17:	e8 ab 22 00 00       	call   0x405fc7
  403d1c:	ff 75 0c             	push   DWORD PTR [ebp+0xc]
  403d1f:	57                   	push   edi
  403d20:	56                   	push   esi
  403d21:	e8 e2 43 00 00       	call   0x408108
  403d26:	83 c4 10             	add    esp,0x10
  403d29:	85 c0                	test   eax,eax
  403d2b:	74 dc                	je     0x403d09
  403d2d:	5f                   	pop    edi
  403d2e:	5e                   	pop    esi
  403d2f:	5d                   	pop    ebp
  403d30:	c3                   	ret    
  403d31:	55                   	push   ebp
  403d32:	8b ec                	mov    ebp,esp
  403d34:	8b 45 0c             	mov    eax,DWORD PTR [ebp+0xc]
  403d37:	53                   	push   ebx
  403d38:	56                   	push   esi
  403d39:	8b 75 08             	mov    esi,DWORD PTR [ebp+0x8]
  403d3c:	57                   	push   edi
  403d3d:	c7 86 50 01 00 00 03 	mov    DWORD PTR [esi+0x150],0x3
  403d44:	00 00 00 
  403d47:	89 86 54 01 00 00    	mov    DWORD PTR [esi+0x154],eax
  403d4d:	83 3d 98 35 41 00 01 	cmp    DWORD PTR ds:0x413598,0x1
  403d54:	75 25                	jne    0x403d7b
  403d56:	8b 4e 24             	mov    ecx,DWORD PTR [esi+0x24]
  403d59:	8b 46 20             	mov    eax,DWORD PTR [esi+0x20]
  403d5c:	85 c9                	test   ecx,ecx
  403d5e:	7c 1b                	jl     0x403d7b
  403d60:	ba 00 00 10 00       	mov    edx,0x100000
  403d65:	7f 04                	jg     0x403d6b
  403d67:	3b c2                	cmp    eax,edx
  403d69:	76 10                	jbe    0x403d7b
  403d6b:	2b c2                	sub    eax,edx
  403d6d:	83 d9 00             	sbb    ecx,0x0
  403d70:	51                   	push   ecx
  403d71:	50                   	push   eax
  403d72:	56                   	push   esi
  403d73:	e8 76 43 00 00       	call   0x4080ee
  403d78:	83 c4 0c             	add    esp,0xc
  403d7b:	bb e8 00 00 00       	mov    ebx,0xe8
  403d80:	8d 7e 28             	lea    edi,[esi+0x28]
  403d83:	53                   	push   ebx
  403d84:	57                   	push   edi
  403d85:	56                   	push   esi
  403d86:	e8 7d 43 00 00       	call   0x408108
  403d8b:	83 c4 0c             	add    esp,0xc
  403d8e:	eb 1e                	jmp    0x403dae
  403d90:	e8 aa 1c 00 00       	call   0x405a3f
  403d95:	3d e5 03 00 00       	cmp    eax,0x3e5
  403d9a:	74 16                	je     0x403db2
  403d9c:	6a 64                	push   0x64
  403d9e:	e8 24 22 00 00       	call   0x405fc7
  403da3:	53                   	push   ebx
  403da4:	57                   	push   edi
  403da5:	56                   	push   esi
  403da6:	e8 5d 43 00 00       	call   0x408108
  403dab:	83 c4 10             	add    esp,0x10
  403dae:	85 c0                	test   eax,eax
  403db0:	74 de                	je     0x403d90
  403db2:	5f                   	pop    edi
  403db3:	5e                   	pop    esi
  403db4:	5b                   	pop    ebx
  403db5:	5d                   	pop    ebp
  403db6:	c3                   	ret    
  403db7:	55                   	push   ebp
  403db8:	8b ec                	mov    ebp,esp
  403dba:	83 ec 54             	sub    esp,0x54
  403dbd:	53                   	push   ebx
  403dbe:	56                   	push   esi
  403dbf:	6a 07                	push   0x7
  403dc1:	33 db                	xor    ebx,ebx
  403dc3:	53                   	push   ebx
  403dc4:	53                   	push   ebx
  403dc5:	ff 15 70 28 41 00    	call   DWORD PTR ds:0x412870
  403dcb:	68 00 80 00 00       	push   0x8000
  403dd0:	e8 27 17 00 00       	call   0x4054fc
  403dd5:	50                   	push   eax
  403dd6:	ff 15 90 26 41 00    	call   DWORD PTR ds:0x412690
  403ddc:	68 01 00 00 80       	push   0x80000001
  403de1:	ff 15 a0 27 41 00    	call   DWORD PTR ds:0x4127a0
  403de7:	8d 45 ac             	lea    eax,[ebp-0x54]
  403dea:	50                   	push   eax
  403deb:	6a 4c                	push   0x4c
  403ded:	6a 05                	push   0x5
  403def:	68 ca 0f 00 00       	push   0xfca
  403df4:	68 78 12 41 00       	push   0x411278
  403df9:	e8 97 27 00 00       	call   0x406595
  403dfe:	83 c4 14             	add    esp,0x14
  403e01:	88 5d f8             	mov    BYTE PTR [ebp-0x8],bl
  403e04:	8d 45 ac             	lea    eax,[ebp-0x54]
  403e07:	53                   	push   ebx
  403e08:	50                   	push   eax
  403e09:	ff 15 24 26 41 00    	call   DWORD PTR ds:0x412624
  403e0f:	e8 b1 f2 ff ff       	call   0x4030c5
  403e14:	6a 14                	push   0x14
  403e16:	e8 1b 3e 00 00       	call   0x407c36
  403e1b:	59                   	pop    ecx
  403e1c:	39 1d d0 35 41 00    	cmp    DWORD PTR ds:0x4135d0,ebx
  403e22:	74 43                	je     0x403e67
  403e24:	53                   	push   ebx
  403e25:	53                   	push   ebx
  403e26:	53                   	push   ebx
  403e27:	68 ae 3f 40 00       	push   0x403fae
  403e2c:	53                   	push   ebx
  403e2d:	53                   	push   ebx
  403e2e:	ff 15 7c 27 41 00    	call   DWORD PTR ds:0x41277c
  403e34:	50                   	push   eax
  403e35:	e8 dc 15 00 00       	call   0x405416
  403e3a:	e8 fc 03 00 00       	call   0x40423b
  403e3f:	c7 04 24 7f 31 40 00 	mov    DWORD PTR [esp],0x40317f
  403e46:	53                   	push   ebx
  403e47:	53                   	push   ebx
  403e48:	e8 d2 1c 00 00       	call   0x405b1f
  403e4d:	83 c4 0c             	add    esp,0xc
  403e50:	53                   	push   ebx
  403e51:	53                   	push   ebx
  403e52:	53                   	push   ebx
  403e53:	68 b5 2b 40 00       	push   0x402bb5
  403e58:	53                   	push   ebx
  403e59:	53                   	push   ebx
  403e5a:	ff 15 7c 27 41 00    	call   DWORD PTR ds:0x41277c
  403e60:	50                   	push   eax
  403e61:	e8 b0 15 00 00       	call   0x405416
  403e66:	59                   	pop    ecx
  403e67:	6a 09                	push   0x9
  403e69:	e8 c8 3d 00 00       	call   0x407c36
  403e6e:	59                   	pop    ecx
  403e6f:	e8 83 fa ff ff       	call   0x4038f7
  403e74:	85 c0                	test   eax,eax
  403e76:	74 33                	je     0x403eab
  403e78:	39 1d cc 35 41 00    	cmp    DWORD PTR ds:0x4135cc,ebx
  403e7e:	75 2b                	jne    0x403eab
  403e80:	e8 75 10 00 00       	call   0x404efa
  403e85:	39 1d cc 35 41 00    	cmp    DWORD PTR ds:0x4135cc,ebx
  403e8b:	75 1e                	jne    0x403eab
  403e8d:	39 1d b0 35 41 00    	cmp    DWORD PTR ds:0x4135b0,ebx
  403e93:	74 16                	je     0x403eab
  403e95:	68 c0 31 40 00       	push   0x4031c0
  403e9a:	53                   	push   ebx
  403e9b:	6a 3b                	push   0x3b
  403e9d:	ff 35 18 35 41 00    	push   DWORD PTR ds:0x413518
  403ea3:	e8 0f 27 00 00       	call   0x4065b7
  403ea8:	83 c4 10             	add    esp,0x10
  403eab:	68 00 00 00 80       	push   0x80000000
  403eb0:	ff 15 a0 27 41 00    	call   DWORD PTR ds:0x4127a0
  403eb6:	e8 6d d5 ff ff       	call   0x401428
  403ebb:	8d 45 fc             	lea    eax,[ebp-0x4]
  403ebe:	50                   	push   eax
  403ebf:	53                   	push   ebx
  403ec0:	e8 53 18 00 00       	call   0x405718
  403ec5:	8b f0                	mov    esi,eax
  403ec7:	59                   	pop    ecx
  403ec8:	59                   	pop    ecx
  403ec9:	85 f6                	test   esi,esi
  403ecb:	74 11                	je     0x403ede
  403ecd:	6a 04                	push   0x4
  403ecf:	53                   	push   ebx
  403ed0:	56                   	push   esi
  403ed1:	ff 15 88 27 41 00    	call   DWORD PTR ds:0x412788
  403ed7:	56                   	push   esi
  403ed8:	e8 e4 12 00 00       	call   0x4051c1
  403edd:	59                   	pop    ecx
  403ede:	5e                   	pop    esi
  403edf:	5b                   	pop    ebx
  403ee0:	8b e5                	mov    esp,ebp
  403ee2:	5d                   	pop    ebp
  403ee3:	c3                   	ret    
  403ee4:	55                   	push   ebp
  403ee5:	8b ec                	mov    ebp,esp
  403ee7:	56                   	push   esi
  403ee8:	57                   	push   edi
  403ee9:	ff 75 18             	push   DWORD PTR [ebp+0x18]
  403eec:	8b 7d 08             	mov    edi,DWORD PTR [ebp+0x8]
  403eef:	ff 75 14             	push   DWORD PTR [ebp+0x14]
  403ef2:	ff 75 0c             	push   DWORD PTR [ebp+0xc]
  403ef5:	57                   	push   edi
  403ef6:	e8 23 f6 ff ff       	call   0x40351e
  403efb:	8b f0                	mov    esi,eax
  403efd:	83 c4 10             	add    esp,0x10
  403f00:	85 f6                	test   esi,esi
  403f02:	75 04                	jne    0x403f08
  403f04:	33 c0                	xor    eax,eax
  403f06:	eb 3e                	jmp    0x403f46
  403f08:	6a 00                	push   0x0
  403f0a:	ff 76 14             	push   DWORD PTR [esi+0x14]
  403f0d:	57                   	push   edi
  403f0e:	e8 0c 3f 00 00       	call   0x407e1f
  403f13:	83 c4 0c             	add    esp,0xc
  403f16:	56                   	push   esi
  403f17:	85 c0                	test   eax,eax
  403f19:	75 0a                	jne    0x403f25
  403f1b:	57                   	push   edi
  403f1c:	e8 d3 f5 ff ff       	call   0x4034f4
  403f21:	59                   	pop    ecx
  403f22:	59                   	pop    ecx
  403f23:	eb df                	jmp    0x403f04
  403f25:	6a 00                	push   0x0
  403f27:	6a 00                	push   0x0
  403f29:	57                   	push   edi
  403f2a:	c7 86 54 01 00 00 01 	mov    DWORD PTR [esi+0x154],0x1
  403f31:	00 00 00 
  403f34:	e8 6e 40 00 00       	call   0x407fa7
  403f39:	83 c4 10             	add    esp,0x10
  403f3c:	85 c0                	test   eax,eax
  403f3e:	75 03                	jne    0x403f43
  403f40:	56                   	push   esi
  403f41:	eb d8                	jmp    0x403f1b
  403f43:	33 c0                	xor    eax,eax
  403f45:	40                   	inc    eax
  403f46:	5f                   	pop    edi
  403f47:	33 d2                	xor    edx,edx
  403f49:	5e                   	pop    esi
  403f4a:	5d                   	pop    ebp
  403f4b:	c3                   	ret    
  403f4c:	55                   	push   ebp
  403f4d:	8b ec                	mov    ebp,esp
  403f4f:	8b 45 10             	mov    eax,DWORD PTR [ebp+0x10]
  403f52:	0b 45 14             	or     eax,DWORD PTR [ebp+0x14]
  403f55:	75 04                	jne    0x403f5b
  403f57:	33 c0                	xor    eax,eax
  403f59:	5d                   	pop    ebp
  403f5a:	c3                   	ret    
  403f5b:	ff 75 0c             	push   DWORD PTR [ebp+0xc]
  403f5e:	e8 e7 28 00 00       	call   0x40684a
  403f63:	c7 04 24 a0 e0 40 00 	mov    DWORD PTR [esp],0x40e0a0
  403f6a:	ff 75 0c             	push   DWORD PTR [ebp+0xc]
  403f6d:	e8 f7 2a 00 00       	call   0x406a69
  403f72:	59                   	pop    ecx
  403f73:	59                   	pop    ecx
  403f74:	85 c0                	test   eax,eax
  403f76:	75 df                	jne    0x403f57
  403f78:	ff 75 0c             	push   DWORD PTR [ebp+0xc]
  403f7b:	68 60 35 41 00       	push   0x413560
  403f80:	e8 f0 2c 00 00       	call   0x406c75
  403f85:	59                   	pop    ecx
  403f86:	59                   	pop    ecx
  403f87:	85 c0                	test   eax,eax
  403f89:	75 cc                	jne    0x403f57
  403f8b:	ff 75 0c             	push   DWORD PTR [ebp+0xc]
  403f8e:	e8 3e 44 00 00       	call   0x4083d1
  403f93:	59                   	pop    ecx
  403f94:	85 c0                	test   eax,eax
  403f96:	74 11                	je     0x403fa9
  403f98:	50                   	push   eax
  403f99:	68 6c 35 41 00       	push   0x41356c
  403f9e:	e8 d2 2c 00 00       	call   0x406c75
  403fa3:	59                   	pop    ecx
  403fa4:	59                   	pop    ecx
  403fa5:	85 c0                	test   eax,eax
  403fa7:	75 ae                	jne    0x403f57
  403fa9:	33 c0                	xor    eax,eax
  403fab:	40                   	inc    eax
  403fac:	5d                   	pop    ebp
  403fad:	c3                   	ret    
  403fae:	55                   	push   ebp
  403faf:	8b ec                	mov    ebp,esp
  403fb1:	81 ec a0 01 00 00    	sub    esp,0x1a0
  403fb7:	56                   	push   esi
  403fb8:	33 f6                	xor    esi,esi
  403fba:	56                   	push   esi
  403fbb:	56                   	push   esi
  403fbc:	ff 15 90 25 41 00    	call   DWORD PTR ds:0x412590
  403fc2:	85 c0                	test   eax,eax
  403fc4:	79 08                	jns    0x403fce
  403fc6:	33 c0                	xor    eax,eax
  403fc8:	40                   	inc    eax
  403fc9:	e9 66 02 00 00       	jmp    0x404234
  403fce:	53                   	push   ebx
  403fcf:	56                   	push   esi
  403fd0:	56                   	push   esi
  403fd1:	56                   	push   esi
  403fd2:	6a 03                	push   0x3
  403fd4:	56                   	push   esi
  403fd5:	56                   	push   esi
  403fd6:	56                   	push   esi
  403fd7:	6a ff                	push   0xffffffff
  403fd9:	56                   	push   esi
  403fda:	ff 15 2c 28 41 00    	call   DWORD PTR ds:0x41282c
  403fe0:	8d 45 f8             	lea    eax,[ebp-0x8]
  403fe3:	89 75 f8             	mov    DWORD PTR [ebp-0x8],esi
  403fe6:	50                   	push   eax
  403fe7:	68 88 e1 40 00       	push   0x40e188
  403fec:	33 db                	xor    ebx,ebx
  403fee:	43                   	inc    ebx
  403fef:	53                   	push   ebx
  403ff0:	56                   	push   esi
  403ff1:	68 68 e1 40 00       	push   0x40e168
  403ff6:	ff 15 a8 28 41 00    	call   DWORD PTR ds:0x4128a8
  403ffc:	85 c0                	test   eax,eax
  403ffe:	79 0d                	jns    0x40400d
  404000:	ff 15 78 26 41 00    	call   DWORD PTR ds:0x412678
  404006:	8b c3                	mov    eax,ebx
  404008:	e9 26 02 00 00       	jmp    0x404233
  40400d:	57                   	push   edi
  40400e:	8d 45 c8             	lea    eax,[ebp-0x38]
  404011:	89 75 fc             	mov    DWORD PTR [ebp-0x4],esi
  404014:	50                   	push   eax
  404015:	6a 14                	push   0x14
  404017:	6a 08                	push   0x8
  404019:	68 d4 03 00 00       	push   0x3d4
  40401e:	68 78 12 41 00       	push   0x411278
  404023:	e8 6d 25 00 00       	call   0x406595
  404028:	33 c0                	xor    eax,eax
  40402a:	83 c4 14             	add    esp,0x14
  40402d:	66 89 45 dc          	mov    WORD PTR [ebp-0x24],ax
  404031:	8d 45 c8             	lea    eax,[ebp-0x38]
  404034:	50                   	push   eax
  404035:	ff 15 48 26 41 00    	call   DWORD PTR ds:0x412648
  40403b:	8b 4d f8             	mov    ecx,DWORD PTR [ebp-0x8]
  40403e:	8b f8                	mov    edi,eax
  404040:	8d 45 fc             	lea    eax,[ebp-0x4]
  404043:	50                   	push   eax
  404044:	56                   	push   esi
  404045:	8b 11                	mov    edx,DWORD PTR [ecx]
  404047:	56                   	push   esi
  404048:	56                   	push   esi
  404049:	56                   	push   esi
  40404a:	56                   	push   esi
  40404b:	56                   	push   esi
  40404c:	57                   	push   edi
  40404d:	51                   	push   ecx
  40404e:	ff 52 0c             	call   DWORD PTR [edx+0xc]
  404051:	57                   	push   edi
  404052:	8b f0                	mov    esi,eax
  404054:	ff 15 18 27 41 00    	call   DWORD PTR ds:0x412718
  40405a:	85 f6                	test   esi,esi
  40405c:	78 22                	js     0x404080
  40405e:	33 ff                	xor    edi,edi
  404060:	57                   	push   edi
  404061:	57                   	push   edi
  404062:	6a 03                	push   0x3
  404064:	6a 03                	push   0x3
  404066:	57                   	push   edi
  404067:	57                   	push   edi
  404068:	6a 0a                	push   0xa
  40406a:	ff 75 fc             	push   DWORD PTR [ebp-0x4]
  40406d:	ff 15 ac 27 41 00    	call   DWORD PTR ds:0x4127ac
  404073:	85 c0                	test   eax,eax
  404075:	79 1f                	jns    0x404096
  404077:	8b 45 fc             	mov    eax,DWORD PTR [ebp-0x4]
  40407a:	50                   	push   eax
  40407b:	8b 08                	mov    ecx,DWORD PTR [eax]
  40407d:	ff 51 08             	call   DWORD PTR [ecx+0x8]
  404080:	8b 45 f8             	mov    eax,DWORD PTR [ebp-0x8]
  404083:	50                   	push   eax
  404084:	8b 08                	mov    ecx,DWORD PTR [eax]
  404086:	ff 51 08             	call   DWORD PTR [ecx+0x8]
  404089:	ff 15 78 26 41 00    	call   DWORD PTR ds:0x412678
  40408f:	8b c3                	mov    eax,ebx
  404091:	e9 9c 01 00 00       	jmp    0x404232
  404096:	8d 45 f0             	lea    eax,[ebp-0x10]
  404099:	89 7d f0             	mov    DWORD PTR [ebp-0x10],edi
  40409c:	50                   	push   eax
  40409d:	68 28 e1 40 00       	push   0x40e128
  4040a2:	6a 04                	push   0x4
  4040a4:	57                   	push   edi
  4040a5:	68 78 e1 40 00       	push   0x40e178
  4040aa:	ff 15 a8 28 41 00    	call   DWORD PTR ds:0x4128a8
  4040b0:	8b 4d fc             	mov    ecx,DWORD PTR [ebp-0x4]
  4040b3:	89 0d 60 10 41 00    	mov    DWORD PTR ds:0x411060,ecx
  4040b9:	51                   	push   ecx
  4040ba:	8b 01                	mov    eax,DWORD PTR [ecx]
  4040bc:	ff 50 04             	call   DWORD PTR [eax+0x4]
  4040bf:	a1 54 10 41 00       	mov    eax,ds:0x411054
  4040c4:	bb 54 10 41 00       	mov    ebx,0x411054
  4040c9:	53                   	push   ebx
  4040ca:	ff 50 04             	call   DWORD PTR [eax+0x4]
  4040cd:	8b 45 f0             	mov    eax,DWORD PTR [ebp-0x10]
  4040d0:	8d 55 ec             	lea    edx,[ebp-0x14]
  4040d3:	52                   	push   edx
  4040d4:	89 7d ec             	mov    DWORD PTR [ebp-0x14],edi
  4040d7:	53                   	push   ebx
  4040d8:	8b 08                	mov    ecx,DWORD PTR [eax]
  4040da:	50                   	push   eax
  4040db:	ff 51 0c             	call   DWORD PTR [ecx+0xc]
  4040de:	8b 45 ec             	mov    eax,DWORD PTR [ebp-0x14]
  4040e1:	8d 55 f4             	lea    edx,[ebp-0xc]
  4040e4:	52                   	push   edx
  4040e5:	89 7d f4             	mov    DWORD PTR [ebp-0xc],edi
  4040e8:	68 18 e1 40 00       	push   0x40e118
  4040ed:	8b 08                	mov    ecx,DWORD PTR [eax]
  4040ef:	50                   	push   eax
  4040f0:	ff 11                	call   DWORD PTR [ecx]
  4040f2:	8d 45 e0             	lea    eax,[ebp-0x20]
  4040f5:	bb 78 12 41 00       	mov    ebx,0x411278
  4040fa:	50                   	push   eax
  4040fb:	6a 06                	push   0x6
  4040fd:	6a 07                	push   0x7
  4040ff:	68 09 11 00 00       	push   0x1109
  404104:	53                   	push   ebx
  404105:	e8 8b 24 00 00       	call   0x406595
  40410a:	33 c0                	xor    eax,eax
  40410c:	66 89 45 e6          	mov    WORD PTR [ebp-0x1a],ax
  404110:	8d 85 18 ff ff ff    	lea    eax,[ebp-0xe8]
  404116:	50                   	push   eax
  404117:	68 ae 00 00 00       	push   0xae
  40411c:	6a 0a                	push   0xa
  40411e:	68 a2 05 00 00       	push   0x5a2
  404123:	53                   	push   ebx
  404124:	e8 6c 24 00 00       	call   0x406595
  404129:	33 c0                	xor    eax,eax
  40412b:	83 c4 28             	add    esp,0x28
  40412e:	66 89 45 c6          	mov    WORD PTR [ebp-0x3a],ax
  404132:	8d 45 e0             	lea    eax,[ebp-0x20]
  404135:	50                   	push   eax
  404136:	ff 15 48 26 41 00    	call   DWORD PTR ds:0x412648
  40413c:	8b f0                	mov    esi,eax
  40413e:	8d 85 18 ff ff ff    	lea    eax,[ebp-0xe8]
  404144:	50                   	push   eax
  404145:	89 75 e8             	mov    DWORD PTR [ebp-0x18],esi
  404148:	ff 15 48 26 41 00    	call   DWORD PTR ds:0x412648
  40414e:	ff 75 f4             	push   DWORD PTR [ebp-0xc]
  404151:	8b 4d fc             	mov    ecx,DWORD PTR [ebp-0x4]
  404154:	8b d8                	mov    ebx,eax
  404156:	57                   	push   edi
  404157:	68 80 00 00 00       	push   0x80
  40415c:	53                   	push   ebx
  40415d:	8b 11                	mov    edx,DWORD PTR [ecx]
  40415f:	56                   	push   esi
  404160:	51                   	push   ecx
  404161:	ff 52 5c             	call   DWORD PTR [edx+0x5c]
  404164:	8d 85 60 fe ff ff    	lea    eax,[ebp-0x1a0]
  40416a:	50                   	push   eax
  40416b:	68 b6 00 00 00       	push   0xb6
  404170:	6a 0d                	push   0xd
  404172:	68 d3 08 00 00       	push   0x8d3
  404177:	68 78 12 41 00       	push   0x411278
  40417c:	e8 14 24 00 00       	call   0x406595
  404181:	83 c4 14             	add    esp,0x14
  404184:	33 c0                	xor    eax,eax
  404186:	66 89 85 16 ff ff ff 	mov    WORD PTR [ebp-0xea],ax
  40418d:	8d 85 60 fe ff ff    	lea    eax,[ebp-0x1a0]
  404193:	50                   	push   eax
  404194:	ff 15 48 26 41 00    	call   DWORD PTR ds:0x412648
  40419a:	ff 75 f4             	push   DWORD PTR [ebp-0xc]
  40419d:	8b 4d fc             	mov    ecx,DWORD PTR [ebp-0x4]
  4041a0:	8b f8                	mov    edi,eax
  4041a2:	6a 00                	push   0x0
  4041a4:	68 80 00 00 00       	push   0x80
  4041a9:	57                   	push   edi
  4041aa:	8b 11                	mov    edx,DWORD PTR [ecx]
  4041ac:	56                   	push   esi
  4041ad:	51                   	push   ecx
  4041ae:	ff 52 5c             	call   DWORD PTR [edx+0x5c]
  4041b1:	ff 75 e8             	push   DWORD PTR [ebp-0x18]
  4041b4:	8b f0                	mov    esi,eax
  4041b6:	ff 15 18 27 41 00    	call   DWORD PTR ds:0x412718
  4041bc:	53                   	push   ebx
  4041bd:	ff 15 18 27 41 00    	call   DWORD PTR ds:0x412718
  4041c3:	57                   	push   edi
  4041c4:	ff 15 18 27 41 00    	call   DWORD PTR ds:0x412718
  4041ca:	85 f6                	test   esi,esi
  4041cc:	79 05                	jns    0x4041d3
  4041ce:	33 f6                	xor    esi,esi
  4041d0:	46                   	inc    esi
  4041d1:	eb 1c                	jmp    0x4041ef
  4041d3:	6a ff                	push   0xffffffff
  4041d5:	e8 22 13 00 00       	call   0x4054fc
  4041da:	50                   	push   eax
  4041db:	ff 15 00 26 41 00    	call   DWORD PTR ds:0x412600
  4041e1:	8b 45 fc             	mov    eax,DWORD PTR [ebp-0x4]
  4041e4:	ff 75 f4             	push   DWORD PTR [ebp-0xc]
  4041e7:	50                   	push   eax
  4041e8:	8b 08                	mov    ecx,DWORD PTR [eax]
  4041ea:	ff 51 10             	call   DWORD PTR [ecx+0x10]
  4041ed:	33 f6                	xor    esi,esi
  4041ef:	8b 45 fc             	mov    eax,DWORD PTR [ebp-0x4]
  4041f2:	50                   	push   eax
  4041f3:	8b 08                	mov    ecx,DWORD PTR [eax]
  4041f5:	ff 51 08             	call   DWORD PTR [ecx+0x8]
  4041f8:	8b 45 f8             	mov    eax,DWORD PTR [ebp-0x8]
  4041fb:	50                   	push   eax
  4041fc:	8b 08                	mov    ecx,DWORD PTR [eax]
  4041fe:	ff 51 08             	call   DWORD PTR [ecx+0x8]
  404201:	8b 45 f0             	mov    eax,DWORD PTR [ebp-0x10]
  404204:	50                   	push   eax
  404205:	8b 08                	mov    ecx,DWORD PTR [eax]
  404207:	ff 51 08             	call   DWORD PTR [ecx+0x8]
  40420a:	8b 45 ec             	mov    eax,DWORD PTR [ebp-0x14]
  40420d:	50                   	push   eax
  40420e:	8b 08                	mov    ecx,DWORD PTR [eax]
  404210:	ff 51 08             	call   DWORD PTR [ecx+0x8]
  404213:	8b 0d 54 10 41 00    	mov    ecx,DWORD PTR ds:0x411054
  404219:	68 54 10 41 00       	push   0x411054
  40421e:	ff 51 08             	call   DWORD PTR [ecx+0x8]
  404221:	8b 4d f4             	mov    ecx,DWORD PTR [ebp-0xc]
  404224:	51                   	push   ecx
  404225:	8b 11                	mov    edx,DWORD PTR [ecx]
  404227:	ff 52 08             	call   DWORD PTR [edx+0x8]
  40422a:	ff 15 78 26 41 00    	call   DWORD PTR ds:0x412678
  404230:	8b c6                	mov    eax,esi
  404232:	5f                   	pop    edi
  404233:	5b                   	pop    ebx
  404234:	5e                   	pop    esi
  404235:	8b e5                	mov    esp,ebp
  404237:	5d                   	pop    ebp
  404238:	c2 04 00             	ret    0x4
  40423b:	55                   	push   ebp
  40423c:	8b ec                	mov    ebp,esp
  40423e:	51                   	push   ecx
  40423f:	51                   	push   ecx
  404240:	57                   	push   edi
  404241:	e8 77 1b 00 00       	call   0x405dbd
  404246:	8b f8                	mov    edi,eax
  404248:	85 ff                	test   edi,edi
  40424a:	0f 84 ad 00 00 00    	je     0x4042fd
  404250:	56                   	push   esi
  404251:	33 f6                	xor    esi,esi
  404253:	8d 45 f8             	lea    eax,[ebp-0x8]
  404256:	56                   	push   esi
  404257:	56                   	push   esi
  404258:	50                   	push   eax
  404259:	8d 45 fc             	lea    eax,[ebp-0x4]
  40425c:	89 75 fc             	mov    DWORD PTR [ebp-0x4],esi
  40425f:	50                   	push   eax
  404260:	56                   	push   esi
  404261:	56                   	push   esi
  404262:	6a 01                	push   0x1
  404264:	6a 30                	push   0x30
  404266:	56                   	push   esi
  404267:	57                   	push   edi
  404268:	89 75 f8             	mov    DWORD PTR [ebp-0x8],esi
  40426b:	ff 15 38 27 41 00    	call   DWORD PTR ds:0x412738
  404271:	85 c0                	test   eax,eax
  404273:	74 17                	je     0x40428c
  404275:	e8 c5 17 00 00       	call   0x405a3f
  40427a:	3d ea 00 00 00       	cmp    eax,0xea
  40427f:	74 0b                	je     0x40428c
  404281:	57                   	push   edi
  404282:	e8 14 1b 00 00       	call   0x405d9b
  404287:	59                   	pop    ecx
  404288:	33 c0                	xor    eax,eax
  40428a:	eb 70                	jmp    0x4042fc
  40428c:	53                   	push   ebx
  40428d:	ff 75 fc             	push   DWORD PTR [ebp-0x4]
  404290:	e8 df 0e 00 00       	call   0x405174
  404295:	8b d8                	mov    ebx,eax
  404297:	59                   	pop    ecx
  404298:	85 db                	test   ebx,ebx
  40429a:	75 0a                	jne    0x4042a6
  40429c:	57                   	push   edi
  40429d:	e8 f9 1a 00 00       	call   0x405d9b
  4042a2:	33 c0                	xor    eax,eax
  4042a4:	eb 54                	jmp    0x4042fa
  4042a6:	56                   	push   esi
  4042a7:	56                   	push   esi
  4042a8:	8d 45 f8             	lea    eax,[ebp-0x8]
  4042ab:	50                   	push   eax
  4042ac:	8d 45 fc             	lea    eax,[ebp-0x4]
  4042af:	50                   	push   eax
  4042b0:	ff 75 fc             	push   DWORD PTR [ebp-0x4]
  4042b3:	53                   	push   ebx
  4042b4:	6a 01                	push   0x1
  4042b6:	6a 30                	push   0x30
  4042b8:	56                   	push   esi
  4042b9:	57                   	push   edi
  4042ba:	ff 15 38 27 41 00    	call   DWORD PTR ds:0x412738
  4042c0:	85 c0                	test   eax,eax
  4042c2:	74 2e                	je     0x4042f2
  4042c4:	39 75 f8             	cmp    DWORD PTR [ebp-0x8],esi
  4042c7:	76 26                	jbe    0x4042ef
  4042c9:	ff 33                	push   DWORD PTR [ebx]
  4042cb:	e8 9b ef ff ff       	call   0x40326b
  4042d0:	59                   	pop    ecx
  4042d1:	85 c0                	test   eax,eax
  4042d3:	74 11                	je     0x4042e6
  4042d5:	6a 01                	push   0x1
  4042d7:	ff 33                	push   DWORD PTR [ebx]
  4042d9:	57                   	push   edi
  4042da:	e8 ee 1a 00 00       	call   0x405dcd
  4042df:	83 c4 0c             	add    esp,0xc
  4042e2:	85 c0                	test   eax,eax
  4042e4:	74 09                	je     0x4042ef
  4042e6:	46                   	inc    esi
  4042e7:	83 c3 2c             	add    ebx,0x2c
  4042ea:	3b 75 f8             	cmp    esi,DWORD PTR [ebp-0x8]
  4042ed:	72 da                	jb     0x4042c9
  4042ef:	33 f6                	xor    esi,esi
  4042f1:	46                   	inc    esi
  4042f2:	57                   	push   edi
  4042f3:	e8 a3 1a 00 00       	call   0x405d9b
  4042f8:	8b c6                	mov    eax,esi
  4042fa:	59                   	pop    ecx
  4042fb:	5b                   	pop    ebx
  4042fc:	5e                   	pop    esi
  4042fd:	5f                   	pop    edi
  4042fe:	8b e5                	mov    esp,ebp
  404300:	5d                   	pop    ebp
  404301:	c3                   	ret    
  404302:	55                   	push   ebp
  404303:	8b ec                	mov    ebp,esp
  404305:	81 ec 54 01 00 00    	sub    esp,0x154
  40430b:	56                   	push   esi
  40430c:	ff 75 08             	push   DWORD PTR [ebp+0x8]
  40430f:	e8 ef 26 00 00       	call   0x406a03
  404314:	8d 04 45 00 08 00 00 	lea    eax,[eax*2+0x800]
  40431b:	50                   	push   eax
  40431c:	e8 53 0e 00 00       	call   0x405174
  404321:	8b f0                	mov    esi,eax
  404323:	59                   	pop    ecx
  404324:	59                   	pop    ecx
  404325:	85 f6                	test   esi,esi
  404327:	0f 84 1a 04 00 00    	je     0x404747
  40432d:	53                   	push   ebx
  40432e:	57                   	push   edi
  40432f:	8d 85 d8 fe ff ff    	lea    eax,[ebp-0x128]
  404335:	bf 78 12 41 00       	mov    edi,0x411278
  40433a:	50                   	push   eax
  40433b:	6a 10                	push   0x10
  40433d:	6a 06                	push   0x6
  40433f:	68 72 05 00 00       	push   0x572
  404344:	57                   	push   edi
  404345:	e8 4b 22 00 00       	call   0x406595
  40434a:	33 c0                	xor    eax,eax
  40434c:	66 89 85 e8 fe ff ff 	mov    WORD PTR [ebp-0x118],ax
  404353:	8d 85 d8 fe ff ff    	lea    eax,[ebp-0x128]
  404359:	50                   	push   eax
  40435a:	56                   	push   esi
  40435b:	e8 fa 25 00 00       	call   0x40695a
  404360:	ff 75 08             	push   DWORD PTR [ebp+0x8]
  404363:	56                   	push   esi
  404364:	e8 0f 25 00 00       	call   0x406878
  404369:	68 b0 e0 40 00       	push   0x40e0b0
  40436e:	56                   	push   esi
  40436f:	e8 04 25 00 00       	call   0x406878
  404374:	8d 85 ac fe ff ff    	lea    eax,[ebp-0x154]
  40437a:	50                   	push   eax
  40437b:	6a 14                	push   0x14
  40437d:	6a 08                	push   0x8
  40437f:	5b                   	pop    ebx
  404380:	53                   	push   ebx
  404381:	68 e2 09 00 00       	push   0x9e2
  404386:	57                   	push   edi
  404387:	e8 09 22 00 00       	call   0x406595
  40438c:	83 c4 40             	add    esp,0x40
  40438f:	33 c0                	xor    eax,eax
  404391:	66 89 85 c0 fe ff ff 	mov    WORD PTR [ebp-0x140],ax
  404398:	8d 85 4c ff ff ff    	lea    eax,[ebp-0xb4]
  40439e:	50                   	push   eax
  40439f:	6a 0c                	push   0xc
  4043a1:	5f                   	pop    edi
  4043a2:	57                   	push   edi
  4043a3:	6a 0e                	push   0xe
  4043a5:	68 fd 06 00 00       	push   0x6fd
  4043aa:	68 78 12 41 00       	push   0x411278
  4043af:	e8 e1 21 00 00       	call   0x406595
  4043b4:	33 c0                	xor    eax,eax
  4043b6:	66 89 85 58 ff ff ff 	mov    WORD PTR [ebp-0xa8],ax
  4043bd:	8d 85 1c ff ff ff    	lea    eax,[ebp-0xe4]
  4043c3:	50                   	push   eax
  4043c4:	6a 0e                	push   0xe
  4043c6:	6a 05                	push   0x5
  4043c8:	68 30 0b 00 00       	push   0xb30
  4043cd:	68 78 12 41 00       	push   0x411278
  4043d2:	e8 be 21 00 00       	call   0x406595
  4043d7:	33 c0                	xor    eax,eax
  4043d9:	66 89 85 2a ff ff ff 	mov    WORD PTR [ebp-0xd6],ax
  4043e0:	8d 85 0c ff ff ff    	lea    eax,[ebp-0xf4]
  4043e6:	50                   	push   eax
  4043e7:	6a 0e                	push   0xe
  4043e9:	6a 06                	push   0x6
  4043eb:	68 3f 0c 00 00       	push   0xc3f
  4043f0:	68 78 12 41 00       	push   0x411278
  4043f5:	e8 9b 21 00 00       	call   0x406595
  4043fa:	33 c0                	xor    eax,eax
  4043fc:	66 89 85 1a ff ff ff 	mov    WORD PTR [ebp-0xe6],ax
  404403:	8d 85 fc fe ff ff    	lea    eax,[ebp-0x104]
  404409:	50                   	push   eax
  40440a:	6a 0e                	push   0xe
  40440c:	6a 0b                	push   0xb
  40440e:	68 35 01 00 00       	push   0x135
  404413:	68 78 12 41 00       	push   0x411278
  404418:	e8 78 21 00 00       	call   0x406595
  40441d:	83 c4 50             	add    esp,0x50
  404420:	33 c0                	xor    eax,eax
  404422:	66 89 85 0a ff ff ff 	mov    WORD PTR [ebp-0xf6],ax
  404429:	8d 45 a4             	lea    eax,[ebp-0x5c]
  40442c:	50                   	push   eax
  40442d:	53                   	push   ebx
  40442e:	6a 0f                	push   0xf
  404430:	68 a6 09 00 00       	push   0x9a6
  404435:	68 78 12 41 00       	push   0x411278
  40443a:	e8 56 21 00 00       	call   0x406595
  40443f:	33 c0                	xor    eax,eax
  404441:	66 89 45 ac          	mov    WORD PTR [ebp-0x54],ax
  404445:	8d 45 98             	lea    eax,[ebp-0x68]
  404448:	50                   	push   eax
  404449:	53                   	push   ebx
  40444a:	6a 07                	push   0x7
  40444c:	68 ab 10 00 00       	push   0x10ab
  404451:	68 78 12 41 00       	push   0x411278
  404456:	e8 3a 21 00 00       	call   0x406595
  40445b:	33 c0                	xor    eax,eax
  40445d:	66 89 45 a0          	mov    WORD PTR [ebp-0x60],ax
  404461:	8d 85 68 ff ff ff    	lea    eax,[ebp-0x98]
  404467:	50                   	push   eax
  404468:	6a 0a                	push   0xa
  40446a:	6a 0f                	push   0xf
  40446c:	68 d7 11 00 00       	push   0x11d7
  404471:	68 78 12 41 00       	push   0x411278
  404476:	e8 1a 21 00 00       	call   0x406595
  40447b:	33 c0                	xor    eax,eax
  40447d:	66 89 85 72 ff ff ff 	mov    WORD PTR [ebp-0x8e],ax
  404484:	8d 85 ac fe ff ff    	lea    eax,[ebp-0x154]
  40448a:	89 45 d4             	mov    DWORD PTR [ebp-0x2c],eax
  40448d:	8d 85 4c ff ff ff    	lea    eax,[ebp-0xb4]
  404493:	89 45 d8             	mov    DWORD PTR [ebp-0x28],eax
  404496:	8d 85 1c ff ff ff    	lea    eax,[ebp-0xe4]
  40449c:	89 45 dc             	mov    DWORD PTR [ebp-0x24],eax
  40449f:	8d 85 0c ff ff ff    	lea    eax,[ebp-0xf4]
  4044a5:	89 45 e0             	mov    DWORD PTR [ebp-0x20],eax
  4044a8:	8d 85 fc fe ff ff    	lea    eax,[ebp-0x104]
  4044ae:	89 45 e4             	mov    DWORD PTR [ebp-0x1c],eax
  4044b1:	8d 45 a4             	lea    eax,[ebp-0x5c]
  4044b4:	89 45 e8             	mov    DWORD PTR [ebp-0x18],eax
  4044b7:	8d 45 98             	lea    eax,[ebp-0x68]
  4044ba:	89 45 ec             	mov    DWORD PTR [ebp-0x14],eax
  4044bd:	8d 85 68 ff ff ff    	lea    eax,[ebp-0x98]
  4044c3:	6a 07                	push   0x7
  4044c5:	6a 00                	push   0x0
  4044c7:	89 45 f0             	mov    DWORD PTR [ebp-0x10],eax
  4044ca:	e8 f7 16 00 00       	call   0x405bc6
  4044cf:	83 c4 44             	add    esp,0x44
  4044d2:	ff 74 85 d4          	push   DWORD PTR [ebp+eax*4-0x2c]
  4044d6:	56                   	push   esi
  4044d7:	e8 9c 23 00 00       	call   0x406878
  4044dc:	68 b0 e0 40 00       	push   0x40e0b0
  4044e1:	56                   	push   esi
  4044e2:	e8 91 23 00 00       	call   0x406878
  4044e7:	8d 85 3c ff ff ff    	lea    eax,[ebp-0xc4]
  4044ed:	50                   	push   eax
  4044ee:	57                   	push   edi
  4044ef:	53                   	push   ebx
  4044f0:	68 f1 00 00 00       	push   0xf1
  4044f5:	68 78 12 41 00       	push   0x411278
  4044fa:	e8 96 20 00 00       	call   0x406595
  4044ff:	33 c0                	xor    eax,eax
  404501:	66 89 85 48 ff ff ff 	mov    WORD PTR [ebp-0xb8],ax
  404508:	8d 85 c4 fe ff ff    	lea    eax,[ebp-0x13c]
  40450e:	50                   	push   eax
  40450f:	6a 10                	push   0x10
  404511:	6a 06                	push   0x6
  404513:	68 c8 10 00 00       	push   0x10c8
  404518:	68 78 12 41 00       	push   0x411278
  40451d:	e8 73 20 00 00       	call   0x406595
  404522:	33 c0                	xor    eax,eax
  404524:	66 89 85 d4 fe ff ff 	mov    WORD PTR [ebp-0x12c],ax
  40452b:	8d 85 5c ff ff ff    	lea    eax,[ebp-0xa4]
  404531:	50                   	push   eax
  404532:	6a 0a                	push   0xa
  404534:	53                   	push   ebx
  404535:	68 05 05 00 00       	push   0x505
  40453a:	68 78 12 41 00       	push   0x411278
  40453f:	e8 51 20 00 00       	call   0x406595
  404544:	83 c4 4c             	add    esp,0x4c
  404547:	33 c0                	xor    eax,eax
  404549:	66 89 85 66 ff ff ff 	mov    WORD PTR [ebp-0x9a],ax
  404550:	8d 45 8c             	lea    eax,[ebp-0x74]
  404553:	50                   	push   eax
  404554:	53                   	push   ebx
  404555:	6a 06                	push   0x6
  404557:	68 61 0c 00 00       	push   0xc61
  40455c:	68 78 12 41 00       	push   0x411278
  404561:	e8 2f 20 00 00       	call   0x406595
  404566:	33 c0                	xor    eax,eax
  404568:	66 89 45 94          	mov    WORD PTR [ebp-0x6c],ax
  40456c:	8d 45 c8             	lea    eax,[ebp-0x38]
  40456f:	50                   	push   eax
  404570:	6a 06                	push   0x6
  404572:	57                   	push   edi
  404573:	68 a4 02 00 00       	push   0x2a4
  404578:	68 78 12 41 00       	push   0x411278
  40457d:	e8 13 20 00 00       	call   0x406595
  404582:	33 c0                	xor    eax,eax
  404584:	66 89 45 ce          	mov    WORD PTR [ebp-0x32],ax
  404588:	8d 85 ec fe ff ff    	lea    eax,[ebp-0x114]
  40458e:	50                   	push   eax
  40458f:	6a 0e                	push   0xe
  404591:	6a 06                	push   0x6
  404593:	6a 0f                	push   0xf
  404595:	68 78 12 41 00       	push   0x411278
  40459a:	e8 f6 1f 00 00       	call   0x406595
  40459f:	33 c0                	xor    eax,eax
  4045a1:	66 89 85 fa fe ff ff 	mov    WORD PTR [ebp-0x106],ax
  4045a8:	8d 85 2c ff ff ff    	lea    eax,[ebp-0xd4]
  4045ae:	50                   	push   eax
  4045af:	57                   	push   edi
  4045b0:	6a 0e                	push   0xe
  4045b2:	68 76 0c 00 00       	push   0xc76
  4045b7:	68 78 12 41 00       	push   0x411278
  4045bc:	e8 d4 1f 00 00       	call   0x406595
  4045c1:	83 c4 50             	add    esp,0x50
  4045c4:	33 c0                	xor    eax,eax
  4045c6:	66 89 85 38 ff ff ff 	mov    WORD PTR [ebp-0xc8],ax
  4045cd:	8d 45 80             	lea    eax,[ebp-0x80]
  4045d0:	50                   	push   eax
  4045d1:	53                   	push   ebx
  4045d2:	6a 07                	push   0x7
  4045d4:	68 9c 0a 00 00       	push   0xa9c
  4045d9:	68 78 12 41 00       	push   0x411278
  4045de:	e8 b2 1f 00 00       	call   0x406595
  4045e3:	33 c0                	xor    eax,eax
  4045e5:	66 89 45 88          	mov    WORD PTR [ebp-0x78],ax
  4045e9:	8d 85 74 ff ff ff    	lea    eax,[ebp-0x8c]
  4045ef:	50                   	push   eax
  4045f0:	53                   	push   ebx
  4045f1:	57                   	push   edi
  4045f2:	68 57 01 00 00       	push   0x157
  4045f7:	68 78 12 41 00       	push   0x411278
  4045fc:	e8 94 1f 00 00       	call   0x406595
  404601:	33 c0                	xor    eax,eax
  404603:	66 89 85 7c ff ff ff 	mov    WORD PTR [ebp-0x84],ax
  40460a:	8d 85 3c ff ff ff    	lea    eax,[ebp-0xc4]
  404610:	89 45 d0             	mov    DWORD PTR [ebp-0x30],eax
  404613:	8d 85 c4 fe ff ff    	lea    eax,[ebp-0x13c]
  404619:	89 45 d4             	mov    DWORD PTR [ebp-0x2c],eax
  40461c:	8d 85 5c ff ff ff    	lea    eax,[ebp-0xa4]
  404622:	89 45 d8             	mov    DWORD PTR [ebp-0x28],eax
  404625:	8d 45 8c             	lea    eax,[ebp-0x74]
  404628:	89 45 dc             	mov    DWORD PTR [ebp-0x24],eax
  40462b:	8d 45 c8             	lea    eax,[ebp-0x38]
  40462e:	89 45 e0             	mov    DWORD PTR [ebp-0x20],eax
  404631:	8d 85 ec fe ff ff    	lea    eax,[ebp-0x114]
  404637:	89 45 e4             	mov    DWORD PTR [ebp-0x1c],eax
  40463a:	8d 85 2c ff ff ff    	lea    eax,[ebp-0xd4]
  404640:	89 45 e8             	mov    DWORD PTR [ebp-0x18],eax
  404643:	8d 45 80             	lea    eax,[ebp-0x80]
  404646:	53                   	push   ebx
  404647:	89 45 ec             	mov    DWORD PTR [ebp-0x14],eax
  40464a:	33 db                	xor    ebx,ebx
  40464c:	8d 85 74 ff ff ff    	lea    eax,[ebp-0x8c]
  404652:	53                   	push   ebx
  404653:	89 45 f0             	mov    DWORD PTR [ebp-0x10],eax
  404656:	e8 6b 15 00 00       	call   0x405bc6
  40465b:	ff 74 85 d0          	push   DWORD PTR [ebp+eax*4-0x30]
  40465f:	56                   	push   esi
  404660:	e8 13 22 00 00       	call   0x406878
  404665:	68 b0 e0 40 00       	push   0x40e0b0
  40466a:	56                   	push   esi
  40466b:	e8 08 22 00 00       	call   0x406878
  404670:	83 c4 40             	add    esp,0x40
  404673:	8b fb                	mov    edi,ebx
  404675:	6a 09                	push   0x9
  404677:	53                   	push   ebx
  404678:	e8 49 15 00 00       	call   0x405bc6
  40467d:	59                   	pop    ecx
  40467e:	59                   	pop    ecx
  40467f:	83 c0 01             	add    eax,0x1
  404682:	74 3b                	je     0x4046bf
  404684:	6a 7a                	push   0x7a
  404686:	6a 61                	push   0x61
  404688:	e8 39 15 00 00       	call   0x405bc6
  40468d:	6a 7a                	push   0x7a
  40468f:	6a 61                	push   0x61
  404691:	66 89 45 f8          	mov    WORD PTR [ebp-0x8],ax
  404695:	e8 2c 15 00 00       	call   0x405bc6
  40469a:	66 89 45 fa          	mov    WORD PTR [ebp-0x6],ax
  40469e:	33 c0                	xor    eax,eax
  4046a0:	66 89 45 fc          	mov    WORD PTR [ebp-0x4],ax
  4046a4:	8d 45 f8             	lea    eax,[ebp-0x8]
  4046a7:	50                   	push   eax
  4046a8:	56                   	push   esi
  4046a9:	e8 ca 21 00 00       	call   0x406878
  4046ae:	6a 09                	push   0x9
  4046b0:	53                   	push   ebx
  4046b1:	47                   	inc    edi
  4046b2:	e8 0f 15 00 00       	call   0x405bc6
  4046b7:	83 c4 20             	add    esp,0x20
  4046ba:	40                   	inc    eax
  4046bb:	3b f8                	cmp    edi,eax
  4046bd:	72 c5                	jb     0x404684
  4046bf:	68 b4 e0 40 00       	push   0x40e0b4
  4046c4:	56                   	push   esi
  4046c5:	e8 ae 21 00 00       	call   0x406878
  4046ca:	8d 45 c0             	lea    eax,[ebp-0x40]
  4046cd:	bb 78 12 41 00       	mov    ebx,0x411278
  4046d2:	50                   	push   eax
  4046d3:	6a 06                	push   0x6
  4046d5:	6a 0d                	push   0xd
  4046d7:	68 0c 0c 00 00       	push   0xc0c
  4046dc:	53                   	push   ebx
  4046dd:	e8 b3 1e 00 00       	call   0x406595
  4046e2:	33 c0                	xor    eax,eax
  4046e4:	66 89 45 c6          	mov    WORD PTR [ebp-0x3a],ax
  4046e8:	8d 45 b8             	lea    eax,[ebp-0x48]
  4046eb:	50                   	push   eax
  4046ec:	6a 06                	push   0x6
  4046ee:	6a 10                	push   0x10
  4046f0:	68 ea 10 00 00       	push   0x10ea
  4046f5:	53                   	push   ebx
  4046f6:	e8 9a 1e 00 00       	call   0x406595
  4046fb:	33 c0                	xor    eax,eax
  4046fd:	66 89 45 be          	mov    WORD PTR [ebp-0x42],ax
  404701:	8d 45 b0             	lea    eax,[ebp-0x50]
  404704:	50                   	push   eax
  404705:	6a 06                	push   0x6
  404707:	6a 0e                	push   0xe
  404709:	68 3d 02 00 00       	push   0x23d
  40470e:	53                   	push   ebx
  40470f:	e8 81 1e 00 00       	call   0x406595
  404714:	33 c0                	xor    eax,eax
  404716:	83 c4 44             	add    esp,0x44
  404719:	66 89 45 b6          	mov    WORD PTR [ebp-0x4a],ax
  40471d:	8d 45 c0             	lea    eax,[ebp-0x40]
  404720:	89 45 f4             	mov    DWORD PTR [ebp-0xc],eax
  404723:	8d 45 b8             	lea    eax,[ebp-0x48]
  404726:	89 45 f8             	mov    DWORD PTR [ebp-0x8],eax
  404729:	8d 45 b0             	lea    eax,[ebp-0x50]
  40472c:	6a 02                	push   0x2
  40472e:	6a 00                	push   0x0
  404730:	89 45 fc             	mov    DWORD PTR [ebp-0x4],eax
  404733:	e8 8e 14 00 00       	call   0x405bc6
  404738:	ff 74 85 f4          	push   DWORD PTR [ebp+eax*4-0xc]
  40473c:	56                   	push   esi
  40473d:	e8 36 21 00 00       	call   0x406878
  404742:	83 c4 10             	add    esp,0x10
  404745:	5f                   	pop    edi
  404746:	5b                   	pop    ebx
  404747:	5e                   	pop    esi
  404748:	8b e5                	mov    esp,ebp
  40474a:	5d                   	pop    ebp
  40474b:	c3                   	ret    
  40474c:	55                   	push   ebp
  40474d:	8b ec                	mov    ebp,esp
  40474f:	51                   	push   ecx
  404750:	56                   	push   esi
  404751:	ff 75 08             	push   DWORD PTR [ebp+0x8]
  404754:	e8 aa 22 00 00       	call   0x406a03
  404759:	03 05 a8 35 41 00    	add    eax,DWORD PTR ds:0x4135a8
  40475f:	8d 04 45 02 00 00 00 	lea    eax,[eax*2+0x2]
  404766:	50                   	push   eax
  404767:	e8 08 0a 00 00       	call   0x405174
  40476c:	8b f0                	mov    esi,eax
  40476e:	59                   	pop    ecx
  40476f:	59                   	pop    ecx
  404770:	85 f6                	test   esi,esi
  404772:	74 5f                	je     0x4047d3
  404774:	57                   	push   edi
  404775:	ff 75 08             	push   DWORD PTR [ebp+0x8]
  404778:	56                   	push   esi
  404779:	e8 dc 21 00 00       	call   0x40695a
  40477e:	ff 35 20 35 41 00    	push   DWORD PTR ds:0x413520
  404784:	56                   	push   esi
  404785:	e8 ee 20 00 00       	call   0x406878
  40478a:	6a 00                	push   0x0
  40478c:	6a 02                	push   0x2
  40478e:	6a 00                	push   0x0
  404790:	68 00 00 00 40       	push   0x40000000
  404795:	56                   	push   esi
  404796:	e8 b2 3b 00 00       	call   0x40834d
  40479b:	56                   	push   esi
  40479c:	8b f8                	mov    edi,eax
  40479e:	e8 1e 0a 00 00       	call   0x4051c1
  4047a3:	83 c4 28             	add    esp,0x28
  4047a6:	85 ff                	test   edi,edi
  4047a8:	75 04                	jne    0x4047ae
  4047aa:	33 c0                	xor    eax,eax
  4047ac:	eb 24                	jmp    0x4047d2
  4047ae:	8d 45 fc             	lea    eax,[ebp-0x4]
  4047b1:	50                   	push   eax
  4047b2:	a1 a4 35 41 00       	mov    eax,ds:0x4135a4
  4047b7:	03 c0                	add    eax,eax
  4047b9:	50                   	push   eax
  4047ba:	ff 35 1c 35 41 00    	push   DWORD PTR ds:0x41351c
  4047c0:	57                   	push   edi
  4047c1:	e8 df 3b 00 00       	call   0x4083a5
  4047c6:	57                   	push   edi
  4047c7:	e8 4a 0c 00 00       	call   0x405416
  4047cc:	33 c0                	xor    eax,eax
  4047ce:	83 c4 14             	add    esp,0x14
  4047d1:	40                   	inc    eax
  4047d2:	5f                   	pop    edi
  4047d3:	5e                   	pop    esi
  4047d4:	8b e5                	mov    esp,ebp
  4047d6:	5d                   	pop    ebp
  4047d7:	c3                   	ret    
  4047d8:	e8 83 43 00 00       	call   0x408b60
  4047dd:	6a 01                	push   0x1
  4047df:	ff 15 d8 25 41 00    	call   DWORD PTR ds:0x4125d8
  4047e5:	e8 29 cd ff ff       	call   0x401513
  4047ea:	85 c0                	test   eax,eax
  4047ec:	74 2c                	je     0x40481a
  4047ee:	83 3d b4 35 41 00 00 	cmp    DWORD PTR ds:0x4135b4,0x0
  4047f5:	75 11                	jne    0x404808
  4047f7:	e8 02 11 00 00       	call   0x4058fe
  4047fc:	85 c0                	test   eax,eax
  4047fe:	74 08                	je     0x404808
  404800:	6a 00                	push   0x0
  404802:	e8 a8 0c 00 00       	call   0x4054af
  404807:	59                   	pop    ecx
  404808:	83 3d d8 35 41 00 00 	cmp    DWORD PTR ds:0x4135d8,0x0
  40480f:	74 11                	je     0x404822
  404811:	e8 7d 00 00 00       	call   0x404893
  404816:	6a 00                	push   0x0
  404818:	eb 02                	jmp    0x40481c
  40481a:	6a 01                	push   0x1
  40481c:	e8 8e 0c 00 00       	call   0x4054af
  404821:	59                   	pop    ecx
  404822:	e8 db 12 00 00       	call   0x405b02
  404827:	b9 00 06 00 00       	mov    ecx,0x600
  40482c:	66 3b c1             	cmp    ax,cx
  40482f:	72 05                	jb     0x404836
  404831:	e8 f5 33 00 00       	call   0x407c2b
  404836:	83 3d cc 35 41 00 00 	cmp    DWORD PTR ds:0x4135cc,0x0
  40483d:	75 35                	jne    0x404874
  40483f:	e8 8a 11 00 00       	call   0x4059ce
  404844:	85 c0                	test   eax,eax
  404846:	74 1e                	je     0x404866
  404848:	6a 10                	push   0x10
  40484a:	68 e8 e0 40 00       	push   0x40e0e8
  40484f:	68 f4 e0 40 00       	push   0x40e0f4
  404854:	6a 00                	push   0x0
  404856:	ff 15 34 e0 40 00    	call   DWORD PTR ds:0x40e034
  40485c:	6a 01                	push   0x1
  40485e:	e8 4c 0c 00 00       	call   0x4054af
  404863:	59                   	pop    ecx
  404864:	eb 0e                	jmp    0x404874
  404866:	83 3d b8 35 41 00 00 	cmp    DWORD PTR ds:0x4135b8,0x0
  40486d:	74 05                	je     0x404874
  40486f:	e8 b7 34 00 00       	call   0x407d2b
  404874:	e8 3e f5 ff ff       	call   0x403db7
  404879:	e8 e1 42 00 00       	call   0x408b5f
  40487e:	33 c0                	xor    eax,eax
  404880:	c2 04 00             	ret    0x4
  404883:	6a 00                	push   0x0
  404885:	e8 4e ff ff ff       	call   0x4047d8
  40488a:	6a 00                	push   0x0
  40488c:	e8 1e 0c 00 00       	call   0x4054af
  404891:	59                   	pop    ecx
  404892:	c3                   	ret    
  404893:	55                   	push   ebp
  404894:	8b ec                	mov    ebp,esp
  404896:	81 ec f8 03 00 00    	sub    esp,0x3f8
  40489c:	53                   	push   ebx
  40489d:	56                   	push   esi
  40489e:	57                   	push   edi
  40489f:	e8 7d 11 00 00       	call   0x405a21
  4048a4:	8b d8                	mov    ebx,eax
  4048a6:	e8 57 12 00 00       	call   0x405b02
  4048ab:	b9 00 06 00 00       	mov    ecx,0x600
  4048b0:	66 3b c1             	cmp    ax,cx
  4048b3:	6a 43                	push   0x43
  4048b5:	1b f6                	sbb    esi,esi
  4048b7:	f7 de                	neg    esi
  4048b9:	ff 15 b4 25 41 00    	call   DWORD PTR ds:0x4125b4
  4048bf:	85 c0                	test   eax,eax
  4048c1:	0f 85 bb 02 00 00    	jne    0x404b82
  4048c7:	8d 45 f8             	lea    eax,[ebp-0x8]
  4048ca:	c7 45 f8 04 01 00 00 	mov    DWORD PTR [ebp-0x8],0x104
  4048d1:	50                   	push   eax
  4048d2:	8d 85 08 fc ff ff    	lea    eax,[ebp-0x3f8]
  4048d8:	50                   	push   eax
  4048d9:	ff 15 84 28 41 00    	call   DWORD PTR ds:0x412884
  4048df:	85 c0                	test   eax,eax
  4048e1:	75 07                	jne    0x4048ea
  4048e3:	33 c0                	xor    eax,eax
  4048e5:	e9 9b 02 00 00       	jmp    0x404b85
  4048ea:	8d 85 08 fc ff ff    	lea    eax,[ebp-0x3f8]
  4048f0:	68 cc e0 40 00       	push   0x40e0cc
  4048f5:	50                   	push   eax
  4048f6:	e8 d1 31 00 00       	call   0x407acc
  4048fb:	59                   	pop    ecx
  4048fc:	59                   	pop    ecx
  4048fd:	85 c0                	test   eax,eax
  4048ff:	74 e2                	je     0x4048e3
  404901:	8d 85 14 fe ff ff    	lea    eax,[ebp-0x1ec]
  404907:	bf 78 12 41 00       	mov    edi,0x411278
  40490c:	50                   	push   eax
  40490d:	6a 6a                	push   0x6a
  40490f:	6a 08                	push   0x8
  404911:	68 5f 06 00 00       	push   0x65f
  404916:	57                   	push   edi
  404917:	e8 79 1c 00 00       	call   0x406595
  40491c:	33 c0                	xor    eax,eax
  40491e:	66 89 85 7e fe ff ff 	mov    WORD PTR [ebp-0x182],ax
  404925:	8d 85 e4 fe ff ff    	lea    eax,[ebp-0x11c]
  40492b:	50                   	push   eax
  40492c:	6a 1e                	push   0x1e
  40492e:	6a 05                	push   0x5
  404930:	68 de 02 00 00       	push   0x2de
  404935:	57                   	push   edi
  404936:	e8 5a 1c 00 00       	call   0x406595
  40493b:	33 c0                	xor    eax,eax
  40493d:	66 89 85 02 ff ff ff 	mov    WORD PTR [ebp-0xfe],ax
  404944:	8d 85 04 ff ff ff    	lea    eax,[ebp-0xfc]
  40494a:	50                   	push   eax
  40494b:	6a 1e                	push   0x1e
  40494d:	6a 0c                	push   0xc
  40494f:	68 54 0b 00 00       	push   0xb54
  404954:	57                   	push   edi
  404955:	e8 3b 1c 00 00       	call   0x406595
  40495a:	33 c0                	xor    eax,eax
  40495c:	66 89 85 22 ff ff ff 	mov    WORD PTR [ebp-0xde],ax
  404963:	8d 85 74 ff ff ff    	lea    eax,[ebp-0x8c]
  404969:	50                   	push   eax
  40496a:	6a 1c                	push   0x1c
  40496c:	6a 0a                	push   0xa
  40496e:	68 f5 11 00 00       	push   0x11f5
  404973:	57                   	push   edi
  404974:	e8 1c 1c 00 00       	call   0x406595
  404979:	83 c4 50             	add    esp,0x50
  40497c:	33 c0                	xor    eax,eax
  40497e:	66 89 45 90          	mov    WORD PTR [ebp-0x70],ax
  404982:	bf 02 00 00 80       	mov    edi,0x80000002
  404987:	8d 85 74 ff ff ff    	lea    eax,[ebp-0x8c]
  40498d:	6a 04                	push   0x4
  40498f:	68 e4 e0 40 00       	push   0x40e0e4
  404994:	6a 01                	push   0x1
  404996:	50                   	push   eax
  404997:	8d 85 14 fe ff ff    	lea    eax,[ebp-0x1ec]
  40499d:	50                   	push   eax
  40499e:	57                   	push   edi
  40499f:	e8 49 02 00 00       	call   0x404bed
  4049a4:	83 c4 18             	add    esp,0x18
  4049a7:	85 c0                	test   eax,eax
  4049a9:	0f 84 34 ff ff ff    	je     0x4048e3
  4049af:	8d 85 08 fc ff ff    	lea    eax,[ebp-0x3f8]
  4049b5:	50                   	push   eax
  4049b6:	e8 48 20 00 00       	call   0x406a03
  4049bb:	8d 04 45 02 00 00 00 	lea    eax,[eax*2+0x2]
  4049c2:	50                   	push   eax
  4049c3:	8d 85 08 fc ff ff    	lea    eax,[ebp-0x3f8]
  4049c9:	50                   	push   eax
  4049ca:	6a 01                	push   0x1
  4049cc:	8d 85 04 ff ff ff    	lea    eax,[ebp-0xfc]
  4049d2:	50                   	push   eax
  4049d3:	8d 85 14 fe ff ff    	lea    eax,[ebp-0x1ec]
  4049d9:	50                   	push   eax
  4049da:	57                   	push   edi
  4049db:	e8 0d 02 00 00       	call   0x404bed
  4049e0:	83 c4 1c             	add    esp,0x1c
  4049e3:	85 c0                	test   eax,eax
  4049e5:	0f 84 f8 fe ff ff    	je     0x4048e3
  4049eb:	bf cc e0 40 00       	mov    edi,0x40e0cc
  4049f0:	57                   	push   edi
  4049f1:	e8 0d 20 00 00       	call   0x406a03
  4049f6:	8d 04 45 02 00 00 00 	lea    eax,[eax*2+0x2]
  4049fd:	50                   	push   eax
  4049fe:	57                   	push   edi
  4049ff:	6a 01                	push   0x1
  404a01:	8d 85 e4 fe ff ff    	lea    eax,[ebp-0x11c]
  404a07:	50                   	push   eax
  404a08:	8d 85 14 fe ff ff    	lea    eax,[ebp-0x1ec]
  404a0e:	50                   	push   eax
  404a0f:	68 02 00 00 80       	push   0x80000002
  404a14:	e8 d4 01 00 00       	call   0x404bed
  404a19:	83 c4 1c             	add    esp,0x1c
  404a1c:	85 c0                	test   eax,eax
  404a1e:	0f 84 bf fe ff ff    	je     0x4048e3
  404a24:	8d 45 fc             	lea    eax,[ebp-0x4]
  404a27:	50                   	push   eax
  404a28:	6a 00                	push   0x0
  404a2a:	e8 e9 0c 00 00       	call   0x405718
  404a2f:	8b f8                	mov    edi,eax
  404a31:	8d 85 80 fe ff ff    	lea    eax,[ebp-0x180]
  404a37:	50                   	push   eax
  404a38:	6a 62                	push   0x62
  404a3a:	6a 0a                	push   0xa
  404a3c:	68 39 08 00 00       	push   0x839
  404a41:	68 78 12 41 00       	push   0x411278
  404a46:	e8 4a 1b 00 00       	call   0x406595
  404a4b:	33 c0                	xor    eax,eax
  404a4d:	66 89 85 e2 fe ff ff 	mov    WORD PTR [ebp-0x11e],ax
  404a54:	8d 45 94             	lea    eax,[ebp-0x6c]
  404a57:	50                   	push   eax
  404a58:	6a 18                	push   0x18
  404a5a:	6a 06                	push   0x6
  404a5c:	68 fb 03 00 00       	push   0x3fb
  404a61:	68 78 12 41 00       	push   0x411278
  404a66:	e8 2a 1b 00 00       	call   0x406595
  404a6b:	33 c0                	xor    eax,eax
  404a6d:	66 89 45 ac          	mov    WORD PTR [ebp-0x54],ax
  404a71:	8d 45 d8             	lea    eax,[ebp-0x28]
  404a74:	50                   	push   eax
  404a75:	6a 18                	push   0x18
  404a77:	6a 08                	push   0x8
  404a79:	68 2d 12 00 00       	push   0x122d
  404a7e:	68 78 12 41 00       	push   0x411278
  404a83:	e8 0d 1b 00 00       	call   0x406595
  404a88:	33 c0                	xor    eax,eax
  404a8a:	83 c4 44             	add    esp,0x44
  404a8d:	66 89 45 f0          	mov    WORD PTR [ebp-0x10],ax
  404a91:	8b 45 fc             	mov    eax,DWORD PTR [ebp-0x4]
  404a94:	8d 04 45 02 00 00 00 	lea    eax,[eax*2+0x2]
  404a9b:	50                   	push   eax
  404a9c:	57                   	push   edi
  404a9d:	6a 01                	push   0x1
  404a9f:	8d 45 94             	lea    eax,[ebp-0x6c]
  404aa2:	50                   	push   eax
  404aa3:	8d 85 80 fe ff ff    	lea    eax,[ebp-0x180]
  404aa9:	50                   	push   eax
  404aaa:	68 02 00 00 80       	push   0x80000002
  404aaf:	e8 7e 12 00 00       	call   0x405d32
  404ab4:	83 c4 18             	add    esp,0x18
  404ab7:	57                   	push   edi
  404ab8:	85 c0                	test   eax,eax
  404aba:	75 0b                	jne    0x404ac7
  404abc:	e8 00 07 00 00       	call   0x4051c1
  404ac1:	59                   	pop    ecx
  404ac2:	e9 1c fe ff ff       	jmp    0x4048e3
  404ac7:	e8 f5 06 00 00       	call   0x4051c1
  404acc:	59                   	pop    ecx
  404acd:	85 db                	test   ebx,ebx
  404acf:	74 0a                	je     0x404adb
  404ad1:	8d 45 f4             	lea    eax,[ebp-0xc]
  404ad4:	50                   	push   eax
  404ad5:	e8 a6 18 00 00       	call   0x406380
  404ada:	59                   	pop    ecx
  404adb:	8d 45 b0             	lea    eax,[ebp-0x50]
  404ade:	85 f6                	test   esi,esi
  404ae0:	50                   	push   eax
  404ae1:	6a 27                	push   0x27
  404ae3:	be 78 12 41 00       	mov    esi,0x411278
  404ae8:	0f 84 9e 00 00 00    	je     0x404b8c
  404aee:	6a 0e                	push   0xe
  404af0:	68 8b 03 00 00       	push   0x38b
  404af5:	56                   	push   esi
  404af6:	e8 9a 1a 00 00       	call   0x406595
  404afb:	83 c4 14             	add    esp,0x14
  404afe:	c6 45 d7 00          	mov    BYTE PTR [ebp-0x29],0x0
  404b02:	8d 45 b0             	lea    eax,[ebp-0x50]
  404b05:	6a 05                	push   0x5
  404b07:	50                   	push   eax
  404b08:	ff 15 24 26 41 00    	call   DWORD PTR ds:0x412624
  404b0e:	8d 85 34 ff ff ff    	lea    eax,[ebp-0xcc]
  404b14:	50                   	push   eax
  404b15:	6a 3c                	push   0x3c
  404b17:	6a 0b                	push   0xb
  404b19:	68 ed 01 00 00       	push   0x1ed
  404b1e:	56                   	push   esi
  404b1f:	e8 71 1a 00 00       	call   0x406595
  404b24:	33 c0                	xor    eax,eax
  404b26:	66 89 85 70 ff ff ff 	mov    WORD PTR [ebp-0x90],ax
  404b2d:	8d 85 34 ff ff ff    	lea    eax,[ebp-0xcc]
  404b33:	50                   	push   eax
  404b34:	e8 ca 1e 00 00       	call   0x406a03
  404b39:	89 45 fc             	mov    DWORD PTR [ebp-0x4],eax
  404b3c:	8d 04 45 02 00 00 00 	lea    eax,[eax*2+0x2]
  404b43:	50                   	push   eax
  404b44:	8d 85 34 ff ff ff    	lea    eax,[ebp-0xcc]
  404b4a:	50                   	push   eax
  404b4b:	6a 01                	push   0x1
  404b4d:	8d 45 d8             	lea    eax,[ebp-0x28]
  404b50:	50                   	push   eax
  404b51:	8d 85 80 fe ff ff    	lea    eax,[ebp-0x180]
  404b57:	50                   	push   eax
  404b58:	68 02 00 00 80       	push   0x80000002
  404b5d:	e8 8b 00 00 00       	call   0x404bed
  404b62:	83 c4 30             	add    esp,0x30
  404b65:	85 c0                	test   eax,eax
  404b67:	0f 84 76 fd ff ff    	je     0x4048e3
  404b6d:	85 db                	test   ebx,ebx
  404b6f:	74 09                	je     0x404b7a
  404b71:	ff 75 f4             	push   DWORD PTR [ebp-0xc]
  404b74:	e8 29 18 00 00       	call   0x4063a2
  404b79:	59                   	pop    ecx
  404b7a:	6a 01                	push   0x1
  404b7c:	e8 04 11 00 00       	call   0x405c85
  404b81:	59                   	pop    ecx
  404b82:	33 c0                	xor    eax,eax
  404b84:	40                   	inc    eax
  404b85:	5f                   	pop    edi
  404b86:	5e                   	pop    esi
  404b87:	5b                   	pop    ebx
  404b88:	8b e5                	mov    esp,ebp
  404b8a:	5d                   	pop    ebp
  404b8b:	c3                   	ret    
  404b8c:	6a 04                	push   0x4
  404b8e:	68 14 03 00 00       	push   0x314
  404b93:	56                   	push   esi
  404b94:	e8 fc 19 00 00       	call   0x406595
  404b99:	83 c4 14             	add    esp,0x14
  404b9c:	c6 45 d7 00          	mov    BYTE PTR [ebp-0x29],0x0
  404ba0:	8d 45 b0             	lea    eax,[ebp-0x50]
  404ba3:	6a 05                	push   0x5
  404ba5:	50                   	push   eax
  404ba6:	ff 15 24 26 41 00    	call   DWORD PTR ds:0x412624
  404bac:	8d 85 24 ff ff ff    	lea    eax,[ebp-0xdc]
  404bb2:	50                   	push   eax
  404bb3:	6a 4e                	push   0x4e
  404bb5:	6a 10                	push   0x10
  404bb7:	68 5c 07 00 00       	push   0x75c
  404bbc:	56                   	push   esi
  404bbd:	e8 d3 19 00 00       	call   0x406595
  404bc2:	33 c0                	xor    eax,eax
  404bc4:	66 89 85 72 ff ff ff 	mov    WORD PTR [ebp-0x8e],ax
  404bcb:	8d 85 24 ff ff ff    	lea    eax,[ebp-0xdc]
  404bd1:	50                   	push   eax
  404bd2:	e8 2c 1e 00 00       	call   0x406a03
  404bd7:	89 45 fc             	mov    DWORD PTR [ebp-0x4],eax
  404bda:	8d 04 45 02 00 00 00 	lea    eax,[eax*2+0x2]
  404be1:	50                   	push   eax
  404be2:	8d 85 24 ff ff ff    	lea    eax,[ebp-0xdc]
  404be8:	e9 5d ff ff ff       	jmp    0x404b4a
  404bed:	55                   	push   ebp
  404bee:	8b ec                	mov    ebp,esp
  404bf0:	51                   	push   ecx
  404bf1:	56                   	push   esi
  404bf2:	33 f6                	xor    esi,esi
  404bf4:	8d 45 fc             	lea    eax,[ebp-0x4]
  404bf7:	56                   	push   esi
  404bf8:	50                   	push   eax
  404bf9:	56                   	push   esi
  404bfa:	68 02 01 00 00       	push   0x102
  404bff:	56                   	push   esi
  404c00:	56                   	push   esi
  404c01:	56                   	push   esi
  404c02:	ff 75 0c             	push   DWORD PTR [ebp+0xc]
  404c05:	ff 75 08             	push   DWORD PTR [ebp+0x8]
  404c08:	ff 15 80 28 41 00    	call   DWORD PTR ds:0x412880
  404c0e:	85 c0                	test   eax,eax
  404c10:	75 27                	jne    0x404c39
  404c12:	ff 75 1c             	push   DWORD PTR [ebp+0x1c]
  404c15:	ff 75 18             	push   DWORD PTR [ebp+0x18]
  404c18:	ff 75 14             	push   DWORD PTR [ebp+0x14]
  404c1b:	56                   	push   esi
  404c1c:	ff 75 10             	push   DWORD PTR [ebp+0x10]
  404c1f:	ff 75 fc             	push   DWORD PTR [ebp-0x4]
  404c22:	ff 15 54 27 41 00    	call   DWORD PTR ds:0x412754
  404c28:	ff 75 fc             	push   DWORD PTR [ebp-0x4]
  404c2b:	33 c9                	xor    ecx,ecx
  404c2d:	41                   	inc    ecx
  404c2e:	85 c0                	test   eax,eax
  404c30:	0f 44 f1             	cmove  esi,ecx
  404c33:	ff 15 98 26 41 00    	call   DWORD PTR ds:0x412698
  404c39:	8b c6                	mov    eax,esi
  404c3b:	5e                   	pop    esi
  404c3c:	8b e5                	mov    esp,ebp
  404c3e:	5d                   	pop    ebp
  404c3f:	c3                   	ret    
  404c40:	55                   	push   ebp
  404c41:	8b ec                	mov    ebp,esp
  404c43:	83 ec 2c             	sub    esp,0x2c
  404c46:	8d 45 d4             	lea    eax,[ebp-0x2c]
  404c49:	56                   	push   esi
  404c4a:	50                   	push   eax
  404c4b:	6a 18                	push   0x18
  404c4d:	5e                   	pop    esi
  404c4e:	56                   	push   esi
  404c4f:	ff 75 08             	push   DWORD PTR [ebp+0x8]
  404c52:	ff 15 b8 27 41 00    	call   DWORD PTR ds:0x4127b8
  404c58:	85 c0                	test   eax,eax
  404c5a:	0f 84 90 01 00 00    	je     0x404df0
  404c60:	8b 45 e6             	mov    eax,DWORD PTR [ebp-0x1a]
  404c63:	0f af 45 e4          	imul   eax,DWORD PTR [ebp-0x1c]
  404c67:	53                   	push   ebx
  404c68:	57                   	push   edi
  404c69:	33 ff                	xor    edi,edi
  404c6b:	47                   	inc    edi
  404c6c:	0f b7 c0             	movzx  eax,ax
  404c6f:	66 3b c7             	cmp    ax,di
  404c72:	75 04                	jne    0x404c78
  404c74:	8b df                	mov    ebx,edi
  404c76:	eb 26                	jmp    0x404c9e
  404c78:	6a 04                	push   0x4
  404c7a:	5b                   	pop    ebx
  404c7b:	66 3b c3             	cmp    ax,bx
  404c7e:	76 1e                	jbe    0x404c9e
  404c80:	6a 08                	push   0x8
  404c82:	5b                   	pop    ebx
  404c83:	66 3b c3             	cmp    ax,bx
  404c86:	76 16                	jbe    0x404c9e
  404c88:	6a 10                	push   0x10
  404c8a:	5b                   	pop    ebx
  404c8b:	66 3b c3             	cmp    ax,bx
  404c8e:	76 0e                	jbe    0x404c9e
  404c90:	66 3b c6             	cmp    ax,si
  404c93:	77 06                	ja     0x404c9b
  404c95:	8b de                	mov    ebx,esi
  404c97:	6a 28                	push   0x28
  404c99:	eb 11                	jmp    0x404cac
  404c9b:	6a 20                	push   0x20
  404c9d:	5b                   	pop    ebx
  404c9e:	8b c7                	mov    eax,edi
  404ca0:	8a cb                	mov    cl,bl
  404ca2:	d3 e0                	shl    eax,cl
  404ca4:	8d 04 85 28 00 00 00 	lea    eax,[eax*4+0x28]
  404cab:	50                   	push   eax
  404cac:	6a 40                	push   0x40
  404cae:	ff 15 20 28 41 00    	call   DWORD PTR ds:0x412820
  404cb4:	8b f0                	mov    esi,eax
  404cb6:	6a 18                	push   0x18
  404cb8:	c7 06 28 00 00 00    	mov    DWORD PTR [esi],0x28
  404cbe:	8b 45 d8             	mov    eax,DWORD PTR [ebp-0x28]
  404cc1:	89 46 04             	mov    DWORD PTR [esi+0x4],eax
  404cc4:	8b 45 dc             	mov    eax,DWORD PTR [ebp-0x24]
  404cc7:	89 46 08             	mov    DWORD PTR [esi+0x8],eax
  404cca:	66 8b 45 e4          	mov    ax,WORD PTR [ebp-0x1c]
  404cce:	66 89 46 0c          	mov    WORD PTR [esi+0xc],ax
  404cd2:	66 8b 45 e6          	mov    ax,WORD PTR [ebp-0x1a]
  404cd6:	66 89 46 0e          	mov    WORD PTR [esi+0xe],ax
  404cda:	58                   	pop    eax
  404cdb:	66 3b d8             	cmp    bx,ax
  404cde:	73 07                	jae    0x404ce7
  404ce0:	8a cb                	mov    cl,bl
  404ce2:	d3 e7                	shl    edi,cl
  404ce4:	89 7e 20             	mov    DWORD PTR [esi+0x20],edi
  404ce7:	8b 46 04             	mov    eax,DWORD PTR [esi+0x4]
  404cea:	33 ff                	xor    edi,edi
  404cec:	83 c0 07             	add    eax,0x7
  404cef:	0f b7 cb             	movzx  ecx,bx
  404cf2:	99                   	cdq    
  404cf3:	83 e2 07             	and    edx,0x7
  404cf6:	89 7e 10             	mov    DWORD PTR [esi+0x10],edi
  404cf9:	03 c2                	add    eax,edx
  404cfb:	89 7e 24             	mov    DWORD PTR [esi+0x24],edi
  404cfe:	c1 f8 03             	sar    eax,0x3
  404d01:	0f af c1             	imul   eax,ecx
  404d04:	0f af 46 08          	imul   eax,DWORD PTR [esi+0x8]
  404d08:	50                   	push   eax
  404d09:	57                   	push   edi
  404d0a:	89 46 14             	mov    DWORD PTR [esi+0x14],eax
  404d0d:	ff 15 88 28 41 00    	call   DWORD PTR ds:0x412888
  404d13:	8b d8                	mov    ebx,eax
  404d15:	85 db                	test   ebx,ebx
  404d17:	0f 84 d1 00 00 00    	je     0x404dee
  404d1d:	0f b7 4e 08          	movzx  ecx,WORD PTR [esi+0x8]
  404d21:	57                   	push   edi
  404d22:	56                   	push   esi
  404d23:	53                   	push   ebx
  404d24:	51                   	push   ecx
  404d25:	57                   	push   edi
  404d26:	ff 75 08             	push   DWORD PTR [ebp+0x8]
  404d29:	ff 75 0c             	push   DWORD PTR [ebp+0xc]
  404d2c:	ff 15 08 28 41 00    	call   DWORD PTR ds:0x412808
  404d32:	85 c0                	test   eax,eax
  404d34:	0f 84 b4 00 00 00    	je     0x404dee
  404d3a:	57                   	push   edi
  404d3b:	68 80 00 00 00       	push   0x80
  404d40:	6a 02                	push   0x2
  404d42:	57                   	push   edi
  404d43:	57                   	push   edi
  404d44:	68 00 00 00 c0       	push   0xc0000000
  404d49:	ff 75 10             	push   DWORD PTR [ebp+0x10]
  404d4c:	ff 15 14 27 41 00    	call   DWORD PTR ds:0x412714
  404d52:	8b f8                	mov    edi,eax
  404d54:	83 ff ff             	cmp    edi,0xffffffff
  404d57:	0f 84 91 00 00 00    	je     0x404dee
  404d5d:	b8 42 4d 00 00       	mov    eax,0x4d42
  404d62:	66 89 45 ec          	mov    WORD PTR [ebp-0x14],ax
  404d66:	8b 56 20             	mov    edx,DWORD PTR [esi+0x20]
  404d69:	8b 4e 14             	mov    ecx,DWORD PTR [esi+0x14]
  404d6c:	8b 06                	mov    eax,DWORD PTR [esi]
  404d6e:	6a 00                	push   0x0
  404d70:	8d 0c 91             	lea    ecx,[ecx+edx*4]
  404d73:	83 c1 0e             	add    ecx,0xe
  404d76:	03 c1                	add    eax,ecx
  404d78:	89 45 ee             	mov    DWORD PTR [ebp-0x12],eax
  404d7b:	33 c0                	xor    eax,eax
  404d7d:	89 45 f2             	mov    DWORD PTR [ebp-0xe],eax
  404d80:	8b 4e 20             	mov    ecx,DWORD PTR [esi+0x20]
  404d83:	8b 06                	mov    eax,DWORD PTR [esi]
  404d85:	8d 04 88             	lea    eax,[eax+ecx*4]
  404d88:	83 c0 0e             	add    eax,0xe
  404d8b:	89 45 f6             	mov    DWORD PTR [ebp-0xa],eax
  404d8e:	8d 45 fc             	lea    eax,[ebp-0x4]
  404d91:	50                   	push   eax
  404d92:	6a 0e                	push   0xe
  404d94:	8d 45 ec             	lea    eax,[ebp-0x14]
  404d97:	50                   	push   eax
  404d98:	57                   	push   edi
  404d99:	ff 15 cc 25 41 00    	call   DWORD PTR ds:0x4125cc
  404d9f:	85 c0                	test   eax,eax
  404da1:	74 1d                	je     0x404dc0
  404da3:	6a 00                	push   0x0
  404da5:	8d 45 fc             	lea    eax,[ebp-0x4]
  404da8:	50                   	push   eax
  404da9:	8b 46 20             	mov    eax,DWORD PTR [esi+0x20]
  404dac:	8d 04 85 28 00 00 00 	lea    eax,[eax*4+0x28]
  404db3:	50                   	push   eax
  404db4:	56                   	push   esi
  404db5:	57                   	push   edi
  404db6:	ff 15 cc 25 41 00    	call   DWORD PTR ds:0x4125cc
  404dbc:	85 c0                	test   eax,eax
  404dbe:	75 03                	jne    0x404dc3
  404dc0:	57                   	push   edi
  404dc1:	eb 16                	jmp    0x404dd9
  404dc3:	6a 00                	push   0x0
  404dc5:	8d 45 fc             	lea    eax,[ebp-0x4]
  404dc8:	50                   	push   eax
  404dc9:	ff 76 14             	push   DWORD PTR [esi+0x14]
  404dcc:	53                   	push   ebx
  404dcd:	57                   	push   edi
  404dce:	ff 15 cc 25 41 00    	call   DWORD PTR ds:0x4125cc
  404dd4:	57                   	push   edi
  404dd5:	85 c0                	test   eax,eax
  404dd7:	75 08                	jne    0x404de1
  404dd9:	e8 38 06 00 00       	call   0x405416
  404dde:	59                   	pop    ecx
  404ddf:	eb 0d                	jmp    0x404dee
  404de1:	e8 30 06 00 00       	call   0x405416
  404de6:	59                   	pop    ecx
  404de7:	53                   	push   ebx
  404de8:	ff 15 fc 27 41 00    	call   DWORD PTR ds:0x4127fc
  404dee:	5f                   	pop    edi
  404def:	5b                   	pop    ebx
  404df0:	5e                   	pop    esi
  404df1:	8b e5                	mov    esp,ebp
  404df3:	5d                   	pop    ebp
  404df4:	c3                   	ret    
  404df5:	55                   	push   ebp
  404df6:	8b ec                	mov    ebp,esp
  404df8:	83 ec 10             	sub    esp,0x10
  404dfb:	53                   	push   ebx
  404dfc:	6a 0d                	push   0xd
  404dfe:	6a 03                	push   0x3
  404e00:	e8 c1 0d 00 00       	call   0x405bc6
  404e05:	8b d8                	mov    ebx,eax
  404e07:	59                   	pop    ecx
  404e08:	59                   	pop    ecx
  404e09:	85 db                	test   ebx,ebx
  404e0b:	0f 84 e4 00 00 00    	je     0x404ef5
  404e11:	8d 04 5d 0a 00 00 00 	lea    eax,[ebx*2+0xa]
  404e18:	57                   	push   edi
  404e19:	50                   	push   eax
  404e1a:	e8 55 03 00 00       	call   0x405174
  404e1f:	8b f8                	mov    edi,eax
  404e21:	59                   	pop    ecx
  404e22:	85 ff                	test   edi,edi
  404e24:	0f 84 ca 00 00 00    	je     0x404ef4
  404e2a:	83 65 fc 00          	and    DWORD PTR [ebp-0x4],0x0
  404e2e:	56                   	push   esi
  404e2f:	85 db                	test   ebx,ebx
  404e31:	74 38                	je     0x404e6b
  404e33:	6a 01                	push   0x1
  404e35:	6a 00                	push   0x0
  404e37:	e8 8a 0d 00 00       	call   0x405bc6
  404e3c:	6a 09                	push   0x9
  404e3e:	59                   	pop    ecx
  404e3f:	8b f0                	mov    esi,eax
  404e41:	6a 19                	push   0x19
  404e43:	58                   	pop    eax
  404e44:	85 f6                	test   esi,esi
  404e46:	0f 45 c8             	cmovne ecx,eax
  404e49:	51                   	push   ecx
  404e4a:	6a 00                	push   0x0
  404e4c:	e8 75 0d 00 00       	call   0x405bc6
  404e51:	8b 4d fc             	mov    ecx,DWORD PTR [ebp-0x4]
  404e54:	83 c4 10             	add    esp,0x10
  404e57:	66 03 04 75 40 e0 40 	add    ax,WORD PTR [esi*2+0x40e040]
  404e5e:	00 
  404e5f:	66 89 04 4f          	mov    WORD PTR [edi+ecx*2],ax
  404e63:	41                   	inc    ecx
  404e64:	89 4d fc             	mov    DWORD PTR [ebp-0x4],ecx
  404e67:	3b cb                	cmp    ecx,ebx
  404e69:	72 c8                	jb     0x404e33
  404e6b:	8d 45 f0             	lea    eax,[ebp-0x10]
  404e6e:	50                   	push   eax
  404e6f:	6a 08                	push   0x8
  404e71:	6a 0c                	push   0xc
  404e73:	68 14 0b 00 00       	push   0xb14
  404e78:	68 78 12 41 00       	push   0x411278
  404e7d:	e8 13 17 00 00       	call   0x406595
  404e82:	33 c0                	xor    eax,eax
  404e84:	66 89 45 f8          	mov    WORD PTR [ebp-0x8],ax
  404e88:	8d 45 f0             	lea    eax,[ebp-0x10]
  404e8b:	50                   	push   eax
  404e8c:	57                   	push   edi
  404e8d:	e8 e6 19 00 00       	call   0x406878
  404e92:	83 c4 1c             	add    esp,0x1c
  404e95:	e8 7a 11 00 00       	call   0x406014
  404e9a:	8b d8                	mov    ebx,eax
  404e9c:	85 db                	test   ebx,ebx
  404e9e:	75 08                	jne    0x404ea8
  404ea0:	57                   	push   edi
  404ea1:	e8 1b 03 00 00       	call   0x4051c1
  404ea6:	eb 33                	jmp    0x404edb
  404ea8:	53                   	push   ebx
  404ea9:	e8 55 1b 00 00       	call   0x406a03
  404eae:	57                   	push   edi
  404eaf:	8b f0                	mov    esi,eax
  404eb1:	e8 4d 1b 00 00       	call   0x406a03
  404eb6:	03 f0                	add    esi,eax
  404eb8:	8d 04 75 02 00 00 00 	lea    eax,[esi*2+0x2]
  404ebf:	50                   	push   eax
  404ec0:	e8 af 02 00 00       	call   0x405174
  404ec5:	8b f0                	mov    esi,eax
  404ec7:	83 c4 0c             	add    esp,0xc
  404eca:	85 f6                	test   esi,esi
  404ecc:	75 12                	jne    0x404ee0
  404ece:	57                   	push   edi
  404ecf:	e8 ed 02 00 00       	call   0x4051c1
  404ed4:	53                   	push   ebx
  404ed5:	e8 e7 02 00 00       	call   0x4051c1
  404eda:	59                   	pop    ecx
  404edb:	59                   	pop    ecx
  404edc:	33 c0                	xor    eax,eax
  404ede:	eb 13                	jmp    0x404ef3
  404ee0:	53                   	push   ebx
  404ee1:	56                   	push   esi
  404ee2:	e8 73 1a 00 00       	call   0x40695a
  404ee7:	57                   	push   edi
  404ee8:	56                   	push   esi
  404ee9:	e8 8a 19 00 00       	call   0x406878
  404eee:	83 c4 10             	add    esp,0x10
  404ef1:	8b c6                	mov    eax,esi
  404ef3:	5e                   	pop    esi
  404ef4:	5f                   	pop    edi
  404ef5:	5b                   	pop    ebx
  404ef6:	8b e5                	mov    esp,ebp
  404ef8:	5d                   	pop    ebp
  404ef9:	c3                   	ret    
  404efa:	55                   	push   ebp
  404efb:	8b ec                	mov    ebp,esp
  404efd:	83 ec 34             	sub    esp,0x34
  404f00:	53                   	push   ebx
  404f01:	6a 00                	push   0x0
  404f03:	ff 15 b8 26 41 00    	call   DWORD PTR ds:0x4126b8
  404f09:	8b d8                	mov    ebx,eax
  404f0b:	89 5d e4             	mov    DWORD PTR [ebp-0x1c],ebx
  404f0e:	85 db                	test   ebx,ebx
  404f10:	0f 84 ef 01 00 00    	je     0x405105
  404f16:	56                   	push   esi
  404f17:	53                   	push   ebx
  404f18:	ff 15 a0 28 41 00    	call   DWORD PTR ds:0x4128a0
  404f1e:	8b f0                	mov    esi,eax
  404f20:	89 75 f0             	mov    DWORD PTR [ebp-0x10],esi
  404f23:	85 f6                	test   esi,esi
  404f25:	0f 84 d0 01 00 00    	je     0x4050fb
  404f2b:	57                   	push   edi
  404f2c:	6a 08                	push   0x8
  404f2e:	53                   	push   ebx
  404f2f:	ff 15 d4 25 41 00    	call   DWORD PTR ds:0x4125d4
  404f35:	6a 0a                	push   0xa
  404f37:	8b f8                	mov    edi,eax
  404f39:	58                   	pop    eax
  404f3a:	50                   	push   eax
  404f3b:	53                   	push   ebx
  404f3c:	89 7d e8             	mov    DWORD PTR [ebp-0x18],edi
  404f3f:	89 45 f4             	mov    DWORD PTR [ebp-0xc],eax
  404f42:	ff 15 d4 25 41 00    	call   DWORD PTR ds:0x4125d4
  404f48:	50                   	push   eax
  404f49:	57                   	push   edi
  404f4a:	53                   	push   ebx
  404f4b:	89 45 fc             	mov    DWORD PTR [ebp-0x4],eax
  404f4e:	ff 15 ec 27 41 00    	call   DWORD PTR ds:0x4127ec
  404f54:	89 45 ec             	mov    DWORD PTR [ebp-0x14],eax
  404f57:	85 c0                	test   eax,eax
  404f59:	0f 84 94 01 00 00    	je     0x4050f3
  404f5f:	50                   	push   eax
  404f60:	56                   	push   esi
  404f61:	ff 15 34 28 41 00    	call   DWORD PTR ds:0x412834
  404f67:	6a 5a                	push   0x5a
  404f69:	53                   	push   ebx
  404f6a:	ff 15 d4 25 41 00    	call   DWORD PTR ds:0x4125d4
  404f70:	6a 48                	push   0x48
  404f72:	50                   	push   eax
  404f73:	6a 12                	push   0x12
  404f75:	ff 15 78 27 41 00    	call   DWORD PTR ds:0x412778
  404f7b:	33 c9                	xor    ecx,ecx
  404f7d:	f7 d8                	neg    eax
  404f7f:	51                   	push   ecx
  404f80:	51                   	push   ecx
  404f81:	6a 04                	push   0x4
  404f83:	51                   	push   ecx
  404f84:	51                   	push   ecx
  404f85:	6a 01                	push   0x1
  404f87:	51                   	push   ecx
  404f88:	51                   	push   ecx
  404f89:	51                   	push   ecx
  404f8a:	51                   	push   ecx
  404f8b:	51                   	push   ecx
  404f8c:	51                   	push   ecx
  404f8d:	51                   	push   ecx
  404f8e:	50                   	push   eax
  404f8f:	89 45 e0             	mov    DWORD PTR [ebp-0x20],eax
  404f92:	ff 15 ac 26 41 00    	call   DWORD PTR ds:0x4126ac
  404f98:	89 45 dc             	mov    DWORD PTR [ebp-0x24],eax
  404f9b:	85 c0                	test   eax,eax
  404f9d:	0f 84 47 01 00 00    	je     0x4050ea
  404fa3:	50                   	push   eax
  404fa4:	56                   	push   esi
  404fa5:	ff 15 34 28 41 00    	call   DWORD PTR ds:0x412834
  404fab:	6a 01                	push   0x1
  404fad:	56                   	push   esi
  404fae:	ff 15 00 28 41 00    	call   DWORD PTR ds:0x412800
  404fb4:	68 ff ff ff 00       	push   0xffffff
  404fb9:	56                   	push   esi
  404fba:	ff 15 04 27 41 00    	call   DWORD PTR ds:0x412704
  404fc0:	6a 02                	push   0x2
  404fc2:	ff 15 30 28 41 00    	call   DWORD PTR ds:0x412830
  404fc8:	8b 55 fc             	mov    edx,DWORD PTR [ebp-0x4]
  404fcb:	83 65 cc 00          	and    DWORD PTR [ebp-0x34],0x0
  404fcf:	83 65 d0 00          	and    DWORD PTR [ebp-0x30],0x0
  404fd3:	50                   	push   eax
  404fd4:	8d 45 cc             	lea    eax,[ebp-0x34]
  404fd7:	89 7d d4             	mov    DWORD PTR [ebp-0x2c],edi
  404fda:	50                   	push   eax
  404fdb:	56                   	push   esi
  404fdc:	89 55 d8             	mov    DWORD PTR [ebp-0x28],edx
  404fdf:	ff 15 10 28 41 00    	call   DWORD PTR ds:0x412810
  404fe5:	8b 4d fc             	mov    ecx,DWORD PTR [ebp-0x4]
  404fe8:	8b c1                	mov    eax,ecx
  404fea:	0f af c7             	imul   eax,edi
  404fed:	99                   	cdq    
  404fee:	f7 7d f4             	idiv   DWORD PTR [ebp-0xc]
  404ff1:	85 c0                	test   eax,eax
  404ff3:	0f 8e 8d 00 00 00    	jle    0x405086
  404ff9:	33 c0                	xor    eax,eax
  404ffb:	89 45 f8             	mov    DWORD PTR [ebp-0x8],eax
  404ffe:	85 ff                	test   edi,edi
  405000:	0f 8e 80 00 00 00    	jle    0x405086
  405006:	8b de                	mov    ebx,esi
  405008:	83 65 f4 00          	and    DWORD PTR [ebp-0xc],0x0
  40500c:	85 c9                	test   ecx,ecx
  40500e:	7e 68                	jle    0x405078
  405010:	6a ff                	push   0xffffffff
  405012:	6a 00                	push   0x0
  405014:	e8 ad 0b 00 00       	call   0x405bc6
  405019:	33 d2                	xor    edx,edx
  40501b:	b9 c8 00 00 00       	mov    ecx,0xc8
  405020:	f7 f1                	div    ecx
  405022:	6a ff                	push   0xffffffff
  405024:	0f b6 f2             	movzx  esi,dl
  405027:	6a 00                	push   0x0
  405029:	c1 e6 08             	shl    esi,0x8
  40502c:	e8 95 0b 00 00       	call   0x405bc6
  405031:	6a 1e                	push   0x1e
  405033:	59                   	pop    ecx
  405034:	33 d2                	xor    edx,edx
  405036:	f7 f1                	div    ecx
  405038:	6a ff                	push   0xffffffff
  40503a:	0f b6 fa             	movzx  edi,dl
  40503d:	0b fe                	or     edi,esi
  40503f:	6a 00                	push   0x0
  405041:	c1 e7 08             	shl    edi,0x8
  405044:	e8 7d 0b 00 00       	call   0x405bc6
  405049:	83 c4 18             	add    esp,0x18
  40504c:	8b 75 f4             	mov    esi,DWORD PTR [ebp-0xc]
  40504f:	33 d2                	xor    edx,edx
  405051:	6a 1e                	push   0x1e
  405053:	59                   	pop    ecx
  405054:	f7 f1                	div    ecx
  405056:	0f b6 c2             	movzx  eax,dl
  405059:	0b c7                	or     eax,edi
  40505b:	50                   	push   eax
  40505c:	56                   	push   esi
  40505d:	ff 75 f8             	push   DWORD PTR [ebp-0x8]
  405060:	53                   	push   ebx
  405061:	ff 15 80 27 41 00    	call   DWORD PTR ds:0x412780
  405067:	8b 4d fc             	mov    ecx,DWORD PTR [ebp-0x4]
  40506a:	46                   	inc    esi
  40506b:	89 75 f4             	mov    DWORD PTR [ebp-0xc],esi
  40506e:	3b f1                	cmp    esi,ecx
  405070:	7c 9e                	jl     0x405010
  405072:	8b 7d e8             	mov    edi,DWORD PTR [ebp-0x18]
  405075:	8b 45 f8             	mov    eax,DWORD PTR [ebp-0x8]
  405078:	40                   	inc    eax
  405079:	89 45 f8             	mov    DWORD PTR [ebp-0x8],eax
  40507c:	3b c7                	cmp    eax,edi
  40507e:	7c 88                	jl     0x405008
  405080:	8b 5d e4             	mov    ebx,DWORD PTR [ebp-0x1c]
  405083:	8b 75 f0             	mov    esi,DWORD PTR [ebp-0x10]
  405086:	8b 45 d8             	mov    eax,DWORD PTR [ebp-0x28]
  405089:	99                   	cdq    
  40508a:	2b c2                	sub    eax,edx
  40508c:	8b c8                	mov    ecx,eax
  40508e:	8b 45 fc             	mov    eax,DWORD PTR [ebp-0x4]
  405091:	99                   	cdq    
  405092:	2b c2                	sub    eax,edx
  405094:	d1 f9                	sar    ecx,1
  405096:	d1 f8                	sar    eax,1
  405098:	6a 11                	push   0x11
  40509a:	2b c8                	sub    ecx,eax
  40509c:	8d 45 cc             	lea    eax,[ebp-0x34]
  40509f:	2b 4d e0             	sub    ecx,DWORD PTR [ebp-0x20]
  4050a2:	50                   	push   eax
  4050a3:	6a ff                	push   0xffffffff
  4050a5:	ff 35 24 35 41 00    	push   DWORD PTR ds:0x413524
  4050ab:	89 4d d0             	mov    DWORD PTR [ebp-0x30],ecx
  4050ae:	56                   	push   esi
  4050af:	ff 15 f0 26 41 00    	call   DWORD PTR ds:0x4126f0
  4050b5:	e8 3b fd ff ff       	call   0x404df5
  4050ba:	8b f8                	mov    edi,eax
  4050bc:	85 ff                	test   edi,edi
  4050be:	74 21                	je     0x4050e1
  4050c0:	57                   	push   edi
  4050c1:	53                   	push   ebx
  4050c2:	ff 75 ec             	push   DWORD PTR [ebp-0x14]
  4050c5:	e8 76 fb ff ff       	call   0x404c40
  4050ca:	83 c4 0c             	add    esp,0xc
  4050cd:	6a 03                	push   0x3
  4050cf:	57                   	push   edi
  4050d0:	6a 00                	push   0x0
  4050d2:	6a 14                	push   0x14
  4050d4:	ff 15 b0 26 41 00    	call   DWORD PTR ds:0x4126b0
  4050da:	57                   	push   edi
  4050db:	e8 e1 00 00 00       	call   0x4051c1
  4050e0:	59                   	pop    ecx
  4050e1:	ff 75 dc             	push   DWORD PTR [ebp-0x24]
  4050e4:	ff 15 bc 27 41 00    	call   DWORD PTR ds:0x4127bc
  4050ea:	ff 75 ec             	push   DWORD PTR [ebp-0x14]
  4050ed:	ff 15 bc 27 41 00    	call   DWORD PTR ds:0x4127bc
  4050f3:	56                   	push   esi
  4050f4:	ff 15 d8 26 41 00    	call   DWORD PTR ds:0x4126d8
  4050fa:	5f                   	pop    edi
  4050fb:	53                   	push   ebx
  4050fc:	6a 00                	push   0x0
  4050fe:	ff 15 54 26 41 00    	call   DWORD PTR ds:0x412654
  405104:	5e                   	pop    esi
  405105:	5b                   	pop    ebx
  405106:	8b e5                	mov    esp,ebp
  405108:	5d                   	pop    ebp
  405109:	c3                   	ret    
  40510a:	55                   	push   ebp
  40510b:	8b ec                	mov    ebp,esp
  40510d:	83 7d 0c 00          	cmp    DWORD PTR [ebp+0xc],0x0
  405111:	75 0c                	jne    0x40511f
  405113:	33 c0                	xor    eax,eax
  405115:	5d                   	pop    ebp
  405116:	c3                   	ret    
  405117:	6a 0a                	push   0xa
  405119:	ff 15 08 e0 40 00    	call   DWORD PTR ds:0x40e008
  40511f:	ff 75 0c             	push   DWORD PTR [ebp+0xc]
  405122:	6a 08                	push   0x8
  405124:	ff 75 08             	push   DWORD PTR [ebp+0x8]
  405127:	ff 15 50 26 41 00    	call   DWORD PTR ds:0x412650
  40512d:	85 c0                	test   eax,eax
  40512f:	74 e6                	je     0x405117
  405131:	5d                   	pop    ebp
  405132:	c3                   	ret    
  405133:	55                   	push   ebp
  405134:	8b ec                	mov    ebp,esp
  405136:	83 7d 08 00          	cmp    DWORD PTR [ebp+0x8],0x0
  40513a:	b8 00 00 40 00       	mov    eax,0x400000
  40513f:	6a 00                	push   0x0
  405141:	0f 45 45 08          	cmovne eax,DWORD PTR [ebp+0x8]
  405145:	50                   	push   eax
  405146:	6a 00                	push   0x0
  405148:	ff 15 60 28 41 00    	call   DWORD PTR ds:0x412860
  40514e:	5d                   	pop    ebp
  40514f:	c3                   	ret    
  405150:	55                   	push   ebp
  405151:	8b ec                	mov    ebp,esp
  405153:	ff 75 08             	push   DWORD PTR [ebp+0x8]
  405156:	ff 15 54 28 41 00    	call   DWORD PTR ds:0x412854
  40515c:	5d                   	pop    ebp
  40515d:	c3                   	ret    
  40515e:	55                   	push   ebp
  40515f:	8b ec                	mov    ebp,esp
  405161:	ff 75 0c             	push   DWORD PTR [ebp+0xc]
  405164:	6a 00                	push   0x0
  405166:	ff 75 08             	push   DWORD PTR [ebp+0x8]
  405169:	ff 15 80 26 41 00    	call   DWORD PTR ds:0x412680
  40516f:	0f b6 c0             	movzx  eax,al
  405172:	5d                   	pop    ebp
  405173:	c3                   	ret    
  405174:	55                   	push   ebp
  405175:	8b ec                	mov    ebp,esp
  405177:	83 3d 64 30 41 00 00 	cmp    DWORD PTR ds:0x413064,0x0
  40517e:	75 2f                	jne    0x4051af
  405180:	6a 00                	push   0x0
  405182:	68 00 00 40 00       	push   0x400000
  405187:	6a 00                	push   0x0
  405189:	ff 15 60 28 41 00    	call   DWORD PTR ds:0x412860
  40518f:	a3 60 30 41 00       	mov    ds:0x413060,eax
  405194:	85 c0                	test   eax,eax
  405196:	75 0b                	jne    0x4051a3
  405198:	ff 15 04 26 41 00    	call   DWORD PTR ds:0x412604
  40519e:	a3 60 30 41 00       	mov    ds:0x413060,eax
  4051a3:	c7 05 64 30 41 00 01 	mov    DWORD PTR ds:0x413064,0x1
  4051aa:	00 00 00 
  4051ad:	eb 05                	jmp    0x4051b4
  4051af:	a1 60 30 41 00       	mov    eax,ds:0x413060
  4051b4:	ff 75 08             	push   DWORD PTR [ebp+0x8]
  4051b7:	50                   	push   eax
  4051b8:	e8 4d ff ff ff       	call   0x40510a
  4051bd:	59                   	pop    ecx
  4051be:	59                   	pop    ecx
  4051bf:	5d                   	pop    ebp
  4051c0:	c3                   	ret    
  4051c1:	55                   	push   ebp
  4051c2:	8b ec                	mov    ebp,esp
  4051c4:	ff 75 08             	push   DWORD PTR [ebp+0x8]
  4051c7:	ff 35 60 30 41 00    	push   DWORD PTR ds:0x413060
  4051cd:	e8 8c ff ff ff       	call   0x40515e
  4051d2:	59                   	pop    ecx
  4051d3:	59                   	pop    ecx
  4051d4:	5d                   	pop    ebp
  4051d5:	c3                   	ret    
  4051d6:	55                   	push   ebp
  4051d7:	8b ec                	mov    ebp,esp
  4051d9:	8b 45 08             	mov    eax,DWORD PTR [ebp+0x8]
  4051dc:	56                   	push   esi
  4051dd:	8b 75 10             	mov    esi,DWORD PTR [ebp+0x10]
  4051e0:	85 f6                	test   esi,esi
  4051e2:	74 14                	je     0x4051f8
  4051e4:	8b 55 0c             	mov    edx,DWORD PTR [ebp+0xc]
  4051e7:	57                   	push   edi
  4051e8:	8b f8                	mov    edi,eax
  4051ea:	2b fa                	sub    edi,edx
  4051ec:	8a 0a                	mov    cl,BYTE PTR [edx]
  4051ee:	88 0c 17             	mov    BYTE PTR [edi+edx*1],cl
  4051f1:	42                   	inc    edx
  4051f2:	83 ee 01             	sub    esi,0x1
  4051f5:	75 f5                	jne    0x4051ec
  4051f7:	5f                   	pop    edi
  4051f8:	5e                   	pop    esi
  4051f9:	5d                   	pop    ebp
  4051fa:	c3                   	ret    
  4051fb:	55                   	push   ebp
  4051fc:	8b ec                	mov    ebp,esp
  4051fe:	8b 4d 10             	mov    ecx,DWORD PTR [ebp+0x10]
  405201:	85 c9                	test   ecx,ecx
  405203:	74 1f                	je     0x405224
  405205:	0f b6 45 0c          	movzx  eax,BYTE PTR [ebp+0xc]
  405209:	56                   	push   esi
  40520a:	8b f1                	mov    esi,ecx
  40520c:	69 c0 01 01 01 01    	imul   eax,eax,0x1010101
  405212:	57                   	push   edi
  405213:	8b 7d 08             	mov    edi,DWORD PTR [ebp+0x8]
  405216:	c1 e9 02             	shr    ecx,0x2
  405219:	f3 ab                	rep stos DWORD PTR es:[edi],eax
  40521b:	8b ce                	mov    ecx,esi
  40521d:	83 e1 03             	and    ecx,0x3
  405220:	f3 aa                	rep stos BYTE PTR es:[edi],al
  405222:	5f                   	pop    edi
  405223:	5e                   	pop    esi
  405224:	8b 45 08             	mov    eax,DWORD PTR [ebp+0x8]
  405227:	5d                   	pop    ebp
  405228:	c3                   	ret    
  405229:	55                   	push   ebp
  40522a:	8b ec                	mov    ebp,esp
  40522c:	83 ec 48             	sub    esp,0x48
  40522f:	56                   	push   esi
  405230:	c7 45 b8 19 04 00 00 	mov    DWORD PTR [ebp-0x48],0x419
  405237:	c7 45 bc 22 04 00 00 	mov    DWORD PTR [ebp-0x44],0x422
  40523e:	c7 45 c0 23 04 00 00 	mov    DWORD PTR [ebp-0x40],0x423
  405245:	c7 45 c4 28 04 00 00 	mov    DWORD PTR [ebp-0x3c],0x428
  40524c:	c7 45 c8 2b 04 00 00 	mov    DWORD PTR [ebp-0x38],0x42b
  405253:	c7 45 cc 2c 04 00 00 	mov    DWORD PTR [ebp-0x34],0x42c
  40525a:	c7 45 d0 37 04 00 00 	mov    DWORD PTR [ebp-0x30],0x437
  405261:	c7 45 d4 3f 04 00 00 	mov    DWORD PTR [ebp-0x2c],0x43f
  405268:	c7 45 d8 40 04 00 00 	mov    DWORD PTR [ebp-0x28],0x440
  40526f:	c7 45 dc 42 04 00 00 	mov    DWORD PTR [ebp-0x24],0x442
  405276:	c7 45 e0 43 04 00 00 	mov    DWORD PTR [ebp-0x20],0x443
  40527d:	c7 45 e4 44 04 00 00 	mov    DWORD PTR [ebp-0x1c],0x444
  405284:	c7 45 e8 18 08 00 00 	mov    DWORD PTR [ebp-0x18],0x818
  40528b:	c7 45 ec 19 08 00 00 	mov    DWORD PTR [ebp-0x14],0x819
  405292:	c7 45 f0 2c 08 00 00 	mov    DWORD PTR [ebp-0x10],0x82c
  405299:	c7 45 f4 43 08 00 00 	mov    DWORD PTR [ebp-0xc],0x843
  4052a0:	c7 45 f8 5a 04 00 00 	mov    DWORD PTR [ebp-0x8],0x45a
  4052a7:	c7 45 fc 01 28 00 00 	mov    DWORD PTR [ebp-0x4],0x2801
  4052ae:	ff 15 b0 28 41 00    	call   DWORD PTR ds:0x4128b0
  4052b4:	0f b7 f0             	movzx  esi,ax
  4052b7:	ff 15 7c 28 41 00    	call   DWORD PTR ds:0x41287c
  4052bd:	0f b7 c8             	movzx  ecx,ax
  4052c0:	33 c0                	xor    eax,eax
  4052c2:	39 74 85 b8          	cmp    DWORD PTR [ebp+eax*4-0x48],esi
  4052c6:	74 10                	je     0x4052d8
  4052c8:	39 4c 85 b8          	cmp    DWORD PTR [ebp+eax*4-0x48],ecx
  4052cc:	74 0a                	je     0x4052d8
  4052ce:	40                   	inc    eax
  4052cf:	83 f8 12             	cmp    eax,0x12
  4052d2:	72 ee                	jb     0x4052c2
  4052d4:	33 c0                	xor    eax,eax
  4052d6:	eb 03                	jmp    0x4052db
  4052d8:	33 c0                	xor    eax,eax
  4052da:	40                   	inc    eax
  4052db:	5e                   	pop    esi
  4052dc:	8b e5                	mov    esp,ebp
  4052de:	5d                   	pop    ebp
  4052df:	c3                   	ret    
  4052e0:	55                   	push   ebp
  4052e1:	8b ec                	mov    ebp,esp
  4052e3:	51                   	push   ecx
  4052e4:	83 65 fc 00          	and    DWORD PTR [ebp-0x4],0x0
  4052e8:	56                   	push   esi
  4052e9:	ff 75 08             	push   DWORD PTR [ebp+0x8]
  4052ec:	6a 00                	push   0x0
  4052ee:	68 00 04 00 00       	push   0x400
  4052f3:	ff 15 1c 26 41 00    	call   DWORD PTR ds:0x41261c
  4052f9:	8b f0                	mov    esi,eax
  4052fb:	85 f6                	test   esi,esi
  4052fd:	74 29                	je     0x405328
  4052ff:	8d 45 fc             	lea    eax,[ebp-0x4]
  405302:	50                   	push   eax
  405303:	56                   	push   esi
  405304:	ff 15 34 27 41 00    	call   DWORD PTR ds:0x412734
  40530a:	68 e8 03 00 00       	push   0x3e8
  40530f:	ff 15 d4 26 41 00    	call   DWORD PTR ds:0x4126d4
  405315:	81 7d fc 03 01 00 00 	cmp    DWORD PTR [ebp-0x4],0x103
  40531c:	74 e1                	je     0x4052ff
  40531e:	56                   	push   esi
  40531f:	ff 15 00 e0 40 00    	call   DWORD PTR ds:0x40e000
  405325:	33 c0                	xor    eax,eax
  405327:	40                   	inc    eax
  405328:	5e                   	pop    esi
  405329:	8b e5                	mov    esp,ebp
  40532b:	5d                   	pop    ebp
  40532c:	c3                   	ret    
  40532d:	55                   	push   ebp
  40532e:	8b ec                	mov    ebp,esp
  405330:	51                   	push   ecx
  405331:	a1 7c 30 41 00       	mov    eax,ds:0x41307c
  405336:	b9 00 08 00 00       	mov    ecx,0x800
  40533b:	89 4d fc             	mov    DWORD PTR [ebp-0x4],ecx
  40533e:	51                   	push   ecx
  40533f:	85 c0                	test   eax,eax
  405341:	75 0d                	jne    0x405350
  405343:	e8 2c fe ff ff       	call   0x405174
  405348:	59                   	pop    ecx
  405349:	a3 7c 30 41 00       	mov    ds:0x41307c,eax
  40534e:	eb 0b                	jmp    0x40535b
  405350:	6a 00                	push   0x0
  405352:	50                   	push   eax
  405353:	e8 a3 fe ff ff       	call   0x4051fb
  405358:	83 c4 0c             	add    esp,0xc
  40535b:	56                   	push   esi
  40535c:	ff 75 08             	push   DWORD PTR [ebp+0x8]
  40535f:	6a 00                	push   0x0
  405361:	68 00 10 00 00       	push   0x1000
  405366:	ff 15 1c 26 41 00    	call   DWORD PTR ds:0x41261c
  40536c:	8b f0                	mov    esi,eax
  40536e:	85 f6                	test   esi,esi
  405370:	74 72                	je     0x4053e4
  405372:	8d 45 fc             	lea    eax,[ebp-0x4]
  405375:	50                   	push   eax
  405376:	ff 35 7c 30 41 00    	push   DWORD PTR ds:0x41307c
  40537c:	6a 00                	push   0x0
  40537e:	56                   	push   esi
  40537f:	ff 15 c4 26 41 00    	call   DWORD PTR ds:0x4126c4
  405385:	56                   	push   esi
  405386:	e8 8b 00 00 00       	call   0x405416
  40538b:	59                   	pop    ecx
  40538c:	ff 35 7c 30 41 00    	push   DWORD PTR ds:0x41307c
  405392:	ff 15 4c 26 41 00    	call   DWORD PTR ds:0x41264c
  405398:	8b f0                	mov    esi,eax
  40539a:	68 a4 e1 40 00       	push   0x40e1a4
  40539f:	56                   	push   esi
  4053a0:	e8 54 15 00 00       	call   0x4068f9
  4053a5:	59                   	pop    ecx
  4053a6:	59                   	pop    ecx
  4053a7:	85 c0                	test   eax,eax
  4053a9:	75 05                	jne    0x4053b0
  4053ab:	33 c0                	xor    eax,eax
  4053ad:	40                   	inc    eax
  4053ae:	eb 34                	jmp    0x4053e4
  4053b0:	68 c0 e1 40 00       	push   0x40e1c0
  4053b5:	56                   	push   esi
  4053b6:	e8 3e 15 00 00       	call   0x4068f9
  4053bb:	59                   	pop    ecx
  4053bc:	59                   	pop    ecx
  4053bd:	85 c0                	test   eax,eax
  4053bf:	74 ea                	je     0x4053ab
  4053c1:	68 d4 e1 40 00       	push   0x40e1d4
  4053c6:	56                   	push   esi
  4053c7:	e8 2d 15 00 00       	call   0x4068f9
  4053cc:	59                   	pop    ecx
  4053cd:	59                   	pop    ecx
  4053ce:	85 c0                	test   eax,eax
  4053d0:	74 d9                	je     0x4053ab
  4053d2:	68 e8 e1 40 00       	push   0x40e1e8
  4053d7:	56                   	push   esi
  4053d8:	e8 1c 15 00 00       	call   0x4068f9
  4053dd:	f7 d8                	neg    eax
  4053df:	59                   	pop    ecx
  4053e0:	1b c0                	sbb    eax,eax
  4053e2:	59                   	pop    ecx
  4053e3:	40                   	inc    eax
  4053e4:	5e                   	pop    esi
  4053e5:	8b e5                	mov    esp,ebp
  4053e7:	5d                   	pop    ebp
  4053e8:	c3                   	ret    
  4053e9:	55                   	push   ebp
  4053ea:	8b ec                	mov    ebp,esp
  4053ec:	56                   	push   esi
  4053ed:	8b 75 08             	mov    esi,DWORD PTR [ebp+0x8]
  4053f0:	57                   	push   edi
  4053f1:	8b 7d 0c             	mov    edi,DWORD PTR [ebp+0xc]
  4053f4:	ff 36                	push   DWORD PTR [esi]
  4053f6:	8d 47 24             	lea    eax,[edi+0x24]
  4053f9:	50                   	push   eax
  4053fa:	e8 fa 14 00 00       	call   0x4068f9
  4053ff:	59                   	pop    ecx
  405400:	59                   	pop    ecx
  405401:	85 c0                	test   eax,eax
  405403:	74 04                	je     0x405409
  405405:	33 c0                	xor    eax,eax
  405407:	eb 09                	jmp    0x405412
  405409:	8b 47 08             	mov    eax,DWORD PTR [edi+0x8]
  40540c:	89 46 04             	mov    DWORD PTR [esi+0x4],eax
  40540f:	33 c0                	xor    eax,eax
  405411:	40                   	inc    eax
  405412:	5f                   	pop    edi
  405413:	5e                   	pop    esi
  405414:	5d                   	pop    ebp
  405415:	c3                   	ret    
  405416:	55                   	push   ebp
  405417:	8b ec                	mov    ebp,esp
  405419:	83 7d 08 00          	cmp    DWORD PTR [ebp+0x8],0x0
  40541d:	74 09                	je     0x405428
  40541f:	ff 75 08             	push   DWORD PTR [ebp+0x8]
  405422:	ff 15 20 26 41 00    	call   DWORD PTR ds:0x412620
  405428:	5d                   	pop    ebp
  405429:	c3                   	ret    
  40542a:	55                   	push   ebp
  40542b:	8b ec                	mov    ebp,esp
  40542d:	ff 75 08             	push   DWORD PTR [ebp+0x8]
  405430:	ff 15 c8 26 41 00    	call   DWORD PTR ds:0x4126c8
  405436:	5d                   	pop    ebp
  405437:	c3                   	ret    
  405438:	55                   	push   ebp
  405439:	8b ec                	mov    ebp,esp
  40543b:	ff 75 08             	push   DWORD PTR [ebp+0x8]
  40543e:	ff 15 10 26 41 00    	call   DWORD PTR ds:0x412610
  405444:	50                   	push   eax
  405445:	ff 15 44 26 41 00    	call   DWORD PTR ds:0x412644
  40544b:	5d                   	pop    ebp
  40544c:	c3                   	ret    
  40544d:	55                   	push   ebp
  40544e:	8b ec                	mov    ebp,esp
  405450:	83 ec 18             	sub    esp,0x18
  405453:	53                   	push   ebx
  405454:	56                   	push   esi
  405455:	57                   	push   edi
  405456:	8b 7d 08             	mov    edi,DWORD PTR [ebp+0x8]
  405459:	33 c0                	xor    eax,eax
  40545b:	89 45 fc             	mov    DWORD PTR [ebp-0x4],eax
  40545e:	89 7d f8             	mov    DWORD PTR [ebp-0x8],edi
  405461:	05 02 00 00 80       	add    eax,0x80000002
  405466:	33 c9                	xor    ecx,ecx
  405468:	53                   	push   ebx
  405469:	0f a2                	cpuid  
  40546b:	8b f3                	mov    esi,ebx
  40546d:	5b                   	pop    ebx
  40546e:	8d 5d e8             	lea    ebx,[ebp-0x18]
  405471:	89 03                	mov    DWORD PTR [ebx],eax
  405473:	8b 45 fc             	mov    eax,DWORD PTR [ebp-0x4]
  405476:	89 73 04             	mov    DWORD PTR [ebx+0x4],esi
  405479:	40                   	inc    eax
  40547a:	89 4b 08             	mov    DWORD PTR [ebx+0x8],ecx
  40547d:	8b f3                	mov    esi,ebx
  40547f:	89 53 0c             	mov    DWORD PTR [ebx+0xc],edx
  405482:	89 45 fc             	mov    DWORD PTR [ebp-0x4],eax
  405485:	a5                   	movs   DWORD PTR es:[edi],DWORD PTR ds:[esi]
  405486:	a5                   	movs   DWORD PTR es:[edi],DWORD PTR ds:[esi]
  405487:	a5                   	movs   DWORD PTR es:[edi],DWORD PTR ds:[esi]
  405488:	a5                   	movs   DWORD PTR es:[edi],DWORD PTR ds:[esi]
  405489:	8b 7d f8             	mov    edi,DWORD PTR [ebp-0x8]
  40548c:	83 c7 10             	add    edi,0x10
  40548f:	89 7d f8             	mov    DWORD PTR [ebp-0x8],edi
  405492:	83 f8 03             	cmp    eax,0x3
  405495:	7c ca                	jl     0x405461
  405497:	8b 45 08             	mov    eax,DWORD PTR [ebp+0x8]
  40549a:	5f                   	pop    edi
  40549b:	5e                   	pop    esi
  40549c:	5b                   	pop    ebx
  40549d:	8b e5                	mov    esp,ebp
  40549f:	5d                   	pop    ebp
  4054a0:	c3                   	ret    
  4054a1:	55                   	push   ebp
  4054a2:	8b ec                	mov    ebp,esp
  4054a4:	ff 75 08             	push   DWORD PTR [ebp+0x8]
  4054a7:	ff 15 34 26 41 00    	call   DWORD PTR ds:0x412634
  4054ad:	5d                   	pop    ebp
  4054ae:	c3                   	ret    
  4054af:	55                   	push   ebp
  4054b0:	8b ec                	mov    ebp,esp
  4054b2:	ff 75 08             	push   DWORD PTR [ebp+0x8]
  4054b5:	ff 15 f8 25 41 00    	call   DWORD PTR ds:0x4125f8
  4054bb:	5d                   	pop    ebp
  4054bc:	c3                   	ret    
  4054bd:	55                   	push   ebp
  4054be:	8b ec                	mov    ebp,esp
  4054c0:	51                   	push   ecx
  4054c1:	56                   	push   esi
  4054c2:	6a 20                	push   0x20
  4054c4:	e8 ab fc ff ff       	call   0x405174
  4054c9:	8b f0                	mov    esi,eax
  4054cb:	59                   	pop    ecx
  4054cc:	85 f6                	test   esi,esi
  4054ce:	74 21                	je     0x4054f1
  4054d0:	8d 45 fc             	lea    eax,[ebp-0x4]
  4054d3:	c7 45 fc 10 00 00 00 	mov    DWORD PTR [ebp-0x4],0x10
  4054da:	50                   	push   eax
  4054db:	56                   	push   esi
  4054dc:	ff 15 2c 26 41 00    	call   DWORD PTR ds:0x41262c
  4054e2:	85 c0                	test   eax,eax
  4054e4:	75 09                	jne    0x4054ef
  4054e6:	56                   	push   esi
  4054e7:	e8 d5 fc ff ff       	call   0x4051c1
  4054ec:	59                   	pop    ecx
  4054ed:	33 f6                	xor    esi,esi
  4054ef:	8b c6                	mov    eax,esi
  4054f1:	5e                   	pop    esi
  4054f2:	8b e5                	mov    esp,ebp
  4054f4:	5d                   	pop    ebp
  4054f5:	c3                   	ret    
  4054f6:	ff 25 5c 28 41 00    	jmp    DWORD PTR ds:0x41285c
  4054fc:	ff 25 d0 27 41 00    	jmp    DWORD PTR ds:0x4127d0
  405502:	ff 25 60 27 41 00    	jmp    DWORD PTR ds:0x412760
  405508:	55                   	push   ebp
  405509:	8b ec                	mov    ebp,esp
  40550b:	83 ec 18             	sub    esp,0x18
  40550e:	53                   	push   ebx
  40550f:	56                   	push   esi
  405510:	57                   	push   edi
  405511:	33 d2                	xor    edx,edx
  405513:	33 f6                	xor    esi,esi
  405515:	6a 5a                	push   0x5a
  405517:	89 55 fc             	mov    DWORD PTR [ebp-0x4],edx
  40551a:	33 db                	xor    ebx,ebx
  40551c:	5f                   	pop    edi
  40551d:	85 db                	test   ebx,ebx
  40551f:	74 26                	je     0x405547
  405521:	85 f6                	test   esi,esi
  405523:	0f 84 ae 00 00 00    	je     0x4055d7
  405529:	6b c6 16             	imul   eax,esi,0x16
  40552c:	50                   	push   eax
  40552d:	e8 42 fc ff ff       	call   0x405174
  405532:	8b d0                	mov    edx,eax
  405534:	89 55 fc             	mov    DWORD PTR [ebp-0x4],edx
  405537:	59                   	pop    ecx
  405538:	85 d2                	test   edx,edx
  40553a:	0f 84 97 00 00 00    	je     0x4055d7
  405540:	8b 45 08             	mov    eax,DWORD PTR [ebp+0x8]
  405543:	89 30                	mov    DWORD PTR [eax],esi
  405545:	33 f6                	xor    esi,esi
  405547:	8b 0d 98 e1 40 00    	mov    ecx,DWORD PTR ds:0x40e198
  40554d:	a1 9c e1 40 00       	mov    eax,ds:0x40e19c
  405552:	89 4d f0             	mov    DWORD PTR [ebp-0x10],ecx
  405555:	89 45 f4             	mov    DWORD PTR [ebp-0xc],eax
  405558:	66 3b cf             	cmp    cx,di
  40555b:	77 6c                	ja     0x4055c9
  40555d:	6b c6 16             	imul   eax,esi,0x16
  405560:	8d 7a 0e             	lea    edi,[edx+0xe]
  405563:	03 f8                	add    edi,eax
  405565:	8d 45 f0             	lea    eax,[ebp-0x10]
  405568:	50                   	push   eax
  405569:	ff 15 14 28 41 00    	call   DWORD PTR ds:0x412814
  40556f:	50                   	push   eax
  405570:	89 45 f8             	mov    DWORD PTR [ebp-0x8],eax
  405573:	e8 46 2e 00 00       	call   0x4083be
  405578:	59                   	pop    ecx
  405579:	85 c0                	test   eax,eax
  40557b:	74 38                	je     0x4055b5
  40557d:	85 db                	test   ebx,ebx
  40557f:	74 30                	je     0x4055b1
  405581:	66 8b 45 f0          	mov    ax,WORD PTR [ebp-0x10]
  405585:	66 89 47 f2          	mov    WORD PTR [edi-0xe],ax
  405589:	8b 45 f8             	mov    eax,DWORD PTR [ebp-0x8]
  40558c:	89 47 f4             	mov    DWORD PTR [edi-0xc],eax
  40558f:	8d 47 f8             	lea    eax,[edi-0x8]
  405592:	57                   	push   edi
  405593:	50                   	push   eax
  405594:	8d 45 e8             	lea    eax,[ebp-0x18]
  405597:	50                   	push   eax
  405598:	8d 45 f0             	lea    eax,[ebp-0x10]
  40559b:	50                   	push   eax
  40559c:	ff 15 1c 27 41 00    	call   DWORD PTR ds:0x41271c
  4055a2:	85 c0                	test   eax,eax
  4055a4:	75 0b                	jne    0x4055b1
  4055a6:	89 07                	mov    DWORD PTR [edi],eax
  4055a8:	89 47 04             	mov    DWORD PTR [edi+0x4],eax
  4055ab:	89 47 f8             	mov    DWORD PTR [edi-0x8],eax
  4055ae:	89 47 fc             	mov    DWORD PTR [edi-0x4],eax
  4055b1:	46                   	inc    esi
  4055b2:	83 c7 16             	add    edi,0x16
  4055b5:	66 8b 45 f0          	mov    ax,WORD PTR [ebp-0x10]
  4055b9:	6a 5a                	push   0x5a
  4055bb:	66 40                	inc    ax
  4055bd:	59                   	pop    ecx
  4055be:	66 89 45 f0          	mov    WORD PTR [ebp-0x10],ax
  4055c2:	66 3b c1             	cmp    ax,cx
  4055c5:	76 9e                	jbe    0x405565
  4055c7:	51                   	push   ecx
  4055c8:	5f                   	pop    edi
  4055c9:	8b 55 fc             	mov    edx,DWORD PTR [ebp-0x4]
  4055cc:	43                   	inc    ebx
  4055cd:	83 fb 01             	cmp    ebx,0x1
  4055d0:	7f 0b                	jg     0x4055dd
  4055d2:	e9 46 ff ff ff       	jmp    0x40551d
  4055d7:	8b 45 08             	mov    eax,DWORD PTR [ebp+0x8]
  4055da:	83 20 00             	and    DWORD PTR [eax],0x0
  4055dd:	5f                   	pop    edi
  4055de:	5e                   	pop    esi
  4055df:	8b c2                	mov    eax,edx
  4055e1:	5b                   	pop    ebx
  4055e2:	8b e5                	mov    esp,ebp
  4055e4:	5d                   	pop    ebp
  4055e5:	c3                   	ret    
  4055e6:	55                   	push   ebp
  4055e7:	8b ec                	mov    ebp,esp
  4055e9:	81 ec 94 00 00 00    	sub    esp,0x94
  4055ef:	53                   	push   ebx
  4055f0:	56                   	push   esi
  4055f1:	57                   	push   edi
  4055f2:	8d 85 6c ff ff ff    	lea    eax,[ebp-0x94]
  4055f8:	bb c0 28 41 00       	mov    ebx,0x4128c0
  4055fd:	50                   	push   eax
  4055fe:	6a 64                	push   0x64
  405600:	6a 10                	push   0x10
  405602:	6a 3c                	push   0x3c
  405604:	53                   	push   ebx
  405605:	e8 8b 0f 00 00       	call   0x406595
  40560a:	33 c0                	xor    eax,eax
  40560c:	66 89 45 d0          	mov    WORD PTR [ebp-0x30],ax
  405610:	8d 45 e8             	lea    eax,[ebp-0x18]
  405613:	50                   	push   eax
  405614:	6a 0c                	push   0xc
  405616:	6a 10                	push   0x10
  405618:	68 7c 04 00 00       	push   0x47c
  40561d:	53                   	push   ebx
  40561e:	e8 72 0f 00 00       	call   0x406595
  405623:	33 c0                	xor    eax,eax
  405625:	33 ff                	xor    edi,edi
  405627:	66 89 45 f4          	mov    WORD PTR [ebp-0xc],ax
  40562b:	8d 45 fc             	lea    eax,[ebp-0x4]
  40562e:	50                   	push   eax
  40562f:	8d 45 f8             	lea    eax,[ebp-0x8]
  405632:	89 7d fc             	mov    DWORD PTR [ebp-0x4],edi
  405635:	50                   	push   eax
  405636:	8d 45 e8             	lea    eax,[ebp-0x18]
  405639:	50                   	push   eax
  40563a:	8d 85 6c ff ff ff    	lea    eax,[ebp-0x94]
  405640:	50                   	push   eax
  405641:	68 02 00 00 80       	push   0x80000002
  405646:	e8 68 06 00 00       	call   0x405cb3
  40564b:	8b f0                	mov    esi,eax
  40564d:	83 c4 3c             	add    esp,0x3c
  405650:	85 f6                	test   esi,esi
  405652:	75 04                	jne    0x405658
  405654:	33 c0                	xor    eax,eax
  405656:	eb 43                	jmp    0x40569b
  405658:	83 7d f8 01          	cmp    DWORD PTR [ebp-0x8],0x1
  40565c:	74 09                	je     0x405667
  40565e:	56                   	push   esi
  40565f:	e8 5d fb ff ff       	call   0x4051c1
  405664:	59                   	pop    ecx
  405665:	eb ed                	jmp    0x405654
  405667:	66 39 3e             	cmp    WORD PTR [esi],di
  40566a:	75 2d                	jne    0x405699
  40566c:	8d 45 d4             	lea    eax,[ebp-0x2c]
  40566f:	50                   	push   eax
  405670:	6a 12                	push   0x12
  405672:	6a 04                	push   0x4
  405674:	68 ec 06 00 00       	push   0x6ec
  405679:	53                   	push   ebx
  40567a:	e8 16 0f 00 00       	call   0x406595
  40567f:	33 c0                	xor    eax,eax
  405681:	56                   	push   esi
  405682:	66 89 45 e6          	mov    WORD PTR [ebp-0x1a],ax
  405686:	e8 36 fb ff ff       	call   0x4051c1
  40568b:	8d 45 d4             	lea    eax,[ebp-0x2c]
  40568e:	50                   	push   eax
  40568f:	e8 21 13 00 00       	call   0x4069b5
  405694:	83 c4 1c             	add    esp,0x1c
  405697:	8b f0                	mov    esi,eax
  405699:	8b c6                	mov    eax,esi
  40569b:	5f                   	pop    edi
  40569c:	5e                   	pop    esi
  40569d:	5b                   	pop    ebx
  40569e:	8b e5                	mov    esp,ebp
  4056a0:	5d                   	pop    ebp
  4056a1:	c3                   	ret    
  4056a2:	55                   	push   ebp
  4056a3:	8b ec                	mov    ebp,esp
  4056a5:	83 ec 58             	sub    esp,0x58
  4056a8:	56                   	push   esi
  4056a9:	8d 45 a8             	lea    eax,[ebp-0x58]
  4056ac:	be c0 28 41 00       	mov    esi,0x4128c0
  4056b1:	50                   	push   eax
  4056b2:	6a 36                	push   0x36
  4056b4:	6a 0d                	push   0xd
  4056b6:	68 38 02 00 00       	push   0x238
  4056bb:	56                   	push   esi
  4056bc:	e8 d4 0e 00 00       	call   0x406595
  4056c1:	33 c0                	xor    eax,eax
  4056c3:	66 89 45 de          	mov    WORD PTR [ebp-0x22],ax
  4056c7:	8d 45 e0             	lea    eax,[ebp-0x20]
  4056ca:	50                   	push   eax
  4056cb:	6a 14                	push   0x14
  4056cd:	6a 04                	push   0x4
  4056cf:	68 2a 05 00 00       	push   0x52a
  4056d4:	56                   	push   esi
  4056d5:	e8 bb 0e 00 00       	call   0x406595
  4056da:	33 c0                	xor    eax,eax
  4056dc:	21 45 fc             	and    DWORD PTR [ebp-0x4],eax
  4056df:	66 89 45 f4          	mov    WORD PTR [ebp-0xc],ax
  4056e3:	8d 45 fc             	lea    eax,[ebp-0x4]
  4056e6:	50                   	push   eax
  4056e7:	8d 45 f8             	lea    eax,[ebp-0x8]
  4056ea:	50                   	push   eax
  4056eb:	8d 45 e0             	lea    eax,[ebp-0x20]
  4056ee:	50                   	push   eax
  4056ef:	8d 45 a8             	lea    eax,[ebp-0x58]
  4056f2:	50                   	push   eax
  4056f3:	68 01 00 00 80       	push   0x80000001
  4056f8:	e8 b6 05 00 00       	call   0x405cb3
  4056fd:	83 c4 3c             	add    esp,0x3c
  405700:	5e                   	pop    esi
  405701:	85 c0                	test   eax,eax
  405703:	74 0d                	je     0x405712
  405705:	83 7d f8 01          	cmp    DWORD PTR [ebp-0x8],0x1
  405709:	74 09                	je     0x405714
  40570b:	50                   	push   eax
  40570c:	e8 b0 fa ff ff       	call   0x4051c1
  405711:	59                   	pop    ecx
  405712:	33 c0                	xor    eax,eax
  405714:	8b e5                	mov    esp,ebp
  405716:	5d                   	pop    ebp
  405717:	c3                   	ret    
  405718:	55                   	push   ebp
  405719:	8b ec                	mov    ebp,esp
  40571b:	56                   	push   esi
  40571c:	57                   	push   edi
  40571d:	68 0c 02 00 00       	push   0x20c
  405722:	bf 06 01 00 00       	mov    edi,0x106
  405727:	e8 48 fa ff ff       	call   0x405174
  40572c:	8b f0                	mov    esi,eax
  40572e:	59                   	pop    ecx
  40572f:	85 f6                	test   esi,esi
  405731:	74 3e                	je     0x405771
  405733:	53                   	push   ebx
  405734:	8b 5d 0c             	mov    ebx,DWORD PTR [ebp+0xc]
  405737:	57                   	push   edi
  405738:	56                   	push   esi
  405739:	ff 75 08             	push   DWORD PTR [ebp+0x8]
  40573c:	ff 15 18 26 41 00    	call   DWORD PTR ds:0x412618
  405742:	89 03                	mov    DWORD PTR [ebx],eax
  405744:	3b c7                	cmp    eax,edi
  405746:	75 1b                	jne    0x405763
  405748:	56                   	push   esi
  405749:	e8 73 fa ff ff       	call   0x4051c1
  40574e:	03 ff                	add    edi,edi
  405750:	8d 04 3f             	lea    eax,[edi+edi*1]
  405753:	50                   	push   eax
  405754:	e8 1b fa ff ff       	call   0x405174
  405759:	8b f0                	mov    esi,eax
  40575b:	59                   	pop    ecx
  40575c:	59                   	pop    ecx
  40575d:	85 f6                	test   esi,esi
  40575f:	75 d6                	jne    0x405737
  405761:	eb 0d                	jmp    0x405770
  405763:	85 c0                	test   eax,eax
  405765:	75 09                	jne    0x405770
  405767:	56                   	push   esi
  405768:	e8 54 fa ff ff       	call   0x4051c1
  40576d:	59                   	pop    ecx
  40576e:	33 f6                	xor    esi,esi
  405770:	5b                   	pop    ebx
  405771:	5f                   	pop    edi
  405772:	8b c6                	mov    eax,esi
  405774:	5e                   	pop    esi
  405775:	5d                   	pop    ebp
  405776:	c3                   	ret    
  405777:	55                   	push   ebp
  405778:	8b ec                	mov    ebp,esp
  40577a:	83 ec 58             	sub    esp,0x58
  40577d:	57                   	push   edi
  40577e:	6a 22                	push   0x22
  405780:	e8 ef f9 ff ff       	call   0x405174
  405785:	8b f8                	mov    edi,eax
  405787:	59                   	pop    ecx
  405788:	85 ff                	test   edi,edi
  40578a:	74 7d                	je     0x405809
  40578c:	56                   	push   esi
  40578d:	e8 43 08 00 00       	call   0x405fd5
  405792:	89 45 fc             	mov    DWORD PTR [ebp-0x4],eax
  405795:	8d 45 fc             	lea    eax,[ebp-0x4]
  405798:	6a 04                	push   0x4
  40579a:	50                   	push   eax
  40579b:	68 39 05 00 00       	push   0x539
  4057a0:	e8 73 19 00 00       	call   0x407118
  4057a5:	6a 40                	push   0x40
  4057a7:	8b f0                	mov    esi,eax
  4057a9:	8d 45 a8             	lea    eax,[ebp-0x58]
  4057ac:	6a 00                	push   0x0
  4057ae:	50                   	push   eax
  4057af:	e8 47 fa ff ff       	call   0x4051fb
  4057b4:	8d 45 a8             	lea    eax,[ebp-0x58]
  4057b7:	50                   	push   eax
  4057b8:	e8 90 fc ff ff       	call   0x40544d
  4057bd:	8d 45 e8             	lea    eax,[ebp-0x18]
  4057c0:	50                   	push   eax
  4057c1:	6a 10                	push   0x10
  4057c3:	6a 08                	push   0x8
  4057c5:	68 24 01 00 00       	push   0x124
  4057ca:	68 c0 28 41 00       	push   0x4128c0
  4057cf:	e8 c1 0d 00 00       	call   0x406595
  4057d4:	83 c4 30             	add    esp,0x30
  4057d7:	33 c0                	xor    eax,eax
  4057d9:	66 89 45 f8          	mov    WORD PTR [ebp-0x8],ax
  4057dd:	8d 45 a8             	lea    eax,[ebp-0x58]
  4057e0:	ff 75 fc             	push   DWORD PTR [ebp-0x4]
  4057e3:	50                   	push   eax
  4057e4:	e8 07 12 00 00       	call   0x4069f0
  4057e9:	50                   	push   eax
  4057ea:	8d 45 a8             	lea    eax,[ebp-0x58]
  4057ed:	50                   	push   eax
  4057ee:	56                   	push   esi
  4057ef:	e8 24 19 00 00       	call   0x407118
  4057f4:	83 c4 10             	add    esp,0x10
  4057f7:	50                   	push   eax
  4057f8:	8d 45 e8             	lea    eax,[ebp-0x18]
  4057fb:	50                   	push   eax
  4057fc:	57                   	push   edi
  4057fd:	ff 15 94 26 41 00    	call   DWORD PTR ds:0x412694
  405803:	83 c4 10             	add    esp,0x10
  405806:	8b c7                	mov    eax,edi
  405808:	5e                   	pop    esi
  405809:	5f                   	pop    edi
  40580a:	8b e5                	mov    esp,ebp
  40580c:	5d                   	pop    ebp
  40580d:	c3                   	ret    
  40580e:	64 a1 30 00 00 00    	mov    eax,fs:0x30
  405814:	c3                   	ret    
  405815:	55                   	push   ebp
  405816:	8b ec                	mov    ebp,esp
  405818:	51                   	push   ecx
  405819:	51                   	push   ecx
  40581a:	8b 45 08             	mov    eax,DWORD PTR [ebp+0x8]
  40581d:	83 4d fc ff          	or     DWORD PTR [ebp-0x4],0xffffffff
  405821:	89 45 f8             	mov    DWORD PTR [ebp-0x8],eax
  405824:	8d 45 f8             	lea    eax,[ebp-0x8]
  405827:	68 e9 53 40 00       	push   0x4053e9
  40582c:	50                   	push   eax
  40582d:	6a 01                	push   0x1
  40582f:	e8 eb 02 00 00       	call   0x405b1f
  405834:	8b 45 fc             	mov    eax,DWORD PTR [ebp-0x4]
  405837:	83 c4 0c             	add    esp,0xc
  40583a:	8b e5                	mov    esp,ebp
  40583c:	5d                   	pop    ebp
  40583d:	c3                   	ret    
  40583e:	55                   	push   ebp
  40583f:	8b ec                	mov    ebp,esp
  405841:	83 ec 7c             	sub    esp,0x7c
  405844:	56                   	push   esi
  405845:	8d 45 84             	lea    eax,[ebp-0x7c]
  405848:	be c0 28 41 00       	mov    esi,0x4128c0
  40584d:	50                   	push   eax
  40584e:	6a 58                	push   0x58
  405850:	6a 0b                	push   0xb
  405852:	68 ba 03 00 00       	push   0x3ba
  405857:	56                   	push   esi
  405858:	e8 38 0d 00 00       	call   0x406595
  40585d:	33 c0                	xor    eax,eax
  40585f:	66 89 45 dc          	mov    WORD PTR [ebp-0x24],ax
  405863:	8d 45 e0             	lea    eax,[ebp-0x20]
  405866:	50                   	push   eax
  405867:	6a 16                	push   0x16
  405869:	6a 10                	push   0x10
  40586b:	68 b7 05 00 00       	push   0x5b7
  405870:	56                   	push   esi
  405871:	e8 1f 0d 00 00       	call   0x406595
  405876:	33 c0                	xor    eax,eax
  405878:	21 45 fc             	and    DWORD PTR [ebp-0x4],eax
  40587b:	66 89 45 f6          	mov    WORD PTR [ebp-0xa],ax
  40587f:	8d 45 fc             	lea    eax,[ebp-0x4]
  405882:	50                   	push   eax
  405883:	8d 45 f8             	lea    eax,[ebp-0x8]
  405886:	50                   	push   eax
  405887:	8d 45 e0             	lea    eax,[ebp-0x20]
  40588a:	50                   	push   eax
  40588b:	8d 45 84             	lea    eax,[ebp-0x7c]
  40588e:	50                   	push   eax
  40588f:	68 02 00 00 80       	push   0x80000002
  405894:	e8 1a 04 00 00       	call   0x405cb3
  405899:	83 c4 3c             	add    esp,0x3c
  40589c:	5e                   	pop    esi
  40589d:	85 c0                	test   eax,eax
  40589f:	74 0d                	je     0x4058ae
  4058a1:	83 7d f8 01          	cmp    DWORD PTR [ebp-0x8],0x1
  4058a5:	74 09                	je     0x4058b0
  4058a7:	50                   	push   eax
  4058a8:	e8 14 f9 ff ff       	call   0x4051c1
  4058ad:	59                   	pop    ecx
  4058ae:	33 c0                	xor    eax,eax
  4058b0:	8b e5                	mov    esp,ebp
  4058b2:	5d                   	pop    ebp
  4058b3:	c3                   	ret    
  4058b4:	55                   	push   ebp
  4058b5:	8b ec                	mov    ebp,esp
  4058b7:	51                   	push   ecx
  4058b8:	56                   	push   esi
  4058b9:	68 02 02 00 00       	push   0x202
  4058be:	e8 b1 f8 ff ff       	call   0x405174
  4058c3:	8b f0                	mov    esi,eax
  4058c5:	59                   	pop    ecx
  4058c6:	85 f6                	test   esi,esi
  4058c8:	74 21                	je     0x4058eb
  4058ca:	8d 45 fc             	lea    eax,[ebp-0x4]
  4058cd:	c7 45 fc 01 01 00 00 	mov    DWORD PTR [ebp-0x4],0x101
  4058d4:	50                   	push   eax
  4058d5:	56                   	push   esi
  4058d6:	ff 15 84 28 41 00    	call   DWORD PTR ds:0x412884
  4058dc:	85 c0                	test   eax,eax
  4058de:	75 09                	jne    0x4058e9
  4058e0:	56                   	push   esi
  4058e1:	e8 db f8 ff ff       	call   0x4051c1
  4058e6:	59                   	pop    ecx
  4058e7:	33 f6                	xor    esi,esi
  4058e9:	8b c6                	mov    eax,esi
  4058eb:	5e                   	pop    esi
  4058ec:	8b e5                	mov    esp,ebp
  4058ee:	5d                   	pop    ebp
  4058ef:	c3                   	ret    
  4058f0:	55                   	push   ebp
  4058f1:	8b ec                	mov    ebp,esp
  4058f3:	ff 75 08             	push   DWORD PTR [ebp+0x8]
  4058f6:	ff 15 64 26 41 00    	call   DWORD PTR ds:0x412664
  4058fc:	5d                   	pop    ebp
  4058fd:	c3                   	ret    
  4058fe:	55                   	push   ebp
  4058ff:	8b ec                	mov    ebp,esp
  405901:	51                   	push   ecx
  405902:	53                   	push   ebx
  405903:	56                   	push   esi
  405904:	57                   	push   edi
  405905:	e8 1f f9 ff ff       	call   0x405229
  40590a:	33 f6                	xor    esi,esi
  40590c:	89 45 fc             	mov    DWORD PTR [ebp-0x4],eax
  40590f:	56                   	push   esi
  405910:	56                   	push   esi
  405911:	ff 15 28 27 41 00    	call   DWORD PTR ds:0x412728
  405917:	8b f8                	mov    edi,eax
  405919:	85 ff                	test   edi,edi
  40591b:	74 46                	je     0x405963
  40591d:	8b cf                	mov    ecx,edi
  40591f:	c1 e1 02             	shl    ecx,0x2
  405922:	51                   	push   ecx
  405923:	e8 4c f8 ff ff       	call   0x405174
  405928:	8b d8                	mov    ebx,eax
  40592a:	59                   	pop    ecx
  40592b:	85 db                	test   ebx,ebx
  40592d:	74 34                	je     0x405963
  40592f:	53                   	push   ebx
  405930:	57                   	push   edi
  405931:	ff 15 28 27 41 00    	call   DWORD PTR ds:0x412728
  405937:	85 c0                	test   eax,eax
  405939:	74 21                	je     0x40595c
  40593b:	85 ff                	test   edi,edi
  40593d:	7e 1d                	jle    0x40595c
  40593f:	8b 4d fc             	mov    ecx,DWORD PTR [ebp-0x4]
  405942:	0f b7 04 b3          	movzx  eax,WORD PTR [ebx+esi*4]
  405946:	50                   	push   eax
  405947:	e8 25 00 00 00       	call   0x405971
  40594c:	83 c4 04             	add    esp,0x4
  40594f:	85 c0                	test   eax,eax
  405951:	74 04                	je     0x405957
  405953:	85 c9                	test   ecx,ecx
  405955:	75 15                	jne    0x40596c
  405957:	46                   	inc    esi
  405958:	3b f7                	cmp    esi,edi
  40595a:	7c e6                	jl     0x405942
  40595c:	53                   	push   ebx
  40595d:	e8 5f f8 ff ff       	call   0x4051c1
  405962:	59                   	pop    ecx
  405963:	33 c0                	xor    eax,eax
  405965:	5f                   	pop    edi
  405966:	5e                   	pop    esi
  405967:	5b                   	pop    ebx
  405968:	8b e5                	mov    esp,ebp
  40596a:	5d                   	pop    ebp
  40596b:	c3                   	ret    
  40596c:	33 c0                	xor    eax,eax
  40596e:	40                   	inc    eax
  40596f:	eb f4                	jmp    0x405965
  405971:	55                   	push   ebp
  405972:	8b ec                	mov    ebp,esp
  405974:	0f b6 45 08          	movzx  eax,BYTE PTR [ebp+0x8]
  405978:	83 c0 e8             	add    eax,0xffffffe8
  40597b:	83 f8 2c             	cmp    eax,0x2c
  40597e:	77 13                	ja     0x405993
  405980:	0f b6 80 a1 59 40 00 	movzx  eax,BYTE PTR [eax+0x4059a1]
  405987:	ff 24 85 99 59 40 00 	jmp    DWORD PTR [eax*4+0x405999]
  40598e:	33 c0                	xor    eax,eax
  405990:	40                   	inc    eax
  405991:	5d                   	pop    ebp
  405992:	c3                   	ret    
  405993:	33 c0                	xor    eax,eax
  405995:	5d                   	pop    ebp
  405996:	c3                   	ret    
  405997:	8b ff                	mov    edi,edi
  405999:	8e 59 40             	mov    ds,WORD PTR [ecx+0x40]
  40599c:	00 93 59 40 00 00    	add    BYTE PTR [ebx+0x4059],dl
  4059a2:	00 01                	add    BYTE PTR [ecx],al
  4059a4:	01 01                	add    DWORD PTR [ecx],eax
  4059a6:	01 01                	add    DWORD PTR [ecx],eax
  4059a8:	01 01                	add    DWORD PTR [ecx],eax
  4059aa:	01 00                	add    DWORD PTR [eax],eax
  4059ac:	00 01                	add    BYTE PTR [ecx],al
  4059ae:	00 00                	add    BYTE PTR [eax],al
  4059b0:	00 00                	add    BYTE PTR [eax],al
  4059b2:	00 01                	add    BYTE PTR [ecx],al
  4059b4:	00 00                	add    BYTE PTR [eax],al
  4059b6:	01 01                	add    DWORD PTR [ecx],eax
  4059b8:	01 01                	add    DWORD PTR [ecx],eax
  4059ba:	01 01                	add    DWORD PTR [ecx],eax
  4059bc:	01 01                	add    DWORD PTR [ecx],eax
  4059be:	01 01                	add    DWORD PTR [ecx],eax
  4059c0:	00 01                	add    BYTE PTR [ecx],al
  4059c2:	01 01                	add    DWORD PTR [ecx],eax
  4059c4:	01 01                	add    DWORD PTR [ecx],eax
  4059c6:	01 01                	add    DWORD PTR [ecx],eax
  4059c8:	00 00                	add    BYTE PTR [eax],al
  4059ca:	01 00                	add    DWORD PTR [eax],eax
  4059cc:	00 00                	add    BYTE PTR [eax],al
  4059ce:	55                   	push   ebp
  4059cf:	8b ec                	mov    ebp,esp
  4059d1:	83 ec 58             	sub    esp,0x58
  4059d4:	56                   	push   esi
  4059d5:	8d 45 a8             	lea    eax,[ebp-0x58]
  4059d8:	50                   	push   eax
  4059d9:	6a 56                	push   0x56
  4059db:	6a 0c                	push   0xc
  4059dd:	68 3b 06 00 00       	push   0x63b
  4059e2:	68 c0 28 41 00       	push   0x4128c0
  4059e7:	e8 a9 0b 00 00       	call   0x406595
  4059ec:	83 c4 14             	add    esp,0x14
  4059ef:	33 c0                	xor    eax,eax
  4059f1:	66 89 45 fe          	mov    WORD PTR [ebp-0x2],ax
  4059f5:	33 f6                	xor    esi,esi
  4059f7:	8d 45 a8             	lea    eax,[ebp-0x58]
  4059fa:	50                   	push   eax
  4059fb:	56                   	push   esi
  4059fc:	56                   	push   esi
  4059fd:	ff 15 a4 28 41 00    	call   DWORD PTR ds:0x4128a4
  405a03:	a3 68 30 41 00       	mov    ds:0x413068,eax
  405a08:	85 c0                	test   eax,eax
  405a0a:	74 0e                	je     0x405a1a
  405a0c:	ff 15 24 28 41 00    	call   DWORD PTR ds:0x412824
  405a12:	3d b7 00 00 00       	cmp    eax,0xb7
  405a17:	75 01                	jne    0x405a1a
  405a19:	46                   	inc    esi
  405a1a:	8b c6                	mov    eax,esi
  405a1c:	5e                   	pop    esi
  405a1d:	8b e5                	mov    esp,ebp
  405a1f:	5d                   	pop    ebp
  405a20:	c3                   	ret    
  405a21:	55                   	push   ebp
  405a22:	8b ec                	mov    ebp,esp
  405a24:	83 ec 24             	sub    esp,0x24
  405a27:	8d 45 dc             	lea    eax,[ebp-0x24]
  405a2a:	50                   	push   eax
  405a2b:	ff 15 50 27 41 00    	call   DWORD PTR ds:0x412750
  405a31:	33 c0                	xor    eax,eax
  405a33:	66 83 7d dc 09       	cmp    WORD PTR [ebp-0x24],0x9
  405a38:	0f 94 c0             	sete   al
  405a3b:	8b e5                	mov    esp,ebp
  405a3d:	5d                   	pop    ebp
  405a3e:	c3                   	ret    
  405a3f:	ff 25 24 28 41 00    	jmp    DWORD PTR ds:0x412824
  405a45:	55                   	push   ebp
  405a46:	8b ec                	mov    ebp,esp
  405a48:	ff 75 08             	push   DWORD PTR [ebp+0x8]
  405a4b:	ff 15 dc 25 41 00    	call   DWORD PTR ds:0x4125dc
  405a51:	5d                   	pop    ebp
  405a52:	c3                   	ret    
  405a53:	55                   	push   ebp
  405a54:	8b ec                	mov    ebp,esp
  405a56:	51                   	push   ecx
  405a57:	51                   	push   ecx
  405a58:	8d 45 fc             	lea    eax,[ebp-0x4]
  405a5b:	57                   	push   edi
  405a5c:	50                   	push   eax
  405a5d:	e8 d6 f9 ff ff       	call   0x405438
  405a62:	8b f8                	mov    edi,eax
  405a64:	59                   	pop    ecx
  405a65:	85 ff                	test   edi,edi
  405a67:	74 7d                	je     0x405ae6
  405a69:	56                   	push   esi
  405a6a:	33 f6                	xor    esi,esi
  405a6c:	46                   	inc    esi
  405a6d:	39 75 fc             	cmp    DWORD PTR [ebp-0x4],esi
  405a70:	7f 0b                	jg     0x405a7d
  405a72:	57                   	push   edi
  405a73:	ff 15 c8 26 41 00    	call   DWORD PTR ds:0x4126c8
  405a79:	33 c0                	xor    eax,eax
  405a7b:	eb 68                	jmp    0x405ae5
  405a7d:	53                   	push   ebx
  405a7e:	33 db                	xor    ebx,ebx
  405a80:	39 75 fc             	cmp    DWORD PTR [ebp-0x4],esi
  405a83:	7e 56                	jle    0x405adb
  405a85:	ff 34 b7             	push   DWORD PTR [edi+esi*4]
  405a88:	e8 76 0f 00 00       	call   0x406a03
  405a8d:	43                   	inc    ebx
  405a8e:	03 d8                	add    ebx,eax
  405a90:	46                   	inc    esi
  405a91:	59                   	pop    ecx
  405a92:	3b 75 fc             	cmp    esi,DWORD PTR [ebp-0x4]
  405a95:	7c ee                	jl     0x405a85
  405a97:	6a 01                	push   0x1
  405a99:	5e                   	pop    esi
  405a9a:	85 db                	test   ebx,ebx
  405a9c:	74 3d                	je     0x405adb
  405a9e:	8d 04 1b             	lea    eax,[ebx+ebx*1]
  405aa1:	50                   	push   eax
  405aa2:	e8 cd f6 ff ff       	call   0x405174
  405aa7:	8b d8                	mov    ebx,eax
  405aa9:	59                   	pop    ecx
  405aaa:	85 db                	test   ebx,ebx
  405aac:	74 22                	je     0x405ad0
  405aae:	39 75 fc             	cmp    DWORD PTR [ebp-0x4],esi
  405ab1:	7e 1d                	jle    0x405ad0
  405ab3:	ff 34 b7             	push   DWORD PTR [edi+esi*4]
  405ab6:	53                   	push   ebx
  405ab7:	e8 bc 0d 00 00       	call   0x406878
  405abc:	68 a0 e1 40 00       	push   0x40e1a0
  405ac1:	53                   	push   ebx
  405ac2:	e8 b1 0d 00 00       	call   0x406878
  405ac7:	83 c4 10             	add    esp,0x10
  405aca:	46                   	inc    esi
  405acb:	3b 75 fc             	cmp    esi,DWORD PTR [ebp-0x4]
  405ace:	7c e3                	jl     0x405ab3
  405ad0:	57                   	push   edi
  405ad1:	ff 15 c8 26 41 00    	call   DWORD PTR ds:0x4126c8
  405ad7:	8b c3                	mov    eax,ebx
  405ad9:	eb 09                	jmp    0x405ae4
  405adb:	57                   	push   edi
  405adc:	ff 15 c8 26 41 00    	call   DWORD PTR ds:0x4126c8
  405ae2:	33 c0                	xor    eax,eax
  405ae4:	5b                   	pop    ebx
  405ae5:	5e                   	pop    esi
  405ae6:	5f                   	pop    edi
  405ae7:	8b e5                	mov    esp,ebp
  405ae9:	5d                   	pop    ebp
  405aea:	c3                   	ret    
  405aeb:	55                   	push   ebp
  405aec:	8b ec                	mov    ebp,esp
  405aee:	83 ec 24             	sub    esp,0x24
  405af1:	8d 45 dc             	lea    eax,[ebp-0x24]
  405af4:	50                   	push   eax
  405af5:	ff 15 c4 27 41 00    	call   DWORD PTR ds:0x4127c4
  405afb:	8b 45 f0             	mov    eax,DWORD PTR [ebp-0x10]
  405afe:	8b e5                	mov    esp,ebp
  405b00:	5d                   	pop    ebp
  405b01:	c3                   	ret    
  405b02:	64 8b 0d 30 00 00 00 	mov    ecx,DWORD PTR fs:0x30
  405b09:	0f b6 81 a4 00 00 00 	movzx  eax,BYTE PTR [ecx+0xa4]
  405b10:	0f b6 89 a8 00 00 00 	movzx  ecx,BYTE PTR [ecx+0xa8]
  405b17:	66 c1 e0 08          	shl    ax,0x8
  405b1b:	66 0b c1             	or     ax,cx
  405b1e:	c3                   	ret    
  405b1f:	55                   	push   ebp
  405b20:	8b ec                	mov    ebp,esp
  405b22:	81 ec 2c 02 00 00    	sub    esp,0x22c
  405b28:	56                   	push   esi
  405b29:	57                   	push   edi
  405b2a:	33 ff                	xor    edi,edi
  405b2c:	57                   	push   edi
  405b2d:	6a 02                	push   0x2
  405b2f:	ff 15 64 27 41 00    	call   DWORD PTR ds:0x412764
  405b35:	8b f0                	mov    esi,eax
  405b37:	83 fe ff             	cmp    esi,0xffffffff
  405b3a:	75 04                	jne    0x405b40
  405b3c:	33 c0                	xor    eax,eax
  405b3e:	eb 50                	jmp    0x405b90
  405b40:	8d 85 d4 fd ff ff    	lea    eax,[ebp-0x22c]
  405b46:	c7 85 d4 fd ff ff 2c 	mov    DWORD PTR [ebp-0x22c],0x22c
  405b4d:	02 00 00 
  405b50:	50                   	push   eax
  405b51:	56                   	push   esi
  405b52:	ff 15 dc 26 41 00    	call   DWORD PTR ds:0x4126dc
  405b58:	eb 29                	jmp    0x405b83
  405b5a:	8d 85 d4 fd ff ff    	lea    eax,[ebp-0x22c]
  405b60:	50                   	push   eax
  405b61:	ff 75 0c             	push   DWORD PTR [ebp+0xc]
  405b64:	ff 55 10             	call   DWORD PTR [ebp+0x10]
  405b67:	8b f8                	mov    edi,eax
  405b69:	59                   	pop    ecx
  405b6a:	59                   	pop    ecx
  405b6b:	85 ff                	test   edi,edi
  405b6d:	74 06                	je     0x405b75
  405b6f:	83 7d 08 00          	cmp    DWORD PTR [ebp+0x8],0x0
  405b73:	75 12                	jne    0x405b87
  405b75:	8d 85 d4 fd ff ff    	lea    eax,[ebp-0x22c]
  405b7b:	50                   	push   eax
  405b7c:	56                   	push   esi
  405b7d:	ff 15 a8 26 41 00    	call   DWORD PTR ds:0x4126a8
  405b83:	85 c0                	test   eax,eax
  405b85:	75 d3                	jne    0x405b5a
  405b87:	56                   	push   esi
  405b88:	e8 89 f8 ff ff       	call   0x405416
  405b8d:	59                   	pop    ecx
  405b8e:	8b c7                	mov    eax,edi
  405b90:	5f                   	pop    edi
  405b91:	5e                   	pop    esi
  405b92:	8b e5                	mov    esp,ebp
  405b94:	5d                   	pop    ebp
  405b95:	c3                   	ret    
  405b96:	55                   	push   ebp
  405b97:	8b ec                	mov    ebp,esp
  405b99:	ff 75 0c             	push   DWORD PTR [ebp+0xc]
  405b9c:	ff 75 08             	push   DWORD PTR [ebp+0x8]
  405b9f:	e8 31 05 00 00       	call   0x4060d5
  405ba4:	59                   	pop    ecx
  405ba5:	59                   	pop    ecx
  405ba6:	85 c0                	test   eax,eax
  405ba8:	74 05                	je     0x405baf
  405baa:	33 c0                	xor    eax,eax
  405bac:	40                   	inc    eax
  405bad:	5d                   	pop    ebp
  405bae:	c3                   	ret    
  405baf:	ff 75 0c             	push   DWORD PTR [ebp+0xc]
  405bb2:	ff 75 08             	push   DWORD PTR [ebp+0x8]
  405bb5:	e8 4d 00 00 00       	call   0x405c07
  405bba:	59                   	pop    ecx
  405bbb:	59                   	pop    ecx
  405bbc:	85 c0                	test   eax,eax
  405bbe:	75 ea                	jne    0x405baa
  405bc0:	5d                   	pop    ebp
  405bc1:	e9 b5 03 00 00       	jmp    0x405f7b
  405bc6:	55                   	push   ebp
  405bc7:	8b ec                	mov    ebp,esp
  405bc9:	56                   	push   esi
  405bca:	8b 75 08             	mov    esi,DWORD PTR [ebp+0x8]
  405bcd:	3b 75 0c             	cmp    esi,DWORD PTR [ebp+0xc]
  405bd0:	76 04                	jbe    0x405bd6
  405bd2:	33 c0                	xor    eax,eax
  405bd4:	eb 2e                	jmp    0x405c04
  405bd6:	8d 45 08             	lea    eax,[ebp+0x8]
  405bd9:	6a 04                	push   0x4
  405bdb:	50                   	push   eax
  405bdc:	e8 e6 15 00 00       	call   0x4071c7
  405be1:	59                   	pop    ecx
  405be2:	59                   	pop    ecx
  405be3:	85 c0                	test   eax,eax
  405be5:	74 eb                	je     0x405bd2
  405be7:	8b 45 0c             	mov    eax,DWORD PTR [ebp+0xc]
  405bea:	2b c6                	sub    eax,esi
  405bec:	8d 48 01             	lea    ecx,[eax+0x1]
  405bef:	85 f6                	test   esi,esi
  405bf1:	75 07                	jne    0x405bfa
  405bf3:	83 7d 0c ff          	cmp    DWORD PTR [ebp+0xc],0xffffffff
  405bf7:	0f 44 c8             	cmove  ecx,eax
  405bfa:	8b 45 08             	mov    eax,DWORD PTR [ebp+0x8]
  405bfd:	33 d2                	xor    edx,edx
  405bff:	f7 f1                	div    ecx
  405c01:	8d 04 16             	lea    eax,[esi+edx*1]
  405c04:	5e                   	pop    esi
  405c05:	5d                   	pop    ebp
  405c06:	c3                   	ret    
  405c07:	55                   	push   ebp
  405c08:	8b ec                	mov    ebp,esp
  405c0a:	83 ec 10             	sub    esp,0x10
  405c0d:	83 3d 74 30 41 00 00 	cmp    DWORD PTR ds:0x413074,0x0
  405c14:	53                   	push   ebx
  405c15:	56                   	push   esi
  405c16:	75 3a                	jne    0x405c52
  405c18:	57                   	push   edi
  405c19:	33 c0                	xor    eax,eax
  405c1b:	8d 7d f0             	lea    edi,[ebp-0x10]
  405c1e:	40                   	inc    eax
  405c1f:	33 c9                	xor    ecx,ecx
  405c21:	53                   	push   ebx
  405c22:	0f a2                	cpuid  
  405c24:	8b f3                	mov    esi,ebx
  405c26:	5b                   	pop    ebx
  405c27:	89 07                	mov    DWORD PTR [edi],eax
  405c29:	a1 78 30 41 00       	mov    eax,ds:0x413078
  405c2e:	89 77 04             	mov    DWORD PTR [edi+0x4],esi
  405c31:	89 4f 08             	mov    DWORD PTR [edi+0x8],ecx
  405c34:	89 57 0c             	mov    DWORD PTR [edi+0xc],edx
  405c37:	f7 45 f8 00 00 00 40 	test   DWORD PTR [ebp-0x8],0x40000000
  405c3e:	6a 01                	push   0x1
  405c40:	59                   	pop    ecx
  405c41:	0f 45 c1             	cmovne eax,ecx
  405c44:	89 0d 74 30 41 00    	mov    DWORD PTR ds:0x413074,ecx
  405c4a:	a3 78 30 41 00       	mov    ds:0x413078,eax
  405c4f:	5f                   	pop    edi
  405c50:	eb 05                	jmp    0x405c57
  405c52:	a1 78 30 41 00       	mov    eax,ds:0x413078
  405c57:	85 c0                	test   eax,eax
  405c59:	74 19                	je     0x405c74
  405c5b:	33 c9                	xor    ecx,ecx
  405c5d:	39 4d 0c             	cmp    DWORD PTR [ebp+0xc],ecx
  405c60:	76 12                	jbe    0x405c74
  405c62:	8b 75 08             	mov    esi,DWORD PTR [ebp+0x8]
  405c65:	33 d2                	xor    edx,edx
  405c67:	0f c7 f3             	rdrand ebx
  405c6a:	72 0e                	jb     0x405c7a
  405c6c:	42                   	inc    edx
  405c6d:	83 fa 10             	cmp    edx,0x10
  405c70:	7c f5                	jl     0x405c67
  405c72:	33 c0                	xor    eax,eax
  405c74:	5e                   	pop    esi
  405c75:	5b                   	pop    ebx
  405c76:	8b e5                	mov    esp,ebp
  405c78:	5d                   	pop    ebp
  405c79:	c3                   	ret    
  405c7a:	88 1c 31             	mov    BYTE PTR [ecx+esi*1],bl
  405c7d:	41                   	inc    ecx
  405c7e:	3b 4d 0c             	cmp    ecx,DWORD PTR [ebp+0xc]
  405c81:	72 e2                	jb     0x405c65
  405c83:	eb ef                	jmp    0x405c74
  405c85:	55                   	push   ebp
  405c86:	8b ec                	mov    ebp,esp
  405c88:	6a 13                	push   0x13
  405c8a:	e8 a7 1f 00 00       	call   0x407c36
  405c8f:	59                   	pop    ecx
  405c90:	85 c0                	test   eax,eax
  405c92:	74 1d                	je     0x405cb1
  405c94:	83 7d 08 00          	cmp    DWORD PTR [ebp+0x8],0x0
  405c98:	74 0a                	je     0x405ca4
  405c9a:	6a 01                	push   0x1
  405c9c:	ff 15 28 28 41 00    	call   DWORD PTR ds:0x412828
  405ca2:	5d                   	pop    ebp
  405ca3:	c3                   	ret    
  405ca4:	68 00 00 01 00       	push   0x10000
  405ca9:	6a 12                	push   0x12
  405cab:	ff 15 c0 26 41 00    	call   DWORD PTR ds:0x4126c0
  405cb1:	5d                   	pop    ebp
  405cb2:	c3                   	ret    
  405cb3:	55                   	push   ebp
  405cb4:	8b ec                	mov    ebp,esp
  405cb6:	51                   	push   ecx
  405cb7:	53                   	push   ebx
  405cb8:	56                   	push   esi
  405cb9:	8d 45 fc             	lea    eax,[ebp-0x4]
  405cbc:	33 db                	xor    ebx,ebx
  405cbe:	50                   	push   eax
  405cbf:	6a 01                	push   0x1
  405cc1:	53                   	push   ebx
  405cc2:	ff 75 0c             	push   DWORD PTR [ebp+0xc]
  405cc5:	8b f3                	mov    esi,ebx
  405cc7:	ff 75 08             	push   DWORD PTR [ebp+0x8]
  405cca:	ff 15 b4 27 41 00    	call   DWORD PTR ds:0x4127b4
  405cd0:	85 c0                	test   eax,eax
  405cd2:	75 56                	jne    0x405d2a
  405cd4:	57                   	push   edi
  405cd5:	8b 7d 18             	mov    edi,DWORD PTR [ebp+0x18]
  405cd8:	57                   	push   edi
  405cd9:	53                   	push   ebx
  405cda:	ff 75 14             	push   DWORD PTR [ebp+0x14]
  405cdd:	53                   	push   ebx
  405cde:	ff 75 10             	push   DWORD PTR [ebp+0x10]
  405ce1:	ff 75 fc             	push   DWORD PTR [ebp-0x4]
  405ce4:	ff 15 0c 26 41 00    	call   DWORD PTR ds:0x41260c
  405cea:	85 c0                	test   eax,eax
  405cec:	75 32                	jne    0x405d20
  405cee:	83 3f 02             	cmp    DWORD PTR [edi],0x2
  405cf1:	76 2d                	jbe    0x405d20
  405cf3:	ff 37                	push   DWORD PTR [edi]
  405cf5:	e8 7a f4 ff ff       	call   0x405174
  405cfa:	8b f0                	mov    esi,eax
  405cfc:	59                   	pop    ecx
  405cfd:	85 f6                	test   esi,esi
  405cff:	74 1f                	je     0x405d20
  405d01:	57                   	push   edi
  405d02:	56                   	push   esi
  405d03:	ff 75 14             	push   DWORD PTR [ebp+0x14]
  405d06:	53                   	push   ebx
  405d07:	ff 75 10             	push   DWORD PTR [ebp+0x10]
  405d0a:	ff 75 fc             	push   DWORD PTR [ebp-0x4]
  405d0d:	ff 15 0c 26 41 00    	call   DWORD PTR ds:0x41260c
  405d13:	85 c0                	test   eax,eax
  405d15:	74 09                	je     0x405d20
  405d17:	56                   	push   esi
  405d18:	e8 a4 f4 ff ff       	call   0x4051c1
  405d1d:	59                   	pop    ecx
  405d1e:	8b f3                	mov    esi,ebx
  405d20:	ff 75 fc             	push   DWORD PTR [ebp-0x4]
  405d23:	ff 15 98 26 41 00    	call   DWORD PTR ds:0x412698
  405d29:	5f                   	pop    edi
  405d2a:	8b c6                	mov    eax,esi
  405d2c:	5e                   	pop    esi
  405d2d:	5b                   	pop    ebx
  405d2e:	8b e5                	mov    esp,ebp
  405d30:	5d                   	pop    ebp
  405d31:	c3                   	ret    
  405d32:	55                   	push   ebp
  405d33:	8b ec                	mov    ebp,esp
  405d35:	51                   	push   ecx
  405d36:	56                   	push   esi
  405d37:	33 f6                	xor    esi,esi
  405d39:	8d 45 fc             	lea    eax,[ebp-0x4]
  405d3c:	56                   	push   esi
  405d3d:	50                   	push   eax
  405d3e:	56                   	push   esi
  405d3f:	6a 02                	push   0x2
  405d41:	56                   	push   esi
  405d42:	56                   	push   esi
  405d43:	56                   	push   esi
  405d44:	ff 75 0c             	push   DWORD PTR [ebp+0xc]
  405d47:	ff 75 08             	push   DWORD PTR [ebp+0x8]
  405d4a:	ff 15 80 28 41 00    	call   DWORD PTR ds:0x412880
  405d50:	85 c0                	test   eax,eax
  405d52:	75 27                	jne    0x405d7b
  405d54:	ff 75 1c             	push   DWORD PTR [ebp+0x1c]
  405d57:	ff 75 18             	push   DWORD PTR [ebp+0x18]
  405d5a:	ff 75 14             	push   DWORD PTR [ebp+0x14]
  405d5d:	56                   	push   esi
  405d5e:	ff 75 10             	push   DWORD PTR [ebp+0x10]
  405d61:	ff 75 fc             	push   DWORD PTR [ebp-0x4]
  405d64:	ff 15 54 27 41 00    	call   DWORD PTR ds:0x412754
  405d6a:	ff 75 fc             	push   DWORD PTR [ebp-0x4]
  405d6d:	33 c9                	xor    ecx,ecx
  405d6f:	41                   	inc    ecx
  405d70:	85 c0                	test   eax,eax
  405d72:	0f 44 f1             	cmove  esi,ecx
  405d75:	ff 15 98 26 41 00    	call   DWORD PTR ds:0x412698
  405d7b:	8b c6                	mov    eax,esi
  405d7d:	5e                   	pop    esi
  405d7e:	8b e5                	mov    esp,ebp
  405d80:	5d                   	pop    ebp
  405d81:	c3                   	ret    
  405d82:	ff 35 68 30 41 00    	push   DWORD PTR ds:0x413068
  405d88:	ff 15 8c 28 41 00    	call   DWORD PTR ds:0x41288c
  405d8e:	ff 35 68 30 41 00    	push   DWORD PTR ds:0x413068
  405d94:	e8 7d f6 ff ff       	call   0x405416
  405d99:	59                   	pop    ecx
  405d9a:	c3                   	ret    
  405d9b:	55                   	push   ebp
  405d9c:	8b ec                	mov    ebp,esp
  405d9e:	ff 75 08             	push   DWORD PTR [ebp+0x8]
  405da1:	ff 15 40 28 41 00    	call   DWORD PTR ds:0x412840
  405da7:	5d                   	pop    ebp
  405da8:	c3                   	ret    
  405da9:	55                   	push   ebp
  405daa:	8b ec                	mov    ebp,esp
  405dac:	ff 75 08             	push   DWORD PTR [ebp+0x8]
  405daf:	ff 15 60 26 41 00    	call   DWORD PTR ds:0x412660
  405db5:	f7 d8                	neg    eax
  405db7:	1b c0                	sbb    eax,eax
  405db9:	f7 d8                	neg    eax
  405dbb:	5d                   	pop    ebp
  405dbc:	c3                   	ret    
  405dbd:	6a 04                	push   0x4
  405dbf:	68 00 e2 40 00       	push   0x40e200
  405dc4:	6a 00                	push   0x0
  405dc6:	ff 15 bc 28 41 00    	call   DWORD PTR ds:0x4128bc
  405dcc:	c3                   	ret    
  405dcd:	55                   	push   ebp
  405dce:	8b ec                	mov    ebp,esp
  405dd0:	83 ec 1c             	sub    esp,0x1c
  405dd3:	56                   	push   esi
  405dd4:	68 2c 00 01 00       	push   0x1002c
  405dd9:	ff 75 0c             	push   DWORD PTR [ebp+0xc]
  405ddc:	ff 75 08             	push   DWORD PTR [ebp+0x8]
  405ddf:	ff 15 a4 26 41 00    	call   DWORD PTR ds:0x4126a4
  405de5:	8b f0                	mov    esi,eax
  405de7:	85 f6                	test   esi,esi
  405de9:	74 56                	je     0x405e41
  405deb:	53                   	push   ebx
  405dec:	57                   	push   edi
  405ded:	56                   	push   esi
  405dee:	ff 75 08             	push   DWORD PTR [ebp+0x8]
  405df1:	e8 50 00 00 00       	call   0x405e46
  405df6:	59                   	pop    ecx
  405df7:	59                   	pop    ecx
  405df8:	6a 06                	push   0x6
  405dfa:	59                   	pop    ecx
  405dfb:	33 c0                	xor    eax,eax
  405dfd:	8d 7d e8             	lea    edi,[ebp-0x18]
  405e00:	33 db                	xor    ebx,ebx
  405e02:	89 5d e4             	mov    DWORD PTR [ebp-0x1c],ebx
  405e05:	f3 ab                	rep stos DWORD PTR es:[edi],eax
  405e07:	8d 45 e4             	lea    eax,[ebp-0x1c]
  405e0a:	50                   	push   eax
  405e0b:	6a 01                	push   0x1
  405e0d:	56                   	push   esi
  405e0e:	ff 15 b4 26 41 00    	call   DWORD PTR ds:0x4126b4
  405e14:	85 c0                	test   eax,eax
  405e16:	75 0b                	jne    0x405e23
  405e18:	56                   	push   esi
  405e19:	ff 15 40 28 41 00    	call   DWORD PTR ds:0x412840
  405e1f:	33 c0                	xor    eax,eax
  405e21:	eb 1c                	jmp    0x405e3f
  405e23:	39 5d 10             	cmp    DWORD PTR [ebp+0x10],ebx
  405e26:	74 0b                	je     0x405e33
  405e28:	56                   	push   esi
  405e29:	e8 7b ff ff ff       	call   0x405da9
  405e2e:	59                   	pop    ecx
  405e2f:	85 c0                	test   eax,eax
  405e31:	74 03                	je     0x405e36
  405e33:	33 db                	xor    ebx,ebx
  405e35:	43                   	inc    ebx
  405e36:	56                   	push   esi
  405e37:	ff 15 40 28 41 00    	call   DWORD PTR ds:0x412840
  405e3d:	8b c3                	mov    eax,ebx
  405e3f:	5f                   	pop    edi
  405e40:	5b                   	pop    ebx
  405e41:	5e                   	pop    esi
  405e42:	8b e5                	mov    esp,ebp
  405e44:	5d                   	pop    ebp
  405e45:	c3                   	ret    
  405e46:	55                   	push   ebp
  405e47:	8b ec                	mov    ebp,esp
  405e49:	83 ec 5c             	sub    esp,0x5c
  405e4c:	56                   	push   esi
  405e4d:	57                   	push   edi
  405e4e:	ff 15 fc 25 41 00    	call   DWORD PTR ds:0x4125fc
  405e54:	89 45 ec             	mov    DWORD PTR [ebp-0x14],eax
  405e57:	33 f6                	xor    esi,esi
  405e59:	8d 45 f8             	lea    eax,[ebp-0x8]
  405e5c:	33 ff                	xor    edi,edi
  405e5e:	50                   	push   eax
  405e5f:	8d 45 fc             	lea    eax,[ebp-0x4]
  405e62:	47                   	inc    edi
  405e63:	50                   	push   eax
  405e64:	56                   	push   esi
  405e65:	56                   	push   esi
  405e66:	57                   	push   edi
  405e67:	ff 75 0c             	push   DWORD PTR [ebp+0xc]
  405e6a:	ff 15 74 26 41 00    	call   DWORD PTR ds:0x412674
  405e70:	85 c0                	test   eax,eax
  405e72:	74 07                	je     0x405e7b
  405e74:	8b c7                	mov    eax,edi
  405e76:	e9 fa 00 00 00       	jmp    0x405f75
  405e7b:	ff 15 24 28 41 00    	call   DWORD PTR ds:0x412824
  405e81:	3d ea 00 00 00       	cmp    eax,0xea
  405e86:	74 07                	je     0x405e8f
  405e88:	33 c0                	xor    eax,eax
  405e8a:	e9 e6 00 00 00       	jmp    0x405f75
  405e8f:	53                   	push   ebx
  405e90:	ff 75 fc             	push   DWORD PTR [ebp-0x4]
  405e93:	e8 dc f2 ff ff       	call   0x405174
  405e98:	8b d8                	mov    ebx,eax
  405e9a:	59                   	pop    ecx
  405e9b:	85 db                	test   ebx,ebx
  405e9d:	74 6e                	je     0x405f0d
  405e9f:	8d 45 f8             	lea    eax,[ebp-0x8]
  405ea2:	50                   	push   eax
  405ea3:	8d 45 fc             	lea    eax,[ebp-0x4]
  405ea6:	50                   	push   eax
  405ea7:	ff 75 fc             	push   DWORD PTR [ebp-0x4]
  405eaa:	53                   	push   ebx
  405eab:	57                   	push   edi
  405eac:	ff 75 0c             	push   DWORD PTR [ebp+0xc]
  405eaf:	ff 15 74 26 41 00    	call   DWORD PTR ds:0x412674
  405eb5:	85 c0                	test   eax,eax
  405eb7:	74 54                	je     0x405f0d
  405eb9:	89 75 f4             	mov    DWORD PTR [ebp-0xc],esi
  405ebc:	39 75 f8             	cmp    DWORD PTR [ebp-0x8],esi
  405ebf:	0f 86 a6 00 00 00    	jbe    0x405f6b
  405ec5:	8b d3                	mov    edx,ebx
  405ec7:	89 5d f0             	mov    DWORD PTR [ebp-0x10],ebx
  405eca:	6a 09                	push   0x9
  405ecc:	59                   	pop    ecx
  405ecd:	8b f2                	mov    esi,edx
  405ecf:	8d 7d a4             	lea    edi,[ebp-0x5c]
  405ed2:	6a 2c                	push   0x2c
  405ed4:	f3 a5                	rep movs DWORD PTR es:[edi],DWORD PTR ds:[esi]
  405ed6:	ff 75 a4             	push   DWORD PTR [ebp-0x5c]
  405ed9:	ff 75 08             	push   DWORD PTR [ebp+0x8]
  405edc:	ff 15 a4 26 41 00    	call   DWORD PTR ds:0x4126a4
  405ee2:	8b f0                	mov    esi,eax
  405ee4:	85 f6                	test   esi,esi
  405ee6:	74 25                	je     0x405f0d
  405ee8:	56                   	push   esi
  405ee9:	ff 75 08             	push   DWORD PTR [ebp+0x8]
  405eec:	e8 55 ff ff ff       	call   0x405e46
  405ef1:	59                   	pop    ecx
  405ef2:	59                   	pop    ecx
  405ef3:	8d 45 c8             	lea    eax,[ebp-0x38]
  405ef6:	33 ff                	xor    edi,edi
  405ef8:	50                   	push   eax
  405ef9:	47                   	inc    edi
  405efa:	57                   	push   edi
  405efb:	56                   	push   esi
  405efc:	ff 15 b4 26 41 00    	call   DWORD PTR ds:0x4126b4
  405f02:	85 c0                	test   eax,eax
  405f04:	75 40                	jne    0x405f46
  405f06:	56                   	push   esi
  405f07:	ff 15 40 28 41 00    	call   DWORD PTR ds:0x412840
  405f0d:	33 c0                	xor    eax,eax
  405f0f:	eb 63                	jmp    0x405f74
  405f11:	ff 75 e0             	push   DWORD PTR [ebp-0x20]
  405f14:	ff 15 d4 26 41 00    	call   DWORD PTR ds:0x4126d4
  405f1a:	8d 45 fc             	lea    eax,[ebp-0x4]
  405f1d:	50                   	push   eax
  405f1e:	6a 24                	push   0x24
  405f20:	8d 45 c8             	lea    eax,[ebp-0x38]
  405f23:	50                   	push   eax
  405f24:	6a 00                	push   0x0
  405f26:	56                   	push   esi
  405f27:	ff 15 9c 25 41 00    	call   DWORD PTR ds:0x41259c
  405f2d:	85 c0                	test   eax,eax
  405f2f:	74 dc                	je     0x405f0d
  405f31:	39 7d cc             	cmp    DWORD PTR [ebp-0x34],edi
  405f34:	74 15                	je     0x405f4b
  405f36:	ff 15 fc 25 41 00    	call   DWORD PTR ds:0x4125fc
  405f3c:	2b 45 ec             	sub    eax,DWORD PTR [ebp-0x14]
  405f3f:	3d 30 75 00 00       	cmp    eax,0x7530
  405f44:	77 c0                	ja     0x405f06
  405f46:	39 7d cc             	cmp    DWORD PTR [ebp-0x34],edi
  405f49:	75 c6                	jne    0x405f11
  405f4b:	56                   	push   esi
  405f4c:	ff 15 40 28 41 00    	call   DWORD PTR ds:0x412840
  405f52:	8b 45 f4             	mov    eax,DWORD PTR [ebp-0xc]
  405f55:	8b 55 f0             	mov    edx,DWORD PTR [ebp-0x10]
  405f58:	40                   	inc    eax
  405f59:	83 c2 24             	add    edx,0x24
  405f5c:	89 45 f4             	mov    DWORD PTR [ebp-0xc],eax
  405f5f:	89 55 f0             	mov    DWORD PTR [ebp-0x10],edx
  405f62:	3b 45 f8             	cmp    eax,DWORD PTR [ebp-0x8]
  405f65:	0f 82 5f ff ff ff    	jb     0x405eca
  405f6b:	53                   	push   ebx
  405f6c:	e8 50 f2 ff ff       	call   0x4051c1
  405f71:	59                   	pop    ecx
  405f72:	8b c7                	mov    eax,edi
  405f74:	5b                   	pop    ebx
  405f75:	5f                   	pop    edi
  405f76:	5e                   	pop    esi
  405f77:	8b e5                	mov    esp,ebp
  405f79:	5d                   	pop    ebp
  405f7a:	c3                   	ret    
  405f7b:	55                   	push   ebp
  405f7c:	8b ec                	mov    ebp,esp
  405f7e:	83 3d 70 30 41 00 00 	cmp    DWORD PTR ds:0x413070,0x0
  405f85:	75 26                	jne    0x405fad
  405f87:	68 00 00 00 f0       	push   0xf0000000
  405f8c:	6a 01                	push   0x1
  405f8e:	6a 00                	push   0x0
  405f90:	6a 00                	push   0x0
  405f92:	68 6c 30 41 00       	push   0x41306c
  405f97:	ff 15 a4 25 41 00    	call   DWORD PTR ds:0x4125a4
  405f9d:	85 c0                	test   eax,eax
  405f9f:	75 02                	jne    0x405fa3
  405fa1:	5d                   	pop    ebp
  405fa2:	c3                   	ret    
  405fa3:	c7 05 70 30 41 00 01 	mov    DWORD PTR ds:0x413070,0x1
  405faa:	00 00 00 
  405fad:	ff 75 08             	push   DWORD PTR [ebp+0x8]
  405fb0:	ff 75 0c             	push   DWORD PTR [ebp+0xc]
  405fb3:	ff 35 6c 30 41 00    	push   DWORD PTR ds:0x41306c
  405fb9:	ff 15 c0 27 41 00    	call   DWORD PTR ds:0x4127c0
  405fbf:	f7 d8                	neg    eax
  405fc1:	1b c0                	sbb    eax,eax
  405fc3:	f7 d8                	neg    eax
  405fc5:	5d                   	pop    ebp
  405fc6:	c3                   	ret    
  405fc7:	55                   	push   ebp
  405fc8:	8b ec                	mov    ebp,esp
  405fca:	ff 75 08             	push   DWORD PTR [ebp+0x8]
  405fcd:	ff 15 d4 26 41 00    	call   DWORD PTR ds:0x4126d4
  405fd3:	5d                   	pop    ebp
  405fd4:	c3                   	ret    
  405fd5:	55                   	push   ebp
  405fd6:	8b ec                	mov    ebp,esp
  405fd8:	51                   	push   ecx
  405fd9:	56                   	push   esi
  405fda:	e8 63 03 00 00       	call   0x406342
  405fdf:	8b f0                	mov    esi,eax
  405fe1:	33 c0                	xor    eax,eax
  405fe3:	85 f6                	test   esi,esi
  405fe5:	74 28                	je     0x40600f
  405fe7:	33 c9                	xor    ecx,ecx
  405fe9:	66 89 46 06          	mov    WORD PTR [esi+0x6],ax
  405fed:	51                   	push   ecx
  405fee:	51                   	push   ecx
  405fef:	51                   	push   ecx
  405ff0:	51                   	push   ecx
  405ff1:	8d 45 fc             	lea    eax,[ebp-0x4]
  405ff4:	50                   	push   eax
  405ff5:	51                   	push   ecx
  405ff6:	51                   	push   ecx
  405ff7:	56                   	push   esi
  405ff8:	ff 15 94 25 41 00    	call   DWORD PTR ds:0x412594
  405ffe:	f7 d8                	neg    eax
  406000:	56                   	push   esi
  406001:	1b c0                	sbb    eax,eax
  406003:	21 45 fc             	and    DWORD PTR [ebp-0x4],eax
  406006:	e8 b6 f1 ff ff       	call   0x4051c1
  40600b:	8b 45 fc             	mov    eax,DWORD PTR [ebp-0x4]
  40600e:	59                   	pop    ecx
  40600f:	5e                   	pop    esi
  406010:	8b e5                	mov    esp,ebp
  406012:	5d                   	pop    ebp
  406013:	c3                   	ret    
  406014:	57                   	push   edi
  406015:	6a 00                	push   0x0
  406017:	6a 00                	push   0x0
  406019:	ff 15 bc 26 41 00    	call   DWORD PTR ds:0x4126bc
  40601f:	8b f8                	mov    edi,eax
  406021:	85 ff                	test   edi,edi
  406023:	75 02                	jne    0x406027
  406025:	5f                   	pop    edi
  406026:	c3                   	ret    
  406027:	8d 04 3f             	lea    eax,[edi+edi*1]
  40602a:	56                   	push   esi
  40602b:	50                   	push   eax
  40602c:	e8 43 f1 ff ff       	call   0x405174
  406031:	8b f0                	mov    esi,eax
  406033:	59                   	pop    ecx
  406034:	85 f6                	test   esi,esi
  406036:	74 17                	je     0x40604f
  406038:	56                   	push   esi
  406039:	57                   	push   edi
  40603a:	ff 15 bc 26 41 00    	call   DWORD PTR ds:0x4126bc
  406040:	85 c0                	test   eax,eax
  406042:	75 09                	jne    0x40604d
  406044:	56                   	push   esi
  406045:	e8 77 f1 ff ff       	call   0x4051c1
  40604a:	59                   	pop    ecx
  40604b:	33 f6                	xor    esi,esi
  40604d:	8b c6                	mov    eax,esi
  40604f:	5e                   	pop    esi
  406050:	5f                   	pop    edi
  406051:	c3                   	ret    
  406052:	55                   	push   ebp
  406053:	8b ec                	mov    ebp,esp
  406055:	83 ec 0c             	sub    esp,0xc
  406058:	53                   	push   ebx
  406059:	56                   	push   esi
  40605a:	8b 75 08             	mov    esi,DWORD PTR [ebp+0x8]
  40605d:	0f b7 c6             	movzx  eax,si
  406060:	c1 ee 10             	shr    esi,0x10
  406063:	89 45 08             	mov    DWORD PTR [ebp+0x8],eax
  406066:	33 c0                	xor    eax,eax
  406068:	66 8b 5d 08          	mov    bx,WORD PTR [ebp+0x8]
  40606c:	57                   	push   edi
  40606d:	89 75 fc             	mov    DWORD PTR [ebp-0x4],esi
  406070:	66 8b fe             	mov    di,si
  406073:	c7 45 f8 40 00 00 00 	mov    DWORD PTR [ebp-0x8],0x40
  40607a:	2d 47 86 c8 61       	sub    eax,0x61c88647
  40607f:	0f b7 d0             	movzx  edx,ax
  406082:	89 45 f4             	mov    DWORD PTR [ebp-0xc],eax
  406085:	66 8b c7             	mov    ax,di
  406088:	66 c1 e8 05          	shr    ax,0x5
  40608c:	8d 0c 32             	lea    ecx,[edx+esi*1]
  40608f:	c1 e6 04             	shl    esi,0x4
  406092:	66 33 c8             	xor    cx,ax
  406095:	66 33 ce             	xor    cx,si
  406098:	66 03 d9             	add    bx,cx
  40609b:	66 89 5d 08          	mov    WORD PTR [ebp+0x8],bx
  40609f:	66 8b c3             	mov    ax,bx
  4060a2:	8b 4d 08             	mov    ecx,DWORD PTR [ebp+0x8]
  4060a5:	03 d1                	add    edx,ecx
  4060a7:	66 c1 e8 05          	shr    ax,0x5
  4060ab:	66 33 d0             	xor    dx,ax
  4060ae:	c1 e1 04             	shl    ecx,0x4
  4060b1:	66 33 d1             	xor    dx,cx
  4060b4:	66 03 fa             	add    di,dx
  4060b7:	83 6d f8 01          	sub    DWORD PTR [ebp-0x8],0x1
  4060bb:	66 89 7d fc          	mov    WORD PTR [ebp-0x4],di
  4060bf:	74 08                	je     0x4060c9
  4060c1:	8b 75 fc             	mov    esi,DWORD PTR [ebp-0x4]
  4060c4:	8b 45 f4             	mov    eax,DWORD PTR [ebp-0xc]
  4060c7:	eb b1                	jmp    0x40607a
  4060c9:	8a 45 08             	mov    al,BYTE PTR [ebp+0x8]
  4060cc:	5f                   	pop    edi
  4060cd:	5e                   	pop    esi
  4060ce:	24 01                	and    al,0x1
  4060d0:	5b                   	pop    ebx
  4060d1:	8b e5                	mov    esp,ebp
  4060d3:	5d                   	pop    ebp
  4060d4:	c3                   	ret    
  4060d5:	55                   	push   ebp
  4060d6:	8b ec                	mov    ebp,esp
  4060d8:	51                   	push   ecx
  4060d9:	53                   	push   ebx
  4060da:	56                   	push   esi
  4060db:	33 f6                	xor    esi,esi
  4060dd:	57                   	push   edi
  4060de:	39 75 0c             	cmp    DWORD PTR [ebp+0xc],esi
  4060e1:	76 2d                	jbe    0x406110
  4060e3:	32 db                	xor    bl,bl
  4060e5:	33 ff                	xor    edi,edi
  4060e7:	8d 45 ff             	lea    eax,[ebp-0x1]
  4060ea:	50                   	push   eax
  4060eb:	e8 2e 00 00 00       	call   0x40611e
  4060f0:	59                   	pop    ecx
  4060f1:	85 c0                	test   eax,eax
  4060f3:	74 25                	je     0x40611a
  4060f5:	8a 45 ff             	mov    al,BYTE PTR [ebp-0x1]
  4060f8:	8b cf                	mov    ecx,edi
  4060fa:	d2 e0                	shl    al,cl
  4060fc:	0a d8                	or     bl,al
  4060fe:	47                   	inc    edi
  4060ff:	83 ff 08             	cmp    edi,0x8
  406102:	72 e3                	jb     0x4060e7
  406104:	8b 45 08             	mov    eax,DWORD PTR [ebp+0x8]
  406107:	88 1c 06             	mov    BYTE PTR [esi+eax*1],bl
  40610a:	46                   	inc    esi
  40610b:	3b 75 0c             	cmp    esi,DWORD PTR [ebp+0xc]
  40610e:	72 d3                	jb     0x4060e3
  406110:	33 c0                	xor    eax,eax
  406112:	40                   	inc    eax
  406113:	5f                   	pop    edi
  406114:	5e                   	pop    esi
  406115:	5b                   	pop    ebx
  406116:	8b e5                	mov    esp,ebp
  406118:	5d                   	pop    ebp
  406119:	c3                   	ret    
  40611a:	33 c0                	xor    eax,eax
  40611c:	eb f5                	jmp    0x406113
  40611e:	55                   	push   ebp
  40611f:	8b ec                	mov    ebp,esp
  406121:	83 ec 10             	sub    esp,0x10
  406124:	53                   	push   ebx
  406125:	56                   	push   esi
  406126:	57                   	push   edi
  406127:	33 db                	xor    ebx,ebx
  406129:	0f 31                	rdtsc  
  40612b:	8b f0                	mov    esi,eax
  40612d:	8b fa                	mov    edi,edx
  40612f:	e8 94 00 00 00       	call   0x4061c8
  406134:	0f 31                	rdtsc  
  406136:	2b c6                	sub    eax,esi
  406138:	8b ca                	mov    ecx,edx
  40613a:	89 45 f0             	mov    DWORD PTR [ebp-0x10],eax
  40613d:	1b cf                	sbb    ecx,edi
  40613f:	89 4d f8             	mov    DWORD PTR [ebp-0x8],ecx
  406142:	e8 81 00 00 00       	call   0x4061c8
  406147:	8b 4d f0             	mov    ecx,DWORD PTR [ebp-0x10]
  40614a:	0f 31                	rdtsc  
  40614c:	2b c1                	sub    eax,ecx
  40614e:	1b 55 f8             	sbb    edx,DWORD PTR [ebp-0x8]
  406151:	2b c6                	sub    eax,esi
  406153:	89 45 f0             	mov    DWORD PTR [ebp-0x10],eax
  406156:	1b d7                	sbb    edx,edi
  406158:	8b 7d f8             	mov    edi,DWORD PTR [ebp-0x8]
  40615b:	85 ff                	test   edi,edi
  40615d:	77 49                	ja     0x4061a8
  40615f:	72 05                	jb     0x406166
  406161:	83 f9 ff             	cmp    ecx,0xffffffff
  406164:	77 42                	ja     0x4061a8
  406166:	85 d2                	test   edx,edx
  406168:	77 3e                	ja     0x4061a8
  40616a:	72 05                	jb     0x406171
  40616c:	83 f8 ff             	cmp    eax,0xffffffff
  40616f:	77 37                	ja     0x4061a8
  406171:	8b f1                	mov    esi,ecx
  406173:	2b f0                	sub    esi,eax
  406175:	1b fa                	sbb    edi,edx
  406177:	8b c7                	mov    eax,edi
  406179:	99                   	cdq    
  40617a:	33 c2                	xor    eax,edx
  40617c:	33 f2                	xor    esi,edx
  40617e:	2b f2                	sub    esi,edx
  406180:	1b c2                	sbb    eax,edx
  406182:	89 45 f8             	mov    DWORD PTR [ebp-0x8],eax
  406185:	78 21                	js     0x4061a8
  406187:	7f 05                	jg     0x40618e
  406189:	83 fe 40             	cmp    esi,0x40
  40618c:	72 1a                	jb     0x4061a8
  40618e:	51                   	push   ecx
  40618f:	e8 be fe ff ff       	call   0x406052
  406194:	ff 75 f0             	push   DWORD PTR [ebp-0x10]
  406197:	88 45 ff             	mov    BYTE PTR [ebp-0x1],al
  40619a:	e8 b3 fe ff ff       	call   0x406052
  40619f:	59                   	pop    ecx
  4061a0:	59                   	pop    ecx
  4061a1:	8a 4d ff             	mov    cl,BYTE PTR [ebp-0x1]
  4061a4:	32 c1                	xor    al,cl
  4061a6:	75 16                	jne    0x4061be
  4061a8:	43                   	inc    ebx
  4061a9:	81 fb 80 00 00 00    	cmp    ebx,0x80
  4061af:	0f 8c 74 ff ff ff    	jl     0x406129
  4061b5:	33 c0                	xor    eax,eax
  4061b7:	5f                   	pop    edi
  4061b8:	5e                   	pop    esi
  4061b9:	5b                   	pop    ebx
  4061ba:	8b e5                	mov    esp,ebp
  4061bc:	5d                   	pop    ebp
  4061bd:	c3                   	ret    
  4061be:	8b 45 08             	mov    eax,DWORD PTR [ebp+0x8]
  4061c1:	88 08                	mov    BYTE PTR [eax],cl
  4061c3:	33 c0                	xor    eax,eax
  4061c5:	40                   	inc    eax
  4061c6:	eb ef                	jmp    0x4061b7
  4061c8:	56                   	push   esi
  4061c9:	6a 01                	push   0x1
  4061cb:	ff 15 a8 27 41 00    	call   DWORD PTR ds:0x4127a8
  4061d1:	ff 15 c8 25 41 00    	call   DWORD PTR ds:0x4125c8
  4061d7:	8b f0                	mov    esi,eax
  4061d9:	6a 01                	push   0x1
  4061db:	ff 15 d4 26 41 00    	call   DWORD PTR ds:0x4126d4
  4061e1:	ff 15 c8 25 41 00    	call   DWORD PTR ds:0x4125c8
  4061e7:	3b f0                	cmp    esi,eax
  4061e9:	74 ee                	je     0x4061d9
  4061eb:	5e                   	pop    esi
  4061ec:	c3                   	ret    
  4061ed:	55                   	push   ebp
  4061ee:	8b ec                	mov    ebp,esp
  4061f0:	b8 68 1a 00 00       	mov    eax,0x1a68
  4061f5:	e8 06 70 00 00       	call   0x40d200
  4061fa:	57                   	push   edi
  4061fb:	6a 42                	push   0x42
  4061fd:	33 ff                	xor    edi,edi
  4061ff:	8d 45 b0             	lea    eax,[ebp-0x50]
  406202:	57                   	push   edi
  406203:	50                   	push   eax
  406204:	e8 f2 ef ff ff       	call   0x4051fb
  406209:	83 c4 0c             	add    esp,0xc
  40620c:	e8 f1 f8 ff ff       	call   0x405b02
  406211:	b9 00 06 00 00       	mov    ecx,0x600
  406216:	66 3b c1             	cmp    ax,cx
  406219:	0f 82 1c 01 00 00    	jb     0x40633b
  40621f:	e8 a0 01 00 00       	call   0x4063c4
  406224:	85 c0                	test   eax,eax
  406226:	0f 84 0f 01 00 00    	je     0x40633b
  40622c:	e8 8c fb ff ff       	call   0x405dbd
  406231:	a3 80 30 41 00       	mov    ds:0x413080,eax
  406236:	8d 45 b0             	lea    eax,[ebp-0x50]
  406239:	50                   	push   eax
  40623a:	57                   	push   edi
  40623b:	68 20 25 41 00       	push   0x412520
  406240:	ff 15 9c 27 41 00    	call   DWORD PTR ds:0x41279c
  406246:	85 c0                	test   eax,eax
  406248:	0f 85 ed 00 00 00    	jne    0x40633b
  40624e:	57                   	push   edi
  40624f:	57                   	push   edi
  406250:	57                   	push   edi
  406251:	57                   	push   edi
  406252:	8d 45 08             	lea    eax,[ebp+0x8]
  406255:	50                   	push   eax
  406256:	6a 01                	push   0x1
  406258:	ff 35 20 25 41 00    	push   DWORD PTR ds:0x412520
  40625e:	ff 15 20 27 41 00    	call   DWORD PTR ds:0x412720
  406264:	85 c0                	test   eax,eax
  406266:	0f 85 cf 00 00 00    	jne    0x40633b
  40626c:	53                   	push   ebx
  40626d:	8d 45 f8             	lea    eax,[ebp-0x8]
  406270:	c7 45 fc 0a 00 00 00 	mov    DWORD PTR [ebp-0x4],0xa
  406277:	50                   	push   eax
  406278:	8d 85 98 e5 ff ff    	lea    eax,[ebp-0x1a68]
  40627e:	50                   	push   eax
  40627f:	8d 45 fc             	lea    eax,[ebp-0x4]
  406282:	50                   	push   eax
  406283:	8d 45 f4             	lea    eax,[ebp-0xc]
  406286:	50                   	push   eax
  406287:	ff 35 20 25 41 00    	push   DWORD PTR ds:0x412520
  40628d:	ff 15 08 26 41 00    	call   DWORD PTR ds:0x412608
  406293:	85 c0                	test   eax,eax
  406295:	0f 85 82 00 00 00    	jne    0x40631d
  40629b:	8b df                	mov    ebx,edi
  40629d:	39 5d fc             	cmp    DWORD PTR [ebp-0x4],ebx
  4062a0:	76 7b                	jbe    0x40631d
  4062a2:	56                   	push   esi
  4062a3:	8d b5 98 e5 ff ff    	lea    esi,[ebp-0x1a68]
  4062a9:	8b 86 8c 02 00 00    	mov    eax,DWORD PTR [esi+0x28c]
  4062af:	83 f8 03             	cmp    eax,0x3
  4062b2:	75 19                	jne    0x4062cd
  4062b4:	6a 01                	push   0x1
  4062b6:	8d 86 0c 02 00 00    	lea    eax,[esi+0x20c]
  4062bc:	50                   	push   eax
  4062bd:	ff 35 80 30 41 00    	push   DWORD PTR ds:0x413080
  4062c3:	e8 05 fb ff ff       	call   0x405dcd
  4062c8:	83 c4 0c             	add    esp,0xc
  4062cb:	eb 3b                	jmp    0x406308
  4062cd:	83 3e 04             	cmp    DWORD PTR [esi],0x4
  4062d0:	74 3e                	je     0x406310
  4062d2:	3d e8 03 00 00       	cmp    eax,0x3e8
  4062d7:	74 37                	je     0x406310
  4062d9:	ff 36                	push   DWORD PTR [esi]
  4062db:	e8 4d f0 ff ff       	call   0x40532d
  4062e0:	59                   	pop    ecx
  4062e1:	85 c0                	test   eax,eax
  4062e3:	75 2b                	jne    0x406310
  4062e5:	ff 36                	push   DWORD PTR [esi]
  4062e7:	57                   	push   edi
  4062e8:	6a 01                	push   0x1
  4062ea:	ff 15 1c 26 41 00    	call   DWORD PTR ds:0x41261c
  4062f0:	8b f8                	mov    edi,eax
  4062f2:	85 ff                	test   edi,edi
  4062f4:	74 10                	je     0x406306
  4062f6:	6a 00                	push   0x0
  4062f8:	57                   	push   edi
  4062f9:	ff 15 58 28 41 00    	call   DWORD PTR ds:0x412858
  4062ff:	57                   	push   edi
  406300:	e8 11 f1 ff ff       	call   0x405416
  406305:	59                   	pop    ecx
  406306:	33 ff                	xor    edi,edi
  406308:	ff 36                	push   DWORD PTR [esi]
  40630a:	e8 d1 ef ff ff       	call   0x4052e0
  40630f:	59                   	pop    ecx
  406310:	43                   	inc    ebx
  406311:	81 c6 9c 02 00 00    	add    esi,0x29c
  406317:	3b 5d fc             	cmp    ebx,DWORD PTR [ebp-0x4]
  40631a:	72 8d                	jb     0x4062a9
  40631c:	5e                   	pop    esi
  40631d:	ff 35 20 25 41 00    	push   DWORD PTR ds:0x412520
  406323:	ff 15 e4 25 41 00    	call   DWORD PTR ds:0x4125e4
  406329:	ff 35 80 30 41 00    	push   DWORD PTR ds:0x413080
  40632f:	ff 15 40 28 41 00    	call   DWORD PTR ds:0x412840
  406335:	33 c0                	xor    eax,eax
  406337:	40                   	inc    eax
  406338:	5b                   	pop    ebx
  406339:	eb 02                	jmp    0x40633d
  40633b:	33 c0                	xor    eax,eax
  40633d:	5f                   	pop    edi
  40633e:	8b e5                	mov    esp,ebp
  406340:	5d                   	pop    ebp
  406341:	c3                   	ret    
  406342:	57                   	push   edi
  406343:	6a 00                	push   0x0
  406345:	6a 00                	push   0x0
  406347:	ff 15 6c 28 41 00    	call   DWORD PTR ds:0x41286c
  40634d:	8b f8                	mov    edi,eax
  40634f:	85 ff                	test   edi,edi
  406351:	75 02                	jne    0x406355
  406353:	5f                   	pop    edi
  406354:	c3                   	ret    
  406355:	8d 04 3f             	lea    eax,[edi+edi*1]
  406358:	56                   	push   esi
  406359:	50                   	push   eax
  40635a:	e8 15 ee ff ff       	call   0x405174
  40635f:	8b f0                	mov    esi,eax
  406361:	59                   	pop    ecx
  406362:	85 f6                	test   esi,esi
  406364:	74 17                	je     0x40637d
  406366:	57                   	push   edi
  406367:	56                   	push   esi
  406368:	ff 15 6c 28 41 00    	call   DWORD PTR ds:0x41286c
  40636e:	85 c0                	test   eax,eax
  406370:	75 09                	jne    0x40637b
  406372:	56                   	push   esi
  406373:	e8 49 ee ff ff       	call   0x4051c1
  406378:	59                   	pop    ecx
  406379:	33 f6                	xor    esi,esi
  40637b:	8b c6                	mov    eax,esi
  40637d:	5e                   	pop    esi
  40637e:	5f                   	pop    edi
  40637f:	c3                   	ret    
  406380:	55                   	push   ebp
  406381:	8b ec                	mov    ebp,esp
  406383:	e8 7a f7 ff ff       	call   0x405b02
  406388:	b9 01 05 00 00       	mov    ecx,0x501
  40638d:	66 3b c1             	cmp    ax,cx
  406390:	77 05                	ja     0x406397
  406392:	33 c0                	xor    eax,eax
  406394:	40                   	inc    eax
  406395:	5d                   	pop    ebp
  406396:	c3                   	ret    
  406397:	ff 75 08             	push   DWORD PTR [ebp+0x8]
  40639a:	ff 15 30 27 41 00    	call   DWORD PTR ds:0x412730
  4063a0:	5d                   	pop    ebp
  4063a1:	c3                   	ret    
  4063a2:	55                   	push   ebp
  4063a3:	8b ec                	mov    ebp,esp
  4063a5:	e8 58 f7 ff ff       	call   0x405b02
  4063aa:	b9 01 05 00 00       	mov    ecx,0x501
  4063af:	66 3b c1             	cmp    ax,cx
  4063b2:	77 05                	ja     0x4063b9
  4063b4:	33 c0                	xor    eax,eax
  4063b6:	40                   	inc    eax
  4063b7:	5d                   	pop    ebp
  4063b8:	c3                   	ret    
  4063b9:	ff 75 08             	push   DWORD PTR [ebp+0x8]
  4063bc:	ff 15 e4 27 41 00    	call   DWORD PTR ds:0x4127e4
  4063c2:	5d                   	pop    ebp
  4063c3:	c3                   	ret    
  4063c4:	55                   	push   ebp
  4063c5:	8b ec                	mov    ebp,esp
  4063c7:	81 ec 1c 01 00 00    	sub    esp,0x11c
  4063cd:	53                   	push   ebx
  4063ce:	56                   	push   esi
  4063cf:	33 db                	xor    ebx,ebx
  4063d1:	c7 85 e4 fe ff ff 1c 	mov    DWORD PTR [ebp-0x11c],0x11c
  4063d8:	01 00 00 
  4063db:	68 00 01 00 00       	push   0x100
  4063e0:	8d 85 f8 fe ff ff    	lea    eax,[ebp-0x108]
  4063e6:	89 9d e8 fe ff ff    	mov    DWORD PTR [ebp-0x118],ebx
  4063ec:	53                   	push   ebx
  4063ed:	50                   	push   eax
  4063ee:	89 9d ec fe ff ff    	mov    DWORD PTR [ebp-0x114],ebx
  4063f4:	89 9d f0 fe ff ff    	mov    DWORD PTR [ebp-0x110],ebx
  4063fa:	89 9d f4 fe ff ff    	mov    DWORD PTR [ebp-0x10c],ebx
  406400:	e8 f6 ed ff ff       	call   0x4051fb
  406405:	83 c4 0c             	add    esp,0xc
  406408:	c7 45 fc 00 00 01 00 	mov    DWORD PTR [ebp-0x4],0x10000
  40640f:	be 80 00 00 00       	mov    esi,0x80
  406414:	33 c0                	xor    eax,eax
  406416:	89 45 f8             	mov    DWORD PTR [ebp-0x8],eax
  406419:	6a 01                	push   0x1
  40641b:	56                   	push   esi
  40641c:	53                   	push   ebx
  40641d:	53                   	push   ebx
  40641e:	ff 15 0c e0 40 00    	call   DWORD PTR ds:0x40e00c
  406424:	52                   	push   edx
  406425:	50                   	push   eax
  406426:	56                   	push   esi
  406427:	8d 85 e4 fe ff ff    	lea    eax,[ebp-0x11c]
  40642d:	50                   	push   eax
  40642e:	ff 15 10 e0 40 00    	call   DWORD PTR ds:0x40e010
  406434:	f7 d8                	neg    eax
  406436:	5e                   	pop    esi
  406437:	1b c0                	sbb    eax,eax
  406439:	40                   	inc    eax
  40643a:	5b                   	pop    ebx
  40643b:	8b e5                	mov    esp,ebp
  40643d:	5d                   	pop    ebp
  40643e:	c3                   	ret    
  40643f:	55                   	push   ebp
  406440:	8b ec                	mov    ebp,esp
  406442:	53                   	push   ebx
  406443:	56                   	push   esi
  406444:	57                   	push   edi
  406445:	33 db                	xor    ebx,ebx
  406447:	53                   	push   ebx
  406448:	53                   	push   ebx
  406449:	6a ff                	push   0xffffffff
  40644b:	ff 75 08             	push   DWORD PTR [ebp+0x8]
  40644e:	8b f3                	mov    esi,ebx
  406450:	53                   	push   ebx
  406451:	53                   	push   ebx
  406452:	ff 15 f8 26 41 00    	call   DWORD PTR ds:0x4126f8
  406458:	8b f8                	mov    edi,eax
  40645a:	85 ff                	test   edi,edi
  40645c:	74 2c                	je     0x40648a
  40645e:	8d 04 3f             	lea    eax,[edi+edi*1]
  406461:	50                   	push   eax
  406462:	e8 0d ed ff ff       	call   0x405174
  406467:	8b f0                	mov    esi,eax
  406469:	59                   	pop    ecx
  40646a:	85 f6                	test   esi,esi
  40646c:	74 1c                	je     0x40648a
  40646e:	57                   	push   edi
  40646f:	56                   	push   esi
  406470:	6a ff                	push   0xffffffff
  406472:	ff 75 08             	push   DWORD PTR [ebp+0x8]
  406475:	53                   	push   ebx
  406476:	53                   	push   ebx
  406477:	ff 15 f8 26 41 00    	call   DWORD PTR ds:0x4126f8
  40647d:	85 c0                	test   eax,eax
  40647f:	75 09                	jne    0x40648a
  406481:	56                   	push   esi
  406482:	e8 3a ed ff ff       	call   0x4051c1
  406487:	59                   	pop    ecx
  406488:	8b f3                	mov    esi,ebx
  40648a:	5f                   	pop    edi
  40648b:	8b c6                	mov    eax,esi
  40648d:	5e                   	pop    esi
  40648e:	5b                   	pop    ebx
  40648f:	5d                   	pop    ebp
  406490:	c3                   	ret    
  406491:	55                   	push   ebp
  406492:	8b ec                	mov    ebp,esp
  406494:	53                   	push   ebx
  406495:	57                   	push   edi
  406496:	8b 7d 0c             	mov    edi,DWORD PTR [ebp+0xc]
  406499:	8d 45 0c             	lea    eax,[ebp+0xc]
  40649c:	33 db                	xor    ebx,ebx
  40649e:	53                   	push   ebx
  40649f:	53                   	push   ebx
  4064a0:	50                   	push   eax
  4064a1:	53                   	push   ebx
  4064a2:	6a 01                	push   0x1
  4064a4:	53                   	push   ebx
  4064a5:	ff 75 08             	push   DWORD PTR [ebp+0x8]
  4064a8:	89 1f                	mov    DWORD PTR [edi],ebx
  4064aa:	ff 15 a8 25 41 00    	call   DWORD PTR ds:0x4125a8
  4064b0:	85 c0                	test   eax,eax
  4064b2:	74 3a                	je     0x4064ee
  4064b4:	56                   	push   esi
  4064b5:	ff 75 0c             	push   DWORD PTR [ebp+0xc]
  4064b8:	e8 b7 ec ff ff       	call   0x405174
  4064bd:	8b f0                	mov    esi,eax
  4064bf:	59                   	pop    ecx
  4064c0:	85 f6                	test   esi,esi
  4064c2:	74 29                	je     0x4064ed
  4064c4:	53                   	push   ebx
  4064c5:	53                   	push   ebx
  4064c6:	8d 45 0c             	lea    eax,[ebp+0xc]
  4064c9:	50                   	push   eax
  4064ca:	56                   	push   esi
  4064cb:	6a 01                	push   0x1
  4064cd:	53                   	push   ebx
  4064ce:	ff 75 08             	push   DWORD PTR [ebp+0x8]
  4064d1:	ff 15 a8 25 41 00    	call   DWORD PTR ds:0x4125a8
  4064d7:	85 c0                	test   eax,eax
  4064d9:	74 07                	je     0x4064e2
  4064db:	8b 45 0c             	mov    eax,DWORD PTR [ebp+0xc]
  4064de:	89 07                	mov    DWORD PTR [edi],eax
  4064e0:	eb 09                	jmp    0x4064eb
  4064e2:	56                   	push   esi
  4064e3:	e8 d9 ec ff ff       	call   0x4051c1
  4064e8:	59                   	pop    ecx
  4064e9:	8b f3                	mov    esi,ebx
  4064eb:	8b c6                	mov    eax,esi
  4064ed:	5e                   	pop    esi
  4064ee:	5f                   	pop    edi
  4064ef:	5b                   	pop    ebx
  4064f0:	5d                   	pop    ebp
  4064f1:	c3                   	ret    
  4064f2:	55                   	push   ebp
  4064f3:	8b ec                	mov    ebp,esp
  4064f5:	57                   	push   edi
  4064f6:	33 c0                	xor    eax,eax
  4064f8:	bf 00 00 00 40       	mov    edi,0x40000000
  4064fd:	39 45 10             	cmp    DWORD PTR [ebp+0x10],eax
  406500:	0f 45 f8             	cmovne edi,eax
  406503:	8d 45 10             	lea    eax,[ebp+0x10]
  406506:	50                   	push   eax
  406507:	6a 00                	push   0x0
  406509:	83 cf 01             	or     edi,0x1
  40650c:	57                   	push   edi
  40650d:	ff 75 0c             	push   DWORD PTR [ebp+0xc]
  406510:	ff 75 08             	push   DWORD PTR [ebp+0x8]
  406513:	ff 15 d4 27 41 00    	call   DWORD PTR ds:0x4127d4
  406519:	85 c0                	test   eax,eax
  40651b:	74 35                	je     0x406552
  40651d:	8b 45 10             	mov    eax,DWORD PTR [ebp+0x10]
  406520:	03 c0                	add    eax,eax
  406522:	56                   	push   esi
  406523:	50                   	push   eax
  406524:	e8 4b ec ff ff       	call   0x405174
  406529:	8b f0                	mov    esi,eax
  40652b:	59                   	pop    ecx
  40652c:	85 f6                	test   esi,esi
  40652e:	74 21                	je     0x406551
  406530:	8d 45 10             	lea    eax,[ebp+0x10]
  406533:	50                   	push   eax
  406534:	56                   	push   esi
  406535:	57                   	push   edi
  406536:	ff 75 0c             	push   DWORD PTR [ebp+0xc]
  406539:	ff 75 08             	push   DWORD PTR [ebp+0x8]
  40653c:	ff 15 d4 27 41 00    	call   DWORD PTR ds:0x4127d4
  406542:	85 c0                	test   eax,eax
  406544:	75 09                	jne    0x40654f
  406546:	56                   	push   esi
  406547:	e8 75 ec ff ff       	call   0x4051c1
  40654c:	59                   	pop    ecx
  40654d:	33 f6                	xor    esi,esi
  40654f:	8b c6                	mov    eax,esi
  406551:	5e                   	pop    esi
  406552:	5f                   	pop    edi
  406553:	5d                   	pop    ebp
  406554:	c3                   	ret    
  406555:	55                   	push   ebp
  406556:	8b ec                	mov    ebp,esp
  406558:	8b 55 08             	mov    edx,DWORD PTR [ebp+0x8]
  40655b:	b8 05 15 00 00       	mov    eax,0x1505
  406560:	eb 09                	jmp    0x40656b
  406562:	6b c0 21             	imul   eax,eax,0x21
  406565:	42                   	inc    edx
  406566:	0f b6 c9             	movzx  ecx,cl
  406569:	03 c1                	add    eax,ecx
  40656b:	8a 0a                	mov    cl,BYTE PTR [edx]
  40656d:	84 c9                	test   cl,cl
  40656f:	75 f1                	jne    0x406562
  406571:	5d                   	pop    ebp
  406572:	c3                   	ret    
  406573:	55                   	push   ebp
  406574:	8b ec                	mov    ebp,esp
  406576:	8b 55 08             	mov    edx,DWORD PTR [ebp+0x8]
  406579:	b8 05 15 00 00       	mov    eax,0x1505
  40657e:	eb 0b                	jmp    0x40658b
  406580:	6b c0 21             	imul   eax,eax,0x21
  406583:	8d 52 02             	lea    edx,[edx+0x2]
  406586:	0f b7 c9             	movzx  ecx,cx
  406589:	03 c1                	add    eax,ecx
  40658b:	0f b7 0a             	movzx  ecx,WORD PTR [edx]
  40658e:	66 85 c9             	test   cx,cx
  406591:	75 ed                	jne    0x406580
  406593:	5d                   	pop    ebp
  406594:	c3                   	ret    
  406595:	55                   	push   ebp
  406596:	8b ec                	mov    ebp,esp
  406598:	8b 55 08             	mov    edx,DWORD PTR [ebp+0x8]
  40659b:	03 55 0c             	add    edx,DWORD PTR [ebp+0xc]
  40659e:	ff 75 18             	push   DWORD PTR [ebp+0x18]
  4065a1:	8b 4d 10             	mov    ecx,DWORD PTR [ebp+0x10]
  4065a4:	ff 75 14             	push   DWORD PTR [ebp+0x14]
  4065a7:	8d 04 0a             	lea    eax,[edx+ecx*1]
  4065aa:	50                   	push   eax
  4065ab:	51                   	push   ecx
  4065ac:	52                   	push   edx
  4065ad:	e8 1c 0d 00 00       	call   0x4072ce
  4065b2:	83 c4 14             	add    esp,0x14
  4065b5:	5d                   	pop    ebp
  4065b6:	c3                   	ret    
  4065b7:	55                   	push   ebp
  4065b8:	8b ec                	mov    ebp,esp
  4065ba:	51                   	push   ecx
  4065bb:	83 65 fc 00          	and    DWORD PTR [ebp-0x4],0x0
  4065bf:	8d 45 fc             	lea    eax,[ebp-0x4]
  4065c2:	56                   	push   esi
  4065c3:	50                   	push   eax
  4065c4:	8d 45 0c             	lea    eax,[ebp+0xc]
  4065c7:	50                   	push   eax
  4065c8:	ff 75 08             	push   DWORD PTR [ebp+0x8]
  4065cb:	e8 00 05 00 00       	call   0x406ad0
  4065d0:	83 c4 0c             	add    esp,0xc
  4065d3:	eb 22                	jmp    0x4065f7
  4065d5:	56                   	push   esi
  4065d6:	ff 75 10             	push   DWORD PTR [ebp+0x10]
  4065d9:	ff 55 14             	call   DWORD PTR [ebp+0x14]
  4065dc:	8d 45 fc             	lea    eax,[ebp-0x4]
  4065df:	33 c9                	xor    ecx,ecx
  4065e1:	50                   	push   eax
  4065e2:	8d 45 0c             	lea    eax,[ebp+0xc]
  4065e5:	85 f6                	test   esi,esi
  4065e7:	50                   	push   eax
  4065e8:	8b 45 08             	mov    eax,DWORD PTR [ebp+0x8]
  4065eb:	0f 45 c1             	cmovne eax,ecx
  4065ee:	50                   	push   eax
  4065ef:	e8 dc 04 00 00       	call   0x406ad0
  4065f4:	83 c4 14             	add    esp,0x14
  4065f7:	8b f0                	mov    esi,eax
  4065f9:	85 f6                	test   esi,esi
  4065fb:	75 d8                	jne    0x4065d5
  4065fd:	5e                   	pop    esi
  4065fe:	8b e5                	mov    esp,ebp
  406600:	5d                   	pop    ebp
  406601:	c3                   	ret    
  406602:	55                   	push   ebp
  406603:	8b ec                	mov    ebp,esp
  406605:	57                   	push   edi
  406606:	8b 7d 08             	mov    edi,DWORD PTR [ebp+0x8]
  406609:	66 83 3f 5e          	cmp    WORD PTR [edi],0x5e
  40660d:	75 10                	jne    0x40661f
  40660f:	ff 75 0c             	push   DWORD PTR [ebp+0xc]
  406612:	8d 47 02             	lea    eax,[edi+0x2]
  406615:	50                   	push   eax
  406616:	e8 2b 00 00 00       	call   0x406646
  40661b:	59                   	pop    ecx
  40661c:	59                   	pop    ecx
  40661d:	eb 24                	jmp    0x406643
  40661f:	56                   	push   esi
  406620:	8b 75 0c             	mov    esi,DWORD PTR [ebp+0xc]
  406623:	56                   	push   esi
  406624:	57                   	push   edi
  406625:	e8 1c 00 00 00       	call   0x406646
  40662a:	59                   	pop    ecx
  40662b:	59                   	pop    ecx
  40662c:	85 c0                	test   eax,eax
  40662e:	75 0f                	jne    0x40663f
  406630:	66 8b 06             	mov    ax,WORD PTR [esi]
  406633:	83 c6 02             	add    esi,0x2
  406636:	66 85 c0             	test   ax,ax
  406639:	75 e8                	jne    0x406623
  40663b:	33 c0                	xor    eax,eax
  40663d:	eb 03                	jmp    0x406642
  40663f:	33 c0                	xor    eax,eax
  406641:	40                   	inc    eax
  406642:	5e                   	pop    esi
  406643:	5f                   	pop    edi
  406644:	5d                   	pop    ebp
  406645:	c3                   	ret    
  406646:	55                   	push   ebp
  406647:	8b ec                	mov    ebp,esp
  406649:	8b 4d 08             	mov    ecx,DWORD PTR [ebp+0x8]
  40664c:	56                   	push   esi
  40664d:	57                   	push   edi
  40664e:	0f b7 01             	movzx  eax,WORD PTR [ecx]
  406651:	66 85 c0             	test   ax,ax
  406654:	74 39                	je     0x40668f
  406656:	8b 55 0c             	mov    edx,DWORD PTR [ebp+0xc]
  406659:	8d 79 02             	lea    edi,[ecx+0x2]
  40665c:	0f b7 37             	movzx  esi,WORD PTR [edi]
  40665f:	83 fe 2a             	cmp    esi,0x2a
  406662:	74 40                	je     0x4066a4
  406664:	66 83 f8 24          	cmp    ax,0x24
  406668:	75 05                	jne    0x40666f
  40666a:	66 85 f6             	test   si,si
  40666d:	74 27                	je     0x406696
  40666f:	0f b7 0a             	movzx  ecx,WORD PTR [edx]
  406672:	66 85 c9             	test   cx,cx
  406675:	74 29                	je     0x4066a0
  406677:	66 83 f8 2e          	cmp    ax,0x2e
  40667b:	74 05                	je     0x406682
  40667d:	66 3b c1             	cmp    ax,cx
  406680:	75 1e                	jne    0x4066a0
  406682:	8b cf                	mov    ecx,edi
  406684:	83 c2 02             	add    edx,0x2
  406687:	0f b7 01             	movzx  eax,WORD PTR [ecx]
  40668a:	66 85 c0             	test   ax,ax
  40668d:	75 ca                	jne    0x406659
  40668f:	33 c0                	xor    eax,eax
  406691:	40                   	inc    eax
  406692:	5f                   	pop    edi
  406693:	5e                   	pop    esi
  406694:	5d                   	pop    ebp
  406695:	c3                   	ret    
  406696:	33 c0                	xor    eax,eax
  406698:	66 39 02             	cmp    WORD PTR [edx],ax
  40669b:	0f 94 c0             	sete   al
  40669e:	eb f2                	jmp    0x406692
  4066a0:	33 c0                	xor    eax,eax
  4066a2:	eb ee                	jmp    0x406692
  4066a4:	52                   	push   edx
  4066a5:	8d 41 04             	lea    eax,[ecx+0x4]
  4066a8:	50                   	push   eax
  4066a9:	0f b7 01             	movzx  eax,WORD PTR [ecx]
  4066ac:	50                   	push   eax
  4066ad:	e8 05 00 00 00       	call   0x4066b7
  4066b2:	83 c4 0c             	add    esp,0xc
  4066b5:	eb db                	jmp    0x406692
  4066b7:	55                   	push   ebp
  4066b8:	8b ec                	mov    ebp,esp
  4066ba:	56                   	push   esi
  4066bb:	8b 75 10             	mov    esi,DWORD PTR [ebp+0x10]
  4066be:	56                   	push   esi
  4066bf:	ff 75 0c             	push   DWORD PTR [ebp+0xc]
  4066c2:	e8 7f ff ff ff       	call   0x406646
  4066c7:	59                   	pop    ecx
  4066c8:	59                   	pop    ecx
  4066c9:	85 c0                	test   eax,eax
  4066cb:	75 1c                	jne    0x4066e9
  4066cd:	0f b7 06             	movzx  eax,WORD PTR [esi]
  4066d0:	66 85 c0             	test   ax,ax
  4066d3:	74 10                	je     0x4066e5
  4066d5:	83 c6 02             	add    esi,0x2
  4066d8:	66 3b 45 08          	cmp    ax,WORD PTR [ebp+0x8]
  4066dc:	74 e0                	je     0x4066be
  4066de:	66 83 7d 08 2e       	cmp    WORD PTR [ebp+0x8],0x2e
  4066e3:	74 d9                	je     0x4066be
  4066e5:	33 c0                	xor    eax,eax
  4066e7:	eb 03                	jmp    0x4066ec
  4066e9:	33 c0                	xor    eax,eax
  4066eb:	40                   	inc    eax
  4066ec:	5e                   	pop    esi
  4066ed:	5d                   	pop    ebp
  4066ee:	c3                   	ret    
  4066ef:	55                   	push   ebp
  4066f0:	8b ec                	mov    ebp,esp
  4066f2:	56                   	push   esi
  4066f3:	8b 75 08             	mov    esi,DWORD PTR [ebp+0x8]
  4066f6:	57                   	push   edi
  4066f7:	33 ff                	xor    edi,edi
  4066f9:	39 7d 10             	cmp    DWORD PTR [ebp+0x10],edi
  4066fc:	76 2c                	jbe    0x40672a
  4066fe:	53                   	push   ebx
  4066ff:	8b 5d 0c             	mov    ebx,DWORD PTR [ebp+0xc]
  406702:	ff 74 fb 04          	push   DWORD PTR [ebx+edi*8+0x4]
  406706:	ff 34 fb             	push   DWORD PTR [ebx+edi*8]
  406709:	56                   	push   esi
  40670a:	e8 21 00 00 00       	call   0x406730
  40670f:	83 c4 0c             	add    esp,0xc
  406712:	89 45 08             	mov    DWORD PTR [ebp+0x8],eax
  406715:	85 c0                	test   eax,eax
  406717:	74 0a                	je     0x406723
  406719:	56                   	push   esi
  40671a:	e8 a2 ea ff ff       	call   0x4051c1
  40671f:	8b 75 08             	mov    esi,DWORD PTR [ebp+0x8]
  406722:	59                   	pop    ecx
  406723:	47                   	inc    edi
  406724:	3b 7d 10             	cmp    edi,DWORD PTR [ebp+0x10]
  406727:	72 d9                	jb     0x406702
  406729:	5b                   	pop    ebx
  40672a:	5f                   	pop    edi
  40672b:	8b c6                	mov    eax,esi
  40672d:	5e                   	pop    esi
  40672e:	5d                   	pop    ebp
  40672f:	c3                   	ret    
  406730:	55                   	push   ebp
  406731:	8b ec                	mov    ebp,esp
  406733:	83 ec 10             	sub    esp,0x10
  406736:	53                   	push   ebx
  406737:	56                   	push   esi
  406738:	57                   	push   edi
  406739:	8b 7d 08             	mov    edi,DWORD PTR [ebp+0x8]
  40673c:	85 ff                	test   edi,edi
  40673e:	0f 84 d7 00 00 00    	je     0x40681b
  406744:	8b 5d 0c             	mov    ebx,DWORD PTR [ebp+0xc]
  406747:	85 db                	test   ebx,ebx
  406749:	0f 84 cc 00 00 00    	je     0x40681b
  40674f:	83 7d 10 00          	cmp    DWORD PTR [ebp+0x10],0x0
  406753:	0f 84 c2 00 00 00    	je     0x40681b
  406759:	53                   	push   ebx
  40675a:	e8 a4 02 00 00       	call   0x406a03
  40675f:	ff 75 10             	push   DWORD PTR [ebp+0x10]
  406762:	89 45 fc             	mov    DWORD PTR [ebp-0x4],eax
  406765:	e8 99 02 00 00       	call   0x406a03
  40676a:	53                   	push   ebx
  40676b:	57                   	push   edi
  40676c:	89 45 f8             	mov    DWORD PTR [ebp-0x8],eax
  40676f:	33 f6                	xor    esi,esi
  406771:	e8 f3 02 00 00       	call   0x406a69
  406776:	83 c4 10             	add    esp,0x10
  406779:	85 c0                	test   eax,eax
  40677b:	0f 84 9a 00 00 00    	je     0x40681b
  406781:	8b 7d fc             	mov    edi,DWORD PTR [ebp-0x4]
  406784:	8d 04 78             	lea    eax,[eax+edi*2]
  406787:	46                   	inc    esi
  406788:	53                   	push   ebx
  406789:	50                   	push   eax
  40678a:	e8 da 02 00 00       	call   0x406a69
  40678f:	59                   	pop    ecx
  406790:	59                   	pop    ecx
  406791:	85 c0                	test   eax,eax
  406793:	75 ef                	jne    0x406784
  406795:	8b 7d 08             	mov    edi,DWORD PTR [ebp+0x8]
  406798:	85 f6                	test   esi,esi
  40679a:	74 7f                	je     0x40681b
  40679c:	57                   	push   edi
  40679d:	e8 61 02 00 00       	call   0x406a03
  4067a2:	8b 4d f8             	mov    ecx,DWORD PTR [ebp-0x8]
  4067a5:	2b 4d fc             	sub    ecx,DWORD PTR [ebp-0x4]
  4067a8:	0f af ce             	imul   ecx,esi
  4067ab:	03 c1                	add    eax,ecx
  4067ad:	8d 04 45 02 00 00 00 	lea    eax,[eax*2+0x2]
  4067b4:	50                   	push   eax
  4067b5:	e8 ba e9 ff ff       	call   0x405174
  4067ba:	89 45 f0             	mov    DWORD PTR [ebp-0x10],eax
  4067bd:	59                   	pop    ecx
  4067be:	59                   	pop    ecx
  4067bf:	85 c0                	test   eax,eax
  4067c1:	74 58                	je     0x40681b
  4067c3:	89 45 08             	mov    DWORD PTR [ebp+0x8],eax
  4067c6:	8b 45 f8             	mov    eax,DWORD PTR [ebp-0x8]
  4067c9:	03 c0                	add    eax,eax
  4067cb:	89 45 f8             	mov    DWORD PTR [ebp-0x8],eax
  4067ce:	53                   	push   ebx
  4067cf:	4e                   	dec    esi
  4067d0:	57                   	push   edi
  4067d1:	89 75 f4             	mov    DWORD PTR [ebp-0xc],esi
  4067d4:	e8 90 02 00 00       	call   0x406a69
  4067d9:	8b f0                	mov    esi,eax
  4067db:	2b f7                	sub    esi,edi
  4067dd:	d1 fe                	sar    esi,1
  4067df:	56                   	push   esi
  4067e0:	57                   	push   edi
  4067e1:	ff 75 08             	push   DWORD PTR [ebp+0x8]
  4067e4:	e8 3c 02 00 00       	call   0x406a25
  4067e9:	ff 75 10             	push   DWORD PTR [ebp+0x10]
  4067ec:	8d 0c 70             	lea    ecx,[eax+esi*2]
  4067ef:	51                   	push   ecx
  4067f0:	e8 65 01 00 00       	call   0x40695a
  4067f5:	8b 4d fc             	mov    ecx,DWORD PTR [ebp-0x4]
  4067f8:	83 c4 1c             	add    esp,0x1c
  4067fb:	03 45 f8             	add    eax,DWORD PTR [ebp-0x8]
  4067fe:	03 ce                	add    ecx,esi
  406800:	8b 75 f4             	mov    esi,DWORD PTR [ebp-0xc]
  406803:	89 45 08             	mov    DWORD PTR [ebp+0x8],eax
  406806:	8d 3c 4f             	lea    edi,[edi+ecx*2]
  406809:	85 f6                	test   esi,esi
  40680b:	75 c1                	jne    0x4067ce
  40680d:	57                   	push   edi
  40680e:	50                   	push   eax
  40680f:	e8 46 01 00 00       	call   0x40695a
  406814:	8b 45 f0             	mov    eax,DWORD PTR [ebp-0x10]
  406817:	59                   	pop    ecx
  406818:	59                   	pop    ecx
  406819:	eb 02                	jmp    0x40681d
  40681b:	33 c0                	xor    eax,eax
  40681d:	5f                   	pop    edi
  40681e:	5e                   	pop    esi
  40681f:	5b                   	pop    ebx
  406820:	8b e5                	mov    esp,ebp
  406822:	5d                   	pop    ebp
  406823:	c3                   	ret    
  406824:	55                   	push   ebp
  406825:	8b ec                	mov    ebp,esp
  406827:	8b 45 08             	mov    eax,DWORD PTR [ebp+0x8]
  40682a:	8b c8                	mov    ecx,eax
  40682c:	80 38 00             	cmp    BYTE PTR [eax],0x0
  40682f:	74 17                	je     0x406848
  406831:	8a 11                	mov    dl,BYTE PTR [ecx]
  406833:	80 fa 41             	cmp    dl,0x41
  406836:	7c 0a                	jl     0x406842
  406838:	80 fa 5a             	cmp    dl,0x5a
  40683b:	7f 05                	jg     0x406842
  40683d:	80 ca 20             	or     dl,0x20
  406840:	88 11                	mov    BYTE PTR [ecx],dl
  406842:	41                   	inc    ecx
  406843:	80 39 00             	cmp    BYTE PTR [ecx],0x0
  406846:	75 e9                	jne    0x406831
  406848:	5d                   	pop    ebp
  406849:	c3                   	ret    
  40684a:	55                   	push   ebp
  40684b:	8b ec                	mov    ebp,esp
  40684d:	8b 45 08             	mov    eax,DWORD PTR [ebp+0x8]
  406850:	8b c8                	mov    ecx,eax
  406852:	56                   	push   esi
  406853:	33 f6                	xor    esi,esi
  406855:	66 39 30             	cmp    WORD PTR [eax],si
  406858:	74 1b                	je     0x406875
  40685a:	0f b7 11             	movzx  edx,WORD PTR [ecx]
  40685d:	83 fa 41             	cmp    edx,0x41
  406860:	72 0b                	jb     0x40686d
  406862:	83 fa 5a             	cmp    edx,0x5a
  406865:	77 06                	ja     0x40686d
  406867:	83 ca 20             	or     edx,0x20
  40686a:	66 89 11             	mov    WORD PTR [ecx],dx
  40686d:	83 c1 02             	add    ecx,0x2
  406870:	66 39 31             	cmp    WORD PTR [ecx],si
  406873:	75 e5                	jne    0x40685a
  406875:	5e                   	pop    esi
  406876:	5d                   	pop    ebp
  406877:	c3                   	ret    
  406878:	55                   	push   ebp
  406879:	8b ec                	mov    ebp,esp
  40687b:	56                   	push   esi
  40687c:	ff 75 0c             	push   DWORD PTR [ebp+0xc]
  40687f:	8b 75 08             	mov    esi,DWORD PTR [ebp+0x8]
  406882:	56                   	push   esi
  406883:	e8 7b 01 00 00       	call   0x406a03
  406888:	59                   	pop    ecx
  406889:	8d 0c 46             	lea    ecx,[esi+eax*2]
  40688c:	51                   	push   ecx
  40688d:	e8 c8 00 00 00       	call   0x40695a
  406892:	59                   	pop    ecx
  406893:	59                   	pop    ecx
  406894:	8b c6                	mov    eax,esi
  406896:	5e                   	pop    esi
  406897:	5d                   	pop    ebp
  406898:	c3                   	ret    
  406899:	55                   	push   ebp
  40689a:	8b ec                	mov    ebp,esp
  40689c:	8b 45 08             	mov    eax,DWORD PTR [ebp+0x8]
  40689f:	8a 55 0c             	mov    dl,BYTE PTR [ebp+0xc]
  4068a2:	eb 05                	jmp    0x4068a9
  4068a4:	3a ca                	cmp    cl,dl
  4068a6:	74 0d                	je     0x4068b5
  4068a8:	40                   	inc    eax
  4068a9:	8a 08                	mov    cl,BYTE PTR [eax]
  4068ab:	84 c9                	test   cl,cl
  4068ad:	75 f5                	jne    0x4068a4
  4068af:	3a ca                	cmp    cl,dl
  4068b1:	74 02                	je     0x4068b5
  4068b3:	33 c0                	xor    eax,eax
  4068b5:	5d                   	pop    ebp
  4068b6:	c3                   	ret    
  4068b7:	55                   	push   ebp
  4068b8:	8b ec                	mov    ebp,esp
  4068ba:	8b 55 0c             	mov    edx,DWORD PTR [ebp+0xc]
  4068bd:	53                   	push   ebx
  4068be:	56                   	push   esi
  4068bf:	8b 75 08             	mov    esi,DWORD PTR [ebp+0x8]
  4068c2:	8a 1a                	mov    bl,BYTE PTR [edx]
  4068c4:	0f be c3             	movsx  eax,bl
  4068c7:	0f be 0e             	movsx  ecx,BYTE PTR [esi]
  4068ca:	2b c8                	sub    ecx,eax
  4068cc:	75 14                	jne    0x4068e2
  4068ce:	2b f2                	sub    esi,edx
  4068d0:	84 db                	test   bl,bl
  4068d2:	74 0e                	je     0x4068e2
  4068d4:	42                   	inc    edx
  4068d5:	8a 1a                	mov    bl,BYTE PTR [edx]
  4068d7:	0f be 0c 16          	movsx  ecx,BYTE PTR [esi+edx*1]
  4068db:	0f be c3             	movsx  eax,bl
  4068de:	2b c8                	sub    ecx,eax
  4068e0:	74 ee                	je     0x4068d0
  4068e2:	5e                   	pop    esi
  4068e3:	5b                   	pop    ebx
  4068e4:	85 c9                	test   ecx,ecx
  4068e6:	79 05                	jns    0x4068ed
  4068e8:	83 c9 ff             	or     ecx,0xffffffff
  4068eb:	eb 08                	jmp    0x4068f5
  4068ed:	33 c0                	xor    eax,eax
  4068ef:	40                   	inc    eax
  4068f0:	85 c9                	test   ecx,ecx
  4068f2:	0f 4f c8             	cmovg  ecx,eax
  4068f5:	8b c1                	mov    eax,ecx
  4068f7:	5d                   	pop    ebp
  4068f8:	c3                   	ret    
  4068f9:	55                   	push   ebp
  4068fa:	8b ec                	mov    ebp,esp
  4068fc:	8b 55 0c             	mov    edx,DWORD PTR [ebp+0xc]
  4068ff:	56                   	push   esi
  406900:	8b 75 08             	mov    esi,DWORD PTR [ebp+0x8]
  406903:	57                   	push   edi
  406904:	0f b7 3a             	movzx  edi,WORD PTR [edx]
  406907:	0f b7 0e             	movzx  ecx,WORD PTR [esi]
  40690a:	2b cf                	sub    ecx,edi
  40690c:	75 15                	jne    0x406923
  40690e:	2b f2                	sub    esi,edx
  406910:	66 85 ff             	test   di,di
  406913:	74 0e                	je     0x406923
  406915:	83 c2 02             	add    edx,0x2
  406918:	0f b7 3a             	movzx  edi,WORD PTR [edx]
  40691b:	0f b7 0c 16          	movzx  ecx,WORD PTR [esi+edx*1]
  40691f:	2b cf                	sub    ecx,edi
  406921:	74 ed                	je     0x406910
  406923:	5f                   	pop    edi
  406924:	5e                   	pop    esi
  406925:	85 c9                	test   ecx,ecx
  406927:	79 05                	jns    0x40692e
  406929:	83 c9 ff             	or     ecx,0xffffffff
  40692c:	eb 08                	jmp    0x406936
  40692e:	33 c0                	xor    eax,eax
  406930:	40                   	inc    eax
  406931:	85 c9                	test   ecx,ecx
  406933:	0f 4f c8             	cmovg  ecx,eax
  406936:	8b c1                	mov    eax,ecx
  406938:	5d                   	pop    ebp
  406939:	c3                   	ret    
  40693a:	55                   	push   ebp
  40693b:	8b ec                	mov    ebp,esp
  40693d:	ff 75 0c             	push   DWORD PTR [ebp+0xc]
  406940:	e8 ab 00 00 00       	call   0x4069f0
  406945:	40                   	inc    eax
  406946:	50                   	push   eax
  406947:	ff 75 0c             	push   DWORD PTR [ebp+0xc]
  40694a:	ff 75 08             	push   DWORD PTR [ebp+0x8]
  40694d:	e8 84 e8 ff ff       	call   0x4051d6
  406952:	8b 45 08             	mov    eax,DWORD PTR [ebp+0x8]
  406955:	83 c4 10             	add    esp,0x10
  406958:	5d                   	pop    ebp
  406959:	c3                   	ret    
  40695a:	55                   	push   ebp
  40695b:	8b ec                	mov    ebp,esp
  40695d:	ff 75 0c             	push   DWORD PTR [ebp+0xc]
  406960:	e8 9e 00 00 00       	call   0x406a03
  406965:	8d 04 45 02 00 00 00 	lea    eax,[eax*2+0x2]
  40696c:	50                   	push   eax
  40696d:	ff 75 0c             	push   DWORD PTR [ebp+0xc]
  406970:	ff 75 08             	push   DWORD PTR [ebp+0x8]
  406973:	e8 5e e8 ff ff       	call   0x4051d6
  406978:	8b 45 08             	mov    eax,DWORD PTR [ebp+0x8]
  40697b:	83 c4 10             	add    esp,0x10
  40697e:	5d                   	pop    ebp
  40697f:	c3                   	ret    
  406980:	55                   	push   ebp
  406981:	8b ec                	mov    ebp,esp
  406983:	83 7d 08 00          	cmp    DWORD PTR [ebp+0x8],0x0
  406987:	75 04                	jne    0x40698d
  406989:	33 c0                	xor    eax,eax
  40698b:	5d                   	pop    ebp
  40698c:	c3                   	ret    
  40698d:	57                   	push   edi
  40698e:	ff 75 08             	push   DWORD PTR [ebp+0x8]
  406991:	e8 5a 00 00 00       	call   0x4069f0
  406996:	40                   	inc    eax
  406997:	50                   	push   eax
  406998:	e8 d7 e7 ff ff       	call   0x405174
  40699d:	8b f8                	mov    edi,eax
  40699f:	59                   	pop    ecx
  4069a0:	59                   	pop    ecx
  4069a1:	85 ff                	test   edi,edi
  4069a3:	74 0d                	je     0x4069b2
  4069a5:	ff 75 08             	push   DWORD PTR [ebp+0x8]
  4069a8:	57                   	push   edi
  4069a9:	e8 8c ff ff ff       	call   0x40693a
  4069ae:	59                   	pop    ecx
  4069af:	59                   	pop    ecx
  4069b0:	8b c7                	mov    eax,edi
  4069b2:	5f                   	pop    edi
  4069b3:	5d                   	pop    ebp
  4069b4:	c3                   	ret    
  4069b5:	55                   	push   ebp
  4069b6:	8b ec                	mov    ebp,esp
  4069b8:	83 7d 08 00          	cmp    DWORD PTR [ebp+0x8],0x0
  4069bc:	75 04                	jne    0x4069c2
  4069be:	33 c0                	xor    eax,eax
  4069c0:	5d                   	pop    ebp
  4069c1:	c3                   	ret    
  4069c2:	57                   	push   edi
  4069c3:	ff 75 08             	push   DWORD PTR [ebp+0x8]
  4069c6:	e8 38 00 00 00       	call   0x406a03
  4069cb:	8d 04 45 02 00 00 00 	lea    eax,[eax*2+0x2]
  4069d2:	50                   	push   eax
  4069d3:	e8 9c e7 ff ff       	call   0x405174
  4069d8:	8b f8                	mov    edi,eax
  4069da:	59                   	pop    ecx
  4069db:	59                   	pop    ecx
  4069dc:	85 ff                	test   edi,edi
  4069de:	74 0d                	je     0x4069ed
  4069e0:	ff 75 08             	push   DWORD PTR [ebp+0x8]
  4069e3:	57                   	push   edi
  4069e4:	e8 71 ff ff ff       	call   0x40695a
  4069e9:	59                   	pop    ecx
  4069ea:	59                   	pop    ecx
  4069eb:	8b c7                	mov    eax,edi
  4069ed:	5f                   	pop    edi
  4069ee:	5d                   	pop    ebp
  4069ef:	c3                   	ret    
  4069f0:	55                   	push   ebp
  4069f1:	8b ec                	mov    ebp,esp
  4069f3:	8b 45 08             	mov    eax,DWORD PTR [ebp+0x8]
  4069f6:	8a 08                	mov    cl,BYTE PTR [eax]
  4069f8:	40                   	inc    eax
  4069f9:	84 c9                	test   cl,cl
  4069fb:	75 f9                	jne    0x4069f6
  4069fd:	2b 45 08             	sub    eax,DWORD PTR [ebp+0x8]
  406a00:	48                   	dec    eax
  406a01:	5d                   	pop    ebp
  406a02:	c3                   	ret    
  406a03:	55                   	push   ebp
  406a04:	8b ec                	mov    ebp,esp
  406a06:	8b 55 08             	mov    edx,DWORD PTR [ebp+0x8]
  406a09:	85 d2                	test   edx,edx
  406a0b:	75 04                	jne    0x406a11
  406a0d:	33 c0                	xor    eax,eax
  406a0f:	5d                   	pop    ebp
  406a10:	c3                   	ret    
  406a11:	8b c2                	mov    eax,edx
  406a13:	66 8b 08             	mov    cx,WORD PTR [eax]
  406a16:	83 c0 02             	add    eax,0x2
  406a19:	66 85 c9             	test   cx,cx
  406a1c:	75 f5                	jne    0x406a13
  406a1e:	2b c2                	sub    eax,edx
  406a20:	d1 f8                	sar    eax,1
  406a22:	48                   	dec    eax
  406a23:	5d                   	pop    ebp
  406a24:	c3                   	ret    
  406a25:	55                   	push   ebp
  406a26:	8b ec                	mov    ebp,esp
  406a28:	8b 4d 10             	mov    ecx,DWORD PTR [ebp+0x10]
  406a2b:	56                   	push   esi
  406a2c:	57                   	push   edi
  406a2d:	8b 7d 08             	mov    edi,DWORD PTR [ebp+0x8]
  406a30:	8b f7                	mov    esi,edi
  406a32:	85 c9                	test   ecx,ecx
  406a34:	74 2d                	je     0x406a63
  406a36:	8b 55 0c             	mov    edx,DWORD PTR [ebp+0xc]
  406a39:	2b d7                	sub    edx,edi
  406a3b:	0f b7 04 3a          	movzx  eax,WORD PTR [edx+edi*1]
  406a3f:	66 89 07             	mov    WORD PTR [edi],ax
  406a42:	83 c7 02             	add    edi,0x2
  406a45:	66 85 c0             	test   ax,ax
  406a48:	74 05                	je     0x406a4f
  406a4a:	83 e9 01             	sub    ecx,0x1
  406a4d:	75 ec                	jne    0x406a3b
  406a4f:	85 c9                	test   ecx,ecx
  406a51:	74 10                	je     0x406a63
  406a53:	83 e9 01             	sub    ecx,0x1
  406a56:	74 0b                	je     0x406a63
  406a58:	33 c0                	xor    eax,eax
  406a5a:	d1 e9                	shr    ecx,1
  406a5c:	f3 ab                	rep stos DWORD PTR es:[edi],eax
  406a5e:	13 c9                	adc    ecx,ecx
  406a60:	66 f3 ab             	rep stos WORD PTR es:[edi],ax
  406a63:	5f                   	pop    edi
  406a64:	8b c6                	mov    eax,esi
  406a66:	5e                   	pop    esi
  406a67:	5d                   	pop    ebp
  406a68:	c3                   	ret    
  406a69:	55                   	push   ebp
  406a6a:	8b ec                	mov    ebp,esp
  406a6c:	8b 55 08             	mov    edx,DWORD PTR [ebp+0x8]
  406a6f:	33 c0                	xor    eax,eax
  406a71:	53                   	push   ebx
  406a72:	8b 5d 0c             	mov    ebx,DWORD PTR [ebp+0xc]
  406a75:	66 39 03             	cmp    WORD PTR [ebx],ax
  406a78:	75 04                	jne    0x406a7e
  406a7a:	8b c2                	mov    eax,edx
  406a7c:	eb 4b                	jmp    0x406ac9
  406a7e:	0f b7 02             	movzx  eax,WORD PTR [edx]
  406a81:	56                   	push   esi
  406a82:	57                   	push   edi
  406a83:	66 85 c0             	test   ax,ax
  406a86:	74 3d                	je     0x406ac5
  406a88:	8b fa                	mov    edi,edx
  406a8a:	2b fb                	sub    edi,ebx
  406a8c:	8b f3                	mov    esi,ebx
  406a8e:	66 85 c0             	test   ax,ax
  406a91:	74 1d                	je     0x406ab0
  406a93:	0f b7 06             	movzx  eax,WORD PTR [esi]
  406a96:	66 85 c0             	test   ax,ax
  406a99:	74 31                	je     0x406acc
  406a9b:	0f b7 0c 37          	movzx  ecx,WORD PTR [edi+esi*1]
  406a9f:	2b c8                	sub    ecx,eax
  406aa1:	75 0d                	jne    0x406ab0
  406aa3:	83 c6 02             	add    esi,0x2
  406aa6:	33 c0                	xor    eax,eax
  406aa8:	66 39 04 37          	cmp    WORD PTR [edi+esi*1],ax
  406aac:	75 e5                	jne    0x406a93
  406aae:	eb 02                	jmp    0x406ab2
  406ab0:	33 c0                	xor    eax,eax
  406ab2:	66 39 06             	cmp    WORD PTR [esi],ax
  406ab5:	74 15                	je     0x406acc
  406ab7:	83 c2 02             	add    edx,0x2
  406aba:	83 c7 02             	add    edi,0x2
  406abd:	0f b7 02             	movzx  eax,WORD PTR [edx]
  406ac0:	66 85 c0             	test   ax,ax
  406ac3:	75 c7                	jne    0x406a8c
  406ac5:	33 c0                	xor    eax,eax
  406ac7:	5f                   	pop    edi
  406ac8:	5e                   	pop    esi
  406ac9:	5b                   	pop    ebx
  406aca:	5d                   	pop    ebp
  406acb:	c3                   	ret    
  406acc:	8b c2                	mov    eax,edx
  406ace:	eb f7                	jmp    0x406ac7
  406ad0:	55                   	push   ebp
  406ad1:	8b ec                	mov    ebp,esp
  406ad3:	8b 45 08             	mov    eax,DWORD PTR [ebp+0x8]
  406ad6:	85 c0                	test   eax,eax
  406ad8:	75 05                	jne    0x406adf
  406ada:	8b 45 10             	mov    eax,DWORD PTR [ebp+0x10]
  406add:	8b 00                	mov    eax,DWORD PTR [eax]
  406adf:	0f b7 08             	movzx  ecx,WORD PTR [eax]
  406ae2:	53                   	push   ebx
  406ae3:	56                   	push   esi
  406ae4:	33 f6                	xor    esi,esi
  406ae6:	57                   	push   edi
  406ae7:	8b 7d 0c             	mov    edi,DWORD PTR [ebp+0xc]
  406aea:	66 85 c9             	test   cx,cx
  406aed:	74 2e                	je     0x406b1d
  406aef:	0f b7 1f             	movzx  ebx,WORD PTR [edi]
  406af2:	8b d7                	mov    edx,edi
  406af4:	66 85 db             	test   bx,bx
  406af7:	74 14                	je     0x406b0d
  406af9:	8b f3                	mov    esi,ebx
  406afb:	66 3b f1             	cmp    si,cx
  406afe:	74 0b                	je     0x406b0b
  406b00:	83 c2 02             	add    edx,0x2
  406b03:	0f b7 32             	movzx  esi,WORD PTR [edx]
  406b06:	66 85 f6             	test   si,si
  406b09:	75 f0                	jne    0x406afb
  406b0b:	33 f6                	xor    esi,esi
  406b0d:	66 39 32             	cmp    WORD PTR [edx],si
  406b10:	74 0b                	je     0x406b1d
  406b12:	83 c0 02             	add    eax,0x2
  406b15:	0f b7 08             	movzx  ecx,WORD PTR [eax]
  406b18:	66 85 c9             	test   cx,cx
  406b1b:	75 d5                	jne    0x406af2
  406b1d:	8b c8                	mov    ecx,eax
  406b1f:	66 39 30             	cmp    WORD PTR [eax],si
  406b22:	74 3c                	je     0x406b60
  406b24:	0f b7 1f             	movzx  ebx,WORD PTR [edi]
  406b27:	8b d7                	mov    edx,edi
  406b29:	66 85 db             	test   bx,bx
  406b2c:	74 1b                	je     0x406b49
  406b2e:	0f b7 30             	movzx  esi,WORD PTR [eax]
  406b31:	89 75 08             	mov    DWORD PTR [ebp+0x8],esi
  406b34:	8b f3                	mov    esi,ebx
  406b36:	66 3b 75 08          	cmp    si,WORD PTR [ebp+0x8]
  406b3a:	74 0b                	je     0x406b47
  406b3c:	83 c2 02             	add    edx,0x2
  406b3f:	0f b7 32             	movzx  esi,WORD PTR [edx]
  406b42:	66 85 f6             	test   si,si
  406b45:	75 ef                	jne    0x406b36
  406b47:	33 f6                	xor    esi,esi
  406b49:	66 39 32             	cmp    WORD PTR [edx],si
  406b4c:	75 0a                	jne    0x406b58
  406b4e:	83 c0 02             	add    eax,0x2
  406b51:	66 39 30             	cmp    WORD PTR [eax],si
  406b54:	75 d1                	jne    0x406b27
  406b56:	eb 08                	jmp    0x406b60
  406b58:	33 d2                	xor    edx,edx
  406b5a:	66 89 10             	mov    WORD PTR [eax],dx
  406b5d:	83 c0 02             	add    eax,0x2
  406b60:	8b 55 10             	mov    edx,DWORD PTR [ebp+0x10]
  406b63:	5f                   	pop    edi
  406b64:	5e                   	pop    esi
  406b65:	5b                   	pop    ebx
  406b66:	89 02                	mov    DWORD PTR [edx],eax
  406b68:	33 d2                	xor    edx,edx
  406b6a:	3b c8                	cmp    ecx,eax
  406b6c:	0f 44 ca             	cmove  ecx,edx
  406b6f:	8b c1                	mov    eax,ecx
  406b71:	5d                   	pop    ebp
  406b72:	c3                   	ret    
  406b73:	55                   	push   ebp
  406b74:	8b ec                	mov    ebp,esp
  406b76:	53                   	push   ebx
  406b77:	56                   	push   esi
  406b78:	57                   	push   edi
  406b79:	33 db                	xor    ebx,ebx
  406b7b:	53                   	push   ebx
  406b7c:	53                   	push   ebx
  406b7d:	53                   	push   ebx
  406b7e:	53                   	push   ebx
  406b7f:	6a ff                	push   0xffffffff
  406b81:	ff 75 08             	push   DWORD PTR [ebp+0x8]
  406b84:	8b f3                	mov    esi,ebx
  406b86:	53                   	push   ebx
  406b87:	53                   	push   ebx
  406b88:	ff 15 f0 25 41 00    	call   DWORD PTR ds:0x4125f0
  406b8e:	8b f8                	mov    edi,eax
  406b90:	85 ff                	test   edi,edi
  406b92:	74 2e                	je     0x406bc2
  406b94:	8d 04 3f             	lea    eax,[edi+edi*1]
  406b97:	50                   	push   eax
  406b98:	e8 d7 e5 ff ff       	call   0x405174
  406b9d:	8b f0                	mov    esi,eax
  406b9f:	59                   	pop    ecx
  406ba0:	85 f6                	test   esi,esi
  406ba2:	74 1e                	je     0x406bc2
  406ba4:	53                   	push   ebx
  406ba5:	53                   	push   ebx
  406ba6:	57                   	push   edi
  406ba7:	56                   	push   esi
  406ba8:	6a ff                	push   0xffffffff
  406baa:	ff 75 08             	push   DWORD PTR [ebp+0x8]
  406bad:	53                   	push   ebx
  406bae:	53                   	push   ebx
  406baf:	ff 15 f0 25 41 00    	call   DWORD PTR ds:0x4125f0
  406bb5:	85 c0                	test   eax,eax
  406bb7:	75 09                	jne    0x406bc2
  406bb9:	56                   	push   esi
  406bba:	e8 02 e6 ff ff       	call   0x4051c1
  406bbf:	59                   	pop    ecx
  406bc0:	8b f3                	mov    esi,ebx
  406bc2:	5f                   	pop    edi
  406bc3:	8b c6                	mov    eax,esi
  406bc5:	5e                   	pop    esi
  406bc6:	5b                   	pop    ebx
  406bc7:	5d                   	pop    ebp
  406bc8:	c3                   	ret    
  406bc9:	55                   	push   ebp
  406bca:	8b ec                	mov    ebp,esp
  406bcc:	56                   	push   esi
  406bcd:	8b 75 08             	mov    esi,DWORD PTR [ebp+0x8]
  406bd0:	57                   	push   edi
  406bd1:	33 ff                	xor    edi,edi
  406bd3:	39 7e 04             	cmp    DWORD PTR [esi+0x4],edi
  406bd6:	76 47                	jbe    0x406c1f
  406bd8:	53                   	push   ebx
  406bd9:	8b 46 08             	mov    eax,DWORD PTR [esi+0x8]
  406bdc:	8b 1c b8             	mov    ebx,DWORD PTR [eax+edi*4]
  406bdf:	eb 33                	jmp    0x406c14
  406be1:	8b c3                	mov    eax,ebx
  406be3:	8b 5b 08             	mov    ebx,DWORD PTR [ebx+0x8]
  406be6:	89 45 08             	mov    DWORD PTR [ebp+0x8],eax
  406be9:	8b 08                	mov    ecx,DWORD PTR [eax]
  406beb:	85 c9                	test   ecx,ecx
  406bed:	74 0a                	je     0x406bf9
  406bef:	51                   	push   ecx
  406bf0:	e8 cc e5 ff ff       	call   0x4051c1
  406bf5:	8b 45 08             	mov    eax,DWORD PTR [ebp+0x8]
  406bf8:	59                   	pop    ecx
  406bf9:	8b 48 04             	mov    ecx,DWORD PTR [eax+0x4]
  406bfc:	85 c9                	test   ecx,ecx
  406bfe:	74 0a                	je     0x406c0a
  406c00:	51                   	push   ecx
  406c01:	e8 bb e5 ff ff       	call   0x4051c1
  406c06:	8b 45 08             	mov    eax,DWORD PTR [ebp+0x8]
  406c09:	59                   	pop    ecx
  406c0a:	50                   	push   eax
  406c0b:	ff 36                	push   DWORD PTR [esi]
  406c0d:	e8 4c e5 ff ff       	call   0x40515e
  406c12:	59                   	pop    ecx
  406c13:	59                   	pop    ecx
  406c14:	85 db                	test   ebx,ebx
  406c16:	75 c9                	jne    0x406be1
  406c18:	47                   	inc    edi
  406c19:	3b 7e 04             	cmp    edi,DWORD PTR [esi+0x4]
  406c1c:	72 bb                	jb     0x406bd9
  406c1e:	5b                   	pop    ebx
  406c1f:	ff 76 08             	push   DWORD PTR [esi+0x8]
  406c22:	ff 36                	push   DWORD PTR [esi]
  406c24:	e8 35 e5 ff ff       	call   0x40515e
  406c29:	ff 36                	push   DWORD PTR [esi]
  406c2b:	e8 20 e5 ff ff       	call   0x405150
  406c30:	83 c4 0c             	add    esp,0xc
  406c33:	5f                   	pop    edi
  406c34:	5e                   	pop    esi
  406c35:	5d                   	pop    ebp
  406c36:	c3                   	ret    
  406c37:	55                   	push   ebp
  406c38:	8b ec                	mov    ebp,esp
  406c3a:	56                   	push   esi
  406c3b:	ff 75 0c             	push   DWORD PTR [ebp+0xc]
  406c3e:	e8 12 f9 ff ff       	call   0x406555
  406c43:	59                   	pop    ecx
  406c44:	8b 4d 08             	mov    ecx,DWORD PTR [ebp+0x8]
  406c47:	33 d2                	xor    edx,edx
  406c49:	f7 71 04             	div    DWORD PTR [ecx+0x4]
  406c4c:	8b 41 08             	mov    eax,DWORD PTR [ecx+0x8]
  406c4f:	8b 34 90             	mov    esi,DWORD PTR [eax+edx*4]
  406c52:	eb 13                	jmp    0x406c67
  406c54:	ff 75 0c             	push   DWORD PTR [ebp+0xc]
  406c57:	ff 36                	push   DWORD PTR [esi]
  406c59:	e8 59 fc ff ff       	call   0x4068b7
  406c5e:	59                   	pop    ecx
  406c5f:	59                   	pop    ecx
  406c60:	85 c0                	test   eax,eax
  406c62:	74 0c                	je     0x406c70
  406c64:	8b 76 08             	mov    esi,DWORD PTR [esi+0x8]
  406c67:	85 f6                	test   esi,esi
  406c69:	75 e9                	jne    0x406c54
  406c6b:	33 c0                	xor    eax,eax
  406c6d:	5e                   	pop    esi
  406c6e:	5d                   	pop    ebp
  406c6f:	c3                   	ret    
  406c70:	33 c0                	xor    eax,eax
  406c72:	40                   	inc    eax
  406c73:	eb f8                	jmp    0x406c6d
  406c75:	55                   	push   ebp
  406c76:	8b ec                	mov    ebp,esp
  406c78:	56                   	push   esi
  406c79:	ff 75 0c             	push   DWORD PTR [ebp+0xc]
  406c7c:	e8 f2 f8 ff ff       	call   0x406573
  406c81:	59                   	pop    ecx
  406c82:	8b 4d 08             	mov    ecx,DWORD PTR [ebp+0x8]
  406c85:	33 d2                	xor    edx,edx
  406c87:	f7 71 04             	div    DWORD PTR [ecx+0x4]
  406c8a:	8b 41 08             	mov    eax,DWORD PTR [ecx+0x8]
  406c8d:	8b 34 90             	mov    esi,DWORD PTR [eax+edx*4]
  406c90:	eb 14                	jmp    0x406ca6
  406c92:	ff 75 0c             	push   DWORD PTR [ebp+0xc]
  406c95:	ff 76 04             	push   DWORD PTR [esi+0x4]
  406c98:	e8 5c fc ff ff       	call   0x4068f9
  406c9d:	59                   	pop    ecx
  406c9e:	59                   	pop    ecx
  406c9f:	85 c0                	test   eax,eax
  406ca1:	74 0c                	je     0x406caf
  406ca3:	8b 76 08             	mov    esi,DWORD PTR [esi+0x8]
  406ca6:	85 f6                	test   esi,esi
  406ca8:	75 e8                	jne    0x406c92
  406caa:	33 c0                	xor    eax,eax
  406cac:	5e                   	pop    esi
  406cad:	5d                   	pop    ebp
  406cae:	c3                   	ret    
  406caf:	33 c0                	xor    eax,eax
  406cb1:	40                   	inc    eax
  406cb2:	eb f8                	jmp    0x406cac
  406cb4:	55                   	push   ebp
  406cb5:	8b ec                	mov    ebp,esp
  406cb7:	56                   	push   esi
  406cb8:	ff 75 0c             	push   DWORD PTR [ebp+0xc]
  406cbb:	e8 73 e4 ff ff       	call   0x405133
  406cc0:	8b 75 08             	mov    esi,DWORD PTR [ebp+0x8]
  406cc3:	59                   	pop    ecx
  406cc4:	8b c8                	mov    ecx,eax
  406cc6:	33 c0                	xor    eax,eax
  406cc8:	89 0e                	mov    DWORD PTR [esi],ecx
  406cca:	85 c9                	test   ecx,ecx
  406ccc:	74 43                	je     0x406d11
  406cce:	8b 55 10             	mov    edx,DWORD PTR [ebp+0x10]
  406cd1:	39 14 85 28 25 41 00 	cmp    DWORD PTR [eax*4+0x412528],edx
  406cd8:	77 0b                	ja     0x406ce5
  406cda:	40                   	inc    eax
  406cdb:	83 f8 1a             	cmp    eax,0x1a
  406cde:	72 f1                	jb     0x406cd1
  406ce0:	8b 45 08             	mov    eax,DWORD PTR [ebp+0x8]
  406ce3:	eb 07                	jmp    0x406cec
  406ce5:	8b 04 85 28 25 41 00 	mov    eax,DWORD PTR [eax*4+0x412528]
  406cec:	89 46 04             	mov    DWORD PTR [esi+0x4],eax
  406cef:	c1 e0 02             	shl    eax,0x2
  406cf2:	50                   	push   eax
  406cf3:	51                   	push   ecx
  406cf4:	e8 11 e4 ff ff       	call   0x40510a
  406cf9:	89 46 08             	mov    DWORD PTR [esi+0x8],eax
  406cfc:	59                   	pop    ecx
  406cfd:	59                   	pop    ecx
  406cfe:	85 c0                	test   eax,eax
  406d00:	74 05                	je     0x406d07
  406d02:	33 c0                	xor    eax,eax
  406d04:	40                   	inc    eax
  406d05:	eb 0a                	jmp    0x406d11
  406d07:	ff 36                	push   DWORD PTR [esi]
  406d09:	e8 42 e4 ff ff       	call   0x405150
  406d0e:	59                   	pop    ecx
  406d0f:	33 c0                	xor    eax,eax
  406d11:	5e                   	pop    esi
  406d12:	5d                   	pop    ebp
  406d13:	c3                   	ret    
  406d14:	55                   	push   ebp
  406d15:	8b ec                	mov    ebp,esp
  406d17:	51                   	push   ecx
  406d18:	57                   	push   edi
  406d19:	ff 75 0c             	push   DWORD PTR [ebp+0xc]
  406d1c:	8b 7d 08             	mov    edi,DWORD PTR [ebp+0x8]
  406d1f:	57                   	push   edi
  406d20:	e8 12 ff ff ff       	call   0x406c37
  406d25:	59                   	pop    ecx
  406d26:	59                   	pop    ecx
  406d27:	85 c0                	test   eax,eax
  406d29:	74 07                	je     0x406d32
  406d2b:	33 c0                	xor    eax,eax
  406d2d:	e9 82 00 00 00       	jmp    0x406db4
  406d32:	56                   	push   esi
  406d33:	ff 75 0c             	push   DWORD PTR [ebp+0xc]
  406d36:	e8 1a f8 ff ff       	call   0x406555
  406d3b:	33 d2                	xor    edx,edx
  406d3d:	f7 77 04             	div    DWORD PTR [edi+0x4]
  406d40:	6a 0c                	push   0xc
  406d42:	ff 37                	push   DWORD PTR [edi]
  406d44:	89 55 fc             	mov    DWORD PTR [ebp-0x4],edx
  406d47:	e8 be e3 ff ff       	call   0x40510a
  406d4c:	8b f0                	mov    esi,eax
  406d4e:	83 c4 0c             	add    esp,0xc
  406d51:	85 f6                	test   esi,esi
  406d53:	74 5c                	je     0x406db1
  406d55:	ff 75 0c             	push   DWORD PTR [ebp+0xc]
  406d58:	e8 23 fc ff ff       	call   0x406980
  406d5d:	89 06                	mov    DWORD PTR [esi],eax
  406d5f:	59                   	pop    ecx
  406d60:	85 c0                	test   eax,eax
  406d62:	74 27                	je     0x406d8b
  406d64:	ff 75 0c             	push   DWORD PTR [ebp+0xc]
  406d67:	e8 d3 f6 ff ff       	call   0x40643f
  406d6c:	89 46 04             	mov    DWORD PTR [esi+0x4],eax
  406d6f:	59                   	pop    ecx
  406d70:	85 c0                	test   eax,eax
  406d72:	74 17                	je     0x406d8b
  406d74:	8b 47 08             	mov    eax,DWORD PTR [edi+0x8]
  406d77:	8b 4d fc             	mov    ecx,DWORD PTR [ebp-0x4]
  406d7a:	8b 04 88             	mov    eax,DWORD PTR [eax+ecx*4]
  406d7d:	89 46 08             	mov    DWORD PTR [esi+0x8],eax
  406d80:	8b 47 08             	mov    eax,DWORD PTR [edi+0x8]
  406d83:	89 34 88             	mov    DWORD PTR [eax+ecx*4],esi
  406d86:	33 c0                	xor    eax,eax
  406d88:	40                   	inc    eax
  406d89:	eb 28                	jmp    0x406db3
  406d8b:	83 3e 00             	cmp    DWORD PTR [esi],0x0
  406d8e:	74 08                	je     0x406d98
  406d90:	ff 36                	push   DWORD PTR [esi]
  406d92:	e8 2a e4 ff ff       	call   0x4051c1
  406d97:	59                   	pop    ecx
  406d98:	83 7e 04 00          	cmp    DWORD PTR [esi+0x4],0x0
  406d9c:	74 09                	je     0x406da7
  406d9e:	ff 76 04             	push   DWORD PTR [esi+0x4]
  406da1:	e8 1b e4 ff ff       	call   0x4051c1
  406da6:	59                   	pop    ecx
  406da7:	56                   	push   esi
  406da8:	ff 37                	push   DWORD PTR [edi]
  406daa:	e8 af e3 ff ff       	call   0x40515e
  406daf:	59                   	pop    ecx
  406db0:	59                   	pop    ecx
  406db1:	33 c0                	xor    eax,eax
  406db3:	5e                   	pop    esi
  406db4:	5f                   	pop    edi
  406db5:	8b e5                	mov    esp,ebp
  406db7:	5d                   	pop    ebp
  406db8:	c3                   	ret    
  406db9:	55                   	push   ebp
  406dba:	8b ec                	mov    ebp,esp
  406dbc:	51                   	push   ecx
  406dbd:	57                   	push   edi
  406dbe:	ff 75 0c             	push   DWORD PTR [ebp+0xc]
  406dc1:	8b 7d 08             	mov    edi,DWORD PTR [ebp+0x8]
  406dc4:	57                   	push   edi
  406dc5:	e8 ab fe ff ff       	call   0x406c75
  406dca:	59                   	pop    ecx
  406dcb:	59                   	pop    ecx
  406dcc:	85 c0                	test   eax,eax
  406dce:	74 07                	je     0x406dd7
  406dd0:	33 c0                	xor    eax,eax
  406dd2:	e9 82 00 00 00       	jmp    0x406e59
  406dd7:	56                   	push   esi
  406dd8:	ff 75 0c             	push   DWORD PTR [ebp+0xc]
  406ddb:	e8 93 f7 ff ff       	call   0x406573
  406de0:	33 d2                	xor    edx,edx
  406de2:	f7 77 04             	div    DWORD PTR [edi+0x4]
  406de5:	6a 0c                	push   0xc
  406de7:	ff 37                	push   DWORD PTR [edi]
  406de9:	89 55 fc             	mov    DWORD PTR [ebp-0x4],edx
  406dec:	e8 19 e3 ff ff       	call   0x40510a
  406df1:	8b f0                	mov    esi,eax
  406df3:	83 c4 0c             	add    esp,0xc
  406df6:	85 f6                	test   esi,esi
  406df8:	74 5c                	je     0x406e56
  406dfa:	ff 75 0c             	push   DWORD PTR [ebp+0xc]
  406dfd:	e8 71 fd ff ff       	call   0x406b73
  406e02:	89 06                	mov    DWORD PTR [esi],eax
  406e04:	59                   	pop    ecx
  406e05:	85 c0                	test   eax,eax
  406e07:	74 27                	je     0x406e30
  406e09:	ff 75 0c             	push   DWORD PTR [ebp+0xc]
  406e0c:	e8 a4 fb ff ff       	call   0x4069b5
  406e11:	89 46 04             	mov    DWORD PTR [esi+0x4],eax
  406e14:	59                   	pop    ecx
  406e15:	85 c0                	test   eax,eax
  406e17:	74 17                	je     0x406e30
  406e19:	8b 47 08             	mov    eax,DWORD PTR [edi+0x8]
  406e1c:	8b 4d fc             	mov    ecx,DWORD PTR [ebp-0x4]
  406e1f:	8b 04 88             	mov    eax,DWORD PTR [eax+ecx*4]
  406e22:	89 46 08             	mov    DWORD PTR [esi+0x8],eax
  406e25:	8b 47 08             	mov    eax,DWORD PTR [edi+0x8]
  406e28:	89 34 88             	mov    DWORD PTR [eax+ecx*4],esi
  406e2b:	33 c0                	xor    eax,eax
  406e2d:	40                   	inc    eax
  406e2e:	eb 28                	jmp    0x406e58
  406e30:	83 3e 00             	cmp    DWORD PTR [esi],0x0
  406e33:	74 08                	je     0x406e3d
  406e35:	ff 36                	push   DWORD PTR [esi]
  406e37:	e8 85 e3 ff ff       	call   0x4051c1
  406e3c:	59                   	pop    ecx
  406e3d:	83 7e 04 00          	cmp    DWORD PTR [esi+0x4],0x0
  406e41:	74 09                	je     0x406e4c
  406e43:	ff 76 04             	push   DWORD PTR [esi+0x4]
  406e46:	e8 76 e3 ff ff       	call   0x4051c1
  406e4b:	59                   	pop    ecx
  406e4c:	56                   	push   esi
  406e4d:	ff 37                	push   DWORD PTR [edi]
  406e4f:	e8 0a e3 ff ff       	call   0x40515e
  406e54:	59                   	pop    ecx
  406e55:	59                   	pop    ecx
  406e56:	33 c0                	xor    eax,eax
  406e58:	5e                   	pop    esi
  406e59:	5f                   	pop    edi
  406e5a:	8b e5                	mov    esp,ebp
  406e5c:	5d                   	pop    ebp
  406e5d:	c3                   	ret    
  406e5e:	55                   	push   ebp
  406e5f:	8b ec                	mov    ebp,esp
  406e61:	56                   	push   esi
  406e62:	57                   	push   edi
  406e63:	8b 7d 08             	mov    edi,DWORD PTR [ebp+0x8]
  406e66:	33 f6                	xor    esi,esi
  406e68:	39 77 08             	cmp    DWORD PTR [edi+0x8],esi
  406e6b:	76 21                	jbe    0x406e8e
  406e6d:	8b 47 0c             	mov    eax,DWORD PTR [edi+0xc]
  406e70:	8b 04 b0             	mov    eax,DWORD PTR [eax+esi*4]
  406e73:	83 78 04 05          	cmp    DWORD PTR [eax+0x4],0x5
  406e77:	75 1c                	jne    0x406e95
  406e79:	ff 70 08             	push   DWORD PTR [eax+0x8]
  406e7c:	ff 70 0c             	push   DWORD PTR [eax+0xc]
  406e7f:	ff 75 0c             	push   DWORD PTR [ebp+0xc]
  406e82:	ff 55 10             	call   DWORD PTR [ebp+0x10]
  406e85:	83 c4 0c             	add    esp,0xc
  406e88:	46                   	inc    esi
  406e89:	3b 77 08             	cmp    esi,DWORD PTR [edi+0x8]
  406e8c:	72 df                	jb     0x406e6d
  406e8e:	33 c0                	xor    eax,eax
  406e90:	40                   	inc    eax
  406e91:	5f                   	pop    edi
  406e92:	5e                   	pop    esi
  406e93:	5d                   	pop    ebp
  406e94:	c3                   	ret    
  406e95:	33 c0                	xor    eax,eax
  406e97:	eb f8                	jmp    0x406e91
  406e99:	55                   	push   ebp
  406e9a:	8b ec                	mov    ebp,esp
  406e9c:	83 ec 0c             	sub    esp,0xc
  406e9f:	53                   	push   ebx
  406ea0:	56                   	push   esi
  406ea1:	8b 75 08             	mov    esi,DWORD PTR [ebp+0x8]
  406ea4:	57                   	push   edi
  406ea5:	33 ff                	xor    edi,edi
  406ea7:	39 7e 08             	cmp    DWORD PTR [esi+0x8],edi
  406eaa:	76 72                	jbe    0x406f1e
  406eac:	33 db                	xor    ebx,ebx
  406eae:	8b 46 0c             	mov    eax,DWORD PTR [esi+0xc]
  406eb1:	8b 0c 18             	mov    ecx,DWORD PTR [eax+ebx*1]
  406eb4:	8b 44 18 08          	mov    eax,DWORD PTR [eax+ebx*1+0x8]
  406eb8:	89 45 f8             	mov    DWORD PTR [ebp-0x8],eax
  406ebb:	33 c0                	xor    eax,eax
  406ebd:	89 4d f4             	mov    DWORD PTR [ebp-0xc],ecx
  406ec0:	89 45 fc             	mov    DWORD PTR [ebp-0x4],eax
  406ec3:	39 45 10             	cmp    DWORD PTR [ebp+0x10],eax
  406ec6:	7e 4d                	jle    0x406f15
  406ec8:	8b 45 0c             	mov    eax,DWORD PTR [ebp+0xc]
  406ecb:	89 45 08             	mov    DWORD PTR [ebp+0x8],eax
  406ece:	ff 30                	push   DWORD PTR [eax]
  406ed0:	51                   	push   ecx
  406ed1:	e8 e1 f9 ff ff       	call   0x4068b7
  406ed6:	59                   	pop    ecx
  406ed7:	59                   	pop    ecx
  406ed8:	85 c0                	test   eax,eax
  406eda:	75 0e                	jne    0x406eea
  406edc:	8b 55 f8             	mov    edx,DWORD PTR [ebp-0x8]
  406edf:	8b 4d 08             	mov    ecx,DWORD PTR [ebp+0x8]
  406ee2:	8b 42 04             	mov    eax,DWORD PTR [edx+0x4]
  406ee5:	3b 41 04             	cmp    eax,DWORD PTR [ecx+0x4]
  406ee8:	74 1a                	je     0x406f04
  406eea:	8b 4d fc             	mov    ecx,DWORD PTR [ebp-0x4]
  406eed:	8b 45 08             	mov    eax,DWORD PTR [ebp+0x8]
  406ef0:	41                   	inc    ecx
  406ef1:	83 c0 0c             	add    eax,0xc
  406ef4:	89 4d fc             	mov    DWORD PTR [ebp-0x4],ecx
  406ef7:	89 45 08             	mov    DWORD PTR [ebp+0x8],eax
  406efa:	3b 4d 10             	cmp    ecx,DWORD PTR [ebp+0x10]
  406efd:	7d 16                	jge    0x406f15
  406eff:	8b 4d f4             	mov    ecx,DWORD PTR [ebp-0xc]
  406f02:	eb ca                	jmp    0x406ece
  406f04:	6b 45 fc 0c          	imul   eax,DWORD PTR [ebp-0x4],0xc
  406f08:	8b 4d 0c             	mov    ecx,DWORD PTR [ebp+0xc]
  406f0b:	52                   	push   edx
  406f0c:	ff 54 08 08          	call   DWORD PTR [eax+ecx*1+0x8]
  406f10:	59                   	pop    ecx
  406f11:	85 c0                	test   eax,eax
  406f13:	74 13                	je     0x406f28
  406f15:	47                   	inc    edi
  406f16:	83 c3 0c             	add    ebx,0xc
  406f19:	3b 7e 08             	cmp    edi,DWORD PTR [esi+0x8]
  406f1c:	72 90                	jb     0x406eae
  406f1e:	33 c0                	xor    eax,eax
  406f20:	40                   	inc    eax
  406f21:	5f                   	pop    edi
  406f22:	5e                   	pop    esi
  406f23:	5b                   	pop    ebx
  406f24:	8b e5                	mov    esp,ebp
  406f26:	5d                   	pop    ebp
  406f27:	c3                   	ret    
  406f28:	33 c0                	xor    eax,eax
  406f2a:	eb f5                	jmp    0x406f21
  406f2c:	55                   	push   ebp
  406f2d:	8b ec                	mov    ebp,esp
  406f2f:	ff 75 08             	push   DWORD PTR [ebp+0x8]
  406f32:	e8 48 00 00 00       	call   0x406f7f
  406f37:	59                   	pop    ecx
  406f38:	85 c0                	test   eax,eax
  406f3a:	75 02                	jne    0x406f3e
  406f3c:	5d                   	pop    ebp
  406f3d:	c3                   	ret    
  406f3e:	ff 75 0c             	push   DWORD PTR [ebp+0xc]
  406f41:	ff 75 08             	push   DWORD PTR [ebp+0x8]
  406f44:	e8 07 00 00 00       	call   0x406f50
  406f49:	59                   	pop    ecx
  406f4a:	33 c0                	xor    eax,eax
  406f4c:	59                   	pop    ecx
  406f4d:	40                   	inc    eax
  406f4e:	5d                   	pop    ebp
  406f4f:	c3                   	ret    
  406f50:	55                   	push   ebp
  406f51:	8b ec                	mov    ebp,esp
  406f53:	83 ec 20             	sub    esp,0x20
  406f56:	57                   	push   edi
  406f57:	6a 07                	push   0x7
  406f59:	59                   	pop    ecx
  406f5a:	33 c0                	xor    eax,eax
  406f5c:	c6 45 e0 09          	mov    BYTE PTR [ebp-0x20],0x9
  406f60:	8d 7d e1             	lea    edi,[ebp-0x1f]
  406f63:	f3 ab                	rep stos DWORD PTR es:[edi],eax
  406f65:	66 ab                	stos   WORD PTR es:[edi],ax
  406f67:	aa                   	stos   BYTE PTR es:[edi],al
  406f68:	8d 45 e0             	lea    eax,[ebp-0x20]
  406f6b:	50                   	push   eax
  406f6c:	ff 75 08             	push   DWORD PTR [ebp+0x8]
  406f6f:	ff 75 0c             	push   DWORD PTR [ebp+0xc]
  406f72:	e8 5e 32 00 00       	call   0x40a1d5
  406f77:	83 c4 0c             	add    esp,0xc
  406f7a:	5f                   	pop    edi
  406f7b:	8b e5                	mov    esp,ebp
  406f7d:	5d                   	pop    ebp
  406f7e:	c3                   	ret    
  406f7f:	55                   	push   ebp
  406f80:	8b ec                	mov    ebp,esp
  406f82:	56                   	push   esi
  406f83:	8b 75 08             	mov    esi,DWORD PTR [ebp+0x8]
  406f86:	6a 20                	push   0x20
  406f88:	56                   	push   esi
  406f89:	e8 39 02 00 00       	call   0x4071c7
  406f8e:	59                   	pop    ecx
  406f8f:	59                   	pop    ecx
  406f90:	85 c0                	test   eax,eax
  406f92:	74 10                	je     0x406fa4
  406f94:	8a 46 1f             	mov    al,BYTE PTR [esi+0x1f]
  406f97:	80 26 f8             	and    BYTE PTR [esi],0xf8
  406f9a:	24 3f                	and    al,0x3f
  406f9c:	0c 40                	or     al,0x40
  406f9e:	88 46 1f             	mov    BYTE PTR [esi+0x1f],al
  406fa1:	33 c0                	xor    eax,eax
  406fa3:	40                   	inc    eax
  406fa4:	5e                   	pop    esi
  406fa5:	5d                   	pop    ebp
  406fa6:	c3                   	ret    
  406fa7:	55                   	push   ebp
  406fa8:	8b ec                	mov    ebp,esp
  406faa:	ff 75 0c             	push   DWORD PTR [ebp+0xc]
  406fad:	ff 75 08             	push   DWORD PTR [ebp+0x8]
  406fb0:	ff 75 10             	push   DWORD PTR [ebp+0x10]
  406fb3:	e8 1d 32 00 00       	call   0x40a1d5
  406fb8:	83 c4 0c             	add    esp,0xc
  406fbb:	5d                   	pop    ebp
  406fbc:	c3                   	ret    
  406fbd:	55                   	push   ebp
  406fbe:	8b ec                	mov    ebp,esp
  406fc0:	51                   	push   ecx
  406fc1:	53                   	push   ebx
  406fc2:	56                   	push   esi
  406fc3:	33 f6                	xor    esi,esi
  406fc5:	57                   	push   edi
  406fc6:	8b 7d 08             	mov    edi,DWORD PTR [ebp+0x8]
  406fc9:	8b c6                	mov    eax,esi
  406fcb:	88 04 38             	mov    BYTE PTR [eax+edi*1],al
  406fce:	40                   	inc    eax
  406fcf:	3d 00 01 00 00       	cmp    eax,0x100
  406fd4:	72 f5                	jb     0x406fcb
  406fd6:	8b ce                	mov    ecx,esi
  406fd8:	89 75 fc             	mov    DWORD PTR [ebp-0x4],esi
  406fdb:	8b c1                	mov    eax,ecx
  406fdd:	8a 1c 39             	mov    bl,BYTE PTR [ecx+edi*1]
  406fe0:	33 d2                	xor    edx,edx
  406fe2:	0f b6 cb             	movzx  ecx,bl
  406fe5:	f7 75 10             	div    DWORD PTR [ebp+0x10]
  406fe8:	8b 45 0c             	mov    eax,DWORD PTR [ebp+0xc]
  406feb:	0f b6 04 02          	movzx  eax,BYTE PTR [edx+eax*1]
  406fef:	03 c6                	add    eax,esi
  406ff1:	03 c8                	add    ecx,eax
  406ff3:	0f b6 f1             	movzx  esi,cl
  406ff6:	8b 4d fc             	mov    ecx,DWORD PTR [ebp-0x4]
  406ff9:	8a 04 3e             	mov    al,BYTE PTR [esi+edi*1]
  406ffc:	88 04 39             	mov    BYTE PTR [ecx+edi*1],al
  406fff:	41                   	inc    ecx
  407000:	88 1c 3e             	mov    BYTE PTR [esi+edi*1],bl
  407003:	89 4d fc             	mov    DWORD PTR [ebp-0x4],ecx
  407006:	81 f9 00 01 00 00    	cmp    ecx,0x100
  40700c:	72 cd                	jb     0x406fdb
  40700e:	5f                   	pop    edi
  40700f:	5e                   	pop    esi
  407010:	5b                   	pop    ebx
  407011:	8b e5                	mov    esp,ebp
  407013:	5d                   	pop    ebp
  407014:	c3                   	ret    
  407015:	55                   	push   ebp
  407016:	8b ec                	mov    ebp,esp
  407018:	56                   	push   esi
  407019:	57                   	push   edi
  40701a:	8b 7d 10             	mov    edi,DWORD PTR [ebp+0x10]
  40701d:	33 f6                	xor    esi,esi
  40701f:	8b c6                	mov    eax,esi
  407021:	85 ff                	test   edi,edi
  407023:	74 5c                	je     0x407081
  407025:	53                   	push   ebx
  407026:	8b 5d 14             	mov    ebx,DWORD PTR [ebp+0x14]
  407029:	29 5d 0c             	sub    DWORD PTR [ebp+0xc],ebx
  40702c:	8b 55 08             	mov    edx,DWORD PTR [ebp+0x8]
  40702f:	40                   	inc    eax
  407030:	0f b6 c8             	movzx  ecx,al
  407033:	8b 45 08             	mov    eax,DWORD PTR [ebp+0x8]
  407036:	89 4d 10             	mov    DWORD PTR [ebp+0x10],ecx
  407039:	8b 5d 10             	mov    ebx,DWORD PTR [ebp+0x10]
  40703c:	8a 0c 01             	mov    cl,BYTE PTR [ecx+eax*1]
  40703f:	0f b6 c1             	movzx  eax,cl
  407042:	03 c6                	add    eax,esi
  407044:	0f b6 f0             	movzx  esi,al
  407047:	8b 45 08             	mov    eax,DWORD PTR [ebp+0x8]
  40704a:	8a 04 06             	mov    al,BYTE PTR [esi+eax*1]
  40704d:	88 04 13             	mov    BYTE PTR [ebx+edx*1],al
  407050:	8b c2                	mov    eax,edx
  407052:	8b d3                	mov    edx,ebx
  407054:	8b 5d 14             	mov    ebx,DWORD PTR [ebp+0x14]
  407057:	88 0c 06             	mov    BYTE PTR [esi+eax*1],cl
  40705a:	0f b6 04 02          	movzx  eax,BYTE PTR [edx+eax*1]
  40705e:	8b 55 0c             	mov    edx,DWORD PTR [ebp+0xc]
  407061:	0f b6 c9             	movzx  ecx,cl
  407064:	03 c8                	add    ecx,eax
  407066:	0f b6 c1             	movzx  eax,cl
  407069:	8b 4d 08             	mov    ecx,DWORD PTR [ebp+0x8]
  40706c:	8a 04 08             	mov    al,BYTE PTR [eax+ecx*1]
  40706f:	32 04 1a             	xor    al,BYTE PTR [edx+ebx*1]
  407072:	88 03                	mov    BYTE PTR [ebx],al
  407074:	43                   	inc    ebx
  407075:	8b 45 10             	mov    eax,DWORD PTR [ebp+0x10]
  407078:	89 5d 14             	mov    DWORD PTR [ebp+0x14],ebx
  40707b:	83 ef 01             	sub    edi,0x1
  40707e:	75 ac                	jne    0x40702c
  407080:	5b                   	pop    ebx
  407081:	5f                   	pop    edi
  407082:	5e                   	pop    esi
  407083:	5d                   	pop    ebp
  407084:	c3                   	ret    
  407085:	55                   	push   ebp
  407086:	8b ec                	mov    ebp,esp
  407088:	81 ec 14 01 00 00    	sub    esp,0x114
  40708e:	8d 85 ec fe ff ff    	lea    eax,[ebp-0x114]
  407094:	ff 75 08             	push   DWORD PTR [ebp+0x8]
  407097:	ff 75 0c             	push   DWORD PTR [ebp+0xc]
  40709a:	50                   	push   eax
  40709b:	e8 e1 1a 00 00       	call   0x408b81
  4070a0:	83 c4 0c             	add    esp,0xc
  4070a3:	85 c0                	test   eax,eax
  4070a5:	74 6d                	je     0x407114
  4070a7:	56                   	push   esi
  4070a8:	8b 75 10             	mov    esi,DWORD PTR [ebp+0x10]
  4070ab:	57                   	push   edi
  4070ac:	8d 7d f0             	lea    edi,[ebp-0x10]
  4070af:	a5                   	movs   DWORD PTR es:[edi],DWORD PTR ds:[esi]
  4070b0:	a5                   	movs   DWORD PTR es:[edi],DWORD PTR ds:[esi]
  4070b1:	a5                   	movs   DWORD PTR es:[edi],DWORD PTR ds:[esi]
  4070b2:	a5                   	movs   DWORD PTR es:[edi],DWORD PTR ds:[esi]
  4070b3:	8b 7d 18             	mov    edi,DWORD PTR [ebp+0x18]
  4070b6:	85 ff                	test   edi,edi
  4070b8:	74 42                	je     0x4070fc
  4070ba:	53                   	push   ebx
  4070bb:	8b 5d 14             	mov    ebx,DWORD PTR [ebp+0x14]
  4070be:	8d 45 e0             	lea    eax,[ebp-0x20]
  4070c1:	50                   	push   eax
  4070c2:	8d 45 f0             	lea    eax,[ebp-0x10]
  4070c5:	50                   	push   eax
  4070c6:	8d 85 ec fe ff ff    	lea    eax,[ebp-0x114]
  4070cc:	50                   	push   eax
  4070cd:	e8 93 1a 00 00       	call   0x408b65
  4070d2:	6a 10                	push   0x10
  4070d4:	5e                   	pop    esi
  4070d5:	3b fe                	cmp    edi,esi
  4070d7:	8d 45 e0             	lea    eax,[ebp-0x20]
  4070da:	0f 42 f7             	cmovb  esi,edi
  4070dd:	56                   	push   esi
  4070de:	50                   	push   eax
  4070df:	53                   	push   ebx
  4070e0:	e8 c4 01 00 00       	call   0x4072a9
  4070e5:	83 c4 18             	add    esp,0x18
  4070e8:	8d 45 ff             	lea    eax,[ebp-0x1]
  4070eb:	03 de                	add    ebx,esi
  4070ed:	2b fe                	sub    edi,esi
  4070ef:	80 00 01             	add    BYTE PTR [eax],0x1
  4070f2:	75 03                	jne    0x4070f7
  4070f4:	48                   	dec    eax
  4070f5:	eb f8                	jmp    0x4070ef
  4070f7:	85 ff                	test   edi,edi
  4070f9:	75 c3                	jne    0x4070be
  4070fb:	5b                   	pop    ebx
  4070fc:	8d 85 ec fe ff ff    	lea    eax,[ebp-0x114]
  407102:	68 f4 00 00 00       	push   0xf4
  407107:	50                   	push   eax
  407108:	e8 fb 01 00 00       	call   0x407308
  40710d:	59                   	pop    ecx
  40710e:	59                   	pop    ecx
  40710f:	33 c0                	xor    eax,eax
  407111:	5f                   	pop    edi
  407112:	40                   	inc    eax
  407113:	5e                   	pop    esi
  407114:	8b e5                	mov    esp,ebp
  407116:	5d                   	pop    ebp
  407117:	c3                   	ret    
  407118:	55                   	push   ebp
  407119:	8b ec                	mov    ebp,esp
  40711b:	8b 4d 08             	mov    ecx,DWORD PTR [ebp+0x8]
  40711e:	8b 55 10             	mov    edx,DWORD PTR [ebp+0x10]
  407121:	f7 d1                	not    ecx
  407123:	85 d2                	test   edx,edx
  407125:	74 2b                	je     0x407152
  407127:	56                   	push   esi
  407128:	8b 75 0c             	mov    esi,DWORD PTR [ebp+0xc]
  40712b:	57                   	push   edi
  40712c:	0f b6 06             	movzx  eax,BYTE PTR [esi]
  40712f:	4a                   	dec    edx
  407130:	6a 08                	push   0x8
  407132:	33 c8                	xor    ecx,eax
  407134:	46                   	inc    esi
  407135:	5f                   	pop    edi
  407136:	8b c1                	mov    eax,ecx
  407138:	d1 e9                	shr    ecx,1
  40713a:	83 e0 01             	and    eax,0x1
  40713d:	f7 d0                	not    eax
  40713f:	40                   	inc    eax
  407140:	25 20 83 b8 ed       	and    eax,0xedb88320
  407145:	33 c8                	xor    ecx,eax
  407147:	83 ef 01             	sub    edi,0x1
  40714a:	75 ea                	jne    0x407136
  40714c:	85 d2                	test   edx,edx
  40714e:	75 dc                	jne    0x40712c
  407150:	5f                   	pop    edi
  407151:	5e                   	pop    esi
  407152:	f7 d1                	not    ecx
  407154:	8b c1                	mov    eax,ecx
  407156:	5d                   	pop    ebp
  407157:	c3                   	ret    
  407158:	55                   	push   ebp
  407159:	8b ec                	mov    ebp,esp
  40715b:	83 ec 54             	sub    esp,0x54
  40715e:	8d 45 ac             	lea    eax,[ebp-0x54]
  407161:	6a 30                	push   0x30
  407163:	50                   	push   eax
  407164:	e8 2d ea ff ff       	call   0x405b96
  407169:	59                   	pop    ecx
  40716a:	59                   	pop    ecx
  40716b:	85 c0                	test   eax,eax
  40716d:	75 04                	jne    0x407173
  40716f:	33 c0                	xor    eax,eax
  407171:	eb 50                	jmp    0x4071c3
  407173:	8d 45 dc             	lea    eax,[ebp-0x24]
  407176:	50                   	push   eax
  407177:	6a 20                	push   0x20
  407179:	6a 08                	push   0x8
  40717b:	68 a2 04 00 00       	push   0x4a2
  407180:	68 c0 28 41 00       	push   0x4128c0
  407185:	e8 0b f4 ff ff       	call   0x406595
  40718a:	8d 45 dc             	lea    eax,[ebp-0x24]
  40718d:	c6 45 fc 00          	mov    BYTE PTR [ebp-0x4],0x0
  407191:	50                   	push   eax
  407192:	e8 59 f8 ff ff       	call   0x4069f0
  407197:	50                   	push   eax
  407198:	8d 45 dc             	lea    eax,[ebp-0x24]
  40719b:	50                   	push   eax
  40719c:	6a 30                	push   0x30
  40719e:	8d 45 ac             	lea    eax,[ebp-0x54]
  4071a1:	50                   	push   eax
  4071a2:	68 88 30 41 00       	push   0x413088
  4071a7:	e8 99 1b 00 00       	call   0x408d45
  4071ac:	83 c4 2c             	add    esp,0x2c
  4071af:	85 c0                	test   eax,eax
  4071b1:	74 bc                	je     0x40716f
  4071b3:	8d 45 ac             	lea    eax,[ebp-0x54]
  4071b6:	6a 30                	push   0x30
  4071b8:	50                   	push   eax
  4071b9:	e8 4a 01 00 00       	call   0x407308
  4071be:	59                   	pop    ecx
  4071bf:	33 c0                	xor    eax,eax
  4071c1:	59                   	pop    ecx
  4071c2:	40                   	inc    eax
  4071c3:	8b e5                	mov    esp,ebp
  4071c5:	5d                   	pop    ebp
  4071c6:	c3                   	ret    
  4071c7:	55                   	push   ebp
  4071c8:	8b ec                	mov    ebp,esp
  4071ca:	83 ec 30             	sub    esp,0x30
  4071cd:	83 3d c0 31 41 00 00 	cmp    DWORD PTR ds:0x4131c0,0x0
  4071d4:	56                   	push   esi
  4071d5:	be a8 31 41 00       	mov    esi,0x4131a8
  4071da:	75 1a                	jne    0x4071f6
  4071dc:	e8 77 ff ff ff       	call   0x407158
  4071e1:	85 c0                	test   eax,eax
  4071e3:	74 74                	je     0x407259
  4071e5:	56                   	push   esi
  4071e6:	e8 05 e7 ff ff       	call   0x4058f0
  4071eb:	59                   	pop    ecx
  4071ec:	c7 05 c0 31 41 00 01 	mov    DWORD PTR ds:0x4131c0,0x1
  4071f3:	00 00 00 
  4071f6:	53                   	push   ebx
  4071f7:	56                   	push   esi
  4071f8:	e8 a4 e2 ff ff       	call   0x4054a1
  4071fd:	81 3d 7c 31 41 00 00 	cmp    DWORD PTR ds:0x41317c,0x1000000
  407204:	00 00 01 
  407207:	bb 88 30 41 00       	mov    ebx,0x413088
  40720c:	59                   	pop    ecx
  40720d:	76 28                	jbe    0x407237
  40720f:	8d 45 d0             	lea    eax,[ebp-0x30]
  407212:	6a 30                	push   0x30
  407214:	50                   	push   eax
  407215:	e8 7c e9 ff ff       	call   0x405b96
  40721a:	59                   	pop    ecx
  40721b:	59                   	pop    ecx
  40721c:	85 c0                	test   eax,eax
  40721e:	74 2a                	je     0x40724a
  407220:	6a 00                	push   0x0
  407222:	6a 00                	push   0x0
  407224:	6a 30                	push   0x30
  407226:	8d 45 d0             	lea    eax,[ebp-0x30]
  407229:	50                   	push   eax
  40722a:	53                   	push   ebx
  40722b:	e8 aa 1b 00 00       	call   0x408dda
  407230:	83 c4 14             	add    esp,0x14
  407233:	85 c0                	test   eax,eax
  407235:	74 13                	je     0x40724a
  407237:	ff 75 0c             	push   DWORD PTR [ebp+0xc]
  40723a:	ff 75 08             	push   DWORD PTR [ebp+0x8]
  40723d:	53                   	push   ebx
  40723e:	e8 4f 1b 00 00       	call   0x408d92
  407243:	83 c4 0c             	add    esp,0xc
  407246:	85 c0                	test   eax,eax
  407248:	75 04                	jne    0x40724e
  40724a:	33 c0                	xor    eax,eax
  40724c:	eb 0a                	jmp    0x407258
  40724e:	56                   	push   esi
  40724f:	e8 f1 e7 ff ff       	call   0x405a45
  407254:	33 c0                	xor    eax,eax
  407256:	59                   	pop    ecx
  407257:	40                   	inc    eax
  407258:	5b                   	pop    ebx
  407259:	5e                   	pop    esi
  40725a:	8b e5                	mov    esp,ebp
  40725c:	5d                   	pop    ebp
  40725d:	c3                   	ret    
  40725e:	55                   	push   ebp
  40725f:	8b ec                	mov    ebp,esp
  407261:	83 ec 20             	sub    esp,0x20
  407264:	8d 45 e0             	lea    eax,[ebp-0x20]
  407267:	50                   	push   eax
  407268:	ff 75 0c             	push   DWORD PTR [ebp+0xc]
  40726b:	ff 75 08             	push   DWORD PTR [ebp+0x8]
  40726e:	e8 34 fd ff ff       	call   0x406fa7
  407273:	6a 20                	push   0x20
  407275:	8d 45 e0             	lea    eax,[ebp-0x20]
  407278:	50                   	push   eax
  407279:	6a 20                	push   0x20
  40727b:	ff 75 10             	push   DWORD PTR [ebp+0x10]
  40727e:	e8 e5 50 00 00       	call   0x40c368
  407283:	8d 45 e0             	lea    eax,[ebp-0x20]
  407286:	6a 20                	push   0x20
  407288:	50                   	push   eax
  407289:	e8 7a 00 00 00       	call   0x407308
  40728e:	83 c4 24             	add    esp,0x24
  407291:	8b e5                	mov    esp,ebp
  407293:	5d                   	pop    ebp
  407294:	c3                   	ret    
  407295:	55                   	push   ebp
  407296:	8b ec                	mov    ebp,esp
  407298:	8b 45 08             	mov    eax,DWORD PTR [ebp+0x8]
  40729b:	48                   	dec    eax
  40729c:	03 45 0c             	add    eax,DWORD PTR [ebp+0xc]
  40729f:	80 00 01             	add    BYTE PTR [eax],0x1
  4072a2:	75 03                	jne    0x4072a7
  4072a4:	48                   	dec    eax
  4072a5:	eb f8                	jmp    0x40729f
  4072a7:	5d                   	pop    ebp
  4072a8:	c3                   	ret    
  4072a9:	55                   	push   ebp
  4072aa:	8b ec                	mov    ebp,esp
  4072ac:	8b 45 08             	mov    eax,DWORD PTR [ebp+0x8]
  4072af:	56                   	push   esi
  4072b0:	8b 75 10             	mov    esi,DWORD PTR [ebp+0x10]
  4072b3:	85 f6                	test   esi,esi
  4072b5:	74 14                	je     0x4072cb
  4072b7:	57                   	push   edi
  4072b8:	8b 7d 0c             	mov    edi,DWORD PTR [ebp+0xc]
  4072bb:	8b d0                	mov    edx,eax
  4072bd:	2b f8                	sub    edi,eax
  4072bf:	8a 0c 17             	mov    cl,BYTE PTR [edi+edx*1]
  4072c2:	30 0a                	xor    BYTE PTR [edx],cl
  4072c4:	42                   	inc    edx
  4072c5:	83 ee 01             	sub    esi,0x1
  4072c8:	75 f5                	jne    0x4072bf
  4072ca:	5f                   	pop    edi
  4072cb:	5e                   	pop    esi
  4072cc:	5d                   	pop    ebp
  4072cd:	c3                   	ret    
  4072ce:	55                   	push   ebp
  4072cf:	8b ec                	mov    ebp,esp
  4072d1:	81 ec 00 01 00 00    	sub    esp,0x100
  4072d7:	8d 85 00 ff ff ff    	lea    eax,[ebp-0x100]
  4072dd:	ff 75 0c             	push   DWORD PTR [ebp+0xc]
  4072e0:	ff 75 08             	push   DWORD PTR [ebp+0x8]
  4072e3:	50                   	push   eax
  4072e4:	e8 d4 fc ff ff       	call   0x406fbd
  4072e9:	ff 75 18             	push   DWORD PTR [ebp+0x18]
  4072ec:	8d 85 00 ff ff ff    	lea    eax,[ebp-0x100]
  4072f2:	ff 75 14             	push   DWORD PTR [ebp+0x14]
  4072f5:	ff 75 10             	push   DWORD PTR [ebp+0x10]
  4072f8:	50                   	push   eax
  4072f9:	e8 17 fd ff ff       	call   0x407015
  4072fe:	8b 45 18             	mov    eax,DWORD PTR [ebp+0x18]
  407301:	83 c4 1c             	add    esp,0x1c
  407304:	8b e5                	mov    esp,ebp
  407306:	5d                   	pop    ebp
  407307:	c3                   	ret    
  407308:	55                   	push   ebp
  407309:	8b ec                	mov    ebp,esp
  40730b:	ff 75 0c             	push   DWORD PTR [ebp+0xc]
  40730e:	6a 00                	push   0x0
  407310:	ff 75 08             	push   DWORD PTR [ebp+0x8]
  407313:	e8 e3 de ff ff       	call   0x4051fb
  407318:	83 c4 0c             	add    esp,0xc
  40731b:	5d                   	pop    ebp
  40731c:	c3                   	ret    
  40731d:	55                   	push   ebp
  40731e:	8b ec                	mov    ebp,esp
  407320:	8b 45 14             	mov    eax,DWORD PTR [ebp+0x14]
  407323:	83 ec 74             	sub    esp,0x74
  407326:	83 20 00             	and    DWORD PTR [eax],0x0
  407329:	57                   	push   edi
  40732a:	8b 7d 10             	mov    edi,DWORD PTR [ebp+0x10]
  40732d:	85 ff                	test   edi,edi
  40732f:	75 07                	jne    0x407338
  407331:	33 c0                	xor    eax,eax
  407333:	e9 a9 00 00 00       	jmp    0x4073e1
  407338:	8d 47 38             	lea    eax,[edi+0x38]
  40733b:	53                   	push   ebx
  40733c:	50                   	push   eax
  40733d:	89 45 10             	mov    DWORD PTR [ebp+0x10],eax
  407340:	e8 2f de ff ff       	call   0x405174
  407345:	8b d8                	mov    ebx,eax
  407347:	59                   	pop    ecx
  407348:	85 db                	test   ebx,ebx
  40734a:	0f 84 90 00 00 00    	je     0x4073e0
  407350:	83 23 00             	and    DWORD PTR [ebx],0x0
  407353:	8d 43 04             	lea    eax,[ebx+0x4]
  407356:	56                   	push   esi
  407357:	57                   	push   edi
  407358:	ff 75 0c             	push   DWORD PTR [ebp+0xc]
  40735b:	50                   	push   eax
  40735c:	e8 75 de ff ff       	call   0x4051d6
  407361:	8d 45 8c             	lea    eax,[ebp-0x74]
  407364:	50                   	push   eax
  407365:	8d 45 e0             	lea    eax,[ebp-0x20]
  407368:	50                   	push   eax
  407369:	e8 be fb ff ff       	call   0x406f2c
  40736e:	8d 45 c0             	lea    eax,[ebp-0x40]
  407371:	50                   	push   eax
  407372:	ff 75 08             	push   DWORD PTR [ebp+0x8]
  407375:	8d 45 e0             	lea    eax,[ebp-0x20]
  407378:	50                   	push   eax
  407379:	e8 e0 fe ff ff       	call   0x40725e
  40737e:	8d 45 e0             	lea    eax,[ebp-0x20]
  407381:	6a 20                	push   0x20
  407383:	50                   	push   eax
  407384:	e8 7f ff ff ff       	call   0x407308
  407389:	8d 45 ac             	lea    eax,[ebp-0x54]
  40738c:	6a 10                	push   0x10
  40738e:	50                   	push   eax
  40738f:	e8 33 fe ff ff       	call   0x4071c7
  407394:	8d 77 04             	lea    esi,[edi+0x4]
  407397:	56                   	push   esi
  407398:	53                   	push   ebx
  407399:	8d 45 ac             	lea    eax,[ebp-0x54]
  40739c:	50                   	push   eax
  40739d:	8d 45 c0             	lea    eax,[ebp-0x40]
  4073a0:	68 00 01 00 00       	push   0x100
  4073a5:	50                   	push   eax
  4073a6:	e8 da fc ff ff       	call   0x407085
  4073ab:	83 c4 44             	add    esp,0x44
  4073ae:	8d 45 c0             	lea    eax,[ebp-0x40]
  4073b1:	6a 20                	push   0x20
  4073b3:	50                   	push   eax
  4073b4:	e8 4f ff ff ff       	call   0x407308
  4073b9:	56                   	push   esi
  4073ba:	53                   	push   ebx
  4073bb:	6a 00                	push   0x0
  4073bd:	e8 56 fd ff ff       	call   0x407118
  4073c2:	83 c4 14             	add    esp,0x14
  4073c5:	89 45 bc             	mov    DWORD PTR [ebp-0x44],eax
  4073c8:	8b 45 14             	mov    eax,DWORD PTR [ebp+0x14]
  4073cb:	8d 75 8c             	lea    esi,[ebp-0x74]
  4073ce:	83 c7 04             	add    edi,0x4
  4073d1:	03 fb                	add    edi,ebx
  4073d3:	6a 0d                	push   0xd
  4073d5:	59                   	pop    ecx
  4073d6:	f3 a5                	rep movs DWORD PTR es:[edi],DWORD PTR ds:[esi]
  4073d8:	8b 4d 10             	mov    ecx,DWORD PTR [ebp+0x10]
  4073db:	89 08                	mov    DWORD PTR [eax],ecx
  4073dd:	8b c3                	mov    eax,ebx
  4073df:	5e                   	pop    esi
  4073e0:	5b                   	pop    ebx
  4073e1:	5f                   	pop    edi
  4073e2:	8b e5                	mov    esp,ebp
  4073e4:	5d                   	pop    ebp
  4073e5:	c3                   	ret    
  4073e6:	55                   	push   ebp
  4073e7:	8b ec                	mov    ebp,esp
  4073e9:	83 ec 10             	sub    esp,0x10
  4073ec:	56                   	push   esi
  4073ed:	ff 75 08             	push   DWORD PTR [ebp+0x8]
  4073f0:	e8 bb 05 00 00       	call   0x4079b0
  4073f5:	8b f0                	mov    esi,eax
  4073f7:	b8 4d 5a 00 00       	mov    eax,0x5a4d
  4073fc:	59                   	pop    ecx
  4073fd:	66 39 06             	cmp    WORD PTR [esi],ax
  407400:	74 04                	je     0x407406
  407402:	33 c0                	xor    eax,eax
  407404:	eb 60                	jmp    0x407466
  407406:	57                   	push   edi
  407407:	8b 7e 3c             	mov    edi,DWORD PTR [esi+0x3c]
  40740a:	03 fe                	add    edi,esi
  40740c:	81 3f 50 45 00 00    	cmp    DWORD PTR [edi],0x4550
  407412:	74 04                	je     0x407418
  407414:	33 c0                	xor    eax,eax
  407416:	eb 4d                	jmp    0x407465
  407418:	53                   	push   ebx
  407419:	8b 5f 78             	mov    ebx,DWORD PTR [edi+0x78]
  40741c:	03 de                	add    ebx,esi
  40741e:	8b 43 1c             	mov    eax,DWORD PTR [ebx+0x1c]
  407421:	8b 4b 20             	mov    ecx,DWORD PTR [ebx+0x20]
  407424:	03 c6                	add    eax,esi
  407426:	89 45 f0             	mov    DWORD PTR [ebp-0x10],eax
  407429:	03 ce                	add    ecx,esi
  40742b:	33 c0                	xor    eax,eax
  40742d:	89 4d f8             	mov    DWORD PTR [ebp-0x8],ecx
  407430:	89 45 fc             	mov    DWORD PTR [ebp-0x4],eax
  407433:	39 43 18             	cmp    DWORD PTR [ebx+0x18],eax
  407436:	76 2a                	jbe    0x407462
  407438:	8b 04 81             	mov    eax,DWORD PTR [ecx+eax*4]
  40743b:	8b 4b 24             	mov    ecx,DWORD PTR [ebx+0x24]
  40743e:	03 c6                	add    eax,esi
  407440:	50                   	push   eax
  407441:	ff 75 0c             	push   DWORD PTR [ebp+0xc]
  407444:	03 ce                	add    ecx,esi
  407446:	89 4d f4             	mov    DWORD PTR [ebp-0xc],ecx
  407449:	ff 15 14 e0 40 00    	call   DWORD PTR ds:0x40e014
  40744f:	85 c0                	test   eax,eax
  407451:	8b 45 fc             	mov    eax,DWORD PTR [ebp-0x4]
  407454:	74 15                	je     0x40746b
  407456:	8b 4d f8             	mov    ecx,DWORD PTR [ebp-0x8]
  407459:	40                   	inc    eax
  40745a:	89 45 fc             	mov    DWORD PTR [ebp-0x4],eax
  40745d:	3b 43 18             	cmp    eax,DWORD PTR [ebx+0x18]
  407460:	72 d6                	jb     0x407438
  407462:	33 c0                	xor    eax,eax
  407464:	5b                   	pop    ebx
  407465:	5f                   	pop    edi
  407466:	5e                   	pop    esi
  407467:	8b e5                	mov    esp,ebp
  407469:	5d                   	pop    ebp
  40746a:	c3                   	ret    
  40746b:	8b 4d f4             	mov    ecx,DWORD PTR [ebp-0xc]
  40746e:	0f b7 04 41          	movzx  eax,WORD PTR [ecx+eax*2]
  407472:	8b 4d f0             	mov    ecx,DWORD PTR [ebp-0x10]
  407475:	8b 0c 81             	mov    ecx,DWORD PTR [ecx+eax*4]
  407478:	3b 4f 78             	cmp    ecx,DWORD PTR [edi+0x78]
  40747b:	72 39                	jb     0x4074b6
  40747d:	8b 47 7c             	mov    eax,DWORD PTR [edi+0x7c]
  407480:	03 47 78             	add    eax,DWORD PTR [edi+0x78]
  407483:	3b c8                	cmp    ecx,eax
  407485:	73 2f                	jae    0x4074b6
  407487:	8d 04 31             	lea    eax,[ecx+esi*1]
  40748a:	50                   	push   eax
  40748b:	e8 35 05 00 00       	call   0x4079c5
  407490:	8b f8                	mov    edi,eax
  407492:	6a 2e                	push   0x2e
  407494:	57                   	push   edi
  407495:	e8 ff f3 ff ff       	call   0x406899
  40749a:	8d 48 01             	lea    ecx,[eax+0x1]
  40749d:	c6 00 00             	mov    BYTE PTR [eax],0x0
  4074a0:	51                   	push   ecx
  4074a1:	57                   	push   edi
  4074a2:	e8 3f ff ff ff       	call   0x4073e6
  4074a7:	57                   	push   edi
  4074a8:	8b f0                	mov    esi,eax
  4074aa:	e8 12 dd ff ff       	call   0x4051c1
  4074af:	83 c4 18             	add    esp,0x18
  4074b2:	8b c6                	mov    eax,esi
  4074b4:	eb ae                	jmp    0x407464
  4074b6:	8d 04 31             	lea    eax,[ecx+esi*1]
  4074b9:	eb a9                	jmp    0x407464
  4074bb:	55                   	push   ebp
  4074bc:	8b ec                	mov    ebp,esp
  4074be:	8b 55 08             	mov    edx,DWORD PTR [ebp+0x8]
  4074c1:	6a 2b                	push   0x2b
  4074c3:	58                   	pop    eax
  4074c4:	eb 0c                	jmp    0x4074d2
  4074c6:	69 c0 0f 01 00 00    	imul   eax,eax,0x10f
  4074cc:	42                   	inc    edx
  4074cd:	0f b6 c9             	movzx  ecx,cl
  4074d0:	03 c1                	add    eax,ecx
  4074d2:	8a 0a                	mov    cl,BYTE PTR [edx]
  4074d4:	84 c9                	test   cl,cl
  4074d6:	75 ee                	jne    0x4074c6
  4074d8:	5d                   	pop    ebp
  4074d9:	c3                   	ret    
  4074da:	56                   	push   esi
  4074db:	33 f6                	xor    esi,esi
  4074dd:	ff b6 90 25 41 00    	push   DWORD PTR [esi+0x412590]
  4074e3:	e8 fd 01 00 00       	call   0x4076e5
  4074e8:	89 86 90 25 41 00    	mov    DWORD PTR [esi+0x412590],eax
  4074ee:	83 c6 04             	add    esi,0x4
  4074f1:	59                   	pop    ecx
  4074f2:	81 fe 30 03 00 00    	cmp    esi,0x330
  4074f8:	72 e3                	jb     0x4074dd
  4074fa:	5e                   	pop    esi
  4074fb:	c3                   	ret    
  4074fc:	55                   	push   ebp
  4074fd:	8b ec                	mov    ebp,esp
  4074ff:	83 ec 10             	sub    esp,0x10
  407502:	8d 45 f0             	lea    eax,[ebp-0x10]
  407505:	50                   	push   eax
  407506:	6a 0c                	push   0xc
  407508:	6a 07                	push   0x7
  40750a:	68 9c 05 00 00       	push   0x59c
  40750f:	68 c0 28 41 00       	push   0x4128c0
  407514:	e8 7c f0 ff ff       	call   0x406595
  407519:	8d 45 f0             	lea    eax,[ebp-0x10]
  40751c:	c6 45 fc 00          	mov    BYTE PTR [ebp-0x4],0x0
  407520:	50                   	push   eax
  407521:	e8 8a 04 00 00       	call   0x4079b0
  407526:	83 c4 18             	add    esp,0x18
  407529:	8b e5                	mov    esp,ebp
  40752b:	5d                   	pop    ebp
  40752c:	c3                   	ret    
  40752d:	55                   	push   ebp
  40752e:	8b ec                	mov    ebp,esp
  407530:	83 ec 0c             	sub    esp,0xc
  407533:	8d 45 f4             	lea    eax,[ebp-0xc]
  407536:	50                   	push   eax
  407537:	6a 0b                	push   0xb
  407539:	6a 0f                	push   0xf
  40753b:	68 31 04 00 00       	push   0x431
  407540:	68 c0 28 41 00       	push   0x4128c0
  407545:	e8 4b f0 ff ff       	call   0x406595
  40754a:	8d 45 f4             	lea    eax,[ebp-0xc]
  40754d:	c6 45 ff 00          	mov    BYTE PTR [ebp-0x1],0x0
  407551:	50                   	push   eax
  407552:	e8 59 04 00 00       	call   0x4079b0
  407557:	83 c4 18             	add    esp,0x18
  40755a:	8b e5                	mov    esp,ebp
  40755c:	5d                   	pop    ebp
  40755d:	c3                   	ret    
  40755e:	55                   	push   ebp
  40755f:	8b ec                	mov    ebp,esp
  407561:	83 ec 0c             	sub    esp,0xc
  407564:	8d 45 f4             	lea    eax,[ebp-0xc]
  407567:	50                   	push   eax
  407568:	6a 09                	push   0x9
  40756a:	6a 08                	push   0x8
  40756c:	68 ad 02 00 00       	push   0x2ad
  407571:	68 c0 28 41 00       	push   0x4128c0
  407576:	e8 1a f0 ff ff       	call   0x406595
  40757b:	8d 45 f4             	lea    eax,[ebp-0xc]
  40757e:	c6 45 fd 00          	mov    BYTE PTR [ebp-0x3],0x0
  407582:	50                   	push   eax
  407583:	e8 28 04 00 00       	call   0x4079b0
  407588:	83 c4 18             	add    esp,0x18
  40758b:	8b e5                	mov    esp,ebp
  40758d:	5d                   	pop    ebp
  40758e:	c3                   	ret    
  40758f:	68 9e cf 9e 23       	push   0x239ecf9e
  407594:	e8 d1 00 00 00       	call   0x40766a
  407599:	59                   	pop    ecx
  40759a:	c3                   	ret    
  40759b:	55                   	push   ebp
  40759c:	8b ec                	mov    ebp,esp
  40759e:	51                   	push   ecx
  40759f:	51                   	push   ecx
  4075a0:	8d 45 f8             	lea    eax,[ebp-0x8]
  4075a3:	50                   	push   eax
  4075a4:	6a 07                	push   0x7
  4075a6:	6a 0e                	push   0xe
  4075a8:	68 2f 07 00 00       	push   0x72f
  4075ad:	68 c0 28 41 00       	push   0x4128c0
  4075b2:	e8 de ef ff ff       	call   0x406595
  4075b7:	8d 45 f8             	lea    eax,[ebp-0x8]
  4075ba:	c6 45 ff 00          	mov    BYTE PTR [ebp-0x1],0x0
  4075be:	50                   	push   eax
  4075bf:	e8 ec 03 00 00       	call   0x4079b0
  4075c4:	83 c4 18             	add    esp,0x18
  4075c7:	8b e5                	mov    esp,ebp
  4075c9:	5d                   	pop    ebp
  4075ca:	c3                   	ret    
  4075cb:	55                   	push   ebp
  4075cc:	8b ec                	mov    ebp,esp
  4075ce:	83 ec 10             	sub    esp,0x10
  4075d1:	8d 45 f0             	lea    eax,[ebp-0x10]
  4075d4:	50                   	push   eax
  4075d5:	6a 0c                	push   0xc
  4075d7:	6a 0e                	push   0xe
  4075d9:	68 87 02 00 00       	push   0x287
  4075de:	68 c0 28 41 00       	push   0x4128c0
  4075e3:	e8 ad ef ff ff       	call   0x406595
  4075e8:	8d 45 f0             	lea    eax,[ebp-0x10]
  4075eb:	c6 45 fc 00          	mov    BYTE PTR [ebp-0x4],0x0
  4075ef:	50                   	push   eax
  4075f0:	e8 bb 03 00 00       	call   0x4079b0
  4075f5:	83 c4 18             	add    esp,0x18
  4075f8:	8b e5                	mov    esp,ebp
  4075fa:	5d                   	pop    ebp
  4075fb:	c3                   	ret    
  4075fc:	68 4a e7 08 76       	push   0x7608e74a
  407601:	e8 64 00 00 00       	call   0x40766a
  407606:	59                   	pop    ecx
  407607:	c3                   	ret    
  407608:	55                   	push   ebp
  407609:	8b ec                	mov    ebp,esp
  40760b:	83 ec 0c             	sub    esp,0xc
  40760e:	8d 45 f4             	lea    eax,[ebp-0xc]
  407611:	50                   	push   eax
  407612:	6a 09                	push   0x9
  407614:	6a 08                	push   0x8
  407616:	68 81 05 00 00       	push   0x581
  40761b:	68 c0 28 41 00       	push   0x4128c0
  407620:	e8 70 ef ff ff       	call   0x406595
  407625:	8d 45 f4             	lea    eax,[ebp-0xc]
  407628:	c6 45 fd 00          	mov    BYTE PTR [ebp-0x3],0x0
  40762c:	50                   	push   eax
  40762d:	e8 7e 03 00 00       	call   0x4079b0
  407632:	83 c4 18             	add    esp,0x18
  407635:	8b e5                	mov    esp,ebp
  407637:	5d                   	pop    ebp
  407638:	c3                   	ret    
  407639:	55                   	push   ebp
  40763a:	8b ec                	mov    ebp,esp
  40763c:	83 ec 10             	sub    esp,0x10
  40763f:	8d 45 f0             	lea    eax,[ebp-0x10]
  407642:	50                   	push   eax
  407643:	6a 0c                	push   0xc
  407645:	6a 0d                	push   0xd
  407647:	68 56 05 00 00       	push   0x556
  40764c:	68 c0 28 41 00       	push   0x4128c0
  407651:	e8 3f ef ff ff       	call   0x406595
  407656:	8d 45 f0             	lea    eax,[ebp-0x10]
  407659:	c6 45 fc 00          	mov    BYTE PTR [ebp-0x4],0x0
  40765d:	50                   	push   eax
  40765e:	e8 4d 03 00 00       	call   0x4079b0
  407663:	83 c4 18             	add    esp,0x18
  407666:	8b e5                	mov    esp,ebp
  407668:	5d                   	pop    ebp
  407669:	c3                   	ret    
  40766a:	55                   	push   ebp
  40766b:	8b ec                	mov    ebp,esp
  40766d:	51                   	push   ecx
  40766e:	51                   	push   ecx
  40766f:	53                   	push   ebx
  407670:	56                   	push   esi
  407671:	57                   	push   edi
  407672:	e8 97 e1 ff ff       	call   0x40580e
  407677:	8b 50 0c             	mov    edx,DWORD PTR [eax+0xc]
  40767a:	83 c2 14             	add    edx,0x14
  40767d:	89 55 f8             	mov    DWORD PTR [ebp-0x8],edx
  407680:	8b 0a                	mov    ecx,DWORD PTR [edx]
  407682:	3b ca                	cmp    ecx,edx
  407684:	74 51                	je     0x4076d7
  407686:	8b 7d 08             	mov    edi,DWORD PTR [ebp+0x8]
  407689:	81 f7 33 70 76 be    	xor    edi,0xbe767033
  40768f:	8b 59 28             	mov    ebx,DWORD PTR [ecx+0x28]
  407692:	6a 2b                	push   0x2b
  407694:	58                   	pop    eax
  407695:	89 45 fc             	mov    DWORD PTR [ebp-0x4],eax
  407698:	0f b7 33             	movzx  esi,WORD PTR [ebx]
  40769b:	66 85 f6             	test   si,si
  40769e:	74 2d                	je     0x4076cd
  4076a0:	8b d0                	mov    edx,eax
  4076a2:	8d 46 bf             	lea    eax,[esi-0x41]
  4076a5:	8d 5b 02             	lea    ebx,[ebx+0x2]
  4076a8:	66 83 f8 19          	cmp    ax,0x19
  4076ac:	77 03                	ja     0x4076b1
  4076ae:	83 ce 20             	or     esi,0x20
  4076b1:	69 d2 0f 01 00 00    	imul   edx,edx,0x10f
  4076b7:	0f b7 c6             	movzx  eax,si
  4076ba:	0f b7 33             	movzx  esi,WORD PTR [ebx]
  4076bd:	03 d0                	add    edx,eax
  4076bf:	66 85 f6             	test   si,si
  4076c2:	75 de                	jne    0x4076a2
  4076c4:	89 55 fc             	mov    DWORD PTR [ebp-0x4],edx
  4076c7:	8b 55 f8             	mov    edx,DWORD PTR [ebp-0x8]
  4076ca:	8b 45 fc             	mov    eax,DWORD PTR [ebp-0x4]
  4076cd:	3b c7                	cmp    eax,edi
  4076cf:	74 0f                	je     0x4076e0
  4076d1:	8b 09                	mov    ecx,DWORD PTR [ecx]
  4076d3:	3b ca                	cmp    ecx,edx
  4076d5:	75 b8                	jne    0x40768f
  4076d7:	33 c0                	xor    eax,eax
  4076d9:	5f                   	pop    edi
  4076da:	5e                   	pop    esi
  4076db:	5b                   	pop    ebx
  4076dc:	8b e5                	mov    esp,ebp
  4076de:	5d                   	pop    ebp
  4076df:	c3                   	ret    
  4076e0:	8b 41 10             	mov    eax,DWORD PTR [ecx+0x10]
  4076e3:	eb f4                	jmp    0x4076d9
  4076e5:	55                   	push   ebp
  4076e6:	8b ec                	mov    ebp,esp
  4076e8:	83 ec 10             	sub    esp,0x10
  4076eb:	b9 b5 04 00 00       	mov    ecx,0x4b5
  4076f0:	53                   	push   ebx
  4076f1:	56                   	push   esi
  4076f2:	8b 75 08             	mov    esi,DWORD PTR [ebp+0x8]
  4076f5:	c1 e6 10             	shl    esi,0x10
  4076f8:	33 75 08             	xor    esi,DWORD PTR [ebp+0x8]
  4076fb:	81 f6 cd 8e cd 99    	xor    esi,0x99cd8ecd
  407701:	8b c6                	mov    eax,esi
  407703:	c1 e8 15             	shr    eax,0x15
  407706:	57                   	push   edi
  407707:	3b c1                	cmp    eax,ecx
  407709:	77 70                	ja     0x40777b
  40770b:	74 67                	je     0x407774
  40770d:	2d 80 00 00 00       	sub    eax,0x80
  407712:	74 59                	je     0x40776d
  407714:	2d 57 01 00 00       	sub    eax,0x157
  407719:	74 4b                	je     0x407766
  40771b:	2d f3 00 00 00       	sub    eax,0xf3
  407720:	74 3d                	je     0x40775f
  407722:	2d 9f 00 00 00       	sub    eax,0x9f
  407727:	74 2f                	je     0x407758
  407729:	2d f8 00 00 00       	sub    eax,0xf8
  40772e:	74 1e                	je     0x40774e
  407730:	83 e8 01             	sub    eax,0x1
  407733:	74 0f                	je     0x407744
  407735:	83 e8 31             	sub    eax,0x31
  407738:	75 74                	jne    0x4077ae
  40773a:	b8 bb 78 40 00       	mov    eax,0x4078bb
  40773f:	e9 97 00 00 00       	jmp    0x4077db
  407744:	b8 08 76 40 00       	mov    eax,0x407608
  407749:	e9 8d 00 00 00       	jmp    0x4077db
  40774e:	b8 fc 75 40 00       	mov    eax,0x4075fc
  407753:	e9 83 00 00 00       	jmp    0x4077db
  407758:	b8 fc 74 40 00       	mov    eax,0x4074fc
  40775d:	eb 7c                	jmp    0x4077db
  40775f:	b8 5e 75 40 00       	mov    eax,0x40755e
  407764:	eb 75                	jmp    0x4077db
  407766:	b8 cb 75 40 00       	mov    eax,0x4075cb
  40776b:	eb 6e                	jmp    0x4077db
  40776d:	b8 8f 75 40 00       	mov    eax,0x40758f
  407772:	eb 67                	jmp    0x4077db
  407774:	b8 4e 79 40 00       	mov    eax,0x40794e
  407779:	eb 60                	jmp    0x4077db
  40777b:	2d 19 05 00 00       	sub    eax,0x519
  407780:	74 54                	je     0x4077d6
  407782:	48                   	dec    eax
  407783:	83 e8 01             	sub    eax,0x1
  407786:	74 47                	je     0x4077cf
  407788:	2d f4 00 00 00       	sub    eax,0xf4
  40778d:	74 39                	je     0x4077c8
  40778f:	83 e8 10             	sub    eax,0x10
  407792:	74 2d                	je     0x4077c1
  407794:	2d cc 00 00 00       	sub    eax,0xcc
  407799:	74 1f                	je     0x4077ba
  40779b:	2d 91 00 00 00       	sub    eax,0x91
  4077a0:	74 11                	je     0x4077b3
  4077a2:	83 e8 09             	sub    eax,0x9
  4077a5:	75 07                	jne    0x4077ae
  4077a7:	b8 39 76 40 00       	mov    eax,0x407639
  4077ac:	eb 2d                	jmp    0x4077db
  4077ae:	8b 45 08             	mov    eax,DWORD PTR [ebp+0x8]
  4077b1:	eb 28                	jmp    0x4077db
  4077b3:	b8 2d 75 40 00       	mov    eax,0x40752d
  4077b8:	eb 21                	jmp    0x4077db
  4077ba:	b8 8a 78 40 00       	mov    eax,0x40788a
  4077bf:	eb 1a                	jmp    0x4077db
  4077c1:	b8 9b 75 40 00       	mov    eax,0x40759b
  4077c6:	eb 13                	jmp    0x4077db
  4077c8:	b8 ec 78 40 00       	mov    eax,0x4078ec
  4077cd:	eb 0c                	jmp    0x4077db
  4077cf:	b8 7f 79 40 00       	mov    eax,0x40797f
  4077d4:	eb 05                	jmp    0x4077db
  4077d6:	b8 1d 79 40 00       	mov    eax,0x40791d
  4077db:	ff d0                	call   eax
  4077dd:	8b f8                	mov    edi,eax
  4077df:	85 ff                	test   edi,edi
  4077e1:	74 55                	je     0x407838
  4077e3:	8b 47 3c             	mov    eax,DWORD PTR [edi+0x3c]
  4077e6:	81 e6 ff ff 1f 00    	and    esi,0x1fffff
  4077ec:	03 c7                	add    eax,edi
  4077ee:	33 db                	xor    ebx,ebx
  4077f0:	89 45 f0             	mov    DWORD PTR [ebp-0x10],eax
  4077f3:	8b 40 78             	mov    eax,DWORD PTR [eax+0x78]
  4077f6:	03 c7                	add    eax,edi
  4077f8:	8b 48 24             	mov    ecx,DWORD PTR [eax+0x24]
  4077fb:	8b 50 20             	mov    edx,DWORD PTR [eax+0x20]
  4077fe:	03 cf                	add    ecx,edi
  407800:	89 4d f8             	mov    DWORD PTR [ebp-0x8],ecx
  407803:	03 d7                	add    edx,edi
  407805:	8b 48 1c             	mov    ecx,DWORD PTR [eax+0x1c]
  407808:	8b 40 18             	mov    eax,DWORD PTR [eax+0x18]
  40780b:	03 cf                	add    ecx,edi
  40780d:	89 55 fc             	mov    DWORD PTR [ebp-0x4],edx
  407810:	89 4d f4             	mov    DWORD PTR [ebp-0xc],ecx
  407813:	89 45 08             	mov    DWORD PTR [ebp+0x8],eax
  407816:	85 c0                	test   eax,eax
  407818:	74 1e                	je     0x407838
  40781a:	8b 04 9a             	mov    eax,DWORD PTR [edx+ebx*4]
  40781d:	03 c7                	add    eax,edi
  40781f:	50                   	push   eax
  407820:	e8 96 fc ff ff       	call   0x4074bb
  407825:	25 ff ff 1f 00       	and    eax,0x1fffff
  40782a:	59                   	pop    ecx
  40782b:	3b c6                	cmp    eax,esi
  40782d:	74 12                	je     0x407841
  40782f:	8b 55 fc             	mov    edx,DWORD PTR [ebp-0x4]
  407832:	43                   	inc    ebx
  407833:	3b 5d 08             	cmp    ebx,DWORD PTR [ebp+0x8]
  407836:	72 e2                	jb     0x40781a
  407838:	33 c0                	xor    eax,eax
  40783a:	5f                   	pop    edi
  40783b:	5e                   	pop    esi
  40783c:	5b                   	pop    ebx
  40783d:	8b e5                	mov    esp,ebp
  40783f:	5d                   	pop    ebp
  407840:	c3                   	ret    
  407841:	8b 45 f8             	mov    eax,DWORD PTR [ebp-0x8]
  407844:	8b 4d f4             	mov    ecx,DWORD PTR [ebp-0xc]
  407847:	8b 55 f0             	mov    edx,DWORD PTR [ebp-0x10]
  40784a:	0f b7 04 58          	movzx  eax,WORD PTR [eax+ebx*2]
  40784e:	8b 0c 81             	mov    ecx,DWORD PTR [ecx+eax*4]
  407851:	3b 4a 78             	cmp    ecx,DWORD PTR [edx+0x78]
  407854:	72 2f                	jb     0x407885
  407856:	8b 42 7c             	mov    eax,DWORD PTR [edx+0x7c]
  407859:	03 42 78             	add    eax,DWORD PTR [edx+0x78]
  40785c:	3b c8                	cmp    ecx,eax
  40785e:	73 25                	jae    0x407885
  407860:	8d 04 39             	lea    eax,[ecx+edi*1]
  407863:	50                   	push   eax
  407864:	e8 5c 01 00 00       	call   0x4079c5
  407869:	8b f0                	mov    esi,eax
  40786b:	6a 2e                	push   0x2e
  40786d:	56                   	push   esi
  40786e:	e8 26 f0 ff ff       	call   0x406899
  407873:	8d 48 01             	lea    ecx,[eax+0x1]
  407876:	c6 00 00             	mov    BYTE PTR [eax],0x0
  407879:	51                   	push   ecx
  40787a:	56                   	push   esi
  40787b:	e8 66 fb ff ff       	call   0x4073e6
  407880:	83 c4 14             	add    esp,0x14
  407883:	eb b5                	jmp    0x40783a
  407885:	8d 04 39             	lea    eax,[ecx+edi*1]
  407888:	eb b0                	jmp    0x40783a
  40788a:	55                   	push   ebp
  40788b:	8b ec                	mov    ebp,esp
  40788d:	83 ec 10             	sub    esp,0x10
  407890:	8d 45 f0             	lea    eax,[ebp-0x10]
  407893:	50                   	push   eax
  407894:	6a 0c                	push   0xc
  407896:	6a 0d                	push   0xd
  407898:	68 93 03 00 00       	push   0x393
  40789d:	68 c0 28 41 00       	push   0x4128c0
  4078a2:	e8 ee ec ff ff       	call   0x406595
  4078a7:	8d 45 f0             	lea    eax,[ebp-0x10]
  4078aa:	c6 45 fc 00          	mov    BYTE PTR [ebp-0x4],0x0
  4078ae:	50                   	push   eax
  4078af:	e8 fc 00 00 00       	call   0x4079b0
  4078b4:	83 c4 18             	add    esp,0x18
  4078b7:	8b e5                	mov    esp,ebp
  4078b9:	5d                   	pop    ebp
  4078ba:	c3                   	ret    
  4078bb:	55                   	push   ebp
  4078bc:	8b ec                	mov    ebp,esp
  4078be:	83 ec 0c             	sub    esp,0xc
  4078c1:	8d 45 f4             	lea    eax,[ebp-0xc]
  4078c4:	50                   	push   eax
  4078c5:	6a 0b                	push   0xb
  4078c7:	6a 07                	push   0x7
  4078c9:	68 aa 06 00 00       	push   0x6aa
  4078ce:	68 c0 28 41 00       	push   0x4128c0
  4078d3:	e8 bd ec ff ff       	call   0x406595
  4078d8:	8d 45 f4             	lea    eax,[ebp-0xc]
  4078db:	c6 45 ff 00          	mov    BYTE PTR [ebp-0x1],0x0
  4078df:	50                   	push   eax
  4078e0:	e8 cb 00 00 00       	call   0x4079b0
  4078e5:	83 c4 18             	add    esp,0x18
  4078e8:	8b e5                	mov    esp,ebp
  4078ea:	5d                   	pop    ebp
  4078eb:	c3                   	ret    
  4078ec:	55                   	push   ebp
  4078ed:	8b ec                	mov    ebp,esp
  4078ef:	83 ec 0c             	sub    esp,0xc
  4078f2:	8d 45 f4             	lea    eax,[ebp-0xc]
  4078f5:	50                   	push   eax
  4078f6:	6a 0b                	push   0xb
  4078f8:	6a 05                	push   0x5
  4078fa:	68 c5 02 00 00       	push   0x2c5
  4078ff:	68 c0 28 41 00       	push   0x4128c0
  407904:	e8 8c ec ff ff       	call   0x406595
  407909:	8d 45 f4             	lea    eax,[ebp-0xc]
  40790c:	c6 45 ff 00          	mov    BYTE PTR [ebp-0x1],0x0
  407910:	50                   	push   eax
  407911:	e8 9a 00 00 00       	call   0x4079b0
  407916:	83 c4 18             	add    esp,0x18
  407919:	8b e5                	mov    esp,ebp
  40791b:	5d                   	pop    ebp
  40791c:	c3                   	ret    
  40791d:	55                   	push   ebp
  40791e:	8b ec                	mov    ebp,esp
  407920:	83 ec 0c             	sub    esp,0xc
  407923:	8d 45 f4             	lea    eax,[ebp-0xc]
  407926:	50                   	push   eax
  407927:	6a 0a                	push   0xa
  407929:	6a 0f                	push   0xf
  40792b:	68 11 07 00 00       	push   0x711
  407930:	68 c0 28 41 00       	push   0x4128c0
  407935:	e8 5b ec ff ff       	call   0x406595
  40793a:	8d 45 f4             	lea    eax,[ebp-0xc]
  40793d:	c6 45 fe 00          	mov    BYTE PTR [ebp-0x2],0x0
  407941:	50                   	push   eax
  407942:	e8 69 00 00 00       	call   0x4079b0
  407947:	83 c4 18             	add    esp,0x18
  40794a:	8b e5                	mov    esp,ebp
  40794c:	5d                   	pop    ebp
  40794d:	c3                   	ret    
  40794e:	55                   	push   ebp
  40794f:	8b ec                	mov    ebp,esp
  407951:	83 ec 0c             	sub    esp,0xc
  407954:	8d 45 f4             	lea    eax,[ebp-0xc]
  407957:	50                   	push   eax
  407958:	6a 0b                	push   0xb
  40795a:	6a 10                	push   0x10
  40795c:	68 0d 06 00 00       	push   0x60d
  407961:	68 c0 28 41 00       	push   0x4128c0
  407966:	e8 2a ec ff ff       	call   0x406595
  40796b:	8d 45 f4             	lea    eax,[ebp-0xc]
  40796e:	c6 45 ff 00          	mov    BYTE PTR [ebp-0x1],0x0
  407972:	50                   	push   eax
  407973:	e8 38 00 00 00       	call   0x4079b0
  407978:	83 c4 18             	add    esp,0x18
  40797b:	8b e5                	mov    esp,ebp
  40797d:	5d                   	pop    ebp
  40797e:	c3                   	ret    
  40797f:	55                   	push   ebp
  407980:	8b ec                	mov    ebp,esp
  407982:	83 ec 0c             	sub    esp,0xc
  407985:	8d 45 f4             	lea    eax,[ebp-0xc]
  407988:	50                   	push   eax
  407989:	6a 09                	push   0x9
  40798b:	6a 0d                	push   0xd
  40798d:	68 f0 05 00 00       	push   0x5f0
  407992:	68 c0 28 41 00       	push   0x4128c0
  407997:	e8 f9 eb ff ff       	call   0x406595
  40799c:	8d 45 f4             	lea    eax,[ebp-0xc]
  40799f:	c6 45 fd 00          	mov    BYTE PTR [ebp-0x3],0x0
  4079a3:	50                   	push   eax
  4079a4:	e8 07 00 00 00       	call   0x4079b0
  4079a9:	83 c4 18             	add    esp,0x18
  4079ac:	8b e5                	mov    esp,ebp
  4079ae:	5d                   	pop    ebp
  4079af:	c3                   	ret    
  4079b0:	55                   	push   ebp
  4079b1:	8b ec                	mov    ebp,esp
  4079b3:	ff 75 08             	push   DWORD PTR [ebp+0x8]
  4079b6:	68 ca 17 0d 9e       	push   0x9e0d17ca
  4079bb:	e8 25 fd ff ff       	call   0x4076e5
  4079c0:	59                   	pop    ecx
  4079c1:	ff d0                	call   eax
  4079c3:	5d                   	pop    ebp
  4079c4:	c3                   	ret    
  4079c5:	55                   	push   ebp
  4079c6:	8b ec                	mov    ebp,esp
  4079c8:	56                   	push   esi
  4079c9:	8b 75 08             	mov    esi,DWORD PTR [ebp+0x8]
  4079cc:	56                   	push   esi
  4079cd:	e8 1e f0 ff ff       	call   0x4069f0
  4079d2:	59                   	pop    ecx
  4079d3:	3d ff 01 00 00       	cmp    eax,0x1ff
  4079d8:	76 04                	jbe    0x4079de
  4079da:	33 c0                	xor    eax,eax
  4079dc:	eb 17                	jmp    0x4079f5
  4079de:	8a 16                	mov    dl,BYTE PTR [esi]
  4079e0:	b8 c8 31 41 00       	mov    eax,0x4131c8
  4079e5:	8b c8                	mov    ecx,eax
  4079e7:	2b f0                	sub    esi,eax
  4079e9:	88 11                	mov    BYTE PTR [ecx],dl
  4079eb:	41                   	inc    ecx
  4079ec:	8a 14 0e             	mov    dl,BYTE PTR [esi+ecx*1]
  4079ef:	84 d2                	test   dl,dl
  4079f1:	75 f6                	jne    0x4079e9
  4079f3:	88 11                	mov    BYTE PTR [ecx],dl
  4079f5:	5e                   	pop    esi
  4079f6:	5d                   	pop    ebp
  4079f7:	c3                   	ret    
  4079f8:	55                   	push   ebp
  4079f9:	8b ec                	mov    ebp,esp
  4079fb:	51                   	push   ecx
  4079fc:	51                   	push   ecx
  4079fd:	53                   	push   ebx
  4079fe:	33 db                	xor    ebx,ebx
  407a00:	66 c7 45 fc 00 01    	mov    WORD PTR [ebp-0x4],0x100
  407a06:	89 5d f8             	mov    DWORD PTR [ebp-0x8],ebx
  407a09:	39 1d ec 33 41 00    	cmp    DWORD PTR ds:0x4133ec,ebx
  407a0f:	0f 85 8a 00 00 00    	jne    0x407a9f
  407a15:	68 d8 33 41 00       	push   0x4133d8
  407a1a:	53                   	push   ebx
  407a1b:	53                   	push   ebx
  407a1c:	53                   	push   ebx
  407a1d:	53                   	push   ebx
  407a1e:	53                   	push   ebx
  407a1f:	53                   	push   ebx
  407a20:	53                   	push   ebx
  407a21:	53                   	push   ebx
  407a22:	6a 01                	push   0x1
  407a24:	8d 45 f8             	lea    eax,[ebp-0x8]
  407a27:	50                   	push   eax
  407a28:	ff 15 c8 27 41 00    	call   DWORD PTR ds:0x4127c8
  407a2e:	85 c0                	test   eax,eax
  407a30:	75 08                	jne    0x407a3a
  407a32:	83 c8 ff             	or     eax,0xffffffff
  407a35:	e9 8d 00 00 00       	jmp    0x407ac7
  407a3a:	57                   	push   edi
  407a3b:	6a 08                	push   0x8
  407a3d:	59                   	pop    ecx
  407a3e:	68 dc 33 41 00       	push   0x4133dc
  407a43:	ba f0 33 41 00       	mov    edx,0x4133f0
  407a48:	33 c0                	xor    eax,eax
  407a4a:	53                   	push   ebx
  407a4b:	8b fa                	mov    edi,edx
  407a4d:	f3 ab                	rep stos DWORD PTR es:[edi],eax
  407a4f:	a1 d8 33 41 00       	mov    eax,ds:0x4133d8
  407a54:	52                   	push   edx
  407a55:	6a 01                	push   0x1
  407a57:	c7 05 f0 33 41 00 00 	mov    DWORD PTR ds:0x4133f0,0x10000000
  407a5e:	00 00 10 
  407a61:	c7 05 f4 33 41 00 02 	mov    DWORD PTR ds:0x4133f4,0x2
  407a68:	00 00 00 
  407a6b:	c7 05 f8 33 41 00 03 	mov    DWORD PTR ds:0x4133f8,0x3
  407a72:	00 00 00 
  407a75:	89 1d 04 34 41 00    	mov    DWORD PTR ds:0x413404,ebx
  407a7b:	c7 05 08 34 41 00 05 	mov    DWORD PTR ds:0x413408,0x5
  407a82:	00 00 00 
  407a85:	a3 0c 34 41 00       	mov    ds:0x41340c,eax
  407a8a:	ff 15 ac 25 41 00    	call   DWORD PTR ds:0x4125ac
  407a90:	5f                   	pop    edi
  407a91:	85 c0                	test   eax,eax
  407a93:	75 9d                	jne    0x407a32
  407a95:	c7 05 ec 33 41 00 01 	mov    DWORD PTR ds:0x4133ec,0x1
  407a9c:	00 00 00 
  407a9f:	53                   	push   ebx
  407aa0:	ff 35 dc 33 41 00    	push   DWORD PTR ds:0x4133dc
  407aa6:	53                   	push   ebx
  407aa7:	53                   	push   ebx
  407aa8:	6a 04                	push   0x4
  407aaa:	6a 01                	push   0x1
  407aac:	ff 75 08             	push   DWORD PTR [ebp+0x8]
  407aaf:	ff 15 98 27 41 00    	call   DWORD PTR ds:0x412798
  407ab5:	8b c8                	mov    ecx,eax
  407ab7:	33 c0                	xor    eax,eax
  407ab9:	85 c9                	test   ecx,ecx
  407abb:	75 03                	jne    0x407ac0
  407abd:	40                   	inc    eax
  407abe:	eb 07                	jmp    0x407ac7
  407ac0:	83 f9 05             	cmp    ecx,0x5
  407ac3:	0f 94 c0             	sete   al
  407ac6:	48                   	dec    eax
  407ac7:	5b                   	pop    ebx
  407ac8:	8b e5                	mov    esp,ebp
  407aca:	5d                   	pop    ebp
  407acb:	c3                   	ret    
  407acc:	55                   	push   ebp
  407acd:	8b ec                	mov    ebp,esp
  407acf:	51                   	push   ecx
  407ad0:	8b 45 0c             	mov    eax,DWORD PTR [ebp+0xc]
  407ad3:	89 45 0c             	mov    DWORD PTR [ebp+0xc],eax
  407ad6:	8d 45 fc             	lea    eax,[ebp-0x4]
  407ad9:	50                   	push   eax
  407ada:	8d 45 0c             	lea    eax,[ebp+0xc]
  407add:	50                   	push   eax
  407ade:	68 eb 03 00 00       	push   0x3eb
  407ae3:	ff 75 08             	push   DWORD PTR [ebp+0x8]
  407ae6:	6a 00                	push   0x0
  407ae8:	ff 15 00 27 41 00    	call   DWORD PTR ds:0x412700
  407aee:	f7 d8                	neg    eax
  407af0:	1b c0                	sbb    eax,eax
  407af2:	40                   	inc    eax
  407af3:	8b e5                	mov    esp,ebp
  407af5:	5d                   	pop    ebp
  407af6:	c3                   	ret    
  407af7:	55                   	push   ebp
  407af8:	8b ec                	mov    ebp,esp
  407afa:	83 ec 0c             	sub    esp,0xc
  407afd:	83 65 fc 00          	and    DWORD PTR [ebp-0x4],0x0
  407b01:	8d 45 f8             	lea    eax,[ebp-0x8]
  407b04:	50                   	push   eax
  407b05:	6a 08                	push   0x8
  407b07:	ff 75 08             	push   DWORD PTR [ebp+0x8]
  407b0a:	ff 15 e0 26 41 00    	call   DWORD PTR ds:0x4126e0
  407b10:	85 c0                	test   eax,eax
  407b12:	74 25                	je     0x407b39
  407b14:	8d 45 f4             	lea    eax,[ebp-0xc]
  407b17:	50                   	push   eax
  407b18:	6a 04                	push   0x4
  407b1a:	8d 45 fc             	lea    eax,[ebp-0x4]
  407b1d:	50                   	push   eax
  407b1e:	6a 12                	push   0x12
  407b20:	ff 75 f8             	push   DWORD PTR [ebp-0x8]
  407b23:	ff 15 68 26 41 00    	call   DWORD PTR ds:0x412668
  407b29:	ff 75 f8             	push   DWORD PTR [ebp-0x8]
  407b2c:	f7 d8                	neg    eax
  407b2e:	1b c0                	sbb    eax,eax
  407b30:	21 45 fc             	and    DWORD PTR [ebp-0x4],eax
  407b33:	e8 de d8 ff ff       	call   0x405416
  407b38:	59                   	pop    ecx
  407b39:	8b 45 fc             	mov    eax,DWORD PTR [ebp-0x4]
  407b3c:	8b e5                	mov    esp,ebp
  407b3e:	5d                   	pop    ebp
  407b3f:	c3                   	ret    
  407b40:	55                   	push   ebp
  407b41:	8b ec                	mov    ebp,esp
  407b43:	83 ec 54             	sub    esp,0x54
  407b46:	8d 45 fc             	lea    eax,[ebp-0x4]
  407b49:	57                   	push   edi
  407b4a:	50                   	push   eax
  407b4b:	6a 08                	push   0x8
  407b4d:	ff 75 08             	push   DWORD PTR [ebp+0x8]
  407b50:	33 ff                	xor    edi,edi
  407b52:	ff 15 e0 26 41 00    	call   DWORD PTR ds:0x4126e0
  407b58:	85 c0                	test   eax,eax
  407b5a:	74 3a                	je     0x407b96
  407b5c:	8d 45 f8             	lea    eax,[ebp-0x8]
  407b5f:	50                   	push   eax
  407b60:	6a 4c                	push   0x4c
  407b62:	8d 45 ac             	lea    eax,[ebp-0x54]
  407b65:	50                   	push   eax
  407b66:	6a 19                	push   0x19
  407b68:	ff 75 fc             	push   DWORD PTR [ebp-0x4]
  407b6b:	ff 15 68 26 41 00    	call   DWORD PTR ds:0x412668
  407b71:	85 c0                	test   eax,eax
  407b73:	74 18                	je     0x407b8d
  407b75:	56                   	push   esi
  407b76:	8b 75 ac             	mov    esi,DWORD PTR [ebp-0x54]
  407b79:	56                   	push   esi
  407b7a:	ff 15 ac 28 41 00    	call   DWORD PTR ds:0x4128ac
  407b80:	85 c0                	test   eax,eax
  407b82:	74 08                	je     0x407b8c
  407b84:	0f b6 46 01          	movzx  eax,BYTE PTR [esi+0x1]
  407b88:	8b 7c 86 04          	mov    edi,DWORD PTR [esi+eax*4+0x4]
  407b8c:	5e                   	pop    esi
  407b8d:	ff 75 fc             	push   DWORD PTR [ebp-0x4]
  407b90:	e8 81 d8 ff ff       	call   0x405416
  407b95:	59                   	pop    ecx
  407b96:	8b c7                	mov    eax,edi
  407b98:	5f                   	pop    edi
  407b99:	8b e5                	mov    esp,ebp
  407b9b:	5d                   	pop    ebp
  407b9c:	c3                   	ret    
  407b9d:	55                   	push   ebp
  407b9e:	8b ec                	mov    ebp,esp
  407ba0:	83 ec 20             	sub    esp,0x20
  407ba3:	56                   	push   esi
  407ba4:	8d 45 e0             	lea    eax,[ebp-0x20]
  407ba7:	50                   	push   eax
  407ba8:	6a 18                	push   0x18
  407baa:	6a 0c                	push   0xc
  407bac:	68 d5 04 00 00       	push   0x4d5
  407bb1:	68 c0 28 41 00       	push   0x4128c0
  407bb6:	e8 da e9 ff ff       	call   0x406595
  407bbb:	33 c0                	xor    eax,eax
  407bbd:	66 89 45 f8          	mov    WORD PTR [ebp-0x8],ax
  407bc1:	8d 45 e0             	lea    eax,[ebp-0x20]
  407bc4:	50                   	push   eax
  407bc5:	e8 4b dc ff ff       	call   0x405815
  407bca:	83 c4 18             	add    esp,0x18
  407bcd:	50                   	push   eax
  407bce:	6a 00                	push   0x0
  407bd0:	68 00 00 00 02       	push   0x2000000
  407bd5:	ff 15 1c 26 41 00    	call   DWORD PTR ds:0x41261c
  407bdb:	8b f0                	mov    esi,eax
  407bdd:	85 f6                	test   esi,esi
  407bdf:	74 3f                	je     0x407c20
  407be1:	8d 45 fc             	lea    eax,[ebp-0x4]
  407be4:	50                   	push   eax
  407be5:	68 ff 01 0f 00       	push   0xf01ff
  407bea:	56                   	push   esi
  407beb:	ff 15 e0 26 41 00    	call   DWORD PTR ds:0x4126e0
  407bf1:	56                   	push   esi
  407bf2:	85 c0                	test   eax,eax
  407bf4:	75 09                	jne    0x407bff
  407bf6:	e8 1b d8 ff ff       	call   0x405416
  407bfb:	33 c0                	xor    eax,eax
  407bfd:	eb 20                	jmp    0x407c1f
  407bff:	e8 12 d8 ff ff       	call   0x405416
  407c04:	59                   	pop    ecx
  407c05:	ff 75 fc             	push   DWORD PTR [ebp-0x4]
  407c08:	ff 15 b8 28 41 00    	call   DWORD PTR ds:0x4128b8
  407c0e:	ff 75 fc             	push   DWORD PTR [ebp-0x4]
  407c11:	8b f0                	mov    esi,eax
  407c13:	e8 fe d7 ff ff       	call   0x405416
  407c18:	33 c0                	xor    eax,eax
  407c1a:	85 f6                	test   esi,esi
  407c1c:	0f 95 c0             	setne  al
  407c1f:	59                   	pop    ecx
  407c20:	5e                   	pop    esi
  407c21:	8b e5                	mov    esp,ebp
  407c23:	5d                   	pop    ebp
  407c24:	c3                   	ret    
  407c25:	ff 25 e8 27 41 00    	jmp    DWORD PTR ds:0x4127e8
  407c2b:	6a 12                	push   0x12
  407c2d:	6a 00                	push   0x0
  407c2f:	ff 15 fc 26 41 00    	call   DWORD PTR ds:0x4126fc
  407c35:	c3                   	ret    
  407c36:	55                   	push   ebp
  407c37:	8b ec                	mov    ebp,esp
  407c39:	51                   	push   ecx
  407c3a:	8d 45 ff             	lea    eax,[ebp-0x1]
  407c3d:	c6 45 ff 00          	mov    BYTE PTR [ebp-0x1],0x0
  407c41:	50                   	push   eax
  407c42:	6a 01                	push   0x1
  407c44:	6a 01                	push   0x1
  407c46:	ff 75 08             	push   DWORD PTR [ebp+0x8]
  407c49:	ff 15 5c 26 41 00    	call   DWORD PTR ds:0x41265c
  407c4f:	85 c0                	test   eax,eax
  407c51:	74 20                	je     0x407c73
  407c53:	3d 7c 00 00 c0       	cmp    eax,0xc000007c
  407c58:	75 19                	jne    0x407c73
  407c5a:	8d 45 ff             	lea    eax,[ebp-0x1]
  407c5d:	50                   	push   eax
  407c5e:	6a 00                	push   0x0
  407c60:	6a 01                	push   0x1
  407c62:	ff 75 08             	push   DWORD PTR [ebp+0x8]
  407c65:	ff 15 5c 26 41 00    	call   DWORD PTR ds:0x41265c
  407c6b:	85 c0                	test   eax,eax
  407c6d:	74 04                	je     0x407c73
  407c6f:	33 c0                	xor    eax,eax
  407c71:	eb 03                	jmp    0x407c76
  407c73:	33 c0                	xor    eax,eax
  407c75:	40                   	inc    eax
  407c76:	8b e5                	mov    esp,ebp
  407c78:	5d                   	pop    ebp
  407c79:	c3                   	ret    
  407c7a:	55                   	push   ebp
  407c7b:	8b ec                	mov    ebp,esp
  407c7d:	83 7d 0c 00          	cmp    DWORD PTR [ebp+0xc],0x0
  407c81:	ff 75 08             	push   DWORD PTR [ebp+0x8]
  407c84:	74 14                	je     0x407c9a
  407c86:	e8 6d fd ff ff       	call   0x4079f8
  407c8b:	59                   	pop    ecx
  407c8c:	85 c0                	test   eax,eax
  407c8e:	74 07                	je     0x407c97
  407c90:	83 f8 01             	cmp    eax,0x1
  407c93:	75 1a                	jne    0x407caf
  407c95:	5d                   	pop    ebp
  407c96:	c3                   	ret    
  407c97:	ff 75 08             	push   DWORD PTR [ebp+0x8]
  407c9a:	e8 14 00 00 00       	call   0x407cb3
  407c9f:	59                   	pop    ecx
  407ca0:	85 c0                	test   eax,eax
  407ca2:	74 0b                	je     0x407caf
  407ca4:	ff 75 08             	push   DWORD PTR [ebp+0x8]
  407ca7:	e8 4c fd ff ff       	call   0x4079f8
  407cac:	59                   	pop    ecx
  407cad:	eb e1                	jmp    0x407c90
  407caf:	33 c0                	xor    eax,eax
  407cb1:	5d                   	pop    ebp
  407cb2:	c3                   	ret    
  407cb3:	55                   	push   ebp
  407cb4:	8b ec                	mov    ebp,esp
  407cb6:	51                   	push   ecx
  407cb7:	51                   	push   ecx
  407cb8:	56                   	push   esi
  407cb9:	33 f6                	xor    esi,esi
  407cbb:	46                   	inc    esi
  407cbc:	83 3d e0 33 41 00 00 	cmp    DWORD PTR ds:0x4133e0,0x0
  407cc3:	75 41                	jne    0x407d06
  407cc5:	8d 45 fc             	lea    eax,[ebp-0x4]
  407cc8:	50                   	push   eax
  407cc9:	6a 08                	push   0x8
  407ccb:	e8 2c d8 ff ff       	call   0x4054fc
  407cd0:	50                   	push   eax
  407cd1:	ff 15 e0 26 41 00    	call   DWORD PTR ds:0x4126e0
  407cd7:	85 c0                	test   eax,eax
  407cd9:	74 45                	je     0x407d20
  407cdb:	8d 45 f8             	lea    eax,[ebp-0x8]
  407cde:	50                   	push   eax
  407cdf:	68 00 02 00 00       	push   0x200
  407ce4:	68 e4 33 41 00       	push   0x4133e4
  407ce9:	56                   	push   esi
  407cea:	ff 75 fc             	push   DWORD PTR [ebp-0x4]
  407ced:	ff 15 68 26 41 00    	call   DWORD PTR ds:0x412668
  407cf3:	85 c0                	test   eax,eax
  407cf5:	74 29                	je     0x407d20
  407cf7:	ff 75 fc             	push   DWORD PTR [ebp-0x4]
  407cfa:	89 35 e0 33 41 00    	mov    DWORD PTR ds:0x4133e0,esi
  407d00:	e8 11 d7 ff ff       	call   0x405416
  407d05:	59                   	pop    ecx
  407d06:	33 c0                	xor    eax,eax
  407d08:	50                   	push   eax
  407d09:	50                   	push   eax
  407d0a:	50                   	push   eax
  407d0b:	ff 35 e4 33 41 00    	push   DWORD PTR ds:0x4133e4
  407d11:	56                   	push   esi
  407d12:	56                   	push   esi
  407d13:	ff 75 08             	push   DWORD PTR [ebp+0x8]
  407d16:	ff 15 98 27 41 00    	call   DWORD PTR ds:0x412798
  407d1c:	85 c0                	test   eax,eax
  407d1e:	74 04                	je     0x407d24
  407d20:	33 c0                	xor    eax,eax
  407d22:	eb 02                	jmp    0x407d26
  407d24:	8b c6                	mov    eax,esi
  407d26:	5e                   	pop    esi
  407d27:	8b e5                	mov    esp,ebp
  407d29:	5d                   	pop    ebp
  407d2a:	c3                   	ret    
  407d2b:	55                   	push   ebp
  407d2c:	8b ec                	mov    ebp,esp
  407d2e:	83 ec 4c             	sub    esp,0x4c
  407d31:	56                   	push   esi
  407d32:	e8 c5 d7 ff ff       	call   0x4054fc
  407d37:	8b f0                	mov    esi,eax
  407d39:	e8 c4 dd ff ff       	call   0x405b02
  407d3e:	b9 00 06 00 00       	mov    ecx,0x600
  407d43:	66 3b c1             	cmp    ax,cx
  407d46:	0f 82 ce 00 00 00    	jb     0x407e1a
  407d4c:	56                   	push   esi
  407d4d:	e8 a5 fd ff ff       	call   0x407af7
  407d52:	59                   	pop    ecx
  407d53:	83 f8 03             	cmp    eax,0x3
  407d56:	0f 85 be 00 00 00    	jne    0x407e1a
  407d5c:	56                   	push   esi
  407d5d:	e8 de fd ff ff       	call   0x407b40
  407d62:	59                   	pop    ecx
  407d63:	3d 00 30 00 00       	cmp    eax,0x3000
  407d68:	0f 83 ac 00 00 00    	jae    0x407e1a
  407d6e:	53                   	push   ebx
  407d6f:	57                   	push   edi
  407d70:	e8 0d e0 ff ff       	call   0x405d82
  407d75:	8d 45 fc             	lea    eax,[ebp-0x4]
  407d78:	33 db                	xor    ebx,ebx
  407d7a:	50                   	push   eax
  407d7b:	53                   	push   ebx
  407d7c:	e8 97 d9 ff ff       	call   0x405718
  407d81:	8b f0                	mov    esi,eax
  407d83:	59                   	pop    ecx
  407d84:	59                   	pop    ecx
  407d85:	85 f6                	test   esi,esi
  407d87:	75 07                	jne    0x407d90
  407d89:	53                   	push   ebx
  407d8a:	e8 20 d7 ff ff       	call   0x4054af
  407d8f:	59                   	pop    ecx
  407d90:	e8 be dc ff ff       	call   0x405a53
  407d95:	8b f8                	mov    edi,eax
  407d97:	8d 45 f0             	lea    eax,[ebp-0x10]
  407d9a:	50                   	push   eax
  407d9b:	6a 0a                	push   0xa
  407d9d:	6a 0e                	push   0xe
  407d9f:	68 53 04 00 00       	push   0x453
  407da4:	68 c0 28 41 00       	push   0x4128c0
  407da9:	e8 e7 e7 ff ff       	call   0x406595
  407dae:	83 c4 14             	add    esp,0x14
  407db1:	c7 45 b4 3c 00 00 00 	mov    DWORD PTR [ebp-0x4c],0x3c
  407db8:	33 c0                	xor    eax,eax
  407dba:	89 5d b8             	mov    DWORD PTR [ebp-0x48],ebx
  407dbd:	66 89 45 fa          	mov    WORD PTR [ebp-0x6],ax
  407dc1:	ff 15 a0 26 41 00    	call   DWORD PTR ds:0x4126a0
  407dc7:	89 45 bc             	mov    DWORD PTR [ebp-0x44],eax
  407dca:	8d 45 f0             	lea    eax,[ebp-0x10]
  407dcd:	89 45 c0             	mov    DWORD PTR [ebp-0x40],eax
  407dd0:	89 75 c4             	mov    DWORD PTR [ebp-0x3c],esi
  407dd3:	89 7d c8             	mov    DWORD PTR [ebp-0x38],edi
  407dd6:	89 5d cc             	mov    DWORD PTR [ebp-0x34],ebx
  407dd9:	c7 45 d0 01 00 00 00 	mov    DWORD PTR [ebp-0x30],0x1
  407de0:	89 5d d4             	mov    DWORD PTR [ebp-0x2c],ebx
  407de3:	89 5d d8             	mov    DWORD PTR [ebp-0x28],ebx
  407de6:	89 5d dc             	mov    DWORD PTR [ebp-0x24],ebx
  407de9:	89 5d e0             	mov    DWORD PTR [ebp-0x20],ebx
  407dec:	89 5d e4             	mov    DWORD PTR [ebp-0x1c],ebx
  407def:	89 5d e8             	mov    DWORD PTR [ebp-0x18],ebx
  407df2:	89 5d ec             	mov    DWORD PTR [ebp-0x14],ebx
  407df5:	8d 45 b4             	lea    eax,[ebp-0x4c]
  407df8:	50                   	push   eax
  407df9:	ff 15 48 28 41 00    	call   DWORD PTR ds:0x412848
  407dff:	85 c0                	test   eax,eax
  407e01:	74 f2                	je     0x407df5
  407e03:	56                   	push   esi
  407e04:	e8 b8 d3 ff ff       	call   0x4051c1
  407e09:	57                   	push   edi
  407e0a:	e8 b2 d3 ff ff       	call   0x4051c1
  407e0f:	53                   	push   ebx
  407e10:	e8 9a d6 ff ff       	call   0x4054af
  407e15:	83 c4 0c             	add    esp,0xc
  407e18:	5f                   	pop    edi
  407e19:	5b                   	pop    ebx
  407e1a:	5e                   	pop    esi
  407e1b:	8b e5                	mov    esp,ebp
  407e1d:	5d                   	pop    ebp
  407e1e:	c3                   	ret    
  407e1f:	55                   	push   ebp
  407e20:	8b ec                	mov    ebp,esp
  407e22:	56                   	push   esi
  407e23:	8b 75 08             	mov    esi,DWORD PTR [ebp+0x8]
  407e26:	6a 00                	push   0x0
  407e28:	ff 75 10             	push   DWORD PTR [ebp+0x10]
  407e2b:	ff 76 04             	push   DWORD PTR [esi+0x4]
  407e2e:	ff 75 0c             	push   DWORD PTR [ebp+0xc]
  407e31:	ff 15 ec 26 41 00    	call   DWORD PTR ds:0x4126ec
  407e37:	33 c9                	xor    ecx,ecx
  407e39:	39 46 04             	cmp    DWORD PTR [esi+0x4],eax
  407e3c:	5e                   	pop    esi
  407e3d:	0f 94 c1             	sete   cl
  407e40:	8b c1                	mov    eax,ecx
  407e42:	5d                   	pop    ebp
  407e43:	c3                   	ret    
  407e44:	55                   	push   ebp
  407e45:	8b ec                	mov    ebp,esp
  407e47:	8b 45 0c             	mov    eax,DWORD PTR [ebp+0xc]
  407e4a:	53                   	push   ebx
  407e4b:	56                   	push   esi
  407e4c:	57                   	push   edi
  407e4d:	33 db                	xor    ebx,ebx
  407e4f:	c7 00 01 00 00 00    	mov    DWORD PTR [eax],0x1
  407e55:	8b fb                	mov    edi,ebx
  407e57:	e8 8f dc ff ff       	call   0x405aeb
  407e5c:	8b 75 08             	mov    esi,DWORD PTR [ebp+0x8]
  407e5f:	a9 ff ff ff 7f       	test   eax,0x7fffffff
  407e64:	76 22                	jbe    0x407e88
  407e66:	53                   	push   ebx
  407e67:	53                   	push   ebx
  407e68:	53                   	push   ebx
  407e69:	ff 76 04             	push   DWORD PTR [esi+0x4]
  407e6c:	ff 15 f4 26 41 00    	call   DWORD PTR ds:0x4126f4
  407e72:	47                   	inc    edi
  407e73:	e8 73 dc ff ff       	call   0x405aeb
  407e78:	03 c0                	add    eax,eax
  407e7a:	3b f8                	cmp    edi,eax
  407e7c:	72 e8                	jb     0x407e66
  407e7e:	eb 08                	jmp    0x407e88
  407e80:	6a 64                	push   0x64
  407e82:	e8 40 e1 ff ff       	call   0x405fc7
  407e87:	59                   	pop    ecx
  407e88:	39 5e 08             	cmp    DWORD PTR [esi+0x8],ebx
  407e8b:	75 f3                	jne    0x407e80
  407e8d:	ff 36                	push   DWORD PTR [esi]
  407e8f:	e8 bc d2 ff ff       	call   0x405150
  407e94:	ff 76 04             	push   DWORD PTR [esi+0x4]
  407e97:	e8 7a d5 ff ff       	call   0x405416
  407e9c:	59                   	pop    ecx
  407e9d:	59                   	pop    ecx
  407e9e:	5f                   	pop    edi
  407e9f:	5e                   	pop    esi
  407ea0:	5b                   	pop    ebx
  407ea1:	5d                   	pop    ebp
  407ea2:	c3                   	ret    
  407ea3:	55                   	push   ebp
  407ea4:	8b ec                	mov    ebp,esp
  407ea6:	53                   	push   ebx
  407ea7:	56                   	push   esi
  407ea8:	8b 75 08             	mov    esi,DWORD PTR [ebp+0x8]
  407eab:	57                   	push   edi
  407eac:	33 ff                	xor    edi,edi
  407eae:	8b df                	mov    ebx,edi
  407eb0:	89 7e 08             	mov    DWORD PTR [esi+0x8],edi
  407eb3:	e8 33 dc ff ff       	call   0x405aeb
  407eb8:	a9 ff ff ff 7f       	test   eax,0x7fffffff
  407ebd:	76 36                	jbe    0x407ef5
  407ebf:	57                   	push   edi
  407ec0:	57                   	push   edi
  407ec1:	56                   	push   esi
  407ec2:	ff 75 0c             	push   DWORD PTR [ebp+0xc]
  407ec5:	57                   	push   edi
  407ec6:	57                   	push   edi
  407ec7:	ff 15 7c 27 41 00    	call   DWORD PTR ds:0x41277c
  407ecd:	8b f8                	mov    edi,eax
  407ecf:	85 ff                	test   edi,edi
  407ed1:	74 2a                	je     0x407efd
  407ed3:	6a 02                	push   0x2
  407ed5:	57                   	push   edi
  407ed6:	ff 15 18 e0 40 00    	call   DWORD PTR ds:0x40e018
  407edc:	ff 46 08             	inc    DWORD PTR [esi+0x8]
  407edf:	57                   	push   edi
  407ee0:	e8 31 d5 ff ff       	call   0x405416
  407ee5:	59                   	pop    ecx
  407ee6:	43                   	inc    ebx
  407ee7:	e8 ff db ff ff       	call   0x405aeb
  407eec:	03 c0                	add    eax,eax
  407eee:	6a 00                	push   0x0
  407ef0:	5f                   	pop    edi
  407ef1:	3b d8                	cmp    ebx,eax
  407ef3:	72 ca                	jb     0x407ebf
  407ef5:	33 c0                	xor    eax,eax
  407ef7:	40                   	inc    eax
  407ef8:	5f                   	pop    edi
  407ef9:	5e                   	pop    esi
  407efa:	5b                   	pop    ebx
  407efb:	5d                   	pop    ebp
  407efc:	c3                   	ret    
  407efd:	33 c0                	xor    eax,eax
  407eff:	eb f7                	jmp    0x407ef8
  407f01:	55                   	push   ebp
  407f02:	8b ec                	mov    ebp,esp
  407f04:	56                   	push   esi
  407f05:	ff 75 0c             	push   DWORD PTR [ebp+0xc]
  407f08:	e8 26 d2 ff ff       	call   0x405133
  407f0d:	8b 75 08             	mov    esi,DWORD PTR [ebp+0x8]
  407f10:	59                   	pop    ecx
  407f11:	89 06                	mov    DWORD PTR [esi],eax
  407f13:	85 c0                	test   eax,eax
  407f15:	75 04                	jne    0x407f1b
  407f17:	33 c0                	xor    eax,eax
  407f19:	eb 44                	jmp    0x407f5f
  407f1b:	ff 75 10             	push   DWORD PTR [ebp+0x10]
  407f1e:	6a 00                	push   0x0
  407f20:	6a 00                	push   0x0
  407f22:	6a ff                	push   0xffffffff
  407f24:	ff 15 ec 26 41 00    	call   DWORD PTR ds:0x4126ec
  407f2a:	89 46 04             	mov    DWORD PTR [esi+0x4],eax
  407f2d:	85 c0                	test   eax,eax
  407f2f:	75 0a                	jne    0x407f3b
  407f31:	ff 36                	push   DWORD PTR [esi]
  407f33:	e8 18 d2 ff ff       	call   0x405150
  407f38:	59                   	pop    ecx
  407f39:	eb dc                	jmp    0x407f17
  407f3b:	ff 75 14             	push   DWORD PTR [ebp+0x14]
  407f3e:	56                   	push   esi
  407f3f:	e8 5f ff ff ff       	call   0x407ea3
  407f44:	59                   	pop    ecx
  407f45:	59                   	pop    ecx
  407f46:	85 c0                	test   eax,eax
  407f48:	75 12                	jne    0x407f5c
  407f4a:	ff 36                	push   DWORD PTR [esi]
  407f4c:	e8 ff d1 ff ff       	call   0x405150
  407f51:	ff 76 04             	push   DWORD PTR [esi+0x4]
  407f54:	e8 bd d4 ff ff       	call   0x405416
  407f59:	59                   	pop    ecx
  407f5a:	eb dc                	jmp    0x407f38
  407f5c:	33 c0                	xor    eax,eax
  407f5e:	40                   	inc    eax
  407f5f:	5e                   	pop    esi
  407f60:	5d                   	pop    ebp
  407f61:	c3                   	ret    
  407f62:	55                   	push   ebp
  407f63:	8b ec                	mov    ebp,esp
  407f65:	8b 45 08             	mov    eax,DWORD PTR [ebp+0x8]
  407f68:	ff 75 0c             	push   DWORD PTR [ebp+0xc]
  407f6b:	ff 30                	push   DWORD PTR [eax]
  407f6d:	e8 98 d1 ff ff       	call   0x40510a
  407f72:	59                   	pop    ecx
  407f73:	59                   	pop    ecx
  407f74:	5d                   	pop    ebp
  407f75:	c3                   	ret    
  407f76:	55                   	push   ebp
  407f77:	8b ec                	mov    ebp,esp
  407f79:	8b 45 08             	mov    eax,DWORD PTR [ebp+0x8]
  407f7c:	ff 75 0c             	push   DWORD PTR [ebp+0xc]
  407f7f:	ff 30                	push   DWORD PTR [eax]
  407f81:	e8 d8 d1 ff ff       	call   0x40515e
  407f86:	59                   	pop    ecx
  407f87:	59                   	pop    ecx
  407f88:	5d                   	pop    ebp
  407f89:	c3                   	ret    
  407f8a:	55                   	push   ebp
  407f8b:	8b ec                	mov    ebp,esp
  407f8d:	ff 75 18             	push   DWORD PTR [ebp+0x18]
  407f90:	8b 45 08             	mov    eax,DWORD PTR [ebp+0x8]
  407f93:	ff 75 14             	push   DWORD PTR [ebp+0x14]
  407f96:	ff 75 10             	push   DWORD PTR [ebp+0x10]
  407f99:	ff 75 0c             	push   DWORD PTR [ebp+0xc]
  407f9c:	ff 70 04             	push   DWORD PTR [eax+0x4]
  407f9f:	ff 15 e8 26 41 00    	call   DWORD PTR ds:0x4126e8
  407fa5:	5d                   	pop    ebp
  407fa6:	c3                   	ret    
  407fa7:	55                   	push   ebp
  407fa8:	8b ec                	mov    ebp,esp
  407faa:	ff 75 14             	push   DWORD PTR [ebp+0x14]
  407fad:	8b 45 08             	mov    eax,DWORD PTR [ebp+0x8]
  407fb0:	ff 75 10             	push   DWORD PTR [ebp+0x10]
  407fb3:	ff 75 0c             	push   DWORD PTR [ebp+0xc]
  407fb6:	ff 70 04             	push   DWORD PTR [eax+0x4]
  407fb9:	ff 15 f4 26 41 00    	call   DWORD PTR ds:0x4126f4
  407fbf:	5d                   	pop    ebp
  407fc0:	c3                   	ret    
  407fc1:	55                   	push   ebp
  407fc2:	8b ec                	mov    ebp,esp
  407fc4:	83 ec 24             	sub    esp,0x24
  407fc7:	56                   	push   esi
  407fc8:	57                   	push   edi
  407fc9:	33 f6                	xor    esi,esi
  407fcb:	56                   	push   esi
  407fcc:	6a 04                	push   0x4
  407fce:	ff 15 64 27 41 00    	call   DWORD PTR ds:0x412764
  407fd4:	8b f8                	mov    edi,eax
  407fd6:	c7 45 dc 1c 00 00 00 	mov    DWORD PTR [ebp-0x24],0x1c
  407fdd:	8d 45 dc             	lea    eax,[ebp-0x24]
  407fe0:	50                   	push   eax
  407fe1:	57                   	push   edi
  407fe2:	ff 15 d0 26 41 00    	call   DWORD PTR ds:0x4126d0
  407fe8:	85 c0                	test   eax,eax
  407fea:	74 5c                	je     0x408048
  407fec:	53                   	push   ebx
  407fed:	e8 04 d5 ff ff       	call   0x4054f6
  407ff2:	8b d8                	mov    ebx,eax
  407ff4:	e8 09 d5 ff ff       	call   0x405502
  407ff9:	89 45 f8             	mov    DWORD PTR [ebp-0x8],eax
  407ffc:	39 5d e8             	cmp    DWORD PTR [ebp-0x18],ebx
  407fff:	75 31                	jne    0x408032
  408001:	39 45 e4             	cmp    DWORD PTR [ebp-0x1c],eax
  408004:	74 2c                	je     0x408032
  408006:	ff 75 e4             	push   DWORD PTR [ebp-0x1c]
  408009:	56                   	push   esi
  40800a:	68 80 00 00 00       	push   0x80
  40800f:	ff 15 0c 27 41 00    	call   DWORD PTR ds:0x41270c
  408015:	89 45 fc             	mov    DWORD PTR [ebp-0x4],eax
  408018:	85 c0                	test   eax,eax
  40801a:	74 16                	je     0x408032
  40801c:	ff 75 08             	push   DWORD PTR [ebp+0x8]
  40801f:	8d 45 fc             	lea    eax,[ebp-0x4]
  408022:	50                   	push   eax
  408023:	ff 15 28 26 41 00    	call   DWORD PTR ds:0x412628
  408029:	ff 75 fc             	push   DWORD PTR [ebp-0x4]
  40802c:	e8 e5 d3 ff ff       	call   0x405416
  408031:	59                   	pop    ecx
  408032:	8d 45 dc             	lea    eax,[ebp-0x24]
  408035:	50                   	push   eax
  408036:	57                   	push   edi
  408037:	ff 15 2c 27 41 00    	call   DWORD PTR ds:0x41272c
  40803d:	85 c0                	test   eax,eax
  40803f:	8b 45 f8             	mov    eax,DWORD PTR [ebp-0x8]
  408042:	75 b8                	jne    0x407ffc
  408044:	33 f6                	xor    esi,esi
  408046:	46                   	inc    esi
  408047:	5b                   	pop    ebx
  408048:	57                   	push   edi
  408049:	e8 c8 d3 ff ff       	call   0x405416
  40804e:	59                   	pop    ecx
  40804f:	5f                   	pop    edi
  408050:	8b c6                	mov    eax,esi
  408052:	5e                   	pop    esi
  408053:	8b e5                	mov    esp,ebp
  408055:	5d                   	pop    ebp
  408056:	c3                   	ret    
  408057:	55                   	push   ebp
  408058:	8b ec                	mov    ebp,esp
  40805a:	56                   	push   esi
  40805b:	8b 75 08             	mov    esi,DWORD PTR [ebp+0x8]
  40805e:	ff 76 14             	push   DWORD PTR [esi+0x14]
  408061:	e8 b0 d3 ff ff       	call   0x405416
  408066:	ff 76 18             	push   DWORD PTR [esi+0x18]
  408069:	e8 53 d1 ff ff       	call   0x4051c1
  40806e:	59                   	pop    ecx
  40806f:	59                   	pop    ecx
  408070:	5e                   	pop    esi
  408071:	5d                   	pop    ebp
  408072:	c3                   	ret    
  408073:	55                   	push   ebp
  408074:	8b ec                	mov    ebp,esp
  408076:	56                   	push   esi
  408077:	8b 75 08             	mov    esi,DWORD PTR [ebp+0x8]
  40807a:	33 c0                	xor    eax,eax
  40807c:	50                   	push   eax
  40807d:	68 00 00 00 48       	push   0x48000000
  408082:	ff 75 20             	push   DWORD PTR [ebp+0x20]
  408085:	89 46 0c             	mov    DWORD PTR [esi+0xc],eax
  408088:	50                   	push   eax
  408089:	ff 75 1c             	push   DWORD PTR [ebp+0x1c]
  40808c:	89 46 08             	mov    DWORD PTR [esi+0x8],eax
  40808f:	ff 75 18             	push   DWORD PTR [ebp+0x18]
  408092:	ff 75 0c             	push   DWORD PTR [ebp+0xc]
  408095:	ff 15 14 27 41 00    	call   DWORD PTR ds:0x412714
  40809b:	89 46 14             	mov    DWORD PTR [esi+0x14],eax
  40809e:	83 f8 ff             	cmp    eax,0xffffffff
  4080a1:	75 04                	jne    0x4080a7
  4080a3:	33 c0                	xor    eax,eax
  4080a5:	eb 2a                	jmp    0x4080d1
  4080a7:	ff 75 0c             	push   DWORD PTR [ebp+0xc]
  4080aa:	e8 06 e9 ff ff       	call   0x4069b5
  4080af:	89 46 18             	mov    DWORD PTR [esi+0x18],eax
  4080b2:	59                   	pop    ecx
  4080b3:	85 c0                	test   eax,eax
  4080b5:	75 0b                	jne    0x4080c2
  4080b7:	ff 76 14             	push   DWORD PTR [esi+0x14]
  4080ba:	e8 57 d3 ff ff       	call   0x405416
  4080bf:	59                   	pop    ecx
  4080c0:	eb e1                	jmp    0x4080a3
  4080c2:	8b 45 10             	mov    eax,DWORD PTR [ebp+0x10]
  4080c5:	89 46 20             	mov    DWORD PTR [esi+0x20],eax
  4080c8:	8b 45 14             	mov    eax,DWORD PTR [ebp+0x14]
  4080cb:	89 46 24             	mov    DWORD PTR [esi+0x24],eax
  4080ce:	33 c0                	xor    eax,eax
  4080d0:	40                   	inc    eax
  4080d1:	5e                   	pop    esi
  4080d2:	5d                   	pop    ebp
  4080d3:	c3                   	ret    
  4080d4:	55                   	push   ebp
  4080d5:	8b ec                	mov    ebp,esp
  4080d7:	8b 45 08             	mov    eax,DWORD PTR [ebp+0x8]
  4080da:	50                   	push   eax
  4080db:	6a 00                	push   0x0
  4080dd:	ff 75 10             	push   DWORD PTR [ebp+0x10]
  4080e0:	ff 75 0c             	push   DWORD PTR [ebp+0xc]
  4080e3:	ff 70 14             	push   DWORD PTR [eax+0x14]
  4080e6:	ff 15 5c 27 41 00    	call   DWORD PTR ds:0x41275c
  4080ec:	5d                   	pop    ebp
  4080ed:	c3                   	ret    
  4080ee:	55                   	push   ebp
  4080ef:	8b ec                	mov    ebp,esp
  4080f1:	8b 55 08             	mov    edx,DWORD PTR [ebp+0x8]
  4080f4:	8b 4a 08             	mov    ecx,DWORD PTR [edx+0x8]
  4080f7:	03 4d 0c             	add    ecx,DWORD PTR [ebp+0xc]
  4080fa:	8b 42 0c             	mov    eax,DWORD PTR [edx+0xc]
  4080fd:	13 45 10             	adc    eax,DWORD PTR [ebp+0x10]
  408100:	89 4a 08             	mov    DWORD PTR [edx+0x8],ecx
  408103:	89 42 0c             	mov    DWORD PTR [edx+0xc],eax
  408106:	5d                   	pop    ebp
  408107:	c3                   	ret    
  408108:	55                   	push   ebp
  408109:	8b ec                	mov    ebp,esp
  40810b:	8b 45 08             	mov    eax,DWORD PTR [ebp+0x8]
  40810e:	50                   	push   eax
  40810f:	6a 00                	push   0x0
  408111:	ff 75 10             	push   DWORD PTR [ebp+0x10]
  408114:	ff 75 0c             	push   DWORD PTR [ebp+0xc]
  408117:	ff 70 14             	push   DWORD PTR [eax+0x14]
  40811a:	ff 15 cc 25 41 00    	call   DWORD PTR ds:0x4125cc
  408120:	5d                   	pop    ebp
  408121:	c3                   	ret    
  408122:	55                   	push   ebp
  408123:	8b ec                	mov    ebp,esp
  408125:	81 ec 68 02 00 00    	sub    esp,0x268
  40812b:	53                   	push   ebx
  40812c:	56                   	push   esi
  40812d:	8b 75 08             	mov    esi,DWORD PTR [ebp+0x8]
  408130:	33 c0                	xor    eax,eax
  408132:	57                   	push   edi
  408133:	8b 7d 0c             	mov    edi,DWORD PTR [ebp+0xc]
  408136:	8b d8                	mov    ebx,eax
  408138:	50                   	push   eax
  408139:	56                   	push   esi
  40813a:	89 45 fc             	mov    DWORD PTR [ebp-0x4],eax
  40813d:	89 5d f8             	mov    DWORD PTR [ebp-0x8],ebx
  408140:	89 45 f0             	mov    DWORD PTR [ebp-0x10],eax
  408143:	89 45 f4             	mov    DWORD PTR [ebp-0xc],eax
  408146:	ff 57 04             	call   DWORD PTR [edi+0x4]
  408149:	59                   	pop    ecx
  40814a:	59                   	pop    ecx
  40814b:	85 c0                	test   eax,eax
  40814d:	0f 84 d0 01 00 00    	je     0x408323
  408153:	8d 45 f0             	lea    eax,[ebp-0x10]
  408156:	56                   	push   esi
  408157:	50                   	push   eax
  408158:	e8 9f 02 00 00       	call   0x4083fc
  40815d:	53                   	push   ebx
  40815e:	56                   	push   esi
  40815f:	ff 77 0c             	push   DWORD PTR [edi+0xc]
  408162:	ff 57 28             	call   DWORD PTR [edi+0x28]
  408165:	83 c4 14             	add    esp,0x14
  408168:	01 47 18             	add    DWORD PTR [edi+0x18],eax
  40816b:	11 57 1c             	adc    DWORD PTR [edi+0x1c],edx
  40816e:	e9 ad 01 00 00       	jmp    0x408320
  408173:	8b 45 f0             	mov    eax,DWORD PTR [ebp-0x10]
  408176:	0b 45 f4             	or     eax,DWORD PTR [ebp-0xc]
  408179:	74 3f                	je     0x4081ba
  40817b:	ff 33                	push   DWORD PTR [ebx]
  40817d:	56                   	push   esi
  40817e:	e8 d7 e7 ff ff       	call   0x40695a
  408183:	8b f3                	mov    esi,ebx
  408185:	8b 5b 04             	mov    ebx,DWORD PTR [ebx+0x4]
  408188:	89 5d f8             	mov    DWORD PTR [ebp-0x8],ebx
  40818b:	ff 36                	push   DWORD PTR [esi]
  40818d:	e8 2f d0 ff ff       	call   0x4051c1
  408192:	56                   	push   esi
  408193:	e8 29 d0 ff ff       	call   0x4051c1
  408198:	8b 45 f0             	mov    eax,DWORD PTR [ebp-0x10]
  40819b:	83 c4 10             	add    esp,0x10
  40819e:	8b 4d f4             	mov    ecx,DWORD PTR [ebp-0xc]
  4081a1:	83 c0 ff             	add    eax,0xffffffff
  4081a4:	89 45 f0             	mov    DWORD PTR [ebp-0x10],eax
  4081a7:	83 d1 ff             	adc    ecx,0xffffffff
  4081aa:	0b c1                	or     eax,ecx
  4081ac:	89 4d f4             	mov    DWORD PTR [ebp-0xc],ecx
  4081af:	75 03                	jne    0x4081b4
  4081b1:	21 45 fc             	and    DWORD PTR [ebp-0x4],eax
  4081b4:	8b 75 08             	mov    esi,DWORD PTR [ebp+0x8]
  4081b7:	33 c0                	xor    eax,eax
  4081b9:	40                   	inc    eax
  4081ba:	85 c0                	test   eax,eax
  4081bc:	0f 84 80 01 00 00    	je     0x408342
  4081c2:	56                   	push   esi
  4081c3:	e8 3b e8 ff ff       	call   0x406a03
  4081c8:	c7 04 24 28 e3 40 00 	mov    DWORD PTR [esp],0x40e328
  4081cf:	56                   	push   esi
  4081d0:	89 45 ec             	mov    DWORD PTR [ebp-0x14],eax
  4081d3:	e8 a0 e6 ff ff       	call   0x406878
  4081d8:	59                   	pop    ecx
  4081d9:	59                   	pop    ecx
  4081da:	e8 23 d9 ff ff       	call   0x405b02
  4081df:	b9 01 06 00 00       	mov    ecx,0x601
  4081e4:	66 3b c1             	cmp    ax,cx
  4081e7:	8d 85 98 fd ff ff    	lea    eax,[ebp-0x268]
  4081ed:	72 12                	jb     0x408201
  4081ef:	6a 02                	push   0x2
  4081f1:	6a 00                	push   0x0
  4081f3:	6a 00                	push   0x0
  4081f5:	50                   	push   eax
  4081f6:	6a 01                	push   0x1
  4081f8:	56                   	push   esi
  4081f9:	ff 15 b8 25 41 00    	call   DWORD PTR ds:0x4125b8
  4081ff:	eb 08                	jmp    0x408209
  408201:	50                   	push   eax
  408202:	56                   	push   esi
  408203:	ff 15 8c 26 41 00    	call   DWORD PTR ds:0x41268c
  408209:	89 45 0c             	mov    DWORD PTR [ebp+0xc],eax
  40820c:	83 f8 ff             	cmp    eax,0xffffffff
  40820f:	0f 84 0e 01 00 00    	je     0x408323
  408215:	8b d8                	mov    ebx,eax
  408217:	8d 85 c4 fd ff ff    	lea    eax,[ebp-0x23c]
  40821d:	68 b4 e0 40 00       	push   0x40e0b4
  408222:	50                   	push   eax
  408223:	e8 d1 e6 ff ff       	call   0x4068f9
  408228:	59                   	pop    ecx
  408229:	59                   	pop    ecx
  40822a:	85 c0                	test   eax,eax
  40822c:	0f 84 cc 00 00 00    	je     0x4082fe
  408232:	8d 85 c4 fd ff ff    	lea    eax,[ebp-0x23c]
  408238:	68 20 e3 40 00       	push   0x40e320
  40823d:	50                   	push   eax
  40823e:	e8 b6 e6 ff ff       	call   0x4068f9
  408243:	59                   	pop    ecx
  408244:	59                   	pop    ecx
  408245:	85 c0                	test   eax,eax
  408247:	0f 84 b1 00 00 00    	je     0x4082fe
  40824d:	f7 85 98 fd ff ff 00 	test   DWORD PTR [ebp-0x268],0x400
  408254:	04 00 00 
  408257:	0f 85 a1 00 00 00    	jne    0x4082fe
  40825d:	8d 85 c4 fd ff ff    	lea    eax,[ebp-0x23c]
  408263:	50                   	push   eax
  408264:	8b 45 ec             	mov    eax,DWORD PTR [ebp-0x14]
  408267:	8d 04 46             	lea    eax,[esi+eax*2]
  40826a:	50                   	push   eax
  40826b:	e8 ea e6 ff ff       	call   0x40695a
  408270:	f6 85 98 fd ff ff 10 	test   BYTE PTR [ebp-0x268],0x10
  408277:	59                   	pop    ecx
  408278:	59                   	pop    ecx
  408279:	74 40                	je     0x4082bb
  40827b:	68 2c e3 40 00       	push   0x40e32c
  408280:	56                   	push   esi
  408281:	e8 f2 e5 ff ff       	call   0x406878
  408286:	8d 85 c4 fd ff ff    	lea    eax,[ebp-0x23c]
  40828c:	50                   	push   eax
  40828d:	56                   	push   esi
  40828e:	ff 57 04             	call   DWORD PTR [edi+0x4]
  408291:	83 c4 10             	add    esp,0x10
  408294:	85 c0                	test   eax,eax
  408296:	74 66                	je     0x4082fe
  408298:	8d 45 f0             	lea    eax,[ebp-0x10]
  40829b:	56                   	push   esi
  40829c:	50                   	push   eax
  40829d:	e8 5a 01 00 00       	call   0x4083fc
  4082a2:	8d 85 c4 fd ff ff    	lea    eax,[ebp-0x23c]
  4082a8:	50                   	push   eax
  4082a9:	56                   	push   esi
  4082aa:	ff 77 0c             	push   DWORD PTR [edi+0xc]
  4082ad:	ff 57 28             	call   DWORD PTR [edi+0x28]
  4082b0:	83 c4 14             	add    esp,0x14
  4082b3:	01 47 18             	add    DWORD PTR [edi+0x18],eax
  4082b6:	11 57 1c             	adc    DWORD PTR [edi+0x1c],edx
  4082b9:	eb 43                	jmp    0x4082fe
  4082bb:	8b 8d b4 fd ff ff    	mov    ecx,DWORD PTR [ebp-0x24c]
  4082c1:	8b 85 b8 fd ff ff    	mov    eax,DWORD PTR [ebp-0x248]
  4082c7:	51                   	push   ecx
  4082c8:	50                   	push   eax
  4082c9:	89 45 e8             	mov    DWORD PTR [ebp-0x18],eax
  4082cc:	8d 85 c4 fd ff ff    	lea    eax,[ebp-0x23c]
  4082d2:	50                   	push   eax
  4082d3:	56                   	push   esi
  4082d4:	89 4d 0c             	mov    DWORD PTR [ebp+0xc],ecx
  4082d7:	ff 57 08             	call   DWORD PTR [edi+0x8]
  4082da:	83 c4 10             	add    esp,0x10
  4082dd:	85 c0                	test   eax,eax
  4082df:	74 1d                	je     0x4082fe
  4082e1:	ff 75 0c             	push   DWORD PTR [ebp+0xc]
  4082e4:	8d 85 c4 fd ff ff    	lea    eax,[ebp-0x23c]
  4082ea:	ff 75 e8             	push   DWORD PTR [ebp-0x18]
  4082ed:	50                   	push   eax
  4082ee:	56                   	push   esi
  4082ef:	ff 77 10             	push   DWORD PTR [edi+0x10]
  4082f2:	ff 57 2c             	call   DWORD PTR [edi+0x2c]
  4082f5:	83 c4 14             	add    esp,0x14
  4082f8:	01 47 20             	add    DWORD PTR [edi+0x20],eax
  4082fb:	11 57 24             	adc    DWORD PTR [edi+0x24],edx
  4082fe:	83 3f 00             	cmp    DWORD PTR [edi],0x0
  408301:	75 16                	jne    0x408319
  408303:	8d 85 98 fd ff ff    	lea    eax,[ebp-0x268]
  408309:	50                   	push   eax
  40830a:	53                   	push   ebx
  40830b:	ff 15 90 27 41 00    	call   DWORD PTR ds:0x412790
  408311:	85 c0                	test   eax,eax
  408313:	0f 85 fe fe ff ff    	jne    0x408217
  408319:	53                   	push   ebx
  40831a:	ff 15 c4 25 41 00    	call   DWORD PTR ds:0x4125c4
  408320:	8b 5d f8             	mov    ebx,DWORD PTR [ebp-0x8]
  408323:	83 3f 00             	cmp    DWORD PTR [edi],0x0
  408326:	0f 84 47 fe ff ff    	je     0x408173
  40832c:	eb 14                	jmp    0x408342
  40832e:	8b f3                	mov    esi,ebx
  408330:	8b 5b 04             	mov    ebx,DWORD PTR [ebx+0x4]
  408333:	ff 36                	push   DWORD PTR [esi]
  408335:	e8 87 ce ff ff       	call   0x4051c1
  40833a:	56                   	push   esi
  40833b:	e8 81 ce ff ff       	call   0x4051c1
  408340:	59                   	pop    ecx
  408341:	59                   	pop    ecx
  408342:	85 db                	test   ebx,ebx
  408344:	75 e8                	jne    0x40832e
  408346:	5f                   	pop    edi
  408347:	5e                   	pop    esi
  408348:	5b                   	pop    ebx
  408349:	8b e5                	mov    esp,ebp
  40834b:	5d                   	pop    ebp
  40834c:	c3                   	ret    
  40834d:	55                   	push   ebp
  40834e:	8b ec                	mov    ebp,esp
  408350:	6a 00                	push   0x0
  408352:	ff 75 18             	push   DWORD PTR [ebp+0x18]
  408355:	ff 75 14             	push   DWORD PTR [ebp+0x14]
  408358:	6a 00                	push   0x0
  40835a:	ff 75 10             	push   DWORD PTR [ebp+0x10]
  40835d:	ff 75 0c             	push   DWORD PTR [ebp+0xc]
  408360:	ff 75 08             	push   DWORD PTR [ebp+0x8]
  408363:	ff 15 14 27 41 00    	call   DWORD PTR ds:0x412714
  408369:	33 c9                	xor    ecx,ecx
  40836b:	83 f8 ff             	cmp    eax,0xffffffff
  40836e:	0f 44 c1             	cmove  eax,ecx
  408371:	5d                   	pop    ebp
  408372:	c3                   	ret    
  408373:	55                   	push   ebp
  408374:	8b ec                	mov    ebp,esp
  408376:	6a 00                	push   0x0
  408378:	ff 75 14             	push   DWORD PTR [ebp+0x14]
  40837b:	ff 75 10             	push   DWORD PTR [ebp+0x10]
  40837e:	ff 75 0c             	push   DWORD PTR [ebp+0xc]
  408381:	ff 75 08             	push   DWORD PTR [ebp+0x8]
  408384:	ff 15 5c 27 41 00    	call   DWORD PTR ds:0x41275c
  40838a:	5d                   	pop    ebp
  40838b:	c3                   	ret    
  40838c:	55                   	push   ebp
  40838d:	8b ec                	mov    ebp,esp
  40838f:	ff 75 14             	push   DWORD PTR [ebp+0x14]
  408392:	6a 00                	push   0x0
  408394:	ff 75 10             	push   DWORD PTR [ebp+0x10]
  408397:	ff 75 0c             	push   DWORD PTR [ebp+0xc]
  40839a:	ff 75 08             	push   DWORD PTR [ebp+0x8]
  40839d:	ff 15 dc 27 41 00    	call   DWORD PTR ds:0x4127dc
  4083a3:	5d                   	pop    ebp
  4083a4:	c3                   	ret    
  4083a5:	55                   	push   ebp
  4083a6:	8b ec                	mov    ebp,esp
  4083a8:	6a 00                	push   0x0
  4083aa:	ff 75 14             	push   DWORD PTR [ebp+0x14]
  4083ad:	ff 75 10             	push   DWORD PTR [ebp+0x10]
  4083b0:	ff 75 0c             	push   DWORD PTR [ebp+0xc]
  4083b3:	ff 75 08             	push   DWORD PTR [ebp+0x8]
  4083b6:	ff 15 cc 25 41 00    	call   DWORD PTR ds:0x4125cc
  4083bc:	5d                   	pop    ebp
  4083bd:	c3                   	ret    
  4083be:	55                   	push   ebp
  4083bf:	8b ec                	mov    ebp,esp
  4083c1:	8b 45 08             	mov    eax,DWORD PTR [ebp+0x8]
  4083c4:	83 c0 fe             	add    eax,0xfffffffe
  4083c7:	6a 02                	push   0x2
  4083c9:	59                   	pop    ecx
  4083ca:	3b c8                	cmp    ecx,eax
  4083cc:	1b c0                	sbb    eax,eax
  4083ce:	40                   	inc    eax
  4083cf:	5d                   	pop    ebp
  4083d0:	c3                   	ret    
  4083d1:	55                   	push   ebp
  4083d2:	8b ec                	mov    ebp,esp
  4083d4:	56                   	push   esi
  4083d5:	ff 75 08             	push   DWORD PTR [ebp+0x8]
  4083d8:	ff 15 68 28 41 00    	call   DWORD PTR ds:0x412868
  4083de:	8b f0                	mov    esi,eax
  4083e0:	66 83 3e 2e          	cmp    WORD PTR [esi],0x2e
  4083e4:	75 11                	jne    0x4083f7
  4083e6:	56                   	push   esi
  4083e7:	e8 17 e6 ff ff       	call   0x406a03
  4083ec:	59                   	pop    ecx
  4083ed:	83 f8 01             	cmp    eax,0x1
  4083f0:	76 05                	jbe    0x4083f7
  4083f2:	8d 46 02             	lea    eax,[esi+0x2]
  4083f5:	eb 02                	jmp    0x4083f9
  4083f7:	33 c0                	xor    eax,eax
  4083f9:	5e                   	pop    esi
  4083fa:	5d                   	pop    ebp
  4083fb:	c3                   	ret    
  4083fc:	55                   	push   ebp
  4083fd:	8b ec                	mov    ebp,esp
  4083ff:	56                   	push   esi
  408400:	6a 08                	push   0x8
  408402:	e8 6d cd ff ff       	call   0x405174
  408407:	8b f0                	mov    esi,eax
  408409:	59                   	pop    ecx
  40840a:	85 f6                	test   esi,esi
  40840c:	74 30                	je     0x40843e
  40840e:	ff 75 0c             	push   DWORD PTR [ebp+0xc]
  408411:	e8 9f e5 ff ff       	call   0x4069b5
  408416:	83 66 04 00          	and    DWORD PTR [esi+0x4],0x0
  40841a:	59                   	pop    ecx
  40841b:	8b 4d 08             	mov    ecx,DWORD PTR [ebp+0x8]
  40841e:	89 06                	mov    DWORD PTR [esi],eax
  408420:	8b 01                	mov    eax,DWORD PTR [ecx]
  408422:	0b 41 04             	or     eax,DWORD PTR [ecx+0x4]
  408425:	74 08                	je     0x40842f
  408427:	8b 41 0c             	mov    eax,DWORD PTR [ecx+0xc]
  40842a:	89 70 04             	mov    DWORD PTR [eax+0x4],esi
  40842d:	eb 03                	jmp    0x408432
  40842f:	89 71 08             	mov    DWORD PTR [ecx+0x8],esi
  408432:	33 c0                	xor    eax,eax
  408434:	89 71 0c             	mov    DWORD PTR [ecx+0xc],esi
  408437:	40                   	inc    eax
  408438:	01 01                	add    DWORD PTR [ecx],eax
  40843a:	83 51 04 00          	adc    DWORD PTR [ecx+0x4],0x0
  40843e:	5e                   	pop    esi
  40843f:	5d                   	pop    ebp
  408440:	c3                   	ret    
  408441:	55                   	push   ebp
  408442:	8b ec                	mov    ebp,esp
  408444:	56                   	push   esi
  408445:	ff 75 0c             	push   DWORD PTR [ebp+0xc]
  408448:	ff 75 08             	push   DWORD PTR [ebp+0x8]
  40844b:	ff 15 f4 25 41 00    	call   DWORD PTR ds:0x4125f4
  408451:	8b f0                	mov    esi,eax
  408453:	85 f6                	test   esi,esi
  408455:	75 26                	jne    0x40847d
  408457:	e8 e3 d5 ff ff       	call   0x405a3f
  40845c:	83 f8 03             	cmp    eax,0x3
  40845f:	75 1c                	jne    0x40847d
  408461:	e8 37 f7 ff ff       	call   0x407b9d
  408466:	85 c0                	test   eax,eax
  408468:	74 15                	je     0x40847f
  40846a:	ff 75 0c             	push   DWORD PTR [ebp+0xc]
  40846d:	ff 75 08             	push   DWORD PTR [ebp+0x8]
  408470:	ff 15 f4 25 41 00    	call   DWORD PTR ds:0x4125f4
  408476:	8b f0                	mov    esi,eax
  408478:	e8 a8 f7 ff ff       	call   0x407c25
  40847d:	8b c6                	mov    eax,esi
  40847f:	5e                   	pop    esi
  408480:	5d                   	pop    ebp
  408481:	c3                   	ret    
  408482:	55                   	push   ebp
  408483:	8b ec                	mov    ebp,esp
  408485:	83 ec 78             	sub    esp,0x78
  408488:	53                   	push   ebx
  408489:	57                   	push   edi
  40848a:	6a 40                	push   0x40
  40848c:	33 ff                	xor    edi,edi
  40848e:	8d 45 88             	lea    eax,[ebp-0x78]
  408491:	57                   	push   edi
  408492:	50                   	push   eax
  408493:	e8 63 cd ff ff       	call   0x4051fb
  408498:	8d 45 e8             	lea    eax,[ebp-0x18]
  40849b:	50                   	push   eax
  40849c:	6a 0e                	push   0xe
  40849e:	6a 0d                	push   0xd
  4084a0:	68 bf 00 00 00       	push   0xbf
  4084a5:	68 c0 28 41 00       	push   0x4128c0
  4084aa:	e8 e6 e0 ff ff       	call   0x406595
  4084af:	33 c0                	xor    eax,eax
  4084b1:	66 89 45 f6          	mov    WORD PTR [ebp-0xa],ax
  4084b5:	8d 45 e8             	lea    eax,[ebp-0x18]
  4084b8:	50                   	push   eax
  4084b9:	8d 45 88             	lea    eax,[ebp-0x78]
  4084bc:	50                   	push   eax
  4084bd:	e8 98 e4 ff ff       	call   0x40695a
  4084c2:	83 c4 28             	add    esp,0x28
  4084c5:	6a 5a                	push   0x5a
  4084c7:	5b                   	pop    ebx
  4084c8:	66 39 5d 90          	cmp    WORD PTR [ebp-0x70],bx
  4084cc:	0f 87 a9 00 00 00    	ja     0x40857b
  4084d2:	56                   	push   esi
  4084d3:	8d 45 88             	lea    eax,[ebp-0x78]
  4084d6:	50                   	push   eax
  4084d7:	ff 15 14 28 41 00    	call   DWORD PTR ds:0x412814
  4084dd:	8d 48 fe             	lea    ecx,[eax-0x2]
  4084e0:	83 f9 02             	cmp    ecx,0x2
  4084e3:	77 7c                	ja     0x408561
  4084e5:	83 f8 03             	cmp    eax,0x3
  4084e8:	75 49                	jne    0x408533
  4084ea:	66 8b 45 90          	mov    ax,WORD PTR [ebp-0x70]
  4084ee:	83 4d d8 ff          	or     DWORD PTR [ebp-0x28],0xffffffff
  4084f2:	66 89 45 fc          	mov    WORD PTR [ebp-0x4],ax
  4084f6:	33 c0                	xor    eax,eax
  4084f8:	66 89 45 fe          	mov    WORD PTR [ebp-0x2],ax
  4084fc:	8d 45 fc             	lea    eax,[ebp-0x4]
  4084ff:	89 45 c8             	mov    DWORD PTR [ebp-0x38],eax
  408502:	8d 45 90             	lea    eax,[ebp-0x70]
  408505:	89 45 e0             	mov    DWORD PTR [ebp-0x20],eax
  408508:	8d 45 f8             	lea    eax,[ebp-0x8]
  40850b:	50                   	push   eax
  40850c:	8d 45 c8             	lea    eax,[ebp-0x38]
  40850f:	89 7d f8             	mov    DWORD PTR [ebp-0x8],edi
  408512:	50                   	push   eax
  408513:	6a 02                	push   0x2
  408515:	57                   	push   edi
  408516:	89 7d cc             	mov    DWORD PTR [ebp-0x34],edi
  408519:	c7 45 d0 30 e3 40 00 	mov    DWORD PTR [ebp-0x30],0x40e330
  408520:	c7 45 d4 7f 00 00 00 	mov    DWORD PTR [ebp-0x2c],0x7f
  408527:	89 7d dc             	mov    DWORD PTR [ebp-0x24],edi
  40852a:	89 7d e4             	mov    DWORD PTR [ebp-0x1c],edi
  40852d:	ff 15 58 27 41 00    	call   DWORD PTR ds:0x412758
  408533:	68 fe ff 00 00       	push   0xfffe
  408538:	89 3d 40 30 41 00    	mov    DWORD PTR ds:0x413040,edi
  40853e:	e8 31 cc ff ff       	call   0x405174
  408543:	8b f0                	mov    esi,eax
  408545:	8d 45 88             	lea    eax,[ebp-0x78]
  408548:	50                   	push   eax
  408549:	56                   	push   esi
  40854a:	e8 0b e4 ff ff       	call   0x40695a
  40854f:	ff 75 08             	push   DWORD PTR [ebp+0x8]
  408552:	56                   	push   esi
  408553:	e8 ca fb ff ff       	call   0x408122
  408558:	56                   	push   esi
  408559:	e8 63 cc ff ff       	call   0x4051c1
  40855e:	83 c4 18             	add    esp,0x18
  408561:	66 8b 45 90          	mov    ax,WORD PTR [ebp-0x70]
  408565:	33 c9                	xor    ecx,ecx
  408567:	66 40                	inc    ax
  408569:	66 89 4d 96          	mov    WORD PTR [ebp-0x6a],cx
  40856d:	66 89 45 90          	mov    WORD PTR [ebp-0x70],ax
  408571:	66 3b c3             	cmp    ax,bx
  408574:	0f 86 59 ff ff ff    	jbe    0x4084d3
  40857a:	5e                   	pop    esi
  40857b:	33 c0                	xor    eax,eax
  40857d:	5f                   	pop    edi
  40857e:	40                   	inc    eax
  40857f:	5b                   	pop    ebx
  408580:	8b e5                	mov    esp,ebp
  408582:	5d                   	pop    ebp
  408583:	c3                   	ret    
  408584:	55                   	push   ebp
  408585:	8b ec                	mov    ebp,esp
  408587:	83 ec 24             	sub    esp,0x24
  40858a:	8d 45 f4             	lea    eax,[ebp-0xc]
  40858d:	57                   	push   edi
  40858e:	8b 7d 10             	mov    edi,DWORD PTR [ebp+0x10]
  408591:	50                   	push   eax
  408592:	57                   	push   edi
  408593:	6a 00                	push   0x0
  408595:	6a 00                	push   0x0
  408597:	ff 75 0c             	push   DWORD PTR [ebp+0xc]
  40859a:	ff 15 e0 27 41 00    	call   DWORD PTR ds:0x4127e0
  4085a0:	85 c0                	test   eax,eax
  4085a2:	74 07                	je     0x4085ab
  4085a4:	33 c0                	xor    eax,eax
  4085a6:	e9 36 01 00 00       	jmp    0x4086e1
  4085ab:	83 4d f8 ff          	or     DWORD PTR [ebp-0x8],0xffffffff
  4085af:	b8 00 40 00 00       	mov    eax,0x4000
  4085b4:	53                   	push   ebx
  4085b5:	50                   	push   eax
  4085b6:	89 45 f0             	mov    DWORD PTR [ebp-0x10],eax
  4085b9:	e8 b6 cb ff ff       	call   0x405174
  4085be:	8b d8                	mov    ebx,eax
  4085c0:	59                   	pop    ecx
  4085c1:	85 db                	test   ebx,ebx
  4085c3:	75 10                	jne    0x4085d5
  4085c5:	ff 75 f4             	push   DWORD PTR [ebp-0xc]
  4085c8:	ff 15 88 26 41 00    	call   DWORD PTR ds:0x412688
  4085ce:	33 c0                	xor    eax,eax
  4085d0:	e9 0b 01 00 00       	jmp    0x4086e0
  4085d5:	56                   	push   esi
  4085d6:	8d 45 f0             	lea    eax,[ebp-0x10]
  4085d9:	50                   	push   eax
  4085da:	53                   	push   ebx
  4085db:	8d 45 f8             	lea    eax,[ebp-0x8]
  4085de:	50                   	push   eax
  4085df:	ff 75 f4             	push   DWORD PTR [ebp-0xc]
  4085e2:	ff 15 90 28 41 00    	call   DWORD PTR ds:0x412890
  4085e8:	89 45 ec             	mov    DWORD PTR [ebp-0x14],eax
  4085eb:	85 c0                	test   eax,eax
  4085ed:	0f 85 cc 00 00 00    	jne    0x4086bf
  4085f3:	89 45 fc             	mov    DWORD PTR [ebp-0x4],eax
  4085f6:	39 45 f8             	cmp    DWORD PTR [ebp-0x8],eax
  4085f9:	76 db                	jbe    0x4085d6
  4085fb:	8d 73 14             	lea    esi,[ebx+0x14]
  4085fe:	f6 46 f8 02          	test   BYTE PTR [esi-0x8],0x2
  408602:	74 34                	je     0x408638
  408604:	85 ff                	test   edi,edi
  408606:	74 1b                	je     0x408623
  408608:	83 7f 14 00          	cmp    DWORD PTR [edi+0x14],0x0
  40860c:	74 2a                	je     0x408638
  40860e:	83 3e 00             	cmp    DWORD PTR [esi],0x0
  408611:	74 25                	je     0x408638
  408613:	ff 36                	push   DWORD PTR [esi]
  408615:	ff 77 14             	push   DWORD PTR [edi+0x14]
  408618:	e8 dc e2 ff ff       	call   0x4068f9
  40861d:	59                   	pop    ecx
  40861e:	59                   	pop    ecx
  40861f:	85 c0                	test   eax,eax
  408621:	74 12                	je     0x408635
  408623:	8d 46 ec             	lea    eax,[esi-0x14]
  408626:	50                   	push   eax
  408627:	ff 75 0c             	push   DWORD PTR [ebp+0xc]
  40862a:	ff 75 08             	push   DWORD PTR [ebp+0x8]
  40862d:	e8 52 ff ff ff       	call   0x408584
  408632:	83 c4 0c             	add    esp,0xc
  408635:	8b 45 fc             	mov    eax,DWORD PTR [ebp-0x4]
  408638:	83 7e f0 01          	cmp    DWORD PTR [esi-0x10],0x1
  40863c:	75 6e                	jne    0x4086ac
  40863e:	68 fe ff 00 00       	push   0xfffe
  408643:	e8 2c cb ff ff       	call   0x405174
  408648:	8b f8                	mov    edi,eax
  40864a:	59                   	pop    ecx
  40864b:	85 ff                	test   edi,edi
  40864d:	74 57                	je     0x4086a6
  40864f:	8d 45 dc             	lea    eax,[ebp-0x24]
  408652:	50                   	push   eax
  408653:	6a 0e                	push   0xe
  408655:	6a 0f                	push   0xf
  408657:	68 08 05 00 00       	push   0x508
  40865c:	68 c0 28 41 00       	push   0x4128c0
  408661:	e8 2f df ff ff       	call   0x406595
  408666:	33 c0                	xor    eax,eax
  408668:	66 89 45 ea          	mov    WORD PTR [ebp-0x16],ax
  40866c:	8d 45 dc             	lea    eax,[ebp-0x24]
  40866f:	50                   	push   eax
  408670:	57                   	push   edi
  408671:	e8 e4 e2 ff ff       	call   0x40695a
  408676:	8b 06                	mov    eax,DWORD PTR [esi]
  408678:	83 c0 02             	add    eax,0x2
  40867b:	50                   	push   eax
  40867c:	57                   	push   edi
  40867d:	e8 f6 e1 ff ff       	call   0x406878
  408682:	68 2c e3 40 00       	push   0x40e32c
  408687:	57                   	push   edi
  408688:	e8 eb e1 ff ff       	call   0x406878
  40868d:	ff 75 08             	push   DWORD PTR [ebp+0x8]
  408690:	83 25 40 30 41 00 00 	and    DWORD PTR ds:0x413040,0x0
  408697:	57                   	push   edi
  408698:	e8 85 fa ff ff       	call   0x408122
  40869d:	57                   	push   edi
  40869e:	e8 1e cb ff ff       	call   0x4051c1
  4086a3:	83 c4 38             	add    esp,0x38
  4086a6:	8b 7d 10             	mov    edi,DWORD PTR [ebp+0x10]
  4086a9:	8b 45 fc             	mov    eax,DWORD PTR [ebp-0x4]
  4086ac:	40                   	inc    eax
  4086ad:	83 c6 20             	add    esi,0x20
  4086b0:	89 45 fc             	mov    DWORD PTR [ebp-0x4],eax
  4086b3:	3b 45 f8             	cmp    eax,DWORD PTR [ebp-0x8]
  4086b6:	0f 82 42 ff ff ff    	jb     0x4085fe
  4086bc:	8b 45 ec             	mov    eax,DWORD PTR [ebp-0x14]
  4086bf:	3d 03 01 00 00       	cmp    eax,0x103
  4086c4:	0f 85 0c ff ff ff    	jne    0x4085d6
  4086ca:	53                   	push   ebx
  4086cb:	e8 f1 ca ff ff       	call   0x4051c1
  4086d0:	59                   	pop    ecx
  4086d1:	ff 75 f4             	push   DWORD PTR [ebp-0xc]
  4086d4:	ff 15 88 26 41 00    	call   DWORD PTR ds:0x412688
  4086da:	f7 d8                	neg    eax
  4086dc:	5e                   	pop    esi
  4086dd:	1b c0                	sbb    eax,eax
  4086df:	40                   	inc    eax
  4086e0:	5b                   	pop    ebx
  4086e1:	5f                   	pop    edi
  4086e2:	8b e5                	mov    esp,ebp
  4086e4:	5d                   	pop    ebp
  4086e5:	c3                   	ret    
  4086e6:	55                   	push   ebp
  4086e7:	8b ec                	mov    ebp,esp
  4086e9:	83 ec 34             	sub    esp,0x34
  4086ec:	53                   	push   ebx
  4086ed:	56                   	push   esi
  4086ee:	57                   	push   edi
  4086ef:	8d 45 cc             	lea    eax,[ebp-0x34]
  4086f2:	bf c0 28 41 00       	mov    edi,0x4128c0
  4086f7:	50                   	push   eax
  4086f8:	6a 18                	push   0x18
  4086fa:	6a 0c                	push   0xc
  4086fc:	68 d5 04 00 00       	push   0x4d5
  408701:	57                   	push   edi
  408702:	e8 8e de ff ff       	call   0x406595
  408707:	33 c0                	xor    eax,eax
  408709:	66 89 45 e4          	mov    WORD PTR [ebp-0x1c],ax
  40870d:	8d 45 cc             	lea    eax,[ebp-0x34]
  408710:	50                   	push   eax
  408711:	e8 ff d0 ff ff       	call   0x405815
  408716:	83 c4 18             	add    esp,0x18
  408719:	33 db                	xor    ebx,ebx
  40871b:	50                   	push   eax
  40871c:	53                   	push   ebx
  40871d:	68 00 00 00 02       	push   0x2000000
  408722:	ff 15 1c 26 41 00    	call   DWORD PTR ds:0x41261c
  408728:	8b f0                	mov    esi,eax
  40872a:	85 f6                	test   esi,esi
  40872c:	74 30                	je     0x40875e
  40872e:	8d 45 fc             	lea    eax,[ebp-0x4]
  408731:	50                   	push   eax
  408732:	6a 06                	push   0x6
  408734:	56                   	push   esi
  408735:	ff 15 e0 26 41 00    	call   DWORD PTR ds:0x4126e0
  40873b:	85 c0                	test   eax,eax
  40873d:	75 07                	jne    0x408746
  40873f:	56                   	push   esi
  408740:	e8 d1 cc ff ff       	call   0x405416
  408745:	59                   	pop    ecx
  408746:	8d 45 f8             	lea    eax,[ebp-0x8]
  408749:	50                   	push   eax
  40874a:	6a 02                	push   0x2
  40874c:	ff 75 fc             	push   DWORD PTR [ebp-0x4]
  40874f:	ff 15 84 27 41 00    	call   DWORD PTR ds:0x412784
  408755:	ff 75 f8             	push   DWORD PTR [ebp-0x8]
  408758:	e8 64 f8 ff ff       	call   0x407fc1
  40875d:	59                   	pop    ecx
  40875e:	e8 3a f4 ff ff       	call   0x407b9d
  408763:	68 fe ff 00 00       	push   0xfffe
  408768:	e8 07 ca ff ff       	call   0x405174
  40876d:	8b f0                	mov    esi,eax
  40876f:	59                   	pop    ecx
  408770:	85 f6                	test   esi,esi
  408772:	0f 84 d1 00 00 00    	je     0x408849
  408778:	8d 45 e8             	lea    eax,[ebp-0x18]
  40877b:	50                   	push   eax
  40877c:	6a 0e                	push   0xe
  40877e:	6a 0d                	push   0xd
  408780:	68 bf 00 00 00       	push   0xbf
  408785:	57                   	push   edi
  408786:	e8 0a de ff ff       	call   0x406595
  40878b:	33 c0                	xor    eax,eax
  40878d:	66 89 45 f6          	mov    WORD PTR [ebp-0xa],ax
  408791:	8d 45 e8             	lea    eax,[ebp-0x18]
  408794:	50                   	push   eax
  408795:	56                   	push   esi
  408796:	e8 bf e1 ff ff       	call   0x40695a
  40879b:	8b 7d 08             	mov    edi,DWORD PTR [ebp+0x8]
  40879e:	83 c4 1c             	add    esp,0x1c
  4087a1:	eb 3b                	jmp    0x4087de
  4087a3:	ff 15 14 28 41 00    	call   DWORD PTR ds:0x412814
  4087a9:	83 f8 04             	cmp    eax,0x4
  4087ac:	75 26                	jne    0x4087d4
  4087ae:	57                   	push   edi
  4087af:	56                   	push   esi
  4087b0:	89 1d 40 30 41 00    	mov    DWORD PTR ds:0x413040,ebx
  4087b6:	e8 67 f9 ff ff       	call   0x408122
  4087bb:	0f b7 46 08          	movzx  eax,WORD PTR [esi+0x8]
  4087bf:	59                   	pop    ecx
  4087c0:	59                   	pop    ecx
  4087c1:	83 f8 61             	cmp    eax,0x61
  4087c4:	72 0e                	jb     0x4087d4
  4087c6:	83 f8 7a             	cmp    eax,0x7a
  4087c9:	77 09                	ja     0x4087d4
  4087cb:	25 df ff 00 00       	and    eax,0xffdf
  4087d0:	66 89 46 08          	mov    WORD PTR [esi+0x8],ax
  4087d4:	66 ff 46 08          	inc    WORD PTR [esi+0x8]
  4087d8:	33 c0                	xor    eax,eax
  4087da:	66 89 46 0e          	mov    WORD PTR [esi+0xe],ax
  4087de:	6a 5a                	push   0x5a
  4087e0:	58                   	pop    eax
  4087e1:	56                   	push   esi
  4087e2:	66 39 46 08          	cmp    WORD PTR [esi+0x8],ax
  4087e6:	76 bb                	jbe    0x4087a3
  4087e8:	e8 d4 c9 ff ff       	call   0x4051c1
  4087ed:	53                   	push   ebx
  4087ee:	6a 01                	push   0x1
  4087f0:	57                   	push   edi
  4087f1:	e8 8e fd ff ff       	call   0x408584
  4087f6:	53                   	push   ebx
  4087f7:	6a 05                	push   0x5
  4087f9:	57                   	push   edi
  4087fa:	e8 85 fd ff ff       	call   0x408584
  4087ff:	53                   	push   ebx
  408800:	6a 02                	push   0x2
  408802:	57                   	push   edi
  408803:	e8 7c fd ff ff       	call   0x408584
  408808:	e8 18 f4 ff ff       	call   0x407c25
  40880d:	53                   	push   ebx
  40880e:	e8 ae f7 ff ff       	call   0x407fc1
  408813:	53                   	push   ebx
  408814:	6a 01                	push   0x1
  408816:	57                   	push   edi
  408817:	e8 68 fd ff ff       	call   0x408584
  40881c:	53                   	push   ebx
  40881d:	6a 05                	push   0x5
  40881f:	57                   	push   edi
  408820:	e8 5f fd ff ff       	call   0x408584
  408825:	83 c4 44             	add    esp,0x44
  408828:	53                   	push   ebx
  408829:	6a 03                	push   0x3
  40882b:	57                   	push   edi
  40882c:	e8 53 fd ff ff       	call   0x408584
  408831:	53                   	push   ebx
  408832:	6a 02                	push   0x2
  408834:	57                   	push   edi
  408835:	e8 4a fd ff ff       	call   0x408584
  40883a:	53                   	push   ebx
  40883b:	6a 04                	push   0x4
  40883d:	57                   	push   edi
  40883e:	e8 41 fd ff ff       	call   0x408584
  408843:	33 c0                	xor    eax,eax
  408845:	83 c4 24             	add    esp,0x24
  408848:	40                   	inc    eax
  408849:	5f                   	pop    edi
  40884a:	5e                   	pop    esi
  40884b:	5b                   	pop    ebx
  40884c:	8b e5                	mov    esp,ebp
  40884e:	5d                   	pop    ebp
  40884f:	c2 04 00             	ret    0x4
  408852:	55                   	push   ebp
  408853:	8b ec                	mov    ebp,esp
  408855:	83 ec 54             	sub    esp,0x54
  408858:	53                   	push   ebx
  408859:	57                   	push   edi
  40885a:	8d 45 fc             	lea    eax,[ebp-0x4]
  40885d:	33 db                	xor    ebx,ebx
  40885f:	50                   	push   eax
  408860:	6a 01                	push   0x1
  408862:	53                   	push   ebx
  408863:	8b fb                	mov    edi,ebx
  408865:	89 5d fc             	mov    DWORD PTR [ebp-0x4],ebx
  408868:	ff 15 b0 27 41 00    	call   DWORD PTR ds:0x4127b0
  40886e:	85 c0                	test   eax,eax
  408870:	0f 85 bb 00 00 00    	jne    0x408931
  408876:	56                   	push   esi
  408877:	eb 41                	jmp    0x4088ba
  408879:	39 5d f8             	cmp    DWORD PTR [ebp-0x8],ebx
  40887c:	74 4d                	je     0x4088cb
  40887e:	ff 75 f8             	push   DWORD PTR [ebp-0x8]
  408881:	e8 ee c8 ff ff       	call   0x405174
  408886:	8b f0                	mov    esi,eax
  408888:	59                   	pop    ecx
  408889:	85 f6                	test   esi,esi
  40888b:	74 2d                	je     0x4088ba
  40888d:	8d 45 f4             	lea    eax,[ebp-0xc]
  408890:	89 5d f4             	mov    DWORD PTR [ebp-0xc],ebx
  408893:	50                   	push   eax
  408894:	ff 75 f8             	push   DWORD PTR [ebp-0x8]
  408897:	56                   	push   esi
  408898:	ff 75 08             	push   DWORD PTR [ebp+0x8]
  40889b:	ff 15 78 28 41 00    	call   DWORD PTR ds:0x412878
  4088a1:	85 c0                	test   eax,eax
  4088a3:	74 0e                	je     0x4088b3
  4088a5:	8b 45 fc             	mov    eax,DWORD PTR [ebp-0x4]
  4088a8:	53                   	push   ebx
  4088a9:	ff 75 f4             	push   DWORD PTR [ebp-0xc]
  4088ac:	8b 08                	mov    ecx,DWORD PTR [eax]
  4088ae:	56                   	push   esi
  4088af:	50                   	push   eax
  4088b0:	ff 51 10             	call   DWORD PTR [ecx+0x10]
  4088b3:	56                   	push   esi
  4088b4:	e8 08 c9 ff ff       	call   0x4051c1
  4088b9:	59                   	pop    ecx
  4088ba:	8d 45 f8             	lea    eax,[ebp-0x8]
  4088bd:	50                   	push   eax
  4088be:	ff 75 08             	push   DWORD PTR [ebp+0x8]
  4088c1:	ff 15 ec 25 41 00    	call   DWORD PTR ds:0x4125ec
  4088c7:	85 c0                	test   eax,eax
  4088c9:	75 ae                	jne    0x408879
  4088cb:	8b 45 fc             	mov    eax,DWORD PTR [ebp-0x4]
  4088ce:	8d 55 ac             	lea    edx,[ebp-0x54]
  4088d1:	6a 01                	push   0x1
  4088d3:	52                   	push   edx
  4088d4:	50                   	push   eax
  4088d5:	8b 08                	mov    ecx,DWORD PTR [eax]
  4088d7:	ff 51 30             	call   DWORD PTR [ecx+0x30]
  4088da:	85 c0                	test   eax,eax
  4088dc:	75 49                	jne    0x408927
  4088de:	39 5d b4             	cmp    DWORD PTR [ebp-0x4c],ebx
  4088e1:	74 44                	je     0x408927
  4088e3:	8b 45 fc             	mov    eax,DWORD PTR [ebp-0x4]
  4088e6:	53                   	push   ebx
  4088e7:	53                   	push   ebx
  4088e8:	53                   	push   ebx
  4088e9:	8b 08                	mov    ecx,DWORD PTR [eax]
  4088eb:	53                   	push   ebx
  4088ec:	50                   	push   eax
  4088ed:	ff 51 14             	call   DWORD PTR [ecx+0x14]
  4088f0:	85 c0                	test   eax,eax
  4088f2:	75 33                	jne    0x408927
  4088f4:	ff 75 b4             	push   DWORD PTR [ebp-0x4c]
  4088f7:	e8 78 c8 ff ff       	call   0x405174
  4088fc:	8b f8                	mov    edi,eax
  4088fe:	59                   	pop    ecx
  4088ff:	85 ff                	test   edi,edi
  408901:	74 24                	je     0x408927
  408903:	8b 4d 0c             	mov    ecx,DWORD PTR [ebp+0xc]
  408906:	8d 45 f4             	lea    eax,[ebp-0xc]
  408909:	8b 75 b4             	mov    esi,DWORD PTR [ebp-0x4c]
  40890c:	50                   	push   eax
  40890d:	56                   	push   esi
  40890e:	89 31                	mov    DWORD PTR [ecx],esi
  408910:	8b 4d fc             	mov    ecx,DWORD PTR [ebp-0x4]
  408913:	57                   	push   edi
  408914:	51                   	push   ecx
  408915:	8b 11                	mov    edx,DWORD PTR [ecx]
  408917:	ff 52 0c             	call   DWORD PTR [edx+0xc]
  40891a:	85 c0                	test   eax,eax
  40891c:	74 09                	je     0x408927
  40891e:	57                   	push   edi
  40891f:	e8 9d c8 ff ff       	call   0x4051c1
  408924:	59                   	pop    ecx
  408925:	8b fb                	mov    edi,ebx
  408927:	8b 45 fc             	mov    eax,DWORD PTR [ebp-0x4]
  40892a:	50                   	push   eax
  40892b:	8b 08                	mov    ecx,DWORD PTR [eax]
  40892d:	ff 51 08             	call   DWORD PTR [ecx+0x8]
  408930:	5e                   	pop    esi
  408931:	8b c7                	mov    eax,edi
  408933:	5f                   	pop    edi
  408934:	5b                   	pop    ebx
  408935:	8b e5                	mov    esp,ebp
  408937:	5d                   	pop    ebp
  408938:	c3                   	ret    
  408939:	55                   	push   ebp
  40893a:	8b ec                	mov    ebp,esp
  40893c:	81 ec b0 01 00 00    	sub    esp,0x1b0
  408942:	56                   	push   esi
  408943:	57                   	push   edi
  408944:	8d 85 50 fe ff ff    	lea    eax,[ebp-0x1b0]
  40894a:	50                   	push   eax
  40894b:	68 e6 00 00 00       	push   0xe6
  408950:	6a 04                	push   0x4
  408952:	68 41 01 00 00       	push   0x141
  408957:	68 c0 28 41 00       	push   0x4128c0
  40895c:	e8 34 dc ff ff       	call   0x406595
  408961:	83 c4 14             	add    esp,0x14
  408964:	33 f6                	xor    esi,esi
  408966:	33 c0                	xor    eax,eax
  408968:	66 89 85 36 ff ff ff 	mov    WORD PTR [ebp-0xca],ax
  40896f:	8d 85 50 fe ff ff    	lea    eax,[ebp-0x1b0]
  408975:	56                   	push   esi
  408976:	56                   	push   esi
  408977:	56                   	push   esi
  408978:	56                   	push   esi
  408979:	50                   	push   eax
  40897a:	ff 15 f4 27 41 00    	call   DWORD PTR ds:0x4127f4
  408980:	8b f8                	mov    edi,eax
  408982:	33 c0                	xor    eax,eax
  408984:	89 7d f8             	mov    DWORD PTR [ebp-0x8],edi
  408987:	85 ff                	test   edi,edi
  408989:	0f 84 ca 01 00 00    	je     0x408b59
  40898f:	66 89 45 d0          	mov    WORD PTR [ebp-0x30],ax
  408993:	33 c9                	xor    ecx,ecx
  408995:	8d 45 b8             	lea    eax,[ebp-0x48]
  408998:	c7 45 b8 3c 00 00 00 	mov    DWORD PTR [ebp-0x48],0x3c
  40899f:	50                   	push   eax
  4089a0:	56                   	push   esi
  4089a1:	56                   	push   esi
  4089a2:	ff 75 08             	push   DWORD PTR [ebp+0x8]
  4089a5:	41                   	inc    ecx
  4089a6:	89 75 bc             	mov    DWORD PTR [ebp-0x44],esi
  4089a9:	89 75 c0             	mov    DWORD PTR [ebp-0x40],esi
  4089ac:	89 75 c4             	mov    DWORD PTR [ebp-0x3c],esi
  4089af:	89 75 c8             	mov    DWORD PTR [ebp-0x38],esi
  4089b2:	89 4d cc             	mov    DWORD PTR [ebp-0x34],ecx
  4089b5:	89 75 d4             	mov    DWORD PTR [ebp-0x2c],esi
  4089b8:	89 75 d8             	mov    DWORD PTR [ebp-0x28],esi
  4089bb:	89 75 dc             	mov    DWORD PTR [ebp-0x24],esi
  4089be:	89 75 e0             	mov    DWORD PTR [ebp-0x20],esi
  4089c1:	89 75 e4             	mov    DWORD PTR [ebp-0x1c],esi
  4089c4:	89 4d e8             	mov    DWORD PTR [ebp-0x18],ecx
  4089c7:	89 75 ec             	mov    DWORD PTR [ebp-0x14],esi
  4089ca:	89 75 f0             	mov    DWORD PTR [ebp-0x10],esi
  4089cd:	ff 15 a0 25 41 00    	call   DWORD PTR ds:0x4125a0
  4089d3:	85 c0                	test   eax,eax
  4089d5:	75 0e                	jne    0x4089e5
  4089d7:	57                   	push   edi
  4089d8:	ff 15 9c 28 41 00    	call   DWORD PTR ds:0x41289c
  4089de:	33 c0                	xor    eax,eax
  4089e0:	e9 74 01 00 00       	jmp    0x408b59
  4089e5:	8b 4d c8             	mov    ecx,DWORD PTR [ebp-0x38]
  4089e8:	33 d2                	xor    edx,edx
  4089ea:	8b 45 cc             	mov    eax,DWORD PTR [ebp-0x34]
  4089ed:	53                   	push   ebx
  4089ee:	56                   	push   esi
  4089ef:	66 89 14 41          	mov    WORD PTR [ecx+eax*2],dx
  4089f3:	ff 75 d0             	push   DWORD PTR [ebp-0x30]
  4089f6:	ff 75 c8             	push   DWORD PTR [ebp-0x38]
  4089f9:	57                   	push   edi
  4089fa:	ff 15 d8 27 41 00    	call   DWORD PTR ds:0x4127d8
  408a00:	8b d8                	mov    ebx,eax
  408a02:	89 5d f4             	mov    DWORD PTR [ebp-0xc],ebx
  408a05:	85 db                	test   ebx,ebx
  408a07:	75 03                	jne    0x408a0c
  408a09:	57                   	push   edi
  408a0a:	eb 61                	jmp    0x408a6d
  408a0c:	8b 45 e4             	mov    eax,DWORD PTR [ebp-0x1c]
  408a0f:	66 39 30             	cmp    WORD PTR [eax],si
  408a12:	75 06                	jne    0x408a1a
  408a14:	6a 2f                	push   0x2f
  408a16:	59                   	pop    ecx
  408a17:	66 89 08             	mov    WORD PTR [eax],cx
  408a1a:	8d 45 ac             	lea    eax,[ebp-0x54]
  408a1d:	50                   	push   eax
  408a1e:	6a 08                	push   0x8
  408a20:	6a 05                	push   0x5
  408a22:	68 e5 00 00 00       	push   0xe5
  408a27:	68 c0 28 41 00       	push   0x4128c0
  408a2c:	e8 64 db ff ff       	call   0x406595
  408a31:	83 c4 14             	add    esp,0x14
  408a34:	33 c0                	xor    eax,eax
  408a36:	83 7d c4 02          	cmp    DWORD PTR [ebp-0x3c],0x2
  408a3a:	b9 00 00 80 00       	mov    ecx,0x800000
  408a3f:	66 89 45 b4          	mov    WORD PTR [ebp-0x4c],ax
  408a43:	0f 44 c1             	cmove  eax,ecx
  408a46:	0d 00 01 00 00       	or     eax,0x100
  408a4b:	50                   	push   eax
  408a4c:	56                   	push   esi
  408a4d:	56                   	push   esi
  408a4e:	56                   	push   esi
  408a4f:	ff 75 e4             	push   DWORD PTR [ebp-0x1c]
  408a52:	8d 45 ac             	lea    eax,[ebp-0x54]
  408a55:	50                   	push   eax
  408a56:	53                   	push   ebx
  408a57:	ff 15 58 26 41 00    	call   DWORD PTR ds:0x412658
  408a5d:	8b d8                	mov    ebx,eax
  408a5f:	85 db                	test   ebx,ebx
  408a61:	75 17                	jne    0x408a7a
  408a63:	57                   	push   edi
  408a64:	ff 15 9c 28 41 00    	call   DWORD PTR ds:0x41289c
  408a6a:	ff 75 f4             	push   DWORD PTR [ebp-0xc]
  408a6d:	ff 15 9c 28 41 00    	call   DWORD PTR ds:0x41289c
  408a73:	33 c0                	xor    eax,eax
  408a75:	e9 de 00 00 00       	jmp    0x408b58
  408a7a:	8d 85 38 ff ff ff    	lea    eax,[ebp-0xc8]
  408a80:	8b fe                	mov    edi,esi
  408a82:	50                   	push   eax
  408a83:	6a 72                	push   0x72
  408a85:	6a 07                	push   0x7
  408a87:	68 0f 03 00 00       	push   0x30f
  408a8c:	68 c0 28 41 00       	push   0x4128c0
  408a91:	e8 ff da ff ff       	call   0x406595
  408a96:	83 c4 14             	add    esp,0x14
  408a99:	33 c0                	xor    eax,eax
  408a9b:	66 89 45 aa          	mov    WORD PTR [ebp-0x56],ax
  408a9f:	56                   	push   esi
  408aa0:	ff 75 10             	push   DWORD PTR [ebp+0x10]
  408aa3:	8d 85 38 ff ff ff    	lea    eax,[ebp-0xc8]
  408aa9:	ff 75 10             	push   DWORD PTR [ebp+0x10]
  408aac:	ff 75 0c             	push   DWORD PTR [ebp+0xc]
  408aaf:	6a ff                	push   0xffffffff
  408ab1:	50                   	push   eax
  408ab2:	53                   	push   ebx
  408ab3:	ff 15 8c 27 41 00    	call   DWORD PTR ds:0x41278c
  408ab9:	85 c0                	test   eax,eax
  408abb:	75 2e                	jne    0x408aeb
  408abd:	e8 7d cf ff ff       	call   0x405a3f
  408ac2:	3d 8f 2f 00 00       	cmp    eax,0x2f8f
  408ac7:	75 1e                	jne    0x408ae7
  408ac9:	6a 04                	push   0x4
  408acb:	8d 45 fc             	lea    eax,[ebp-0x4]
  408ace:	c7 45 fc 00 33 01 00 	mov    DWORD PTR [ebp-0x4],0x13300
  408ad5:	50                   	push   eax
  408ad6:	6a 1f                	push   0x1f
  408ad8:	53                   	push   ebx
  408ad9:	ff 15 f8 27 41 00    	call   DWORD PTR ds:0x4127f8
  408adf:	85 c0                	test   eax,eax
  408ae1:	6a 01                	push   0x1
  408ae3:	58                   	pop    eax
  408ae4:	0f 45 f8             	cmovne edi,eax
  408ae7:	85 ff                	test   edi,edi
  408ae9:	75 b4                	jne    0x408a9f
  408aeb:	8b 45 18             	mov    eax,DWORD PTR [ebp+0x18]
  408aee:	56                   	push   esi
  408aef:	53                   	push   ebx
  408af0:	89 30                	mov    DWORD PTR [eax],esi
  408af2:	ff 15 3c 27 41 00    	call   DWORD PTR ds:0x41273c
  408af8:	8b 7d f8             	mov    edi,DWORD PTR [ebp-0x8]
  408afb:	85 c0                	test   eax,eax
  408afd:	74 40                	je     0x408b3f
  408aff:	56                   	push   esi
  408b00:	8d 45 f8             	lea    eax,[ebp-0x8]
  408b03:	89 75 fc             	mov    DWORD PTR [ebp-0x4],esi
  408b06:	50                   	push   eax
  408b07:	8d 45 fc             	lea    eax,[ebp-0x4]
  408b0a:	c7 45 f8 04 00 00 00 	mov    DWORD PTR [ebp-0x8],0x4
  408b11:	50                   	push   eax
  408b12:	56                   	push   esi
  408b13:	68 13 00 00 20       	push   0x20000013
  408b18:	53                   	push   ebx
  408b19:	ff 15 08 27 41 00    	call   DWORD PTR ds:0x412708
  408b1f:	8b 4d 18             	mov    ecx,DWORD PTR [ebp+0x18]
  408b22:	f7 d8                	neg    eax
  408b24:	1b c0                	sbb    eax,eax
  408b26:	23 45 fc             	and    eax,DWORD PTR [ebp-0x4]
  408b29:	89 01                	mov    DWORD PTR [ecx],eax
  408b2b:	3d c8 00 00 00       	cmp    eax,0xc8
  408b30:	75 0d                	jne    0x408b3f
  408b32:	ff 75 14             	push   DWORD PTR [ebp+0x14]
  408b35:	53                   	push   ebx
  408b36:	e8 17 fd ff ff       	call   0x408852
  408b3b:	59                   	pop    ecx
  408b3c:	59                   	pop    ecx
  408b3d:	8b f0                	mov    esi,eax
  408b3f:	57                   	push   edi
  408b40:	ff 15 9c 28 41 00    	call   DWORD PTR ds:0x41289c
  408b46:	ff 75 f4             	push   DWORD PTR [ebp-0xc]
  408b49:	ff 15 9c 28 41 00    	call   DWORD PTR ds:0x41289c
  408b4f:	53                   	push   ebx
  408b50:	ff 15 9c 28 41 00    	call   DWORD PTR ds:0x41289c
  408b56:	8b c6                	mov    eax,esi
  408b58:	5b                   	pop    ebx
  408b59:	5f                   	pop    edi
  408b5a:	5e                   	pop    esi
  408b5b:	8b e5                	mov    esp,ebp
  408b5d:	5d                   	pop    ebp
  408b5e:	c3                   	ret    
  408b5f:	c3                   	ret    
  408b60:	e9 75 e9 ff ff       	jmp    0x4074da
  408b65:	55                   	push   ebp
  408b66:	8b ec                	mov    ebp,esp
  408b68:	ff 75 10             	push   DWORD PTR [ebp+0x10]
  408b6b:	8b 45 08             	mov    eax,DWORD PTR [ebp+0x8]
  408b6e:	ff 75 0c             	push   DWORD PTR [ebp+0xc]
  408b71:	ff 30                	push   DWORD PTR [eax]
  408b73:	83 c0 04             	add    eax,0x4
  408b76:	50                   	push   eax
  408b77:	e8 d6 06 00 00       	call   0x409252
  408b7c:	83 c4 10             	add    esp,0x10
  408b7f:	5d                   	pop    ebp
  408b80:	c3                   	ret    
  408b81:	55                   	push   ebp
  408b82:	8b ec                	mov    ebp,esp
  408b84:	56                   	push   esi
  408b85:	ff 75 0c             	push   DWORD PTR [ebp+0xc]
  408b88:	8b 75 08             	mov    esi,DWORD PTR [ebp+0x8]
  408b8b:	ff 75 10             	push   DWORD PTR [ebp+0x10]
  408b8e:	8d 46 04             	lea    eax,[esi+0x4]
  408b91:	50                   	push   eax
  408b92:	e8 de 0b 00 00       	call   0x409775
  408b97:	33 c9                	xor    ecx,ecx
  408b99:	89 06                	mov    DWORD PTR [esi],eax
  408b9b:	83 c4 0c             	add    esp,0xc
  408b9e:	85 c0                	test   eax,eax
  408ba0:	0f 95 c1             	setne  cl
  408ba3:	8b c1                	mov    eax,ecx
  408ba5:	5e                   	pop    esi
  408ba6:	5d                   	pop    ebp
  408ba7:	c3                   	ret    
  408ba8:	55                   	push   ebp
  408ba9:	8b ec                	mov    ebp,esp
  408bab:	83 ec 40             	sub    esp,0x40
  408bae:	53                   	push   ebx
  408baf:	8b 5d 08             	mov    ebx,DWORD PTR [ebp+0x8]
  408bb2:	57                   	push   edi
  408bb3:	33 ff                	xor    edi,edi
  408bb5:	39 bb 18 01 00 00    	cmp    DWORD PTR [ebx+0x118],edi
  408bbb:	75 07                	jne    0x408bc4
  408bbd:	33 c0                	xor    eax,eax
  408bbf:	e9 7b 01 00 00       	jmp    0x408d3f
  408bc4:	81 7d 10 00 00 01 00 	cmp    DWORD PTR [ebp+0x10],0x10000
  408bcb:	77 f0                	ja     0x408bbd
  408bcd:	56                   	push   esi
  408bce:	8b 75 18             	mov    esi,DWORD PTR [ebp+0x18]
  408bd1:	85 f6                	test   esi,esi
  408bd3:	74 40                	je     0x408c15
  408bd5:	83 fe 30             	cmp    esi,0x30
  408bd8:	0f 87 46 01 00 00    	ja     0x408d24
  408bde:	56                   	push   esi
  408bdf:	ff 75 14             	push   DWORD PTR [ebp+0x14]
  408be2:	8d 45 c0             	lea    eax,[ebp-0x40]
  408be5:	50                   	push   eax
  408be6:	e8 eb c5 ff ff       	call   0x4051d6
  408beb:	83 c4 0c             	add    esp,0xc
  408bee:	6a 30                	push   0x30
  408bf0:	58                   	pop    eax
  408bf1:	3b f0                	cmp    esi,eax
  408bf3:	74 12                	je     0x408c07
  408bf5:	2b c6                	sub    eax,esi
  408bf7:	50                   	push   eax
  408bf8:	8d 45 c0             	lea    eax,[ebp-0x40]
  408bfb:	03 c6                	add    eax,esi
  408bfd:	57                   	push   edi
  408bfe:	50                   	push   eax
  408bff:	e8 f7 c5 ff ff       	call   0x4051fb
  408c04:	83 c4 0c             	add    esp,0xc
  408c07:	8d 45 c0             	lea    eax,[ebp-0x40]
  408c0a:	50                   	push   eax
  408c0b:	53                   	push   ebx
  408c0c:	e8 41 02 00 00       	call   0x408e52
  408c11:	59                   	pop    ecx
  408c12:	59                   	pop    ecx
  408c13:	eb 0f                	jmp    0x408c24
  408c15:	6a 30                	push   0x30
  408c17:	8d 45 c0             	lea    eax,[ebp-0x40]
  408c1a:	57                   	push   edi
  408c1b:	50                   	push   eax
  408c1c:	e8 da c5 ff ff       	call   0x4051fb
  408c21:	83 c4 0c             	add    esp,0xc
  408c24:	39 bb 1c 01 00 00    	cmp    DWORD PTR [ebx+0x11c],edi
  408c2a:	75 29                	jne    0x408c55
  408c2c:	8d b3 f8 00 00 00    	lea    esi,[ebx+0xf8]
  408c32:	6a 10                	push   0x10
  408c34:	56                   	push   esi
  408c35:	e8 5b e6 ff ff       	call   0x407295
  408c3a:	8d 83 08 01 00 00    	lea    eax,[ebx+0x108]
  408c40:	50                   	push   eax
  408c41:	56                   	push   esi
  408c42:	53                   	push   ebx
  408c43:	e8 1d ff ff ff       	call   0x408b65
  408c48:	83 c4 14             	add    esp,0x14
  408c4b:	c7 83 1c 01 00 00 01 	mov    DWORD PTR [ebx+0x11c],0x1
  408c52:	00 00 00 
  408c55:	8b 45 10             	mov    eax,DWORD PTR [ebp+0x10]
  408c58:	83 f8 10             	cmp    eax,0x10
  408c5b:	72 5f                	jb     0x408cbc
  408c5d:	8b 75 0c             	mov    esi,DWORD PTR [ebp+0xc]
  408c60:	89 75 08             	mov    DWORD PTR [ebp+0x8],esi
  408c63:	8d 83 f8 00 00 00    	lea    eax,[ebx+0xf8]
  408c69:	6a 10                	push   0x10
  408c6b:	50                   	push   eax
  408c6c:	e8 24 e6 ff ff       	call   0x407295
  408c71:	56                   	push   esi
  408c72:	8d 83 f8 00 00 00    	lea    eax,[ebx+0xf8]
  408c78:	50                   	push   eax
  408c79:	53                   	push   ebx
  408c7a:	e8 e6 fe ff ff       	call   0x408b65
  408c7f:	83 c4 14             	add    esp,0x14
  408c82:	8d 8b 08 01 00 00    	lea    ecx,[ebx+0x108]
  408c88:	8b 04 be             	mov    eax,DWORD PTR [esi+edi*4]
  408c8b:	3b 04 b9             	cmp    eax,DWORD PTR [ecx+edi*4]
  408c8e:	75 0b                	jne    0x408c9b
  408c90:	47                   	inc    edi
  408c91:	83 ff 04             	cmp    edi,0x4
  408c94:	75 f2                	jne    0x408c88
  408c96:	e9 89 00 00 00       	jmp    0x408d24
  408c9b:	8b 45 10             	mov    eax,DWORD PTR [ebp+0x10]
  408c9e:	8b f9                	mov    edi,ecx
  408ca0:	83 e8 10             	sub    eax,0x10
  408ca3:	89 45 10             	mov    DWORD PTR [ebp+0x10],eax
  408ca6:	a5                   	movs   DWORD PTR es:[edi],DWORD PTR ds:[esi]
  408ca7:	a5                   	movs   DWORD PTR es:[edi],DWORD PTR ds:[esi]
  408ca8:	a5                   	movs   DWORD PTR es:[edi],DWORD PTR ds:[esi]
  408ca9:	a5                   	movs   DWORD PTR es:[edi],DWORD PTR ds:[esi]
  408caa:	8b 75 08             	mov    esi,DWORD PTR [ebp+0x8]
  408cad:	33 ff                	xor    edi,edi
  408caf:	83 c6 10             	add    esi,0x10
  408cb2:	89 75 08             	mov    DWORD PTR [ebp+0x8],esi
  408cb5:	83 f8 10             	cmp    eax,0x10
  408cb8:	72 08                	jb     0x408cc2
  408cba:	eb a7                	jmp    0x408c63
  408cbc:	8b 4d 0c             	mov    ecx,DWORD PTR [ebp+0xc]
  408cbf:	89 4d 08             	mov    DWORD PTR [ebp+0x8],ecx
  408cc2:	85 c0                	test   eax,eax
  408cc4:	74 50                	je     0x408d16
  408cc6:	8d b3 f8 00 00 00    	lea    esi,[ebx+0xf8]
  408ccc:	6a 10                	push   0x10
  408cce:	56                   	push   esi
  408ccf:	e8 c1 e5 ff ff       	call   0x407295
  408cd4:	8d 45 f0             	lea    eax,[ebp-0x10]
  408cd7:	50                   	push   eax
  408cd8:	56                   	push   esi
  408cd9:	53                   	push   ebx
  408cda:	e8 86 fe ff ff       	call   0x408b65
  408cdf:	83 c4 14             	add    esp,0x14
  408ce2:	8d 8b 08 01 00 00    	lea    ecx,[ebx+0x108]
  408ce8:	8d 55 f0             	lea    edx,[ebp-0x10]
  408ceb:	8b 04 ba             	mov    eax,DWORD PTR [edx+edi*4]
  408cee:	3b 04 b9             	cmp    eax,DWORD PTR [ecx+edi*4]
  408cf1:	75 08                	jne    0x408cfb
  408cf3:	47                   	inc    edi
  408cf4:	83 ff 04             	cmp    edi,0x4
  408cf7:	75 f2                	jne    0x408ceb
  408cf9:	eb 29                	jmp    0x408d24
  408cfb:	ff 75 10             	push   DWORD PTR [ebp+0x10]
  408cfe:	8b f9                	mov    edi,ecx
  408d00:	8d 75 f0             	lea    esi,[ebp-0x10]
  408d03:	8d 45 f0             	lea    eax,[ebp-0x10]
  408d06:	50                   	push   eax
  408d07:	ff 75 08             	push   DWORD PTR [ebp+0x8]
  408d0a:	a5                   	movs   DWORD PTR es:[edi],DWORD PTR ds:[esi]
  408d0b:	a5                   	movs   DWORD PTR es:[edi],DWORD PTR ds:[esi]
  408d0c:	a5                   	movs   DWORD PTR es:[edi],DWORD PTR ds:[esi]
  408d0d:	a5                   	movs   DWORD PTR es:[edi],DWORD PTR ds:[esi]
  408d0e:	e8 c3 c4 ff ff       	call   0x4051d6
  408d13:	83 c4 0c             	add    esp,0xc
  408d16:	8b 8b f4 00 00 00    	mov    ecx,DWORD PTR [ebx+0xf4]
  408d1c:	81 f9 00 00 00 01    	cmp    ecx,0x1000000
  408d22:	76 04                	jbe    0x408d28
  408d24:	33 c0                	xor    eax,eax
  408d26:	eb 16                	jmp    0x408d3e
  408d28:	41                   	inc    ecx
  408d29:	89 8b f4 00 00 00    	mov    DWORD PTR [ebx+0xf4],ecx
  408d2f:	8d 4d c0             	lea    ecx,[ebp-0x40]
  408d32:	51                   	push   ecx
  408d33:	53                   	push   ebx
  408d34:	e8 19 01 00 00       	call   0x408e52
  408d39:	59                   	pop    ecx
  408d3a:	33 c0                	xor    eax,eax
  408d3c:	59                   	pop    ecx
  408d3d:	40                   	inc    eax
  408d3e:	5e                   	pop    esi
  408d3f:	5f                   	pop    edi
  408d40:	5b                   	pop    ebx
  408d41:	8b e5                	mov    esp,ebp
  408d43:	5d                   	pop    ebp
  408d44:	c3                   	ret    
  408d45:	55                   	push   ebp
  408d46:	8b ec                	mov    ebp,esp
  408d48:	83 ec 20             	sub    esp,0x20
  408d4b:	57                   	push   edi
  408d4c:	68 20 01 00 00       	push   0x120
  408d51:	6a 00                	push   0x0
  408d53:	ff 75 08             	push   DWORD PTR [ebp+0x8]
  408d56:	e8 a0 c4 ff ff       	call   0x4051fb
  408d5b:	6a 08                	push   0x8
  408d5d:	59                   	pop    ecx
  408d5e:	33 c0                	xor    eax,eax
  408d60:	8d 7d e0             	lea    edi,[ebp-0x20]
  408d63:	f3 ab                	rep stos DWORD PTR es:[edi],eax
  408d65:	8d 45 e0             	lea    eax,[ebp-0x20]
  408d68:	50                   	push   eax
  408d69:	68 00 01 00 00       	push   0x100
  408d6e:	ff 75 08             	push   DWORD PTR [ebp+0x8]
  408d71:	e8 0b fe ff ff       	call   0x408b81
  408d76:	ff 75 18             	push   DWORD PTR [ebp+0x18]
  408d79:	ff 75 14             	push   DWORD PTR [ebp+0x14]
  408d7c:	ff 75 10             	push   DWORD PTR [ebp+0x10]
  408d7f:	ff 75 0c             	push   DWORD PTR [ebp+0xc]
  408d82:	ff 75 08             	push   DWORD PTR [ebp+0x8]
  408d85:	e8 50 00 00 00       	call   0x408dda
  408d8a:	83 c4 2c             	add    esp,0x2c
  408d8d:	5f                   	pop    edi
  408d8e:	8b e5                	mov    esp,ebp
  408d90:	5d                   	pop    ebp
  408d91:	c3                   	ret    
  408d92:	55                   	push   ebp
  408d93:	8b ec                	mov    ebp,esp
  408d95:	53                   	push   ebx
  408d96:	8b 5d 0c             	mov    ebx,DWORD PTR [ebp+0xc]
  408d99:	56                   	push   esi
  408d9a:	8b 75 10             	mov    esi,DWORD PTR [ebp+0x10]
  408d9d:	57                   	push   edi
  408d9e:	85 f6                	test   esi,esi
  408da0:	74 2c                	je     0x408dce
  408da2:	b8 00 00 01 00       	mov    eax,0x10000
  408da7:	6a 00                	push   0x0
  408da9:	3b f0                	cmp    esi,eax
  408dab:	8b fe                	mov    edi,esi
  408dad:	6a 00                	push   0x0
  408daf:	0f 47 f8             	cmova  edi,eax
  408db2:	57                   	push   edi
  408db3:	53                   	push   ebx
  408db4:	ff 75 08             	push   DWORD PTR [ebp+0x8]
  408db7:	e8 ec fd ff ff       	call   0x408ba8
  408dbc:	83 c4 14             	add    esp,0x14
  408dbf:	85 c0                	test   eax,eax
  408dc1:	74 13                	je     0x408dd6
  408dc3:	03 df                	add    ebx,edi
  408dc5:	b8 00 00 01 00       	mov    eax,0x10000
  408dca:	2b f7                	sub    esi,edi
  408dcc:	75 d9                	jne    0x408da7
  408dce:	33 c0                	xor    eax,eax
  408dd0:	40                   	inc    eax
  408dd1:	5f                   	pop    edi
  408dd2:	5e                   	pop    esi
  408dd3:	5b                   	pop    ebx
  408dd4:	5d                   	pop    ebp
  408dd5:	c3                   	ret    
  408dd6:	33 c0                	xor    eax,eax
  408dd8:	eb f7                	jmp    0x408dd1
  408dda:	55                   	push   ebp
  408ddb:	8b ec                	mov    ebp,esp
  408ddd:	83 ec 30             	sub    esp,0x30
  408de0:	33 c9                	xor    ecx,ecx
  408de2:	56                   	push   esi
  408de3:	8b 75 18             	mov    esi,DWORD PTR [ebp+0x18]
  408de6:	57                   	push   edi
  408de7:	6a 30                	push   0x30
  408de9:	5f                   	pop    edi
  408dea:	3b f7                	cmp    esi,edi
  408dec:	77 5c                	ja     0x408e4a
  408dee:	39 7d 10             	cmp    DWORD PTR [ebp+0x10],edi
  408df1:	75 57                	jne    0x408e4a
  408df3:	85 f6                	test   esi,esi
  408df5:	74 16                	je     0x408e0d
  408df7:	56                   	push   esi
  408df8:	ff 75 14             	push   DWORD PTR [ebp+0x14]
  408dfb:	8d 45 d0             	lea    eax,[ebp-0x30]
  408dfe:	50                   	push   eax
  408dff:	e8 d2 c3 ff ff       	call   0x4051d6
  408e04:	83 c4 0c             	add    esp,0xc
  408e07:	8b ce                	mov    ecx,esi
  408e09:	3b f7                	cmp    esi,edi
  408e0b:	74 15                	je     0x408e22
  408e0d:	8b c7                	mov    eax,edi
  408e0f:	2b c1                	sub    eax,ecx
  408e11:	50                   	push   eax
  408e12:	8d 45 d0             	lea    eax,[ebp-0x30]
  408e15:	03 c1                	add    eax,ecx
  408e17:	6a 00                	push   0x0
  408e19:	50                   	push   eax
  408e1a:	e8 dc c3 ff ff       	call   0x4051fb
  408e1f:	83 c4 0c             	add    esp,0xc
  408e22:	57                   	push   edi
  408e23:	ff 75 0c             	push   DWORD PTR [ebp+0xc]
  408e26:	8d 45 d0             	lea    eax,[ebp-0x30]
  408e29:	50                   	push   eax
  408e2a:	e8 7a e4 ff ff       	call   0x4072a9
  408e2f:	8b 75 08             	mov    esi,DWORD PTR [ebp+0x8]
  408e32:	8d 45 d0             	lea    eax,[ebp-0x30]
  408e35:	50                   	push   eax
  408e36:	56                   	push   esi
  408e37:	e8 16 00 00 00       	call   0x408e52
  408e3c:	33 c0                	xor    eax,eax
  408e3e:	83 c4 14             	add    esp,0x14
  408e41:	40                   	inc    eax
  408e42:	89 86 f4 00 00 00    	mov    DWORD PTR [esi+0xf4],eax
  408e48:	eb 02                	jmp    0x408e4c
  408e4a:	33 c0                	xor    eax,eax
  408e4c:	5f                   	pop    edi
  408e4d:	5e                   	pop    esi
  408e4e:	8b e5                	mov    esp,ebp
  408e50:	5d                   	pop    ebp
  408e51:	c3                   	ret    
  408e52:	55                   	push   ebp
  408e53:	8b ec                	mov    ebp,esp
  408e55:	83 ec 30             	sub    esp,0x30
  408e58:	53                   	push   ebx
  408e59:	8b 5d 08             	mov    ebx,DWORD PTR [ebp+0x8]
  408e5c:	56                   	push   esi
  408e5d:	57                   	push   edi
  408e5e:	33 f6                	xor    esi,esi
  408e60:	8d bb f8 00 00 00    	lea    edi,[ebx+0xf8]
  408e66:	6a 10                	push   0x10
  408e68:	57                   	push   edi
  408e69:	e8 27 e4 ff ff       	call   0x407295
  408e6e:	8d 45 d0             	lea    eax,[ebp-0x30]
  408e71:	03 c6                	add    eax,esi
  408e73:	50                   	push   eax
  408e74:	57                   	push   edi
  408e75:	53                   	push   ebx
  408e76:	e8 ea fc ff ff       	call   0x408b65
  408e7b:	83 c6 10             	add    esi,0x10
  408e7e:	83 c4 14             	add    esp,0x14
  408e81:	83 fe 30             	cmp    esi,0x30
  408e84:	72 e0                	jb     0x408e66
  408e86:	6a 30                	push   0x30
  408e88:	ff 75 0c             	push   DWORD PTR [ebp+0xc]
  408e8b:	8d 45 d0             	lea    eax,[ebp-0x30]
  408e8e:	50                   	push   eax
  408e8f:	e8 15 e4 ff ff       	call   0x4072a9
  408e94:	8d 45 d0             	lea    eax,[ebp-0x30]
  408e97:	50                   	push   eax
  408e98:	68 00 01 00 00       	push   0x100
  408e9d:	53                   	push   ebx
  408e9e:	e8 de fc ff ff       	call   0x408b81
  408ea3:	8d 75 f0             	lea    esi,[ebp-0x10]
  408ea6:	c7 83 18 01 00 00 01 	mov    DWORD PTR [ebx+0x118],0x1
  408ead:	00 00 00 
  408eb0:	a5                   	movs   DWORD PTR es:[edi],DWORD PTR ds:[esi]
  408eb1:	83 c4 18             	add    esp,0x18
  408eb4:	a5                   	movs   DWORD PTR es:[edi],DWORD PTR ds:[esi]
  408eb5:	a5                   	movs   DWORD PTR es:[edi],DWORD PTR ds:[esi]
  408eb6:	a5                   	movs   DWORD PTR es:[edi],DWORD PTR ds:[esi]
  408eb7:	5f                   	pop    edi
  408eb8:	5e                   	pop    esi
  408eb9:	5b                   	pop    ebx
  408eba:	8b e5                	mov    esp,ebp
  408ebc:	5d                   	pop    ebp
  408ebd:	c3                   	ret    
  408ebe:	55                   	push   ebp
  408ebf:	8b ec                	mov    ebp,esp
  408ec1:	83 ec 44             	sub    esp,0x44
  408ec4:	56                   	push   esi
  408ec5:	8b 75 14             	mov    esi,DWORD PTR [ebp+0x14]
  408ec8:	85 f6                	test   esi,esi
  408eca:	0f 84 92 00 00 00    	je     0x408f62
  408ed0:	53                   	push   ebx
  408ed1:	8b 5d 10             	mov    ebx,DWORD PTR [ebp+0x10]
  408ed4:	8d 4d bc             	lea    ecx,[ebp-0x44]
  408ed7:	8b c3                	mov    eax,ebx
  408ed9:	2b c1                	sub    eax,ecx
  408edb:	89 45 14             	mov    DWORD PTR [ebp+0x14],eax
  408ede:	8b 45 0c             	mov    eax,DWORD PTR [ebp+0xc]
  408ee1:	2b c1                	sub    eax,ecx
  408ee3:	57                   	push   edi
  408ee4:	89 45 fc             	mov    DWORD PTR [ebp-0x4],eax
  408ee7:	ff 75 08             	push   DWORD PTR [ebp+0x8]
  408eea:	8d 45 bc             	lea    eax,[ebp-0x44]
  408eed:	33 ff                	xor    edi,edi
  408eef:	50                   	push   eax
  408ef0:	e8 ff 00 00 00       	call   0x408ff4
  408ef5:	8b 45 08             	mov    eax,DWORD PTR [ebp+0x8]
  408ef8:	59                   	pop    ecx
  408ef9:	59                   	pop    ecx
  408efa:	83 40 20 01          	add    DWORD PTR [eax+0x20],0x1
  408efe:	75 03                	jne    0x408f03
  408f00:	ff 40 24             	inc    DWORD PTR [eax+0x24]
  408f03:	83 fe 40             	cmp    esi,0x40
  408f06:	76 32                	jbe    0x408f3a
  408f08:	8b 5d fc             	mov    ebx,DWORD PTR [ebp-0x4]
  408f0b:	8b d7                	mov    edx,edi
  408f0d:	8b 7d 14             	mov    edi,DWORD PTR [ebp+0x14]
  408f10:	8d 4d bc             	lea    ecx,[ebp-0x44]
  408f13:	03 ca                	add    ecx,edx
  408f15:	6a 40                	push   0x40
  408f17:	8a 04 0b             	mov    al,BYTE PTR [ebx+ecx*1]
  408f1a:	32 01                	xor    al,BYTE PTR [ecx]
  408f1c:	42                   	inc    edx
  408f1d:	88 04 0f             	mov    BYTE PTR [edi+ecx*1],al
  408f20:	58                   	pop    eax
  408f21:	3b d0                	cmp    edx,eax
  408f23:	72 eb                	jb     0x408f10
  408f25:	8b 5d 10             	mov    ebx,DWORD PTR [ebp+0x10]
  408f28:	2b f0                	sub    esi,eax
  408f2a:	01 45 14             	add    DWORD PTR [ebp+0x14],eax
  408f2d:	03 d8                	add    ebx,eax
  408f2f:	01 45 0c             	add    DWORD PTR [ebp+0xc],eax
  408f32:	01 45 fc             	add    DWORD PTR [ebp-0x4],eax
  408f35:	89 5d 10             	mov    DWORD PTR [ebp+0x10],ebx
  408f38:	eb ad                	jmp    0x408ee7
  408f3a:	85 f6                	test   esi,esi
  408f3c:	74 22                	je     0x408f60
  408f3e:	8b 45 0c             	mov    eax,DWORD PTR [ebp+0xc]
  408f41:	8d 4d bc             	lea    ecx,[ebp-0x44]
  408f44:	2b c1                	sub    eax,ecx
  408f46:	2b d9                	sub    ebx,ecx
  408f48:	89 45 0c             	mov    DWORD PTR [ebp+0xc],eax
  408f4b:	8d 4d bc             	lea    ecx,[ebp-0x44]
  408f4e:	03 cf                	add    ecx,edi
  408f50:	8a 04 08             	mov    al,BYTE PTR [eax+ecx*1]
  408f53:	32 01                	xor    al,BYTE PTR [ecx]
  408f55:	47                   	inc    edi
  408f56:	88 04 0b             	mov    BYTE PTR [ebx+ecx*1],al
  408f59:	8b 45 0c             	mov    eax,DWORD PTR [ebp+0xc]
  408f5c:	3b fe                	cmp    edi,esi
  408f5e:	72 eb                	jb     0x408f4b
  408f60:	5f                   	pop    edi
  408f61:	5b                   	pop    ebx
  408f62:	5e                   	pop    esi
  408f63:	8b e5                	mov    esp,ebp
  408f65:	5d                   	pop    ebp
  408f66:	c3                   	ret    
  408f67:	55                   	push   ebp
  408f68:	8b ec                	mov    ebp,esp
  408f6a:	8b 55 08             	mov    edx,DWORD PTR [ebp+0x8]
  408f6d:	8b 4d 0c             	mov    ecx,DWORD PTR [ebp+0xc]
  408f70:	8b 01                	mov    eax,DWORD PTR [ecx]
  408f72:	89 42 18             	mov    DWORD PTR [edx+0x18],eax
  408f75:	8b 41 04             	mov    eax,DWORD PTR [ecx+0x4]
  408f78:	83 62 20 00          	and    DWORD PTR [edx+0x20],0x0
  408f7c:	83 62 24 00          	and    DWORD PTR [edx+0x24],0x0
  408f80:	89 42 1c             	mov    DWORD PTR [edx+0x1c],eax
  408f83:	5d                   	pop    ebp
  408f84:	c3                   	ret    
  408f85:	55                   	push   ebp
  408f86:	8b ec                	mov    ebp,esp
  408f88:	81 7d 10 00 01 00 00 	cmp    DWORD PTR [ebp+0x10],0x100
  408f8f:	8b 4d 0c             	mov    ecx,DWORD PTR [ebp+0xc]
  408f92:	8b 55 08             	mov    edx,DWORD PTR [ebp+0x8]
  408f95:	56                   	push   esi
  408f96:	8b 01                	mov    eax,DWORD PTR [ecx]
  408f98:	89 42 04             	mov    DWORD PTR [edx+0x4],eax
  408f9b:	8b 41 04             	mov    eax,DWORD PTR [ecx+0x4]
  408f9e:	89 42 08             	mov    DWORD PTR [edx+0x8],eax
  408fa1:	8b 41 08             	mov    eax,DWORD PTR [ecx+0x8]
  408fa4:	89 42 0c             	mov    DWORD PTR [edx+0xc],eax
  408fa7:	8b 41 0c             	mov    eax,DWORD PTR [ecx+0xc]
  408faa:	89 42 10             	mov    DWORD PTR [edx+0x10],eax
  408fad:	75 0a                	jne    0x408fb9
  408faf:	83 c1 10             	add    ecx,0x10
  408fb2:	be 54 e3 40 00       	mov    esi,0x40e354
  408fb7:	eb 05                	jmp    0x408fbe
  408fb9:	be 64 e3 40 00       	mov    esi,0x40e364
  408fbe:	8b 01                	mov    eax,DWORD PTR [ecx]
  408fc0:	89 42 2c             	mov    DWORD PTR [edx+0x2c],eax
  408fc3:	8b 41 04             	mov    eax,DWORD PTR [ecx+0x4]
  408fc6:	89 42 30             	mov    DWORD PTR [edx+0x30],eax
  408fc9:	8b 41 08             	mov    eax,DWORD PTR [ecx+0x8]
  408fcc:	89 42 34             	mov    DWORD PTR [edx+0x34],eax
  408fcf:	8b 41 0c             	mov    eax,DWORD PTR [ecx+0xc]
  408fd2:	89 42 38             	mov    DWORD PTR [edx+0x38],eax
  408fd5:	8b 06                	mov    eax,DWORD PTR [esi]
  408fd7:	89 02                	mov    DWORD PTR [edx],eax
  408fd9:	8b 46 04             	mov    eax,DWORD PTR [esi+0x4]
  408fdc:	89 42 14             	mov    DWORD PTR [edx+0x14],eax
  408fdf:	8b 46 08             	mov    eax,DWORD PTR [esi+0x8]
  408fe2:	89 42 28             	mov    DWORD PTR [edx+0x28],eax
  408fe5:	8b 46 0c             	mov    eax,DWORD PTR [esi+0xc]
  408fe8:	89 35 10 34 41 00    	mov    DWORD PTR ds:0x413410,esi
  408fee:	89 42 3c             	mov    DWORD PTR [edx+0x3c],eax
  408ff1:	5e                   	pop    esi
  408ff2:	5d                   	pop    ebp
  408ff3:	c3                   	ret    
  408ff4:	55                   	push   ebp
  408ff5:	8b ec                	mov    ebp,esp
  408ff7:	83 ec 74             	sub    esp,0x74
  408ffa:	53                   	push   ebx
  408ffb:	56                   	push   esi
  408ffc:	8b 75 0c             	mov    esi,DWORD PTR [ebp+0xc]
  408fff:	57                   	push   edi
  409000:	6a 10                	push   0x10
  409002:	59                   	pop    ecx
  409003:	8d 7d 8c             	lea    edi,[ebp-0x74]
  409006:	c7 45 cc 0a 00 00 00 	mov    DWORD PTR [ebp-0x34],0xa
  40900d:	f3 a5                	rep movs DWORD PTR es:[edi],DWORD PTR ds:[esi]
  40900f:	8b 45 b4             	mov    eax,DWORD PTR [ebp-0x4c]
  409012:	8b 7d bc             	mov    edi,DWORD PTR [ebp-0x44]
  409015:	8b 4d c8             	mov    ecx,DWORD PTR [ebp-0x38]
  409018:	8b 55 c4             	mov    edx,DWORD PTR [ebp-0x3c]
  40901b:	8b 75 c0             	mov    esi,DWORD PTR [ebp-0x40]
  40901e:	8b 5d b8             	mov    ebx,DWORD PTR [ebp-0x48]
  409021:	89 45 fc             	mov    DWORD PTR [ebp-0x4],eax
  409024:	8b 45 b0             	mov    eax,DWORD PTR [ebp-0x50]
  409027:	89 45 e0             	mov    DWORD PTR [ebp-0x20],eax
  40902a:	8b 45 ac             	mov    eax,DWORD PTR [ebp-0x54]
  40902d:	89 45 ec             	mov    DWORD PTR [ebp-0x14],eax
  409030:	8b 45 a8             	mov    eax,DWORD PTR [ebp-0x58]
  409033:	89 45 d4             	mov    DWORD PTR [ebp-0x2c],eax
  409036:	8b 45 a4             	mov    eax,DWORD PTR [ebp-0x5c]
  409039:	89 45 d8             	mov    DWORD PTR [ebp-0x28],eax
  40903c:	8b 45 a0             	mov    eax,DWORD PTR [ebp-0x60]
  40903f:	89 45 e4             	mov    DWORD PTR [ebp-0x1c],eax
  409042:	8b 45 9c             	mov    eax,DWORD PTR [ebp-0x64]
  409045:	89 45 f0             	mov    DWORD PTR [ebp-0x10],eax
  409048:	8b 45 98             	mov    eax,DWORD PTR [ebp-0x68]
  40904b:	89 45 dc             	mov    DWORD PTR [ebp-0x24],eax
  40904e:	8b 45 94             	mov    eax,DWORD PTR [ebp-0x6c]
  409051:	89 45 f4             	mov    DWORD PTR [ebp-0xc],eax
  409054:	8b 45 90             	mov    eax,DWORD PTR [ebp-0x70]
  409057:	89 45 f8             	mov    DWORD PTR [ebp-0x8],eax
  40905a:	8b 45 8c             	mov    eax,DWORD PTR [ebp-0x74]
  40905d:	89 7d d0             	mov    DWORD PTR [ebp-0x30],edi
  409060:	89 45 e8             	mov    DWORD PTR [ebp-0x18],eax
  409063:	03 c7                	add    eax,edi
  409065:	8b 7d d0             	mov    edi,DWORD PTR [ebp-0x30]
  409068:	c1 c0 07             	rol    eax,0x7
  40906b:	31 45 f0             	xor    DWORD PTR [ebp-0x10],eax
  40906e:	8b 45 f0             	mov    eax,DWORD PTR [ebp-0x10]
  409071:	03 45 e8             	add    eax,DWORD PTR [ebp-0x18]
  409074:	c1 c0 09             	rol    eax,0x9
  409077:	31 45 ec             	xor    DWORD PTR [ebp-0x14],eax
  40907a:	8b 45 ec             	mov    eax,DWORD PTR [ebp-0x14]
  40907d:	03 45 f0             	add    eax,DWORD PTR [ebp-0x10]
  409080:	c1 c0 0d             	rol    eax,0xd
  409083:	33 f8                	xor    edi,eax
  409085:	8b 45 ec             	mov    eax,DWORD PTR [ebp-0x14]
  409088:	03 c7                	add    eax,edi
  40908a:	89 7d d0             	mov    DWORD PTR [ebp-0x30],edi
  40908d:	c1 c0 12             	rol    eax,0x12
  409090:	31 45 e8             	xor    DWORD PTR [ebp-0x18],eax
  409093:	8b 45 f8             	mov    eax,DWORD PTR [ebp-0x8]
  409096:	03 45 e4             	add    eax,DWORD PTR [ebp-0x1c]
  409099:	c1 c0 07             	rol    eax,0x7
  40909c:	31 45 e0             	xor    DWORD PTR [ebp-0x20],eax
  40909f:	8b 45 e0             	mov    eax,DWORD PTR [ebp-0x20]
  4090a2:	03 45 e4             	add    eax,DWORD PTR [ebp-0x1c]
  4090a5:	c1 c0 09             	rol    eax,0x9
  4090a8:	33 f0                	xor    esi,eax
  4090aa:	8b 7d d8             	mov    edi,DWORD PTR [ebp-0x28]
  4090ad:	8b 45 e0             	mov    eax,DWORD PTR [ebp-0x20]
  4090b0:	03 c6                	add    eax,esi
  4090b2:	c1 c0 0d             	rol    eax,0xd
  4090b5:	31 45 f8             	xor    DWORD PTR [ebp-0x8],eax
  4090b8:	8b 45 f8             	mov    eax,DWORD PTR [ebp-0x8]
  4090bb:	03 c6                	add    eax,esi
  4090bd:	c1 c0 12             	rol    eax,0x12
  4090c0:	31 45 e4             	xor    DWORD PTR [ebp-0x1c],eax
  4090c3:	8b 45 fc             	mov    eax,DWORD PTR [ebp-0x4]
  4090c6:	03 c7                	add    eax,edi
  4090c8:	c1 c0 07             	rol    eax,0x7
  4090cb:	33 d0                	xor    edx,eax
  4090cd:	8b 45 fc             	mov    eax,DWORD PTR [ebp-0x4]
  4090d0:	03 c2                	add    eax,edx
  4090d2:	c1 c0 09             	rol    eax,0x9
  4090d5:	31 45 f4             	xor    DWORD PTR [ebp-0xc],eax
  4090d8:	8b 45 f4             	mov    eax,DWORD PTR [ebp-0xc]
  4090db:	03 c2                	add    eax,edx
  4090dd:	c1 c0 0d             	rol    eax,0xd
  4090e0:	33 f8                	xor    edi,eax
  4090e2:	8b 45 f4             	mov    eax,DWORD PTR [ebp-0xc]
  4090e5:	03 c7                	add    eax,edi
  4090e7:	89 7d d8             	mov    DWORD PTR [ebp-0x28],edi
  4090ea:	8b 7d dc             	mov    edi,DWORD PTR [ebp-0x24]
  4090ed:	c1 c0 12             	rol    eax,0x12
  4090f0:	31 45 fc             	xor    DWORD PTR [ebp-0x4],eax
  4090f3:	8d 04 0b             	lea    eax,[ebx+ecx*1]
  4090f6:	c1 c0 07             	rol    eax,0x7
  4090f9:	33 f8                	xor    edi,eax
  4090fb:	89 7d dc             	mov    DWORD PTR [ebp-0x24],edi
  4090fe:	8d 04 0f             	lea    eax,[edi+ecx*1]
  409101:	8b 7d d4             	mov    edi,DWORD PTR [ebp-0x2c]
  409104:	c1 c0 09             	rol    eax,0x9
  409107:	33 f8                	xor    edi,eax
  409109:	8b 45 dc             	mov    eax,DWORD PTR [ebp-0x24]
  40910c:	03 c7                	add    eax,edi
  40910e:	89 7d d4             	mov    DWORD PTR [ebp-0x2c],edi
  409111:	c1 c0 0d             	rol    eax,0xd
  409114:	33 d8                	xor    ebx,eax
  409116:	8d 04 1f             	lea    eax,[edi+ebx*1]
  409119:	c1 c0 12             	rol    eax,0x12
  40911c:	33 c8                	xor    ecx,eax
  40911e:	8b 45 e8             	mov    eax,DWORD PTR [ebp-0x18]
  409121:	03 45 dc             	add    eax,DWORD PTR [ebp-0x24]
  409124:	c1 c0 07             	rol    eax,0x7
  409127:	31 45 f8             	xor    DWORD PTR [ebp-0x8],eax
  40912a:	8b 45 f8             	mov    eax,DWORD PTR [ebp-0x8]
  40912d:	89 45 90             	mov    DWORD PTR [ebp-0x70],eax
  409130:	03 45 e8             	add    eax,DWORD PTR [ebp-0x18]
  409133:	c1 c0 09             	rol    eax,0x9
  409136:	31 45 f4             	xor    DWORD PTR [ebp-0xc],eax
  409139:	8b 45 f4             	mov    eax,DWORD PTR [ebp-0xc]
  40913c:	89 45 94             	mov    DWORD PTR [ebp-0x6c],eax
  40913f:	03 45 f8             	add    eax,DWORD PTR [ebp-0x8]
  409142:	c1 c0 0d             	rol    eax,0xd
  409145:	8b 7d dc             	mov    edi,DWORD PTR [ebp-0x24]
  409148:	33 f8                	xor    edi,eax
  40914a:	8b 45 f4             	mov    eax,DWORD PTR [ebp-0xc]
  40914d:	03 c7                	add    eax,edi
  40914f:	89 7d dc             	mov    DWORD PTR [ebp-0x24],edi
  409152:	c1 c0 12             	rol    eax,0x12
  409155:	89 7d 98             	mov    DWORD PTR [ebp-0x68],edi
  409158:	8b 7d e8             	mov    edi,DWORD PTR [ebp-0x18]
  40915b:	33 f8                	xor    edi,eax
  40915d:	8b 45 e4             	mov    eax,DWORD PTR [ebp-0x1c]
  409160:	03 45 f0             	add    eax,DWORD PTR [ebp-0x10]
  409163:	c1 c0 07             	rol    eax,0x7
  409166:	31 45 d8             	xor    DWORD PTR [ebp-0x28],eax
  409169:	8b 45 d8             	mov    eax,DWORD PTR [ebp-0x28]
  40916c:	89 45 a4             	mov    DWORD PTR [ebp-0x5c],eax
  40916f:	03 45 e4             	add    eax,DWORD PTR [ebp-0x1c]
  409172:	c1 c0 09             	rol    eax,0x9
  409175:	89 7d e8             	mov    DWORD PTR [ebp-0x18],edi
  409178:	89 7d 8c             	mov    DWORD PTR [ebp-0x74],edi
  40917b:	8b 7d d4             	mov    edi,DWORD PTR [ebp-0x2c]
  40917e:	33 f8                	xor    edi,eax
  409180:	8b 45 d8             	mov    eax,DWORD PTR [ebp-0x28]
  409183:	03 c7                	add    eax,edi
  409185:	89 7d d4             	mov    DWORD PTR [ebp-0x2c],edi
  409188:	c1 c0 0d             	rol    eax,0xd
  40918b:	31 45 f0             	xor    DWORD PTR [ebp-0x10],eax
  40918e:	8b 45 f0             	mov    eax,DWORD PTR [ebp-0x10]
  409191:	89 45 9c             	mov    DWORD PTR [ebp-0x64],eax
  409194:	03 c7                	add    eax,edi
  409196:	c1 c0 12             	rol    eax,0x12
  409199:	89 7d a8             	mov    DWORD PTR [ebp-0x58],edi
  40919c:	8b 7d e4             	mov    edi,DWORD PTR [ebp-0x1c]
  40919f:	33 f8                	xor    edi,eax
  4091a1:	8b 45 fc             	mov    eax,DWORD PTR [ebp-0x4]
  4091a4:	89 7d e4             	mov    DWORD PTR [ebp-0x1c],edi
  4091a7:	89 7d a0             	mov    DWORD PTR [ebp-0x60],edi
  4091aa:	8b 7d e0             	mov    edi,DWORD PTR [ebp-0x20]
  4091ad:	03 c7                	add    eax,edi
  4091af:	c1 c0 07             	rol    eax,0x7
  4091b2:	33 d8                	xor    ebx,eax
  4091b4:	8b 45 fc             	mov    eax,DWORD PTR [ebp-0x4]
  4091b7:	03 c3                	add    eax,ebx
  4091b9:	c1 c0 09             	rol    eax,0x9
  4091bc:	31 45 ec             	xor    DWORD PTR [ebp-0x14],eax
  4091bf:	8b 45 ec             	mov    eax,DWORD PTR [ebp-0x14]
  4091c2:	89 45 ac             	mov    DWORD PTR [ebp-0x54],eax
  4091c5:	03 c3                	add    eax,ebx
  4091c7:	c1 c0 0d             	rol    eax,0xd
  4091ca:	33 f8                	xor    edi,eax
  4091cc:	8b c7                	mov    eax,edi
  4091ce:	89 7d e0             	mov    DWORD PTR [ebp-0x20],edi
  4091d1:	8b 7d d0             	mov    edi,DWORD PTR [ebp-0x30]
  4091d4:	89 45 b0             	mov    DWORD PTR [ebp-0x50],eax
  4091d7:	03 45 ec             	add    eax,DWORD PTR [ebp-0x14]
  4091da:	c1 c0 12             	rol    eax,0x12
  4091dd:	31 45 fc             	xor    DWORD PTR [ebp-0x4],eax
  4091e0:	8b 45 fc             	mov    eax,DWORD PTR [ebp-0x4]
  4091e3:	89 45 b4             	mov    DWORD PTR [ebp-0x4c],eax
  4091e6:	8d 04 11             	lea    eax,[ecx+edx*1]
  4091e9:	c1 c0 07             	rol    eax,0x7
  4091ec:	33 f8                	xor    edi,eax
  4091ee:	89 7d d0             	mov    DWORD PTR [ebp-0x30],edi
  4091f1:	89 7d bc             	mov    DWORD PTR [ebp-0x44],edi
  4091f4:	8d 04 39             	lea    eax,[ecx+edi*1]
  4091f7:	c1 c0 09             	rol    eax,0x9
  4091fa:	33 f0                	xor    esi,eax
  4091fc:	8d 04 3e             	lea    eax,[esi+edi*1]
  4091ff:	c1 c0 0d             	rol    eax,0xd
  409202:	33 d0                	xor    edx,eax
  409204:	8d 04 32             	lea    eax,[edx+esi*1]
  409207:	c1 c0 12             	rol    eax,0x12
  40920a:	33 c8                	xor    ecx,eax
  40920c:	83 6d cc 01          	sub    DWORD PTR [ebp-0x34],0x1
  409210:	8b 45 e8             	mov    eax,DWORD PTR [ebp-0x18]
  409213:	0f 85 4a fe ff ff    	jne    0x409063
  409219:	89 5d b8             	mov    DWORD PTR [ebp-0x48],ebx
  40921c:	8d 45 8c             	lea    eax,[ebp-0x74]
  40921f:	8b 5d 0c             	mov    ebx,DWORD PTR [ebp+0xc]
  409222:	89 55 c4             	mov    DWORD PTR [ebp-0x3c],edx
  409225:	33 d2                	xor    edx,edx
  409227:	89 4d c8             	mov    DWORD PTR [ebp-0x38],ecx
  40922a:	2b d8                	sub    ebx,eax
  40922c:	89 75 c0             	mov    DWORD PTR [ebp-0x40],esi
  40922f:	8d 04 93             	lea    eax,[ebx+edx*4]
  409232:	8b 44 05 8c          	mov    eax,DWORD PTR [ebp+eax*1-0x74]
  409236:	01 44 95 8c          	add    DWORD PTR [ebp+edx*4-0x74],eax
  40923a:	42                   	inc    edx
  40923b:	83 fa 10             	cmp    edx,0x10
  40923e:	7c ef                	jl     0x40922f
  409240:	8b 7d 08             	mov    edi,DWORD PTR [ebp+0x8]
  409243:	8d 75 8c             	lea    esi,[ebp-0x74]
  409246:	6a 10                	push   0x10
  409248:	59                   	pop    ecx
  409249:	f3 a5                	rep movs DWORD PTR es:[edi],DWORD PTR ds:[esi]
  40924b:	5f                   	pop    edi
  40924c:	5e                   	pop    esi
  40924d:	5b                   	pop    ebx
  40924e:	8b e5                	mov    esp,ebp
  409250:	5d                   	pop    ebp
  409251:	c3                   	ret    
  409252:	55                   	push   ebp
  409253:	8b ec                	mov    ebp,esp
  409255:	83 ec 10             	sub    esp,0x10
  409258:	8b 4d 10             	mov    ecx,DWORD PTR [ebp+0x10]
  40925b:	53                   	push   ebx
  40925c:	56                   	push   esi
  40925d:	be 00 ff 00 ff       	mov    esi,0xff00ff00
  409262:	bb ff 00 ff 00       	mov    ebx,0xff00ff
  409267:	8b 01                	mov    eax,DWORD PTR [ecx]
  409269:	8b d0                	mov    edx,eax
  40926b:	c1 c0 08             	rol    eax,0x8
  40926e:	23 c3                	and    eax,ebx
  409270:	c1 ca 08             	ror    edx,0x8
  409273:	23 d6                	and    edx,esi
  409275:	0b d0                	or     edx,eax
  409277:	8b 41 04             	mov    eax,DWORD PTR [ecx+0x4]
  40927a:	57                   	push   edi
  40927b:	8b 7d 08             	mov    edi,DWORD PTR [ebp+0x8]
  40927e:	33 17                	xor    edx,DWORD PTR [edi]
  409280:	89 55 08             	mov    DWORD PTR [ebp+0x8],edx
  409283:	8b d0                	mov    edx,eax
  409285:	c1 c0 08             	rol    eax,0x8
  409288:	23 c3                	and    eax,ebx
  40928a:	c1 ca 08             	ror    edx,0x8
  40928d:	23 d6                	and    edx,esi
  40928f:	0b d0                	or     edx,eax
  409291:	8b 41 08             	mov    eax,DWORD PTR [ecx+0x8]
  409294:	33 57 04             	xor    edx,DWORD PTR [edi+0x4]
  409297:	8b d8                	mov    ebx,eax
  409299:	c1 c0 08             	rol    eax,0x8
  40929c:	25 ff 00 ff 00       	and    eax,0xff00ff
  4092a1:	c1 cb 08             	ror    ebx,0x8
  4092a4:	89 55 f8             	mov    DWORD PTR [ebp-0x8],edx
  4092a7:	23 de                	and    ebx,esi
  4092a9:	0b d8                	or     ebx,eax
  4092ab:	8b 41 0c             	mov    eax,DWORD PTR [ecx+0xc]
  4092ae:	33 5f 08             	xor    ebx,DWORD PTR [edi+0x8]
  4092b1:	8b d0                	mov    edx,eax
  4092b3:	c1 c0 08             	rol    eax,0x8
  4092b6:	25 ff 00 ff 00       	and    eax,0xff00ff
  4092bb:	c1 ca 08             	ror    edx,0x8
  4092be:	23 d6                	and    edx,esi
  4092c0:	0b d0                	or     edx,eax
  4092c2:	8b c3                	mov    eax,ebx
  4092c4:	c1 e8 08             	shr    eax,0x8
  4092c7:	0f b6 c8             	movzx  ecx,al
  4092ca:	8b 45 f8             	mov    eax,DWORD PTR [ebp-0x8]
  4092cd:	33 57 0c             	xor    edx,DWORD PTR [edi+0xc]
  4092d0:	c1 e8 10             	shr    eax,0x10
  4092d3:	8b 0c 8d 78 eb 40 00 	mov    ecx,DWORD PTR [ecx*4+0x40eb78]
  4092da:	0f b6 c0             	movzx  eax,al
  4092dd:	33 0c 85 78 e7 40 00 	xor    ecx,DWORD PTR [eax*4+0x40e778]
  4092e4:	8b 45 08             	mov    eax,DWORD PTR [ebp+0x8]
  4092e7:	c1 e8 18             	shr    eax,0x18
  4092ea:	33 0c 85 78 e3 40 00 	xor    ecx,DWORD PTR [eax*4+0x40e378]
  4092f1:	0f b6 c2             	movzx  eax,dl
  4092f4:	33 0c 85 78 ef 40 00 	xor    ecx,DWORD PTR [eax*4+0x40ef78]
  4092fb:	8b c2                	mov    eax,edx
  4092fd:	33 4f 10             	xor    ecx,DWORD PTR [edi+0x10]
  409300:	c1 e8 08             	shr    eax,0x8
  409303:	89 4d f4             	mov    DWORD PTR [ebp-0xc],ecx
  409306:	0f b6 c8             	movzx  ecx,al
  409309:	8b c3                	mov    eax,ebx
  40930b:	c1 e8 10             	shr    eax,0x10
  40930e:	0f b6 c0             	movzx  eax,al
  409311:	8b 0c 8d 78 eb 40 00 	mov    ecx,DWORD PTR [ecx*4+0x40eb78]
  409318:	33 0c 85 78 e7 40 00 	xor    ecx,DWORD PTR [eax*4+0x40e778]
  40931f:	8b 45 f8             	mov    eax,DWORD PTR [ebp-0x8]
  409322:	c1 e8 18             	shr    eax,0x18
  409325:	33 0c 85 78 e3 40 00 	xor    ecx,DWORD PTR [eax*4+0x40e378]
  40932c:	8b 45 08             	mov    eax,DWORD PTR [ebp+0x8]
  40932f:	0f b6 c0             	movzx  eax,al
  409332:	33 0c 85 78 ef 40 00 	xor    ecx,DWORD PTR [eax*4+0x40ef78]
  409339:	8b c2                	mov    eax,edx
  40933b:	33 4f 14             	xor    ecx,DWORD PTR [edi+0x14]
  40933e:	c1 e8 10             	shr    eax,0x10
  409341:	89 4d fc             	mov    DWORD PTR [ebp-0x4],ecx
  409344:	0f b6 c8             	movzx  ecx,al
  409347:	8b 45 08             	mov    eax,DWORD PTR [ebp+0x8]
  40934a:	c1 e8 08             	shr    eax,0x8
  40934d:	0f b6 c0             	movzx  eax,al
  409350:	8b 0c 8d 78 e7 40 00 	mov    ecx,DWORD PTR [ecx*4+0x40e778]
  409357:	33 0c 85 78 eb 40 00 	xor    ecx,DWORD PTR [eax*4+0x40eb78]
  40935e:	8b c3                	mov    eax,ebx
  409360:	c1 e8 18             	shr    eax,0x18
  409363:	c1 ea 18             	shr    edx,0x18
  409366:	33 0c 85 78 e3 40 00 	xor    ecx,DWORD PTR [eax*4+0x40e378]
  40936d:	89 4d 10             	mov    DWORD PTR [ebp+0x10],ecx
  409370:	8b 4d f8             	mov    ecx,DWORD PTR [ebp-0x8]
  409373:	8b 75 10             	mov    esi,DWORD PTR [ebp+0x10]
  409376:	0f b6 c1             	movzx  eax,cl
  409379:	c1 e9 08             	shr    ecx,0x8
  40937c:	0f b6 c9             	movzx  ecx,cl
  40937f:	33 34 85 78 ef 40 00 	xor    esi,DWORD PTR [eax*4+0x40ef78]
  409386:	8b c6                	mov    eax,esi
  409388:	89 75 10             	mov    DWORD PTR [ebp+0x10],esi
  40938b:	33 47 18             	xor    eax,DWORD PTR [edi+0x18]
  40938e:	8b 0c 8d 78 eb 40 00 	mov    ecx,DWORD PTR [ecx*4+0x40eb78]
  409395:	89 45 10             	mov    DWORD PTR [ebp+0x10],eax
  409398:	8b 45 08             	mov    eax,DWORD PTR [ebp+0x8]
  40939b:	c1 e8 10             	shr    eax,0x10
  40939e:	0f b6 c0             	movzx  eax,al
  4093a1:	33 0c 85 78 e7 40 00 	xor    ecx,DWORD PTR [eax*4+0x40e778]
  4093a8:	33 0c 95 78 e3 40 00 	xor    ecx,DWORD PTR [edx*4+0x40e378]
  4093af:	0f b6 c3             	movzx  eax,bl
  4093b2:	33 0c 85 78 ef 40 00 	xor    ecx,DWORD PTR [eax*4+0x40ef78]
  4093b9:	8b 45 0c             	mov    eax,DWORD PTR [ebp+0xc]
  4093bc:	33 4f 1c             	xor    ecx,DWORD PTR [edi+0x1c]
  4093bf:	83 c7 20             	add    edi,0x20
  4093c2:	d1 f8                	sar    eax,1
  4093c4:	83 e8 01             	sub    eax,0x1
  4093c7:	89 45 0c             	mov    DWORD PTR [ebp+0xc],eax
  4093ca:	e9 ee 01 00 00       	jmp    0x4095bd
  4093cf:	8b 75 10             	mov    esi,DWORD PTR [ebp+0x10]
  4093d2:	8b c6                	mov    eax,esi
  4093d4:	c1 e8 08             	shr    eax,0x8
  4093d7:	0f b6 c8             	movzx  ecx,al
  4093da:	8b 45 fc             	mov    eax,DWORD PTR [ebp-0x4]
  4093dd:	c1 e8 10             	shr    eax,0x10
  4093e0:	0f b6 c0             	movzx  eax,al
  4093e3:	8b 0c 8d 78 eb 40 00 	mov    ecx,DWORD PTR [ecx*4+0x40eb78]
  4093ea:	8b 55 f4             	mov    edx,DWORD PTR [ebp-0xc]
  4093ed:	33 0c 85 78 e7 40 00 	xor    ecx,DWORD PTR [eax*4+0x40e778]
  4093f4:	8b c2                	mov    eax,edx
  4093f6:	c1 e8 18             	shr    eax,0x18
  4093f9:	33 0c 85 78 e3 40 00 	xor    ecx,DWORD PTR [eax*4+0x40e378]
  409400:	8b 45 08             	mov    eax,DWORD PTR [ebp+0x8]
  409403:	0f b6 c0             	movzx  eax,al
  409406:	33 0c 85 78 ef 40 00 	xor    ecx,DWORD PTR [eax*4+0x40ef78]
  40940d:	33 0f                	xor    ecx,DWORD PTR [edi]
  40940f:	8b 45 08             	mov    eax,DWORD PTR [ebp+0x8]
  409412:	c1 e8 08             	shr    eax,0x8
  409415:	89 4d f8             	mov    DWORD PTR [ebp-0x8],ecx
  409418:	0f b6 c8             	movzx  ecx,al
  40941b:	8b c6                	mov    eax,esi
  40941d:	c1 e8 10             	shr    eax,0x10
  409420:	0f b6 c0             	movzx  eax,al
  409423:	8b 0c 8d 78 eb 40 00 	mov    ecx,DWORD PTR [ecx*4+0x40eb78]
  40942a:	33 0c 85 78 e7 40 00 	xor    ecx,DWORD PTR [eax*4+0x40e778]
  409431:	8b 45 fc             	mov    eax,DWORD PTR [ebp-0x4]
  409434:	c1 e8 18             	shr    eax,0x18
  409437:	33 0c 85 78 e3 40 00 	xor    ecx,DWORD PTR [eax*4+0x40e378]
  40943e:	0f b6 c2             	movzx  eax,dl
  409441:	33 0c 85 78 ef 40 00 	xor    ecx,DWORD PTR [eax*4+0x40ef78]
  409448:	33 4f 04             	xor    ecx,DWORD PTR [edi+0x4]
  40944b:	8b 45 08             	mov    eax,DWORD PTR [ebp+0x8]
  40944e:	c1 e8 10             	shr    eax,0x10
  409451:	89 4d f0             	mov    DWORD PTR [ebp-0x10],ecx
  409454:	0f b6 c8             	movzx  ecx,al
  409457:	8b c2                	mov    eax,edx
  409459:	c1 e8 08             	shr    eax,0x8
  40945c:	0f b6 c0             	movzx  eax,al
  40945f:	c1 ea 10             	shr    edx,0x10
  409462:	8b 1c 8d 78 e7 40 00 	mov    ebx,DWORD PTR [ecx*4+0x40e778]
  409469:	8b 4d fc             	mov    ecx,DWORD PTR [ebp-0x4]
  40946c:	33 1c 85 78 eb 40 00 	xor    ebx,DWORD PTR [eax*4+0x40eb78]
  409473:	8b c6                	mov    eax,esi
  409475:	c1 e8 18             	shr    eax,0x18
  409478:	33 1c 85 78 e3 40 00 	xor    ebx,DWORD PTR [eax*4+0x40e378]
  40947f:	0f b6 c1             	movzx  eax,cl
  409482:	c1 e9 08             	shr    ecx,0x8
  409485:	0f b6 c9             	movzx  ecx,cl
  409488:	33 1c 85 78 ef 40 00 	xor    ebx,DWORD PTR [eax*4+0x40ef78]
  40948f:	33 5f 08             	xor    ebx,DWORD PTR [edi+0x8]
  409492:	0f b6 c2             	movzx  eax,dl
  409495:	8b 14 8d 78 eb 40 00 	mov    edx,DWORD PTR [ecx*4+0x40eb78]
  40949c:	33 14 85 78 e7 40 00 	xor    edx,DWORD PTR [eax*4+0x40e778]
  4094a3:	8b 45 08             	mov    eax,DWORD PTR [ebp+0x8]
  4094a6:	c1 e8 18             	shr    eax,0x18
  4094a9:	33 14 85 78 e3 40 00 	xor    edx,DWORD PTR [eax*4+0x40e378]
  4094b0:	8b c6                	mov    eax,esi
  4094b2:	0f b6 c0             	movzx  eax,al
  4094b5:	33 14 85 78 ef 40 00 	xor    edx,DWORD PTR [eax*4+0x40ef78]
  4094bc:	8b c3                	mov    eax,ebx
  4094be:	33 57 0c             	xor    edx,DWORD PTR [edi+0xc]
  4094c1:	c1 e8 08             	shr    eax,0x8
  4094c4:	0f b6 c8             	movzx  ecx,al
  4094c7:	8b 45 f0             	mov    eax,DWORD PTR [ebp-0x10]
  4094ca:	c1 e8 10             	shr    eax,0x10
  4094cd:	0f b6 c0             	movzx  eax,al
  4094d0:	8b 0c 8d 78 eb 40 00 	mov    ecx,DWORD PTR [ecx*4+0x40eb78]
  4094d7:	33 0c 85 78 e7 40 00 	xor    ecx,DWORD PTR [eax*4+0x40e778]
  4094de:	8b 45 f8             	mov    eax,DWORD PTR [ebp-0x8]
  4094e1:	c1 e8 18             	shr    eax,0x18
  4094e4:	33 0c 85 78 e3 40 00 	xor    ecx,DWORD PTR [eax*4+0x40e378]
  4094eb:	0f b6 c2             	movzx  eax,dl
  4094ee:	33 0c 85 78 ef 40 00 	xor    ecx,DWORD PTR [eax*4+0x40ef78]
  4094f5:	8b c2                	mov    eax,edx
  4094f7:	33 4f 10             	xor    ecx,DWORD PTR [edi+0x10]
  4094fa:	c1 e8 08             	shr    eax,0x8
  4094fd:	89 4d f4             	mov    DWORD PTR [ebp-0xc],ecx
  409500:	0f b6 c8             	movzx  ecx,al
  409503:	8b c3                	mov    eax,ebx
  409505:	c1 e8 10             	shr    eax,0x10
  409508:	8b 0c 8d 78 eb 40 00 	mov    ecx,DWORD PTR [ecx*4+0x40eb78]
  40950f:	0f b6 c0             	movzx  eax,al
  409512:	33 0c 85 78 e7 40 00 	xor    ecx,DWORD PTR [eax*4+0x40e778]
  409519:	8b 45 f0             	mov    eax,DWORD PTR [ebp-0x10]
  40951c:	c1 e8 18             	shr    eax,0x18
  40951f:	33 0c 85 78 e3 40 00 	xor    ecx,DWORD PTR [eax*4+0x40e378]
  409526:	8b 45 f8             	mov    eax,DWORD PTR [ebp-0x8]
  409529:	0f b6 c0             	movzx  eax,al
  40952c:	33 0c 85 78 ef 40 00 	xor    ecx,DWORD PTR [eax*4+0x40ef78]
  409533:	8b c2                	mov    eax,edx
  409535:	33 4f 14             	xor    ecx,DWORD PTR [edi+0x14]
  409538:	c1 e8 10             	shr    eax,0x10
  40953b:	89 4d fc             	mov    DWORD PTR [ebp-0x4],ecx
  40953e:	0f b6 c8             	movzx  ecx,al
  409541:	8b 45 f8             	mov    eax,DWORD PTR [ebp-0x8]
  409544:	c1 e8 08             	shr    eax,0x8
  409547:	0f b6 c0             	movzx  eax,al
  40954a:	8b 0c 8d 78 e7 40 00 	mov    ecx,DWORD PTR [ecx*4+0x40e778]
  409551:	c1 ea 18             	shr    edx,0x18
  409554:	33 0c 85 78 eb 40 00 	xor    ecx,DWORD PTR [eax*4+0x40eb78]
  40955b:	8b c3                	mov    eax,ebx
  40955d:	c1 e8 18             	shr    eax,0x18
  409560:	33 0c 85 78 e3 40 00 	xor    ecx,DWORD PTR [eax*4+0x40e378]
  409567:	89 4d 10             	mov    DWORD PTR [ebp+0x10],ecx
  40956a:	8b 4d f0             	mov    ecx,DWORD PTR [ebp-0x10]
  40956d:	8b 75 10             	mov    esi,DWORD PTR [ebp+0x10]
  409570:	0f b6 c1             	movzx  eax,cl
  409573:	c1 e9 08             	shr    ecx,0x8
  409576:	0f b6 c9             	movzx  ecx,cl
  409579:	33 34 85 78 ef 40 00 	xor    esi,DWORD PTR [eax*4+0x40ef78]
  409580:	8b c6                	mov    eax,esi
  409582:	89 75 10             	mov    DWORD PTR [ebp+0x10],esi
  409585:	33 47 18             	xor    eax,DWORD PTR [edi+0x18]
  409588:	8b 0c 8d 78 eb 40 00 	mov    ecx,DWORD PTR [ecx*4+0x40eb78]
  40958f:	89 45 10             	mov    DWORD PTR [ebp+0x10],eax
  409592:	8b 45 f8             	mov    eax,DWORD PTR [ebp-0x8]
  409595:	c1 e8 10             	shr    eax,0x10
  409598:	0f b6 c0             	movzx  eax,al
  40959b:	33 0c 85 78 e7 40 00 	xor    ecx,DWORD PTR [eax*4+0x40e778]
  4095a2:	33 0c 95 78 e3 40 00 	xor    ecx,DWORD PTR [edx*4+0x40e378]
  4095a9:	0f b6 c3             	movzx  eax,bl
  4095ac:	33 0c 85 78 ef 40 00 	xor    ecx,DWORD PTR [eax*4+0x40ef78]
  4095b3:	33 4f 1c             	xor    ecx,DWORD PTR [edi+0x1c]
  4095b6:	83 c7 20             	add    edi,0x20
  4095b9:	83 6d 0c 01          	sub    DWORD PTR [ebp+0xc],0x1
  4095bd:	89 4d 08             	mov    DWORD PTR [ebp+0x8],ecx
  4095c0:	0f 85 09 fe ff ff    	jne    0x4093cf
  4095c6:	8b 45 fc             	mov    eax,DWORD PTR [ebp-0x4]
  4095c9:	be 00 00 00 ff       	mov    esi,0xff000000
  4095ce:	c1 e8 10             	shr    eax,0x10
  4095d1:	0f b6 c0             	movzx  eax,al
  4095d4:	8b 5d f4             	mov    ebx,DWORD PTR [ebp-0xc]
  4095d7:	8b 55 14             	mov    edx,DWORD PTR [ebp+0x14]
  4095da:	8b 0c 85 78 f3 40 00 	mov    ecx,DWORD PTR [eax*4+0x40f378]
  4095e1:	8b 45 10             	mov    eax,DWORD PTR [ebp+0x10]
  4095e4:	81 e1 00 00 ff 00    	and    ecx,0xff0000
  4095ea:	c1 e8 08             	shr    eax,0x8
  4095ed:	0f b6 c0             	movzx  eax,al
  4095f0:	8b 04 85 78 f3 40 00 	mov    eax,DWORD PTR [eax*4+0x40f378]
  4095f7:	25 00 ff 00 00       	and    eax,0xff00
  4095fc:	33 c8                	xor    ecx,eax
  4095fe:	8b c3                	mov    eax,ebx
  409600:	c1 e8 18             	shr    eax,0x18
  409603:	8b 04 85 78 f3 40 00 	mov    eax,DWORD PTR [eax*4+0x40f378]
  40960a:	25 00 00 00 ff       	and    eax,0xff000000
  40960f:	33 c8                	xor    ecx,eax
  409611:	8b 45 08             	mov    eax,DWORD PTR [ebp+0x8]
  409614:	0f b6 c0             	movzx  eax,al
  409617:	0f b6 04 85 78 f3 40 	movzx  eax,BYTE PTR [eax*4+0x40f378]
  40961e:	00 
  40961f:	33 c8                	xor    ecx,eax
  409621:	33 0f                	xor    ecx,DWORD PTR [edi]
  409623:	8b c1                	mov    eax,ecx
  409625:	c1 c1 08             	rol    ecx,0x8
  409628:	c1 c8 08             	ror    eax,0x8
  40962b:	81 e1 ff 00 ff 00    	and    ecx,0xff00ff
  409631:	25 00 ff 00 ff       	and    eax,0xff00ff00
  409636:	0b c1                	or     eax,ecx
  409638:	89 02                	mov    DWORD PTR [edx],eax
  40963a:	8b 45 10             	mov    eax,DWORD PTR [ebp+0x10]
  40963d:	c1 e8 10             	shr    eax,0x10
  409640:	0f b6 c0             	movzx  eax,al
  409643:	8b 0c 85 78 f3 40 00 	mov    ecx,DWORD PTR [eax*4+0x40f378]
  40964a:	8b 45 08             	mov    eax,DWORD PTR [ebp+0x8]
  40964d:	81 e1 00 00 ff 00    	and    ecx,0xff0000
  409653:	c1 e8 08             	shr    eax,0x8
  409656:	0f b6 c0             	movzx  eax,al
  409659:	8b 04 85 78 f3 40 00 	mov    eax,DWORD PTR [eax*4+0x40f378]
  409660:	25 00 ff 00 00       	and    eax,0xff00
  409665:	33 c8                	xor    ecx,eax
  409667:	8b 45 fc             	mov    eax,DWORD PTR [ebp-0x4]
  40966a:	c1 e8 18             	shr    eax,0x18
  40966d:	8b 04 85 78 f3 40 00 	mov    eax,DWORD PTR [eax*4+0x40f378]
  409674:	23 c6                	and    eax,esi
  409676:	33 c8                	xor    ecx,eax
  409678:	0f b6 c3             	movzx  eax,bl
  40967b:	0f b6 04 85 78 f3 40 	movzx  eax,BYTE PTR [eax*4+0x40f378]
  409682:	00 
  409683:	33 c8                	xor    ecx,eax
  409685:	33 4f 04             	xor    ecx,DWORD PTR [edi+0x4]
  409688:	8b c1                	mov    eax,ecx
  40968a:	c1 c1 08             	rol    ecx,0x8
  40968d:	c1 c8 08             	ror    eax,0x8
  409690:	81 e1 ff 00 ff 00    	and    ecx,0xff00ff
  409696:	25 00 ff 00 ff       	and    eax,0xff00ff00
  40969b:	0b c1                	or     eax,ecx
  40969d:	89 42 04             	mov    DWORD PTR [edx+0x4],eax
  4096a0:	8b 45 08             	mov    eax,DWORD PTR [ebp+0x8]
  4096a3:	c1 e8 10             	shr    eax,0x10
  4096a6:	0f b6 c0             	movzx  eax,al
  4096a9:	8b 0c 85 78 f3 40 00 	mov    ecx,DWORD PTR [eax*4+0x40f378]
  4096b0:	8b c3                	mov    eax,ebx
  4096b2:	c1 e8 08             	shr    eax,0x8
  4096b5:	81 e1 00 00 ff 00    	and    ecx,0xff0000
  4096bb:	0f b6 c0             	movzx  eax,al
  4096be:	8b 04 85 78 f3 40 00 	mov    eax,DWORD PTR [eax*4+0x40f378]
  4096c5:	25 00 ff 00 00       	and    eax,0xff00
  4096ca:	33 c8                	xor    ecx,eax
  4096cc:	8b 45 10             	mov    eax,DWORD PTR [ebp+0x10]
  4096cf:	c1 e8 18             	shr    eax,0x18
  4096d2:	8b 04 85 78 f3 40 00 	mov    eax,DWORD PTR [eax*4+0x40f378]
  4096d9:	23 c6                	and    eax,esi
  4096db:	33 c8                	xor    ecx,eax
  4096dd:	8b 45 fc             	mov    eax,DWORD PTR [ebp-0x4]
  4096e0:	0f b6 c0             	movzx  eax,al
  4096e3:	0f b6 04 85 78 f3 40 	movzx  eax,BYTE PTR [eax*4+0x40f378]
  4096ea:	00 
  4096eb:	33 c8                	xor    ecx,eax
  4096ed:	33 4f 08             	xor    ecx,DWORD PTR [edi+0x8]
  4096f0:	8b c1                	mov    eax,ecx
  4096f2:	c1 c8 08             	ror    eax,0x8
  4096f5:	25 00 ff 00 ff       	and    eax,0xff00ff00
  4096fa:	c1 c1 08             	rol    ecx,0x8
  4096fd:	81 e1 ff 00 ff 00    	and    ecx,0xff00ff
  409703:	c1 eb 10             	shr    ebx,0x10
  409706:	0b c1                	or     eax,ecx
  409708:	89 42 08             	mov    DWORD PTR [edx+0x8],eax
  40970b:	0f b6 c3             	movzx  eax,bl
  40970e:	8b 0c 85 78 f3 40 00 	mov    ecx,DWORD PTR [eax*4+0x40f378]
  409715:	8b 45 fc             	mov    eax,DWORD PTR [ebp-0x4]
  409718:	81 e1 00 00 ff 00    	and    ecx,0xff0000
  40971e:	c1 e8 08             	shr    eax,0x8
  409721:	0f b6 c0             	movzx  eax,al
  409724:	8b 04 85 78 f3 40 00 	mov    eax,DWORD PTR [eax*4+0x40f378]
  40972b:	25 00 ff 00 00       	and    eax,0xff00
  409730:	33 c8                	xor    ecx,eax
  409732:	8b 45 08             	mov    eax,DWORD PTR [ebp+0x8]
  409735:	c1 e8 18             	shr    eax,0x18
  409738:	8b 04 85 78 f3 40 00 	mov    eax,DWORD PTR [eax*4+0x40f378]
  40973f:	23 c6                	and    eax,esi
  409741:	33 c8                	xor    ecx,eax
  409743:	8b 45 10             	mov    eax,DWORD PTR [ebp+0x10]
  409746:	0f b6 c0             	movzx  eax,al
  409749:	0f b6 04 85 78 f3 40 	movzx  eax,BYTE PTR [eax*4+0x40f378]
  409750:	00 
  409751:	33 c8                	xor    ecx,eax
  409753:	33 4f 0c             	xor    ecx,DWORD PTR [edi+0xc]
  409756:	8b c1                	mov    eax,ecx
  409758:	c1 c1 08             	rol    ecx,0x8
  40975b:	c1 c8 08             	ror    eax,0x8
  40975e:	81 e1 ff 00 ff 00    	and    ecx,0xff00ff
  409764:	5f                   	pop    edi
  409765:	25 00 ff 00 ff       	and    eax,0xff00ff00
  40976a:	0b c1                	or     eax,ecx
  40976c:	5e                   	pop    esi
  40976d:	89 42 0c             	mov    DWORD PTR [edx+0xc],eax
  409770:	5b                   	pop    ebx
  409771:	8b e5                	mov    esp,ebp
  409773:	5d                   	pop    ebp
  409774:	c3                   	ret    
  409775:	55                   	push   ebp
  409776:	8b ec                	mov    ebp,esp
  409778:	53                   	push   ebx
  409779:	8b 5d 0c             	mov    ebx,DWORD PTR [ebp+0xc]
  40977c:	ba 00 ff 00 ff       	mov    edx,0xff00ff00
  409781:	56                   	push   esi
  409782:	8b 75 08             	mov    esi,DWORD PTR [ebp+0x8]
  409785:	57                   	push   edi
  409786:	8b 03                	mov    eax,DWORD PTR [ebx]
  409788:	8b c8                	mov    ecx,eax
  40978a:	c1 c0 08             	rol    eax,0x8
  40978d:	25 ff 00 ff 00       	and    eax,0xff00ff
  409792:	c1 c9 08             	ror    ecx,0x8
  409795:	23 ca                	and    ecx,edx
  409797:	8d 7e 04             	lea    edi,[esi+0x4]
  40979a:	0b c8                	or     ecx,eax
  40979c:	89 0e                	mov    DWORD PTR [esi],ecx
  40979e:	8b 4b 04             	mov    ecx,DWORD PTR [ebx+0x4]
  4097a1:	8b c1                	mov    eax,ecx
  4097a3:	c1 c8 08             	ror    eax,0x8
  4097a6:	23 c2                	and    eax,edx
  4097a8:	c1 c1 08             	rol    ecx,0x8
  4097ab:	81 e1 ff 00 ff 00    	and    ecx,0xff00ff
  4097b1:	0b c1                	or     eax,ecx
  4097b3:	89 07                	mov    DWORD PTR [edi],eax
  4097b5:	8b 4b 08             	mov    ecx,DWORD PTR [ebx+0x8]
  4097b8:	8b c1                	mov    eax,ecx
  4097ba:	c1 c8 08             	ror    eax,0x8
  4097bd:	23 c2                	and    eax,edx
  4097bf:	c1 c1 08             	rol    ecx,0x8
  4097c2:	81 e1 ff 00 ff 00    	and    ecx,0xff00ff
  4097c8:	0b c1                	or     eax,ecx
  4097ca:	89 46 08             	mov    DWORD PTR [esi+0x8],eax
  4097cd:	8b 43 0c             	mov    eax,DWORD PTR [ebx+0xc]
  4097d0:	8b d0                	mov    edx,eax
  4097d2:	c1 ca 08             	ror    edx,0x8
  4097d5:	c1 c0 08             	rol    eax,0x8
  4097d8:	81 e2 00 ff 00 ff    	and    edx,0xff00ff00
  4097de:	25 ff 00 ff 00       	and    eax,0xff00ff
  4097e3:	0b d0                	or     edx,eax
  4097e5:	81 7d 10 80 00 00 00 	cmp    DWORD PTR [ebp+0x10],0x80
  4097ec:	89 56 0c             	mov    DWORD PTR [esi+0xc],edx
  4097ef:	0f 85 f2 00 00 00    	jne    0x4098e7
  4097f5:	8b c2                	mov    eax,edx
  4097f7:	bb 00 00 00 ff       	mov    ebx,0xff000000
  4097fc:	c1 e8 10             	shr    eax,0x10
  4097ff:	0f b6 c0             	movzx  eax,al
  409802:	8b 0c 85 78 f3 40 00 	mov    ecx,DWORD PTR [eax*4+0x40f378]
  409809:	8b c2                	mov    eax,edx
  40980b:	c1 e8 08             	shr    eax,0x8
  40980e:	81 f1 00 00 00 01    	xor    ecx,0x1000000
  409814:	0f b6 c0             	movzx  eax,al
  409817:	23 cb                	and    ecx,ebx
  409819:	8b 04 85 78 f3 40 00 	mov    eax,DWORD PTR [eax*4+0x40f378]
  409820:	25 00 00 ff 00       	and    eax,0xff0000
  409825:	33 c8                	xor    ecx,eax
  409827:	8b c2                	mov    eax,edx
  409829:	c1 e8 18             	shr    eax,0x18
  40982c:	0f b6 04 85 78 f3 40 	movzx  eax,BYTE PTR [eax*4+0x40f378]
  409833:	00 
  409834:	33 c8                	xor    ecx,eax
  409836:	0f b6 c2             	movzx  eax,dl
  409839:	8b 04 85 78 f3 40 00 	mov    eax,DWORD PTR [eax*4+0x40f378]
  409840:	25 00 ff 00 00       	and    eax,0xff00
  409845:	33 c8                	xor    ecx,eax
  409847:	8b 07                	mov    eax,DWORD PTR [edi]
  409849:	33 0e                	xor    ecx,DWORD PTR [esi]
  40984b:	33 c1                	xor    eax,ecx
  40984d:	89 4e 10             	mov    DWORD PTR [esi+0x10],ecx
  409850:	8b 4e 08             	mov    ecx,DWORD PTR [esi+0x8]
  409853:	89 46 14             	mov    DWORD PTR [esi+0x14],eax
  409856:	33 c8                	xor    ecx,eax
  409858:	8b c2                	mov    eax,edx
  40985a:	89 4e 18             	mov    DWORD PTR [esi+0x18],ecx
  40985d:	33 c1                	xor    eax,ecx
  40985f:	89 46 1c             	mov    DWORD PTR [esi+0x1c],eax
  409862:	be 7c 0b 41 00       	mov    esi,0x410b7c
  409867:	8d 7f 10             	lea    edi,[edi+0x10]
  40986a:	8b 4f 08             	mov    ecx,DWORD PTR [edi+0x8]
  40986d:	8b c1                	mov    eax,ecx
  40986f:	c1 e8 08             	shr    eax,0x8
  409872:	0f b6 c0             	movzx  eax,al
  409875:	8b 14 85 78 f3 40 00 	mov    edx,DWORD PTR [eax*4+0x40f378]
  40987c:	8b c1                	mov    eax,ecx
  40987e:	c1 e8 10             	shr    eax,0x10
  409881:	81 e2 00 00 ff 00    	and    edx,0xff0000
  409887:	0f b6 c0             	movzx  eax,al
  40988a:	8b 04 85 78 f3 40 00 	mov    eax,DWORD PTR [eax*4+0x40f378]
  409891:	23 c3                	and    eax,ebx
  409893:	33 d0                	xor    edx,eax
  409895:	8b c1                	mov    eax,ecx
  409897:	c1 e8 18             	shr    eax,0x18
  40989a:	0f b6 04 85 78 f3 40 	movzx  eax,BYTE PTR [eax*4+0x40f378]
  4098a1:	00 
  4098a2:	33 d0                	xor    edx,eax
  4098a4:	0f b6 c1             	movzx  eax,cl
  4098a7:	8b 04 85 78 f3 40 00 	mov    eax,DWORD PTR [eax*4+0x40f378]
  4098ae:	25 00 ff 00 00       	and    eax,0xff00
  4098b3:	33 d0                	xor    edx,eax
  4098b5:	33 57 fc             	xor    edx,DWORD PTR [edi-0x4]
  4098b8:	33 16                	xor    edx,DWORD PTR [esi]
  4098ba:	83 c6 04             	add    esi,0x4
  4098bd:	89 57 0c             	mov    DWORD PTR [edi+0xc],edx
  4098c0:	8b 07                	mov    eax,DWORD PTR [edi]
  4098c2:	33 c2                	xor    eax,edx
  4098c4:	89 47 10             	mov    DWORD PTR [edi+0x10],eax
  4098c7:	8b 4f 04             	mov    ecx,DWORD PTR [edi+0x4]
  4098ca:	33 c8                	xor    ecx,eax
  4098cc:	89 4f 14             	mov    DWORD PTR [edi+0x14],ecx
  4098cf:	8b 47 08             	mov    eax,DWORD PTR [edi+0x8]
  4098d2:	33 c1                	xor    eax,ecx
  4098d4:	89 47 18             	mov    DWORD PTR [edi+0x18],eax
  4098d7:	81 fe a0 0b 41 00    	cmp    esi,0x410ba0
  4098dd:	75 88                	jne    0x409867
  4098df:	6a 0a                	push   0xa
  4098e1:	58                   	pop    eax
  4098e2:	e9 0b 03 00 00       	jmp    0x409bf2
  4098e7:	8b 4b 10             	mov    ecx,DWORD PTR [ebx+0x10]
  4098ea:	8b c1                	mov    eax,ecx
  4098ec:	c1 c8 08             	ror    eax,0x8
  4098ef:	25 00 ff 00 ff       	and    eax,0xff00ff00
  4098f4:	c1 c1 08             	rol    ecx,0x8
  4098f7:	81 e1 ff 00 ff 00    	and    ecx,0xff00ff
  4098fd:	0b c1                	or     eax,ecx
  4098ff:	89 46 10             	mov    DWORD PTR [esi+0x10],eax
  409902:	8b 43 14             	mov    eax,DWORD PTR [ebx+0x14]
  409905:	8b d0                	mov    edx,eax
  409907:	c1 ca 08             	ror    edx,0x8
  40990a:	c1 c0 08             	rol    eax,0x8
  40990d:	81 e2 00 ff 00 ff    	and    edx,0xff00ff00
  409913:	25 ff 00 ff 00       	and    eax,0xff00ff
  409918:	0b d0                	or     edx,eax
  40991a:	81 7d 10 c0 00 00 00 	cmp    DWORD PTR [ebp+0x10],0xc0
  409921:	89 56 14             	mov    DWORD PTR [esi+0x14],edx
  409924:	0f 85 0a 01 00 00    	jne    0x409a34
  40992a:	8b c2                	mov    eax,edx
  40992c:	bb 00 00 00 ff       	mov    ebx,0xff000000
  409931:	c1 e8 10             	shr    eax,0x10
  409934:	0f b6 c0             	movzx  eax,al
  409937:	8b 0c 85 78 f3 40 00 	mov    ecx,DWORD PTR [eax*4+0x40f378]
  40993e:	8b c2                	mov    eax,edx
  409940:	c1 e8 08             	shr    eax,0x8
  409943:	81 f1 00 00 00 01    	xor    ecx,0x1000000
  409949:	0f b6 c0             	movzx  eax,al
  40994c:	23 cb                	and    ecx,ebx
  40994e:	8b 04 85 78 f3 40 00 	mov    eax,DWORD PTR [eax*4+0x40f378]
  409955:	25 00 00 ff 00       	and    eax,0xff0000
  40995a:	33 c8                	xor    ecx,eax
  40995c:	8b c2                	mov    eax,edx
  40995e:	c1 e8 18             	shr    eax,0x18
  409961:	0f b6 04 85 78 f3 40 	movzx  eax,BYTE PTR [eax*4+0x40f378]
  409968:	00 
  409969:	33 c8                	xor    ecx,eax
  40996b:	0f b6 c2             	movzx  eax,dl
  40996e:	8b 04 85 78 f3 40 00 	mov    eax,DWORD PTR [eax*4+0x40f378]
  409975:	25 00 ff 00 00       	and    eax,0xff00
  40997a:	33 c8                	xor    ecx,eax
  40997c:	8b 07                	mov    eax,DWORD PTR [edi]
  40997e:	33 0e                	xor    ecx,DWORD PTR [esi]
  409980:	bf 7c 0b 41 00       	mov    edi,0x410b7c
  409985:	33 c1                	xor    eax,ecx
  409987:	89 4e 18             	mov    DWORD PTR [esi+0x18],ecx
  40998a:	8b 4e 08             	mov    ecx,DWORD PTR [esi+0x8]
  40998d:	33 c8                	xor    ecx,eax
  40998f:	89 46 1c             	mov    DWORD PTR [esi+0x1c],eax
  409992:	8b 46 0c             	mov    eax,DWORD PTR [esi+0xc]
  409995:	33 c1                	xor    eax,ecx
  409997:	89 4e 20             	mov    DWORD PTR [esi+0x20],ecx
  40999a:	89 46 24             	mov    DWORD PTR [esi+0x24],eax
  40999d:	83 c6 28             	add    esi,0x28
  4099a0:	8b 4e e8             	mov    ecx,DWORD PTR [esi-0x18]
  4099a3:	33 4e fc             	xor    ecx,DWORD PTR [esi-0x4]
  4099a6:	8b 46 ec             	mov    eax,DWORD PTR [esi-0x14]
  4099a9:	33 c1                	xor    eax,ecx
  4099ab:	89 0e                	mov    DWORD PTR [esi],ecx
  4099ad:	89 46 04             	mov    DWORD PTR [esi+0x4],eax
  4099b0:	8d 76 18             	lea    esi,[esi+0x18]
  4099b3:	8b 4e ec             	mov    ecx,DWORD PTR [esi-0x14]
  4099b6:	8b c1                	mov    eax,ecx
  4099b8:	c1 e8 08             	shr    eax,0x8
  4099bb:	0f b6 c0             	movzx  eax,al
  4099be:	8b 14 85 78 f3 40 00 	mov    edx,DWORD PTR [eax*4+0x40f378]
  4099c5:	8b c1                	mov    eax,ecx
  4099c7:	c1 e8 10             	shr    eax,0x10
  4099ca:	81 e2 00 00 ff 00    	and    edx,0xff0000
  4099d0:	0f b6 c0             	movzx  eax,al
  4099d3:	8b 04 85 78 f3 40 00 	mov    eax,DWORD PTR [eax*4+0x40f378]
  4099da:	23 c3                	and    eax,ebx
  4099dc:	33 d0                	xor    edx,eax
  4099de:	8b c1                	mov    eax,ecx
  4099e0:	c1 e8 18             	shr    eax,0x18
  4099e3:	0f b6 04 85 78 f3 40 	movzx  eax,BYTE PTR [eax*4+0x40f378]
  4099ea:	00 
  4099eb:	33 d0                	xor    edx,eax
  4099ed:	0f b6 c1             	movzx  eax,cl
  4099f0:	8b 04 85 78 f3 40 00 	mov    eax,DWORD PTR [eax*4+0x40f378]
  4099f7:	25 00 ff 00 00       	and    eax,0xff00
  4099fc:	33 d0                	xor    edx,eax
  4099fe:	33 56 d8             	xor    edx,DWORD PTR [esi-0x28]
  409a01:	33 17                	xor    edx,DWORD PTR [edi]
  409a03:	83 c7 04             	add    edi,0x4
  409a06:	89 56 f0             	mov    DWORD PTR [esi-0x10],edx
  409a09:	8b 46 dc             	mov    eax,DWORD PTR [esi-0x24]
  409a0c:	33 c2                	xor    eax,edx
  409a0e:	89 46 f4             	mov    DWORD PTR [esi-0xc],eax
  409a11:	8b 4e e0             	mov    ecx,DWORD PTR [esi-0x20]
  409a14:	33 c8                	xor    ecx,eax
  409a16:	89 4e f8             	mov    DWORD PTR [esi-0x8],ecx
  409a19:	8b 46 e4             	mov    eax,DWORD PTR [esi-0x1c]
  409a1c:	33 c1                	xor    eax,ecx
  409a1e:	89 46 fc             	mov    DWORD PTR [esi-0x4],eax
  409a21:	81 ff 98 0b 41 00    	cmp    edi,0x410b98
  409a27:	0f 85 73 ff ff ff    	jne    0x4099a0
  409a2d:	6a 0c                	push   0xc
  409a2f:	e9 ad fe ff ff       	jmp    0x4098e1
  409a34:	8b 4b 18             	mov    ecx,DWORD PTR [ebx+0x18]
  409a37:	ba 00 ff 00 ff       	mov    edx,0xff00ff00
  409a3c:	8b c1                	mov    eax,ecx
  409a3e:	c1 c1 08             	rol    ecx,0x8
  409a41:	c1 c8 08             	ror    eax,0x8
  409a44:	81 e1 ff 00 ff 00    	and    ecx,0xff00ff
  409a4a:	23 c2                	and    eax,edx
  409a4c:	0b c1                	or     eax,ecx
  409a4e:	89 46 18             	mov    DWORD PTR [esi+0x18],eax
  409a51:	8b 4b 1c             	mov    ecx,DWORD PTR [ebx+0x1c]
  409a54:	8b c1                	mov    eax,ecx
  409a56:	c1 c8 08             	ror    eax,0x8
  409a59:	c1 c1 08             	rol    ecx,0x8
  409a5c:	23 c2                	and    eax,edx
  409a5e:	81 e1 ff 00 ff 00    	and    ecx,0xff00ff
  409a64:	0b c1                	or     eax,ecx
  409a66:	81 7d 10 00 01 00 00 	cmp    DWORD PTR [ebp+0x10],0x100
  409a6d:	89 46 1c             	mov    DWORD PTR [esi+0x1c],eax
  409a70:	0f 85 7a 01 00 00    	jne    0x409bf0
  409a76:	8b c8                	mov    ecx,eax
  409a78:	c7 45 0c 7c 0b 41 00 	mov    DWORD PTR [ebp+0xc],0x410b7c
  409a7f:	c1 e8 10             	shr    eax,0x10
  409a82:	bb 00 00 00 ff       	mov    ebx,0xff000000
  409a87:	0f b6 c0             	movzx  eax,al
  409a8a:	8b 14 85 78 f3 40 00 	mov    edx,DWORD PTR [eax*4+0x40f378]
  409a91:	8b c1                	mov    eax,ecx
  409a93:	c1 e8 08             	shr    eax,0x8
  409a96:	81 f2 00 00 00 01    	xor    edx,0x1000000
  409a9c:	0f b6 c0             	movzx  eax,al
  409a9f:	23 d3                	and    edx,ebx
  409aa1:	8b 04 85 78 f3 40 00 	mov    eax,DWORD PTR [eax*4+0x40f378]
  409aa8:	25 00 00 ff 00       	and    eax,0xff0000
  409aad:	33 d0                	xor    edx,eax
  409aaf:	8b c1                	mov    eax,ecx
  409ab1:	c1 e8 18             	shr    eax,0x18
  409ab4:	0f b6 04 85 78 f3 40 	movzx  eax,BYTE PTR [eax*4+0x40f378]
  409abb:	00 
  409abc:	33 d0                	xor    edx,eax
  409abe:	0f b6 c1             	movzx  eax,cl
  409ac1:	8b 4e 08             	mov    ecx,DWORD PTR [esi+0x8]
  409ac4:	8b 04 85 78 f3 40 00 	mov    eax,DWORD PTR [eax*4+0x40f378]
  409acb:	25 00 ff 00 00       	and    eax,0xff00
  409ad0:	33 d0                	xor    edx,eax
  409ad2:	8b 07                	mov    eax,DWORD PTR [edi]
  409ad4:	33 16                	xor    edx,DWORD PTR [esi]
  409ad6:	bf 00 ff 00 00       	mov    edi,0xff00
  409adb:	33 c2                	xor    eax,edx
  409add:	89 56 20             	mov    DWORD PTR [esi+0x20],edx
  409ae0:	89 46 24             	mov    DWORD PTR [esi+0x24],eax
  409ae3:	8d 56 30             	lea    edx,[esi+0x30]
  409ae6:	33 c8                	xor    ecx,eax
  409ae8:	89 55 10             	mov    DWORD PTR [ebp+0x10],edx
  409aeb:	8b 46 0c             	mov    eax,DWORD PTR [esi+0xc]
  409aee:	33 c1                	xor    eax,ecx
  409af0:	89 4e 28             	mov    DWORD PTR [esi+0x28],ecx
  409af3:	89 46 2c             	mov    DWORD PTR [esi+0x2c],eax
  409af6:	be 00 00 ff 00       	mov    esi,0xff0000
  409afb:	8b 4a fc             	mov    ecx,DWORD PTR [edx-0x4]
  409afe:	8b c1                	mov    eax,ecx
  409b00:	c1 e8 10             	shr    eax,0x10
  409b03:	0f b6 c0             	movzx  eax,al
  409b06:	8b 14 85 78 f3 40 00 	mov    edx,DWORD PTR [eax*4+0x40f378]
  409b0d:	8b c1                	mov    eax,ecx
  409b0f:	c1 e8 08             	shr    eax,0x8
  409b12:	23 d6                	and    edx,esi
  409b14:	0f b6 c0             	movzx  eax,al
  409b17:	8b 04 85 78 f3 40 00 	mov    eax,DWORD PTR [eax*4+0x40f378]
  409b1e:	23 c7                	and    eax,edi
  409b20:	33 d0                	xor    edx,eax
  409b22:	8b c1                	mov    eax,ecx
  409b24:	c1 e8 18             	shr    eax,0x18
  409b27:	8b 04 85 78 f3 40 00 	mov    eax,DWORD PTR [eax*4+0x40f378]
  409b2e:	23 c3                	and    eax,ebx
  409b30:	33 d0                	xor    edx,eax
  409b32:	0f b6 c1             	movzx  eax,cl
  409b35:	0f b6 04 85 78 f3 40 	movzx  eax,BYTE PTR [eax*4+0x40f378]
  409b3c:	00 
  409b3d:	33 d0                	xor    edx,eax
  409b3f:	8b 45 10             	mov    eax,DWORD PTR [ebp+0x10]
  409b42:	33 50 e0             	xor    edx,DWORD PTR [eax-0x20]
  409b45:	89 10                	mov    DWORD PTR [eax],edx
  409b47:	8b 40 e4             	mov    eax,DWORD PTR [eax-0x1c]
  409b4a:	33 c2                	xor    eax,edx
  409b4c:	8b 55 10             	mov    edx,DWORD PTR [ebp+0x10]
  409b4f:	8b 4a e8             	mov    ecx,DWORD PTR [edx-0x18]
  409b52:	89 42 04             	mov    DWORD PTR [edx+0x4],eax
  409b55:	33 c8                	xor    ecx,eax
  409b57:	8b 42 ec             	mov    eax,DWORD PTR [edx-0x14]
  409b5a:	33 c1                	xor    eax,ecx
  409b5c:	89 4a 08             	mov    DWORD PTR [edx+0x8],ecx
  409b5f:	89 42 0c             	mov    DWORD PTR [edx+0xc],eax
  409b62:	83 c2 20             	add    edx,0x20
  409b65:	89 55 10             	mov    DWORD PTR [ebp+0x10],edx
  409b68:	8b 4a ec             	mov    ecx,DWORD PTR [edx-0x14]
  409b6b:	8b c1                	mov    eax,ecx
  409b6d:	c1 e8 08             	shr    eax,0x8
  409b70:	0f b6 c0             	movzx  eax,al
  409b73:	8b 14 85 78 f3 40 00 	mov    edx,DWORD PTR [eax*4+0x40f378]
  409b7a:	8b c1                	mov    eax,ecx
  409b7c:	c1 e8 10             	shr    eax,0x10
  409b7f:	23 d6                	and    edx,esi
  409b81:	0f b6 c0             	movzx  eax,al
  409b84:	8b 04 85 78 f3 40 00 	mov    eax,DWORD PTR [eax*4+0x40f378]
  409b8b:	23 c3                	and    eax,ebx
  409b8d:	33 d0                	xor    edx,eax
  409b8f:	8b c1                	mov    eax,ecx
  409b91:	c1 e8 18             	shr    eax,0x18
  409b94:	0f b6 04 85 78 f3 40 	movzx  eax,BYTE PTR [eax*4+0x40f378]
  409b9b:	00 
  409b9c:	33 d0                	xor    edx,eax
  409b9e:	0f b6 c1             	movzx  eax,cl
  409ba1:	8b 4d 0c             	mov    ecx,DWORD PTR [ebp+0xc]
  409ba4:	8b 04 85 78 f3 40 00 	mov    eax,DWORD PTR [eax*4+0x40f378]
  409bab:	23 c7                	and    eax,edi
  409bad:	33 d0                	xor    edx,eax
  409baf:	8b 45 10             	mov    eax,DWORD PTR [ebp+0x10]
  409bb2:	33 50 d0             	xor    edx,DWORD PTR [eax-0x30]
  409bb5:	33 11                	xor    edx,DWORD PTR [ecx]
  409bb7:	89 50 f0             	mov    DWORD PTR [eax-0x10],edx
  409bba:	8b 40 d4             	mov    eax,DWORD PTR [eax-0x2c]
  409bbd:	33 c2                	xor    eax,edx
  409bbf:	8b 55 10             	mov    edx,DWORD PTR [ebp+0x10]
  409bc2:	89 42 f4             	mov    DWORD PTR [edx-0xc],eax
  409bc5:	8b 4a d8             	mov    ecx,DWORD PTR [edx-0x28]
  409bc8:	33 c8                	xor    ecx,eax
  409bca:	89 4a f8             	mov    DWORD PTR [edx-0x8],ecx
  409bcd:	8b 42 dc             	mov    eax,DWORD PTR [edx-0x24]
  409bd0:	33 c1                	xor    eax,ecx
  409bd2:	89 42 fc             	mov    DWORD PTR [edx-0x4],eax
  409bd5:	8b 45 0c             	mov    eax,DWORD PTR [ebp+0xc]
  409bd8:	83 c0 04             	add    eax,0x4
  409bdb:	89 45 0c             	mov    DWORD PTR [ebp+0xc],eax
  409bde:	3d 94 0b 41 00       	cmp    eax,0x410b94
  409be3:	0f 85 12 ff ff ff    	jne    0x409afb
  409be9:	6a 0e                	push   0xe
  409beb:	e9 f1 fc ff ff       	jmp    0x4098e1
  409bf0:	33 c0                	xor    eax,eax
  409bf2:	5f                   	pop    edi
  409bf3:	5e                   	pop    esi
  409bf4:	5b                   	pop    ebx
  409bf5:	5d                   	pop    ebp
  409bf6:	c3                   	ret    
  409bf7:	55                   	push   ebp
  409bf8:	8b ec                	mov    ebp,esp
  409bfa:	81 ec f0 04 00 00    	sub    esp,0x4f0
  409c00:	53                   	push   ebx
  409c01:	56                   	push   esi
  409c02:	57                   	push   edi
  409c03:	bf 90 00 00 00       	mov    edi,0x90
  409c08:	8d 85 e0 fc ff ff    	lea    eax,[ebp-0x320]
  409c0e:	57                   	push   edi
  409c0f:	33 f6                	xor    esi,esi
  409c11:	56                   	push   esi
  409c12:	50                   	push   eax
  409c13:	e8 e3 b5 ff ff       	call   0x4051fb
  409c18:	57                   	push   edi
  409c19:	33 db                	xor    ebx,ebx
  409c1b:	89 b5 3c ff ff ff    	mov    DWORD PTR [ebp-0xc4],esi
  409c21:	8d 85 40 ff ff ff    	lea    eax,[ebp-0xc0]
  409c27:	43                   	inc    ebx
  409c28:	56                   	push   esi
  409c29:	50                   	push   eax
  409c2a:	89 9d 38 ff ff ff    	mov    DWORD PTR [ebp-0xc8],ebx
  409c30:	e8 c6 b5 ff ff       	call   0x4051fb
  409c35:	57                   	push   edi
  409c36:	8d 85 a8 fe ff ff    	lea    eax,[ebp-0x158]
  409c3c:	89 9d a0 fe ff ff    	mov    DWORD PTR [ebp-0x160],ebx
  409c42:	56                   	push   esi
  409c43:	50                   	push   eax
  409c44:	89 b5 a4 fe ff ff    	mov    DWORD PTR [ebp-0x15c],esi
  409c4a:	e8 ac b5 ff ff       	call   0x4051fb
  409c4f:	83 c7 08             	add    edi,0x8
  409c52:	8d 85 40 fc ff ff    	lea    eax,[ebp-0x3c0]
  409c58:	57                   	push   edi
  409c59:	56                   	push   esi
  409c5a:	50                   	push   eax
  409c5b:	e8 9b b5 ff ff       	call   0x4051fb
  409c60:	8d 85 d8 fc ff ff    	lea    eax,[ebp-0x328]
  409c66:	89 45 e4             	mov    DWORD PTR [ebp-0x1c],eax
  409c69:	8d b5 a0 fe ff ff    	lea    esi,[ebp-0x160]
  409c6f:	8d 85 38 ff ff ff    	lea    eax,[ebp-0xc8]
  409c75:	89 75 dc             	mov    DWORD PTR [ebp-0x24],esi
  409c78:	89 45 ec             	mov    DWORD PTR [ebp-0x14],eax
  409c7b:	33 f6                	xor    esi,esi
  409c7d:	8d 85 40 fc ff ff    	lea    eax,[ebp-0x3c0]
  409c83:	57                   	push   edi
  409c84:	89 45 f4             	mov    DWORD PTR [ebp-0xc],eax
  409c87:	8d 85 a8 fb ff ff    	lea    eax,[ebp-0x458]
  409c8d:	56                   	push   esi
  409c8e:	50                   	push   eax
  409c8f:	e8 67 b5 ff ff       	call   0x4051fb
  409c94:	68 90 00 00 00       	push   0x90
  409c99:	8d 85 10 fe ff ff    	lea    eax,[ebp-0x1f0]
  409c9f:	89 9d 08 fe ff ff    	mov    DWORD PTR [ebp-0x1f8],ebx
  409ca5:	56                   	push   esi
  409ca6:	50                   	push   eax
  409ca7:	89 b5 0c fe ff ff    	mov    DWORD PTR [ebp-0x1f4],esi
  409cad:	e8 49 b5 ff ff       	call   0x4051fb
  409cb2:	83 c4 48             	add    esp,0x48
  409cb5:	8d 85 10 fb ff ff    	lea    eax,[ebp-0x4f0]
  409cbb:	57                   	push   edi
  409cbc:	56                   	push   esi
  409cbd:	50                   	push   eax
  409cbe:	e8 38 b5 ff ff       	call   0x4051fb
  409cc3:	68 90 00 00 00       	push   0x90
  409cc8:	8d 85 78 fd ff ff    	lea    eax,[ebp-0x288]
  409cce:	89 9d 70 fd ff ff    	mov    DWORD PTR [ebp-0x290],ebx
  409cd4:	56                   	push   esi
  409cd5:	50                   	push   eax
  409cd6:	89 b5 74 fd ff ff    	mov    DWORD PTR [ebp-0x28c],esi
  409cdc:	e8 1a b5 ff ff       	call   0x4051fb
  409ce1:	8b 75 14             	mov    esi,DWORD PTR [ebp+0x14]
  409ce4:	8d 85 a8 fb ff ff    	lea    eax,[ebp-0x458]
  409cea:	89 45 f0             	mov    DWORD PTR [ebp-0x10],eax
  409ced:	8d bd d8 fc ff ff    	lea    edi,[ebp-0x328]
  409cf3:	83 c4 18             	add    esp,0x18
  409cf6:	8d 85 08 fe ff ff    	lea    eax,[ebp-0x1f8]
  409cfc:	89 45 e0             	mov    DWORD PTR [ebp-0x20],eax
  409cff:	8d 85 10 fb ff ff    	lea    eax,[ebp-0x4f0]
  409d05:	89 45 f8             	mov    DWORD PTR [ebp-0x8],eax
  409d08:	8d 85 70 fd ff ff    	lea    eax,[ebp-0x290]
  409d0e:	89 45 e8             	mov    DWORD PTR [ebp-0x18],eax
  409d11:	8b 45 10             	mov    eax,DWORD PTR [ebp+0x10]
  409d14:	6a 14                	push   0x14
  409d16:	59                   	pop    ecx
  409d17:	f3 a5                	rep movs DWORD PTR es:[edi],DWORD PTR ds:[esi]
  409d19:	8d 58 1f             	lea    ebx,[eax+0x1f]
  409d1c:	c7 45 d0 20 00 00 00 	mov    DWORD PTR [ebp-0x30],0x20
  409d23:	89 5d d4             	mov    DWORD PTR [ebp-0x2c],ebx
  409d26:	8d 8d d8 fc ff ff    	lea    ecx,[ebp-0x328]
  409d2c:	8a 03                	mov    al,BYTE PTR [ebx]
  409d2e:	8b 5d dc             	mov    ebx,DWORD PTR [ebp-0x24]
  409d31:	88 45 ff             	mov    BYTE PTR [ebp-0x1],al
  409d34:	c7 45 d8 08 00 00 00 	mov    DWORD PTR [ebp-0x28],0x8
  409d3b:	c0 e8 07             	shr    al,0x7
  409d3e:	0f b6 c0             	movzx  eax,al
  409d41:	99                   	cdq    
  409d42:	8b f2                	mov    esi,edx
  409d44:	8b f8                	mov    edi,eax
  409d46:	56                   	push   esi
  409d47:	57                   	push   edi
  409d48:	51                   	push   ecx
  409d49:	53                   	push   ebx
  409d4a:	e8 ba 18 00 00       	call   0x40b609
  409d4f:	56                   	push   esi
  409d50:	57                   	push   edi
  409d51:	ff 75 ec             	push   DWORD PTR [ebp-0x14]
  409d54:	ff 75 f4             	push   DWORD PTR [ebp-0xc]
  409d57:	e8 ad 18 00 00       	call   0x40b609
  409d5c:	ff 75 14             	push   DWORD PTR [ebp+0x14]
  409d5f:	ff 75 ec             	push   DWORD PTR [ebp-0x14]
  409d62:	ff 75 e4             	push   DWORD PTR [ebp-0x1c]
  409d65:	ff 75 f4             	push   DWORD PTR [ebp-0xc]
  409d68:	53                   	push   ebx
  409d69:	ff 75 e0             	push   DWORD PTR [ebp-0x20]
  409d6c:	ff 75 f0             	push   DWORD PTR [ebp-0x10]
  409d6f:	ff 75 e8             	push   DWORD PTR [ebp-0x18]
  409d72:	ff 75 f8             	push   DWORD PTR [ebp-0x8]
  409d75:	e8 8b 0a 00 00       	call   0x40a805
  409d7a:	83 c4 44             	add    esp,0x44
  409d7d:	56                   	push   esi
  409d7e:	57                   	push   edi
  409d7f:	ff 75 f0             	push   DWORD PTR [ebp-0x10]
  409d82:	ff 75 f8             	push   DWORD PTR [ebp-0x8]
  409d85:	e8 7f 18 00 00       	call   0x40b609
  409d8a:	56                   	push   esi
  409d8b:	8b 75 e0             	mov    esi,DWORD PTR [ebp-0x20]
  409d8e:	57                   	push   edi
  409d8f:	8b 7d e8             	mov    edi,DWORD PTR [ebp-0x18]
  409d92:	56                   	push   esi
  409d93:	57                   	push   edi
  409d94:	e8 70 18 00 00       	call   0x40b609
  409d99:	8b 4d f0             	mov    ecx,DWORD PTR [ebp-0x10]
  409d9c:	8b c3                	mov    eax,ebx
  409d9e:	8b 5d f8             	mov    ebx,DWORD PTR [ebp-0x8]
  409da1:	83 c4 20             	add    esp,0x20
  409da4:	89 45 f8             	mov    DWORD PTR [ebp-0x8],eax
  409da7:	8b d7                	mov    edx,edi
  409da9:	8b 45 f4             	mov    eax,DWORD PTR [ebp-0xc]
  409dac:	89 45 e8             	mov    DWORD PTR [ebp-0x18],eax
  409daf:	8b 45 e4             	mov    eax,DWORD PTR [ebp-0x1c]
  409db2:	89 45 f0             	mov    DWORD PTR [ebp-0x10],eax
  409db5:	8b 45 ec             	mov    eax,DWORD PTR [ebp-0x14]
  409db8:	89 45 e0             	mov    DWORD PTR [ebp-0x20],eax
  409dbb:	8a 45 ff             	mov    al,BYTE PTR [ebp-0x1]
  409dbe:	02 c0                	add    al,al
  409dc0:	89 55 f4             	mov    DWORD PTR [ebp-0xc],edx
  409dc3:	83 6d d8 01          	sub    DWORD PTR [ebp-0x28],0x1
  409dc7:	89 4d e4             	mov    DWORD PTR [ebp-0x1c],ecx
  409dca:	89 75 ec             	mov    DWORD PTR [ebp-0x14],esi
  409dcd:	88 45 ff             	mov    BYTE PTR [ebp-0x1],al
  409dd0:	0f 85 65 ff ff ff    	jne    0x409d3b
  409dd6:	89 5d dc             	mov    DWORD PTR [ebp-0x24],ebx
  409dd9:	8b 5d d4             	mov    ebx,DWORD PTR [ebp-0x2c]
  409ddc:	4b                   	dec    ebx
  409ddd:	83 6d d0 01          	sub    DWORD PTR [ebp-0x30],0x1
  409de1:	89 5d d4             	mov    DWORD PTR [ebp-0x2c],ebx
  409de4:	0f 85 42 ff ff ff    	jne    0x409d2c
  409dea:	8b 75 dc             	mov    esi,DWORD PTR [ebp-0x24]
  409ded:	8b 7d 08             	mov    edi,DWORD PTR [ebp+0x8]
  409df0:	6a 14                	push   0x14
  409df2:	59                   	pop    ecx
  409df3:	f3 a5                	rep movs DWORD PTR es:[edi],DWORD PTR ds:[esi]
  409df5:	8b 7d 0c             	mov    edi,DWORD PTR [ebp+0xc]
  409df8:	8b f2                	mov    esi,edx
  409dfa:	6a 14                	push   0x14
  409dfc:	59                   	pop    ecx
  409dfd:	f3 a5                	rep movs DWORD PTR es:[edi],DWORD PTR ds:[esi]
  409dff:	5f                   	pop    edi
  409e00:	5e                   	pop    esi
  409e01:	5b                   	pop    ebx
  409e02:	8b e5                	mov    esp,ebp
  409e04:	5d                   	pop    ebp
  409e05:	c3                   	ret    
  409e06:	55                   	push   ebp
  409e07:	8b ec                	mov    ebp,esp
  409e09:	81 ec 90 01 00 00    	sub    esp,0x190
  409e0f:	8d 85 10 ff ff ff    	lea    eax,[ebp-0xf0]
  409e15:	56                   	push   esi
  409e16:	57                   	push   edi
  409e17:	ff 75 0c             	push   DWORD PTR [ebp+0xc]
  409e1a:	50                   	push   eax
  409e1b:	e8 09 14 00 00       	call   0x40b229
  409e20:	8d 85 10 ff ff ff    	lea    eax,[ebp-0xf0]
  409e26:	50                   	push   eax
  409e27:	8d 85 60 ff ff ff    	lea    eax,[ebp-0xa0]
  409e2d:	50                   	push   eax
  409e2e:	e8 f6 13 00 00       	call   0x40b229
  409e33:	8d 85 60 ff ff ff    	lea    eax,[ebp-0xa0]
  409e39:	50                   	push   eax
  409e3a:	8d 45 b0             	lea    eax,[ebp-0x50]
  409e3d:	50                   	push   eax
  409e3e:	e8 e6 13 00 00       	call   0x40b229
  409e43:	ff 75 0c             	push   DWORD PTR [ebp+0xc]
  409e46:	8d 45 b0             	lea    eax,[ebp-0x50]
  409e49:	50                   	push   eax
  409e4a:	8d 85 c0 fe ff ff    	lea    eax,[ebp-0x140]
  409e50:	50                   	push   eax
  409e51:	e8 f5 0b 00 00       	call   0x40aa4b
  409e56:	8d 85 10 ff ff ff    	lea    eax,[ebp-0xf0]
  409e5c:	50                   	push   eax
  409e5d:	8d 85 c0 fe ff ff    	lea    eax,[ebp-0x140]
  409e63:	50                   	push   eax
  409e64:	8d 85 70 fe ff ff    	lea    eax,[ebp-0x190]
  409e6a:	50                   	push   eax
  409e6b:	e8 db 0b 00 00       	call   0x40aa4b
  409e70:	8d 85 70 fe ff ff    	lea    eax,[ebp-0x190]
  409e76:	50                   	push   eax
  409e77:	8d 45 b0             	lea    eax,[ebp-0x50]
  409e7a:	50                   	push   eax
  409e7b:	e8 a9 13 00 00       	call   0x40b229
  409e80:	8d 85 c0 fe ff ff    	lea    eax,[ebp-0x140]
  409e86:	50                   	push   eax
  409e87:	8d 45 b0             	lea    eax,[ebp-0x50]
  409e8a:	50                   	push   eax
  409e8b:	8d 85 10 ff ff ff    	lea    eax,[ebp-0xf0]
  409e91:	50                   	push   eax
  409e92:	e8 b4 0b 00 00       	call   0x40aa4b
  409e97:	83 c4 44             	add    esp,0x44
  409e9a:	8d 85 10 ff ff ff    	lea    eax,[ebp-0xf0]
  409ea0:	50                   	push   eax
  409ea1:	8d 45 b0             	lea    eax,[ebp-0x50]
  409ea4:	50                   	push   eax
  409ea5:	e8 7f 13 00 00       	call   0x40b229
  409eaa:	8d 45 b0             	lea    eax,[ebp-0x50]
  409ead:	50                   	push   eax
  409eae:	8d 85 60 ff ff ff    	lea    eax,[ebp-0xa0]
  409eb4:	50                   	push   eax
  409eb5:	e8 6f 13 00 00       	call   0x40b229
  409eba:	8d 85 60 ff ff ff    	lea    eax,[ebp-0xa0]
  409ec0:	50                   	push   eax
  409ec1:	8d 45 b0             	lea    eax,[ebp-0x50]
  409ec4:	50                   	push   eax
  409ec5:	e8 5f 13 00 00       	call   0x40b229
  409eca:	8d 45 b0             	lea    eax,[ebp-0x50]
  409ecd:	50                   	push   eax
  409ece:	8d 85 60 ff ff ff    	lea    eax,[ebp-0xa0]
  409ed4:	50                   	push   eax
  409ed5:	e8 4f 13 00 00       	call   0x40b229
  409eda:	8d 85 60 ff ff ff    	lea    eax,[ebp-0xa0]
  409ee0:	50                   	push   eax
  409ee1:	8d 45 b0             	lea    eax,[ebp-0x50]
  409ee4:	50                   	push   eax
  409ee5:	e8 3f 13 00 00       	call   0x40b229
  409eea:	8d 85 10 ff ff ff    	lea    eax,[ebp-0xf0]
  409ef0:	50                   	push   eax
  409ef1:	8d 45 b0             	lea    eax,[ebp-0x50]
  409ef4:	50                   	push   eax
  409ef5:	8d 85 c0 fe ff ff    	lea    eax,[ebp-0x140]
  409efb:	50                   	push   eax
  409efc:	e8 4a 0b 00 00       	call   0x40aa4b
  409f01:	8d 85 c0 fe ff ff    	lea    eax,[ebp-0x140]
  409f07:	50                   	push   eax
  409f08:	8d 45 b0             	lea    eax,[ebp-0x50]
  409f0b:	50                   	push   eax
  409f0c:	e8 18 13 00 00       	call   0x40b229
  409f11:	8d 45 b0             	lea    eax,[ebp-0x50]
  409f14:	50                   	push   eax
  409f15:	8d 85 60 ff ff ff    	lea    eax,[ebp-0xa0]
  409f1b:	50                   	push   eax
  409f1c:	e8 08 13 00 00       	call   0x40b229
  409f21:	83 c4 44             	add    esp,0x44
  409f24:	6a 04                	push   0x4
  409f26:	5f                   	pop    edi
  409f27:	8b f7                	mov    esi,edi
  409f29:	8d 85 60 ff ff ff    	lea    eax,[ebp-0xa0]
  409f2f:	50                   	push   eax
  409f30:	8d 45 b0             	lea    eax,[ebp-0x50]
  409f33:	50                   	push   eax
  409f34:	e8 f0 12 00 00       	call   0x40b229
  409f39:	8d 45 b0             	lea    eax,[ebp-0x50]
  409f3c:	50                   	push   eax
  409f3d:	8d 85 60 ff ff ff    	lea    eax,[ebp-0xa0]
  409f43:	50                   	push   eax
  409f44:	e8 e0 12 00 00       	call   0x40b229
  409f49:	83 c4 10             	add    esp,0x10
  409f4c:	83 ee 01             	sub    esi,0x1
  409f4f:	75 d8                	jne    0x409f29
  409f51:	8d 85 c0 fe ff ff    	lea    eax,[ebp-0x140]
  409f57:	50                   	push   eax
  409f58:	8d 85 60 ff ff ff    	lea    eax,[ebp-0xa0]
  409f5e:	50                   	push   eax
  409f5f:	8d 85 10 ff ff ff    	lea    eax,[ebp-0xf0]
  409f65:	50                   	push   eax
  409f66:	e8 e0 0a 00 00       	call   0x40aa4b
  409f6b:	8d 85 10 ff ff ff    	lea    eax,[ebp-0xf0]
  409f71:	50                   	push   eax
  409f72:	8d 45 b0             	lea    eax,[ebp-0x50]
  409f75:	50                   	push   eax
  409f76:	e8 ae 12 00 00       	call   0x40b229
  409f7b:	8d 45 b0             	lea    eax,[ebp-0x50]
  409f7e:	50                   	push   eax
  409f7f:	8d 85 60 ff ff ff    	lea    eax,[ebp-0xa0]
  409f85:	50                   	push   eax
  409f86:	e8 9e 12 00 00       	call   0x40b229
  409f8b:	83 c4 1c             	add    esp,0x1c
  409f8e:	6a 09                	push   0x9
  409f90:	5e                   	pop    esi
  409f91:	8d 85 60 ff ff ff    	lea    eax,[ebp-0xa0]
  409f97:	50                   	push   eax
  409f98:	8d 45 b0             	lea    eax,[ebp-0x50]
  409f9b:	50                   	push   eax
  409f9c:	e8 88 12 00 00       	call   0x40b229
  409fa1:	8d 45 b0             	lea    eax,[ebp-0x50]
  409fa4:	50                   	push   eax
  409fa5:	8d 85 60 ff ff ff    	lea    eax,[ebp-0xa0]
  409fab:	50                   	push   eax
  409fac:	e8 78 12 00 00       	call   0x40b229
  409fb1:	83 c4 10             	add    esp,0x10
  409fb4:	83 ee 01             	sub    esi,0x1
  409fb7:	75 d8                	jne    0x409f91
  409fb9:	8d 85 10 ff ff ff    	lea    eax,[ebp-0xf0]
  409fbf:	50                   	push   eax
  409fc0:	8d 85 60 ff ff ff    	lea    eax,[ebp-0xa0]
  409fc6:	50                   	push   eax
  409fc7:	8d 45 b0             	lea    eax,[ebp-0x50]
  409fca:	50                   	push   eax
  409fcb:	e8 7b 0a 00 00       	call   0x40aa4b
  409fd0:	8d 45 b0             	lea    eax,[ebp-0x50]
  409fd3:	50                   	push   eax
  409fd4:	8d 85 60 ff ff ff    	lea    eax,[ebp-0xa0]
  409fda:	50                   	push   eax
  409fdb:	e8 49 12 00 00       	call   0x40b229
  409fe0:	8d 85 60 ff ff ff    	lea    eax,[ebp-0xa0]
  409fe6:	50                   	push   eax
  409fe7:	8d 45 b0             	lea    eax,[ebp-0x50]
  409fea:	50                   	push   eax
  409feb:	e8 39 12 00 00       	call   0x40b229
  409ff0:	83 c4 1c             	add    esp,0x1c
  409ff3:	8d 45 b0             	lea    eax,[ebp-0x50]
  409ff6:	50                   	push   eax
  409ff7:	8d 85 60 ff ff ff    	lea    eax,[ebp-0xa0]
  409ffd:	50                   	push   eax
  409ffe:	e8 26 12 00 00       	call   0x40b229
  40a003:	8d 85 60 ff ff ff    	lea    eax,[ebp-0xa0]
  40a009:	50                   	push   eax
  40a00a:	8d 45 b0             	lea    eax,[ebp-0x50]
  40a00d:	50                   	push   eax
  40a00e:	e8 16 12 00 00       	call   0x40b229
  40a013:	83 c4 10             	add    esp,0x10
  40a016:	83 ef 01             	sub    edi,0x1
  40a019:	75 d8                	jne    0x409ff3
  40a01b:	8d 85 c0 fe ff ff    	lea    eax,[ebp-0x140]
  40a021:	50                   	push   eax
  40a022:	8d 45 b0             	lea    eax,[ebp-0x50]
  40a025:	50                   	push   eax
  40a026:	8d 85 10 ff ff ff    	lea    eax,[ebp-0xf0]
  40a02c:	50                   	push   eax
  40a02d:	e8 19 0a 00 00       	call   0x40aa4b
  40a032:	8d 85 10 ff ff ff    	lea    eax,[ebp-0xf0]
  40a038:	50                   	push   eax
  40a039:	8d 45 b0             	lea    eax,[ebp-0x50]
  40a03c:	50                   	push   eax
  40a03d:	e8 e7 11 00 00       	call   0x40b229
  40a042:	8d 45 b0             	lea    eax,[ebp-0x50]
  40a045:	50                   	push   eax
  40a046:	8d 85 60 ff ff ff    	lea    eax,[ebp-0xa0]
  40a04c:	50                   	push   eax
  40a04d:	e8 d7 11 00 00       	call   0x40b229
  40a052:	83 c4 1c             	add    esp,0x1c
  40a055:	6a 18                	push   0x18
  40a057:	5e                   	pop    esi
  40a058:	8b fe                	mov    edi,esi
  40a05a:	8d 85 60 ff ff ff    	lea    eax,[ebp-0xa0]
  40a060:	50                   	push   eax
  40a061:	8d 45 b0             	lea    eax,[ebp-0x50]
  40a064:	50                   	push   eax
  40a065:	e8 bf 11 00 00       	call   0x40b229
  40a06a:	8d 45 b0             	lea    eax,[ebp-0x50]
  40a06d:	50                   	push   eax
  40a06e:	8d 85 60 ff ff ff    	lea    eax,[ebp-0xa0]
  40a074:	50                   	push   eax
  40a075:	e8 af 11 00 00       	call   0x40b229
  40a07a:	83 c4 10             	add    esp,0x10
  40a07d:	83 ef 01             	sub    edi,0x1
  40a080:	75 d8                	jne    0x40a05a
  40a082:	8d 85 10 ff ff ff    	lea    eax,[ebp-0xf0]
  40a088:	50                   	push   eax
  40a089:	8d 85 60 ff ff ff    	lea    eax,[ebp-0xa0]
  40a08f:	50                   	push   eax
  40a090:	8d 85 c0 fe ff ff    	lea    eax,[ebp-0x140]
  40a096:	50                   	push   eax
  40a097:	e8 af 09 00 00       	call   0x40aa4b
  40a09c:	8d 85 c0 fe ff ff    	lea    eax,[ebp-0x140]
  40a0a2:	50                   	push   eax
  40a0a3:	8d 85 60 ff ff ff    	lea    eax,[ebp-0xa0]
  40a0a9:	50                   	push   eax
  40a0aa:	e8 7a 11 00 00       	call   0x40b229
  40a0af:	8d 85 60 ff ff ff    	lea    eax,[ebp-0xa0]
  40a0b5:	50                   	push   eax
  40a0b6:	8d 45 b0             	lea    eax,[ebp-0x50]
  40a0b9:	50                   	push   eax
  40a0ba:	e8 6a 11 00 00       	call   0x40b229
  40a0bf:	83 c4 1c             	add    esp,0x1c
  40a0c2:	6a 31                	push   0x31
  40a0c4:	5f                   	pop    edi
  40a0c5:	8d 45 b0             	lea    eax,[ebp-0x50]
  40a0c8:	50                   	push   eax
  40a0c9:	8d 85 60 ff ff ff    	lea    eax,[ebp-0xa0]
  40a0cf:	50                   	push   eax
  40a0d0:	e8 54 11 00 00       	call   0x40b229
  40a0d5:	8d 85 60 ff ff ff    	lea    eax,[ebp-0xa0]
  40a0db:	50                   	push   eax
  40a0dc:	8d 45 b0             	lea    eax,[ebp-0x50]
  40a0df:	50                   	push   eax
  40a0e0:	e8 44 11 00 00       	call   0x40b229
  40a0e5:	83 c4 10             	add    esp,0x10
  40a0e8:	83 ef 01             	sub    edi,0x1
  40a0eb:	75 d8                	jne    0x40a0c5
  40a0ed:	8d 85 c0 fe ff ff    	lea    eax,[ebp-0x140]
  40a0f3:	50                   	push   eax
  40a0f4:	8d 45 b0             	lea    eax,[ebp-0x50]
  40a0f7:	50                   	push   eax
  40a0f8:	8d 85 60 ff ff ff    	lea    eax,[ebp-0xa0]
  40a0fe:	50                   	push   eax
  40a0ff:	e8 47 09 00 00       	call   0x40aa4b
  40a104:	8d 85 60 ff ff ff    	lea    eax,[ebp-0xa0]
  40a10a:	50                   	push   eax
  40a10b:	8d 45 b0             	lea    eax,[ebp-0x50]
  40a10e:	50                   	push   eax
  40a10f:	e8 15 11 00 00       	call   0x40b229
  40a114:	8d 45 b0             	lea    eax,[ebp-0x50]
  40a117:	50                   	push   eax
  40a118:	8d 85 60 ff ff ff    	lea    eax,[ebp-0xa0]
  40a11e:	50                   	push   eax
  40a11f:	e8 05 11 00 00       	call   0x40b229
  40a124:	83 c4 1c             	add    esp,0x1c
  40a127:	8d 85 60 ff ff ff    	lea    eax,[ebp-0xa0]
  40a12d:	50                   	push   eax
  40a12e:	8d 45 b0             	lea    eax,[ebp-0x50]
  40a131:	50                   	push   eax
  40a132:	e8 f2 10 00 00       	call   0x40b229
  40a137:	8d 45 b0             	lea    eax,[ebp-0x50]
  40a13a:	50                   	push   eax
  40a13b:	8d 85 60 ff ff ff    	lea    eax,[ebp-0xa0]
  40a141:	50                   	push   eax
  40a142:	e8 e2 10 00 00       	call   0x40b229
  40a147:	83 c4 10             	add    esp,0x10
  40a14a:	83 ee 01             	sub    esi,0x1
  40a14d:	75 d8                	jne    0x40a127
  40a14f:	8d 85 10 ff ff ff    	lea    eax,[ebp-0xf0]
  40a155:	50                   	push   eax
  40a156:	8d 85 60 ff ff ff    	lea    eax,[ebp-0xa0]
  40a15c:	50                   	push   eax
  40a15d:	8d 45 b0             	lea    eax,[ebp-0x50]
  40a160:	50                   	push   eax
  40a161:	e8 e5 08 00 00       	call   0x40aa4b
  40a166:	8d 45 b0             	lea    eax,[ebp-0x50]
  40a169:	50                   	push   eax
  40a16a:	8d 85 60 ff ff ff    	lea    eax,[ebp-0xa0]
  40a170:	50                   	push   eax
  40a171:	e8 b3 10 00 00       	call   0x40b229
  40a176:	8d 85 60 ff ff ff    	lea    eax,[ebp-0xa0]
  40a17c:	50                   	push   eax
  40a17d:	8d 45 b0             	lea    eax,[ebp-0x50]
  40a180:	50                   	push   eax
  40a181:	e8 a3 10 00 00       	call   0x40b229
  40a186:	8d 45 b0             	lea    eax,[ebp-0x50]
  40a189:	50                   	push   eax
  40a18a:	8d 85 60 ff ff ff    	lea    eax,[ebp-0xa0]
  40a190:	50                   	push   eax
  40a191:	e8 93 10 00 00       	call   0x40b229
  40a196:	8d 85 60 ff ff ff    	lea    eax,[ebp-0xa0]
  40a19c:	50                   	push   eax
  40a19d:	8d 45 b0             	lea    eax,[ebp-0x50]
  40a1a0:	50                   	push   eax
  40a1a1:	e8 83 10 00 00       	call   0x40b229
  40a1a6:	8d 45 b0             	lea    eax,[ebp-0x50]
  40a1a9:	50                   	push   eax
  40a1aa:	8d 85 60 ff ff ff    	lea    eax,[ebp-0xa0]
  40a1b0:	50                   	push   eax
  40a1b1:	e8 73 10 00 00       	call   0x40b229
  40a1b6:	8d 85 70 fe ff ff    	lea    eax,[ebp-0x190]
  40a1bc:	50                   	push   eax
  40a1bd:	8d 85 60 ff ff ff    	lea    eax,[ebp-0xa0]
  40a1c3:	50                   	push   eax
  40a1c4:	ff 75 08             	push   DWORD PTR [ebp+0x8]
  40a1c7:	e8 7f 08 00 00       	call   0x40aa4b
  40a1cc:	83 c4 40             	add    esp,0x40
  40a1cf:	5f                   	pop    edi
  40a1d0:	5e                   	pop    esi
  40a1d1:	8b e5                	mov    esp,ebp
  40a1d3:	5d                   	pop    ebp
  40a1d4:	c3                   	ret    
  40a1d5:	55                   	push   ebp
  40a1d6:	8b ec                	mov    ebp,esp
  40a1d8:	81 ec 18 01 00 00    	sub    esp,0x118
  40a1de:	6a 20                	push   0x20
  40a1e0:	ff 75 0c             	push   DWORD PTR [ebp+0xc]
  40a1e3:	8d 45 e0             	lea    eax,[ebp-0x20]
  40a1e6:	50                   	push   eax
  40a1e7:	e8 ea af ff ff       	call   0x4051d6
  40a1ec:	8a 45 ff             	mov    al,BYTE PTR [ebp-0x1]
  40a1ef:	ff 75 10             	push   DWORD PTR [ebp+0x10]
  40a1f2:	80 65 e0 f8          	and    BYTE PTR [ebp-0x20],0xf8
  40a1f6:	24 3f                	and    al,0x3f
  40a1f8:	0c 40                	or     al,0x40
  40a1fa:	88 45 ff             	mov    BYTE PTR [ebp-0x1],al
  40a1fd:	8d 45 90             	lea    eax,[ebp-0x70]
  40a200:	50                   	push   eax
  40a201:	e8 2b 03 00 00       	call   0x40a531
  40a206:	8d 45 90             	lea    eax,[ebp-0x70]
  40a209:	50                   	push   eax
  40a20a:	8d 45 e0             	lea    eax,[ebp-0x20]
  40a20d:	50                   	push   eax
  40a20e:	8d 85 38 ff ff ff    	lea    eax,[ebp-0xc8]
  40a214:	50                   	push   eax
  40a215:	8d 85 e8 fe ff ff    	lea    eax,[ebp-0x118]
  40a21b:	50                   	push   eax
  40a21c:	e8 d6 f9 ff ff       	call   0x409bf7
  40a221:	8d 85 38 ff ff ff    	lea    eax,[ebp-0xc8]
  40a227:	50                   	push   eax
  40a228:	8d 45 90             	lea    eax,[ebp-0x70]
  40a22b:	50                   	push   eax
  40a22c:	e8 d5 fb ff ff       	call   0x409e06
  40a231:	8d 45 90             	lea    eax,[ebp-0x70]
  40a234:	50                   	push   eax
  40a235:	8d 85 e8 fe ff ff    	lea    eax,[ebp-0x118]
  40a23b:	50                   	push   eax
  40a23c:	8d 85 38 ff ff ff    	lea    eax,[ebp-0xc8]
  40a242:	50                   	push   eax
  40a243:	e8 03 08 00 00       	call   0x40aa4b
  40a248:	8d 85 38 ff ff ff    	lea    eax,[ebp-0xc8]
  40a24e:	50                   	push   eax
  40a24f:	ff 75 08             	push   DWORD PTR [ebp+0x8]
  40a252:	e8 09 00 00 00       	call   0x40a260
  40a257:	83 c4 40             	add    esp,0x40
  40a25a:	33 c0                	xor    eax,eax
  40a25c:	8b e5                	mov    esp,ebp
  40a25e:	5d                   	pop    ebp
  40a25f:	c3                   	ret    
  40a260:	55                   	push   ebp
  40a261:	8b ec                	mov    ebp,esp
  40a263:	8b 55 0c             	mov    edx,DWORD PTR [ebp+0xc]
  40a266:	83 ec 40             	sub    esp,0x40
  40a269:	33 c9                	xor    ecx,ecx
  40a26b:	8b 04 ca             	mov    eax,DWORD PTR [edx+ecx*8]
  40a26e:	89 44 8d c0          	mov    DWORD PTR [ebp+ecx*4-0x40],eax
  40a272:	41                   	inc    ecx
  40a273:	83 f9 0a             	cmp    ecx,0xa
  40a276:	7c f3                	jl     0x40a26b
  40a278:	53                   	push   ebx
  40a279:	56                   	push   esi
  40a27a:	57                   	push   edi
  40a27b:	6a 02                	push   0x2
  40a27d:	5f                   	pop    edi
  40a27e:	8b f7                	mov    esi,edi
  40a280:	33 db                	xor    ebx,ebx
  40a282:	8b 4c 9d c0          	mov    ecx,DWORD PTR [ebp+ebx*4-0x40]
  40a286:	8b d1                	mov    edx,ecx
  40a288:	c1 fa 1f             	sar    edx,0x1f
  40a28b:	8b c1                	mov    eax,ecx
  40a28d:	f6 c3 01             	test   bl,0x1
  40a290:	74 0e                	je     0x40a2a0
  40a292:	c1 f8 19             	sar    eax,0x19
  40a295:	23 d0                	and    edx,eax
  40a297:	f7 da                	neg    edx
  40a299:	8b c2                	mov    eax,edx
  40a29b:	c1 e0 19             	shl    eax,0x19
  40a29e:	eb 0c                	jmp    0x40a2ac
  40a2a0:	c1 f8 1a             	sar    eax,0x1a
  40a2a3:	23 d0                	and    edx,eax
  40a2a5:	f7 da                	neg    edx
  40a2a7:	8b c2                	mov    eax,edx
  40a2a9:	c1 e0 1a             	shl    eax,0x1a
  40a2ac:	29 54 9d c4          	sub    DWORD PTR [ebp+ebx*4-0x3c],edx
  40a2b0:	03 c1                	add    eax,ecx
  40a2b2:	89 44 9d c0          	mov    DWORD PTR [ebp+ebx*4-0x40],eax
  40a2b6:	43                   	inc    ebx
  40a2b7:	83 fb 09             	cmp    ebx,0x9
  40a2ba:	7c c6                	jl     0x40a282
  40a2bc:	8b 4d e4             	mov    ecx,DWORD PTR [ebp-0x1c]
  40a2bf:	8b d1                	mov    edx,ecx
  40a2c1:	c1 fa 1f             	sar    edx,0x1f
  40a2c4:	8b c1                	mov    eax,ecx
  40a2c6:	c1 f8 19             	sar    eax,0x19
  40a2c9:	23 d0                	and    edx,eax
  40a2cb:	f7 da                	neg    edx
  40a2cd:	8b c2                	mov    eax,edx
  40a2cf:	c1 e0 19             	shl    eax,0x19
  40a2d2:	03 c8                	add    ecx,eax
  40a2d4:	6b c2 ed             	imul   eax,edx,0xffffffed
  40a2d7:	8b 55 c0             	mov    edx,DWORD PTR [ebp-0x40]
  40a2da:	89 4d e4             	mov    DWORD PTR [ebp-0x1c],ecx
  40a2dd:	03 d0                	add    edx,eax
  40a2df:	89 55 c0             	mov    DWORD PTR [ebp-0x40],edx
  40a2e2:	83 ee 01             	sub    esi,0x1
  40a2e5:	75 99                	jne    0x40a280
  40a2e7:	8b ca                	mov    ecx,edx
  40a2e9:	8b c2                	mov    eax,edx
  40a2eb:	c1 f8 1a             	sar    eax,0x1a
  40a2ee:	bb ff ff ff 01       	mov    ebx,0x1ffffff
  40a2f3:	c1 f9 1f             	sar    ecx,0x1f
  40a2f6:	23 c8                	and    ecx,eax
  40a2f8:	f7 d9                	neg    ecx
  40a2fa:	8b c1                	mov    eax,ecx
  40a2fc:	c1 e0 1a             	shl    eax,0x1a
  40a2ff:	03 d0                	add    edx,eax
  40a301:	29 4d c4             	sub    DWORD PTR [ebp-0x3c],ecx
  40a304:	89 55 c0             	mov    DWORD PTR [ebp-0x40],edx
  40a307:	33 d2                	xor    edx,edx
  40a309:	8b 44 95 c0          	mov    eax,DWORD PTR [ebp+edx*4-0x40]
  40a30d:	8b c8                	mov    ecx,eax
  40a30f:	f6 c2 01             	test   dl,0x1
  40a312:	74 07                	je     0x40a31b
  40a314:	c1 f9 19             	sar    ecx,0x19
  40a317:	23 c3                	and    eax,ebx
  40a319:	eb 08                	jmp    0x40a323
  40a31b:	c1 f9 1a             	sar    ecx,0x1a
  40a31e:	25 ff ff ff 03       	and    eax,0x3ffffff
  40a323:	01 4c 95 c4          	add    DWORD PTR [ebp+edx*4-0x3c],ecx
  40a327:	89 44 95 c0          	mov    DWORD PTR [ebp+edx*4-0x40],eax
  40a32b:	42                   	inc    edx
  40a32c:	83 fa 09             	cmp    edx,0x9
  40a32f:	7c d8                	jl     0x40a309
  40a331:	8b 45 e4             	mov    eax,DWORD PTR [ebp-0x1c]
  40a334:	8b c8                	mov    ecx,eax
  40a336:	8b 75 c0             	mov    esi,DWORD PTR [ebp-0x40]
  40a339:	23 c3                	and    eax,ebx
  40a33b:	c1 f9 19             	sar    ecx,0x19
  40a33e:	89 45 e4             	mov    DWORD PTR [ebp-0x1c],eax
  40a341:	6b c1 13             	imul   eax,ecx,0x13
  40a344:	03 f0                	add    esi,eax
  40a346:	89 75 c0             	mov    DWORD PTR [ebp-0x40],esi
  40a349:	83 ef 01             	sub    edi,0x1
  40a34c:	75 b9                	jne    0x40a307
  40a34e:	8d 96 13 00 00 fc    	lea    edx,[esi-0x3ffffed]
  40a354:	33 db                	xor    ebx,ebx
  40a356:	c1 fa 1f             	sar    edx,0x1f
  40a359:	bf ff ff ff 01       	mov    edi,0x1ffffff
  40a35e:	43                   	inc    ebx
  40a35f:	f7 d2                	not    edx
  40a361:	89 5d f8             	mov    DWORD PTR [ebp-0x8],ebx
  40a364:	89 5d fc             	mov    DWORD PTR [ebp-0x4],ebx
  40a367:	f6 c3 01             	test   bl,0x1
  40a36a:	74 03                	je     0x40a36f
  40a36c:	57                   	push   edi
  40a36d:	eb 05                	jmp    0x40a374
  40a36f:	68 ff ff ff 03       	push   0x3ffffff
  40a374:	ff 74 9d c0          	push   DWORD PTR [ebp+ebx*4-0x40]
  40a378:	e8 58 12 00 00       	call   0x40b5d5
  40a37d:	23 d0                	and    edx,eax
  40a37f:	43                   	inc    ebx
  40a380:	59                   	pop    ecx
  40a381:	59                   	pop    ecx
  40a382:	83 fb 0a             	cmp    ebx,0xa
  40a385:	7c e0                	jl     0x40a367
  40a387:	8b 5d f8             	mov    ebx,DWORD PTR [ebp-0x8]
  40a38a:	8b c2                	mov    eax,edx
  40a38c:	25 ed ff ff 03       	and    eax,0x3ffffed
  40a391:	2b f0                	sub    esi,eax
  40a393:	89 75 c0             	mov    DWORD PTR [ebp-0x40],esi
  40a396:	8b c2                	mov    eax,edx
  40a398:	f6 c3 01             	test   bl,0x1
  40a39b:	74 04                	je     0x40a3a1
  40a39d:	23 c7                	and    eax,edi
  40a39f:	eb 05                	jmp    0x40a3a6
  40a3a1:	25 ff ff ff 03       	and    eax,0x3ffffff
  40a3a6:	29 44 9d c0          	sub    DWORD PTR [ebp+ebx*4-0x40],eax
  40a3aa:	43                   	inc    ebx
  40a3ab:	83 fb 0a             	cmp    ebx,0xa
  40a3ae:	7c e6                	jl     0x40a396
  40a3b0:	8b 45 cc             	mov    eax,DWORD PTR [ebp-0x34]
  40a3b3:	c1 e0 05             	shl    eax,0x5
  40a3b6:	89 45 f8             	mov    DWORD PTR [ebp-0x8],eax
  40a3b9:	8b 45 d0             	mov    eax,DWORD PTR [ebp-0x30]
  40a3bc:	c1 e0 06             	shl    eax,0x6
  40a3bf:	89 45 fc             	mov    DWORD PTR [ebp-0x4],eax
  40a3c2:	8b 45 d8             	mov    eax,DWORD PTR [ebp-0x28]
  40a3c5:	8b 75 08             	mov    esi,DWORD PTR [ebp+0x8]
  40a3c8:	03 c0                	add    eax,eax
  40a3ca:	89 45 f4             	mov    DWORD PTR [ebp-0xc],eax
  40a3cd:	8b 45 dc             	mov    eax,DWORD PTR [ebp-0x24]
  40a3d0:	c1 e0 03             	shl    eax,0x3
  40a3d3:	89 45 f0             	mov    DWORD PTR [ebp-0x10],eax
  40a3d6:	8b 45 e0             	mov    eax,DWORD PTR [ebp-0x20]
  40a3d9:	8b 4d c0             	mov    ecx,DWORD PTR [ebp-0x40]
  40a3dc:	c1 e0 04             	shl    eax,0x4
  40a3df:	89 45 ec             	mov    DWORD PTR [ebp-0x14],eax
  40a3e2:	8b 45 e4             	mov    eax,DWORD PTR [ebp-0x1c]
  40a3e5:	c1 e0 06             	shl    eax,0x6
  40a3e8:	8b 55 c4             	mov    edx,DWORD PTR [ebp-0x3c]
  40a3eb:	89 45 e8             	mov    DWORD PTR [ebp-0x18],eax
  40a3ee:	8b c1                	mov    eax,ecx
  40a3f0:	c1 f8 08             	sar    eax,0x8
  40a3f3:	88 46 01             	mov    BYTE PTR [esi+0x1],al
  40a3f6:	8b c1                	mov    eax,ecx
  40a3f8:	8b 5d c8             	mov    ebx,DWORD PTR [ebp-0x38]
  40a3fb:	c1 f8 10             	sar    eax,0x10
  40a3fe:	88 46 02             	mov    BYTE PTR [esi+0x2],al
  40a401:	c1 e2 02             	shl    edx,0x2
  40a404:	8b c2                	mov    eax,edx
  40a406:	c1 e3 03             	shl    ebx,0x3
  40a409:	c1 f8 08             	sar    eax,0x8
  40a40c:	88 46 04             	mov    BYTE PTR [esi+0x4],al
  40a40f:	8b c2                	mov    eax,edx
  40a411:	c1 f8 10             	sar    eax,0x10
  40a414:	88 46 05             	mov    BYTE PTR [esi+0x5],al
  40a417:	8b c3                	mov    eax,ebx
  40a419:	c1 f8 08             	sar    eax,0x8
  40a41c:	88 46 07             	mov    BYTE PTR [esi+0x7],al
  40a41f:	8b c3                	mov    eax,ebx
  40a421:	c1 f8 10             	sar    eax,0x10
  40a424:	88 0e                	mov    BYTE PTR [esi],cl
  40a426:	88 46 08             	mov    BYTE PTR [esi+0x8],al
  40a429:	c1 f9 18             	sar    ecx,0x18
  40a42c:	0a ca                	or     cl,dl
  40a42e:	c1 fa 18             	sar    edx,0x18
  40a431:	88 4e 03             	mov    BYTE PTR [esi+0x3],cl
  40a434:	0a d3                	or     dl,bl
  40a436:	8b 4d f8             	mov    ecx,DWORD PTR [ebp-0x8]
  40a439:	8b c1                	mov    eax,ecx
  40a43b:	c1 f8 08             	sar    eax,0x8
  40a43e:	88 46 0a             	mov    BYTE PTR [esi+0xa],al
  40a441:	8b c1                	mov    eax,ecx
  40a443:	c1 f8 10             	sar    eax,0x10
  40a446:	88 46 0b             	mov    BYTE PTR [esi+0xb],al
  40a449:	88 56 06             	mov    BYTE PTR [esi+0x6],dl
  40a44c:	8b 55 fc             	mov    edx,DWORD PTR [ebp-0x4]
  40a44f:	8b c2                	mov    eax,edx
  40a451:	c1 f8 08             	sar    eax,0x8
  40a454:	88 46 0d             	mov    BYTE PTR [esi+0xd],al
  40a457:	8b c2                	mov    eax,edx
  40a459:	c1 fb 18             	sar    ebx,0x18
  40a45c:	0a d9                	or     bl,cl
  40a45e:	c1 f8 10             	sar    eax,0x10
  40a461:	c1 f9 18             	sar    ecx,0x18
  40a464:	0a ca                	or     cl,dl
  40a466:	88 46 0e             	mov    BYTE PTR [esi+0xe],al
  40a469:	88 4e 0c             	mov    BYTE PTR [esi+0xc],cl
  40a46c:	8b 4d d4             	mov    ecx,DWORD PTR [ebp-0x2c]
  40a46f:	8b c1                	mov    eax,ecx
  40a471:	c1 f8 08             	sar    eax,0x8
  40a474:	88 46 11             	mov    BYTE PTR [esi+0x11],al
  40a477:	8b c1                	mov    eax,ecx
  40a479:	c1 fa 18             	sar    edx,0x18
  40a47c:	c1 f8 10             	sar    eax,0x10
  40a47f:	88 56 0f             	mov    BYTE PTR [esi+0xf],dl
  40a482:	8b 55 f4             	mov    edx,DWORD PTR [ebp-0xc]
  40a485:	88 4e 10             	mov    BYTE PTR [esi+0x10],cl
  40a488:	88 5e 09             	mov    BYTE PTR [esi+0x9],bl
  40a48b:	88 46 12             	mov    BYTE PTR [esi+0x12],al
  40a48e:	c1 f9 18             	sar    ecx,0x18
  40a491:	8b c2                	mov    eax,edx
  40a493:	0a ca                	or     cl,dl
  40a495:	c1 f8 08             	sar    eax,0x8
  40a498:	88 46 14             	mov    BYTE PTR [esi+0x14],al
  40a49b:	8b c2                	mov    eax,edx
  40a49d:	c1 f8 10             	sar    eax,0x10
  40a4a0:	88 46 15             	mov    BYTE PTR [esi+0x15],al
  40a4a3:	88 4e 13             	mov    BYTE PTR [esi+0x13],cl
  40a4a6:	8b 4d f0             	mov    ecx,DWORD PTR [ebp-0x10]
  40a4a9:	8b c1                	mov    eax,ecx
  40a4ab:	c1 f8 08             	sar    eax,0x8
  40a4ae:	88 46 17             	mov    BYTE PTR [esi+0x17],al
  40a4b1:	8b c1                	mov    eax,ecx
  40a4b3:	c1 f8 10             	sar    eax,0x10
  40a4b6:	c1 fa 18             	sar    edx,0x18
  40a4b9:	0a d1                	or     dl,cl
  40a4bb:	88 46 18             	mov    BYTE PTR [esi+0x18],al
  40a4be:	88 56 16             	mov    BYTE PTR [esi+0x16],dl
  40a4c1:	8b 55 ec             	mov    edx,DWORD PTR [ebp-0x14]
  40a4c4:	8b c2                	mov    eax,edx
  40a4c6:	c1 f8 08             	sar    eax,0x8
  40a4c9:	88 46 1a             	mov    BYTE PTR [esi+0x1a],al
  40a4cc:	8b c2                	mov    eax,edx
  40a4ce:	c1 f9 18             	sar    ecx,0x18
  40a4d1:	0a ca                	or     cl,dl
  40a4d3:	c1 f8 10             	sar    eax,0x10
  40a4d6:	88 46 1b             	mov    BYTE PTR [esi+0x1b],al
  40a4d9:	88 4e 19             	mov    BYTE PTR [esi+0x19],cl
  40a4dc:	8b 4d e8             	mov    ecx,DWORD PTR [ebp-0x18]
  40a4df:	8b c1                	mov    eax,ecx
  40a4e1:	c1 f8 08             	sar    eax,0x8
  40a4e4:	88 46 1d             	mov    BYTE PTR [esi+0x1d],al
  40a4e7:	8b c1                	mov    eax,ecx
  40a4e9:	c1 fa 18             	sar    edx,0x18
  40a4ec:	0a d1                	or     dl,cl
  40a4ee:	c1 f8 10             	sar    eax,0x10
  40a4f1:	c1 f9 18             	sar    ecx,0x18
  40a4f4:	5f                   	pop    edi
  40a4f5:	88 56 1c             	mov    BYTE PTR [esi+0x1c],dl
  40a4f8:	88 46 1e             	mov    BYTE PTR [esi+0x1e],al
  40a4fb:	88 4e 1f             	mov    BYTE PTR [esi+0x1f],cl
  40a4fe:	5e                   	pop    esi
  40a4ff:	5b                   	pop    ebx
  40a500:	8b e5                	mov    esp,ebp
  40a502:	5d                   	pop    ebp
  40a503:	c3                   	ret    
  40a504:	55                   	push   ebp
  40a505:	8b ec                	mov    ebp,esp
  40a507:	8b 55 08             	mov    edx,DWORD PTR [ebp+0x8]
  40a50a:	56                   	push   esi
  40a50b:	8b 75 0c             	mov    esi,DWORD PTR [ebp+0xc]
  40a50e:	57                   	push   edi
  40a50f:	6a 0a                	push   0xa
  40a511:	2b f2                	sub    esi,edx
  40a513:	5f                   	pop    edi
  40a514:	8b 0c 16             	mov    ecx,DWORD PTR [esi+edx*1]
  40a517:	2b 0a                	sub    ecx,DWORD PTR [edx]
  40a519:	8b 44 16 04          	mov    eax,DWORD PTR [esi+edx*1+0x4]
  40a51d:	1b 42 04             	sbb    eax,DWORD PTR [edx+0x4]
  40a520:	89 0a                	mov    DWORD PTR [edx],ecx
  40a522:	8d 52 08             	lea    edx,[edx+0x8]
  40a525:	89 42 fc             	mov    DWORD PTR [edx-0x4],eax
  40a528:	83 ef 01             	sub    edi,0x1
  40a52b:	75 e7                	jne    0x40a514
  40a52d:	5f                   	pop    edi
  40a52e:	5e                   	pop    esi
  40a52f:	5d                   	pop    ebp
  40a530:	c3                   	ret    
  40a531:	55                   	push   ebp
  40a532:	8b ec                	mov    ebp,esp
  40a534:	53                   	push   ebx
  40a535:	8b 5d 0c             	mov    ebx,DWORD PTR [ebp+0xc]
  40a538:	56                   	push   esi
  40a539:	57                   	push   edi
  40a53a:	8b 7d 08             	mov    edi,DWORD PTR [ebp+0x8]
  40a53d:	0f b6 43 02          	movzx  eax,BYTE PTR [ebx+0x2]
  40a541:	99                   	cdq    
  40a542:	8b f0                	mov    esi,eax
  40a544:	8b ca                	mov    ecx,edx
  40a546:	0f b6 43 03          	movzx  eax,BYTE PTR [ebx+0x3]
  40a54a:	99                   	cdq    
  40a54b:	0f a4 c2 08          	shld   edx,eax,0x8
  40a54f:	0b ca                	or     ecx,edx
  40a551:	c1 e0 08             	shl    eax,0x8
  40a554:	0b f0                	or     esi,eax
  40a556:	0f b6 03             	movzx  eax,BYTE PTR [ebx]
  40a559:	0f a4 f1 10          	shld   ecx,esi,0x10
  40a55d:	99                   	cdq    
  40a55e:	33 c9                	xor    ecx,ecx
  40a560:	c1 e6 10             	shl    esi,0x10
  40a563:	0b f0                	or     esi,eax
  40a565:	0f b6 43 01          	movzx  eax,BYTE PTR [ebx+0x1]
  40a569:	99                   	cdq    
  40a56a:	81 e6 ff ff ff 03    	and    esi,0x3ffffff
  40a570:	0f a4 c2 08          	shld   edx,eax,0x8
  40a574:	0b ca                	or     ecx,edx
  40a576:	c1 e0 08             	shl    eax,0x8
  40a579:	0b f0                	or     esi,eax
  40a57b:	89 4f 04             	mov    DWORD PTR [edi+0x4],ecx
  40a57e:	89 37                	mov    DWORD PTR [edi],esi
  40a580:	8a 43 06             	mov    al,BYTE PTR [ebx+0x6]
  40a583:	24 07                	and    al,0x7
  40a585:	0f b6 c0             	movzx  eax,al
  40a588:	99                   	cdq    
  40a589:	8b c8                	mov    ecx,eax
  40a58b:	8b f2                	mov    esi,edx
  40a58d:	0f b6 43 05          	movzx  eax,BYTE PTR [ebx+0x5]
  40a591:	0f a4 ce 08          	shld   esi,ecx,0x8
  40a595:	99                   	cdq    
  40a596:	c1 e1 08             	shl    ecx,0x8
  40a599:	0b f2                	or     esi,edx
  40a59b:	0b c8                	or     ecx,eax
  40a59d:	0f b6 43 04          	movzx  eax,BYTE PTR [ebx+0x4]
  40a5a1:	0f a4 ce 08          	shld   esi,ecx,0x8
  40a5a5:	99                   	cdq    
  40a5a6:	c1 e1 08             	shl    ecx,0x8
  40a5a9:	0b f2                	or     esi,edx
  40a5ab:	0b c8                	or     ecx,eax
  40a5ad:	8a 43 03             	mov    al,BYTE PTR [ebx+0x3]
  40a5b0:	0f a4 ce 06          	shld   esi,ecx,0x6
  40a5b4:	c0 e8 02             	shr    al,0x2
  40a5b7:	0f b6 c0             	movzx  eax,al
  40a5ba:	99                   	cdq    
  40a5bb:	c1 e1 06             	shl    ecx,0x6
  40a5be:	0b f2                	or     esi,edx
  40a5c0:	0b c8                	or     ecx,eax
  40a5c2:	89 77 0c             	mov    DWORD PTR [edi+0xc],esi
  40a5c5:	89 4f 08             	mov    DWORD PTR [edi+0x8],ecx
  40a5c8:	8a 43 09             	mov    al,BYTE PTR [ebx+0x9]
  40a5cb:	24 1f                	and    al,0x1f
  40a5cd:	0f b6 c0             	movzx  eax,al
  40a5d0:	99                   	cdq    
  40a5d1:	8b c8                	mov    ecx,eax
  40a5d3:	8b f2                	mov    esi,edx
  40a5d5:	0f b6 43 08          	movzx  eax,BYTE PTR [ebx+0x8]
  40a5d9:	0f a4 ce 08          	shld   esi,ecx,0x8
  40a5dd:	99                   	cdq    
  40a5de:	c1 e1 08             	shl    ecx,0x8
  40a5e1:	0b f2                	or     esi,edx
  40a5e3:	0b c8                	or     ecx,eax
  40a5e5:	0f b6 43 07          	movzx  eax,BYTE PTR [ebx+0x7]
  40a5e9:	0f a4 ce 08          	shld   esi,ecx,0x8
  40a5ed:	99                   	cdq    
  40a5ee:	c1 e1 08             	shl    ecx,0x8
  40a5f1:	0b f2                	or     esi,edx
  40a5f3:	0b c8                	or     ecx,eax
  40a5f5:	8a 43 06             	mov    al,BYTE PTR [ebx+0x6]
  40a5f8:	0f a4 ce 05          	shld   esi,ecx,0x5
  40a5fc:	c1 e1 05             	shl    ecx,0x5
  40a5ff:	c0 e8 03             	shr    al,0x3
  40a602:	0f b6 c0             	movzx  eax,al
  40a605:	99                   	cdq    
  40a606:	0b c8                	or     ecx,eax
  40a608:	0b f2                	or     esi,edx
  40a60a:	89 4f 10             	mov    DWORD PTR [edi+0x10],ecx
  40a60d:	89 77 14             	mov    DWORD PTR [edi+0x14],esi
  40a610:	8a 43 0c             	mov    al,BYTE PTR [ebx+0xc]
  40a613:	24 3f                	and    al,0x3f
  40a615:	0f b6 c0             	movzx  eax,al
  40a618:	99                   	cdq    
  40a619:	8b c8                	mov    ecx,eax
  40a61b:	8b f2                	mov    esi,edx
  40a61d:	0f a4 ce 08          	shld   esi,ecx,0x8
  40a621:	0f b6 43 0b          	movzx  eax,BYTE PTR [ebx+0xb]
  40a625:	99                   	cdq    
  40a626:	0b f2                	or     esi,edx
  40a628:	c1 e1 08             	shl    ecx,0x8
  40a62b:	0b c8                	or     ecx,eax
  40a62d:	0f b6 43 0a          	movzx  eax,BYTE PTR [ebx+0xa]
  40a631:	0f a4 ce 08          	shld   esi,ecx,0x8
  40a635:	99                   	cdq    
  40a636:	0b f2                	or     esi,edx
  40a638:	c1 e1 08             	shl    ecx,0x8
  40a63b:	0b c8                	or     ecx,eax
  40a63d:	8a 43 09             	mov    al,BYTE PTR [ebx+0x9]
  40a640:	0f a4 ce 03          	shld   esi,ecx,0x3
  40a644:	c0 e8 05             	shr    al,0x5
  40a647:	0f b6 c0             	movzx  eax,al
  40a64a:	99                   	cdq    
  40a64b:	0b f2                	or     esi,edx
  40a64d:	c1 e1 03             	shl    ecx,0x3
  40a650:	0b c8                	or     ecx,eax
  40a652:	89 77 1c             	mov    DWORD PTR [edi+0x1c],esi
  40a655:	89 4f 18             	mov    DWORD PTR [edi+0x18],ecx
  40a658:	0f b6 43 0f          	movzx  eax,BYTE PTR [ebx+0xf]
  40a65c:	99                   	cdq    
  40a65d:	8b c8                	mov    ecx,eax
  40a65f:	8b f2                	mov    esi,edx
  40a661:	0f b6 43 0e          	movzx  eax,BYTE PTR [ebx+0xe]
  40a665:	0f a4 ce 08          	shld   esi,ecx,0x8
  40a669:	99                   	cdq    
  40a66a:	0b f2                	or     esi,edx
  40a66c:	c1 e1 08             	shl    ecx,0x8
  40a66f:	0b c8                	or     ecx,eax
  40a671:	0f b6 43 0d          	movzx  eax,BYTE PTR [ebx+0xd]
  40a675:	0f a4 ce 08          	shld   esi,ecx,0x8
  40a679:	99                   	cdq    
  40a67a:	0b f2                	or     esi,edx
  40a67c:	c1 e1 08             	shl    ecx,0x8
  40a67f:	0b c8                	or     ecx,eax
  40a681:	8a 43 0c             	mov    al,BYTE PTR [ebx+0xc]
  40a684:	0f a4 ce 02          	shld   esi,ecx,0x2
  40a688:	c0 e8 06             	shr    al,0x6
  40a68b:	0f b6 c0             	movzx  eax,al
  40a68e:	99                   	cdq    
  40a68f:	0b f2                	or     esi,edx
  40a691:	c1 e1 02             	shl    ecx,0x2
  40a694:	0b c8                	or     ecx,eax
  40a696:	89 77 24             	mov    DWORD PTR [edi+0x24],esi
  40a699:	89 4f 20             	mov    DWORD PTR [edi+0x20],ecx
  40a69c:	0f b6 43 13          	movzx  eax,BYTE PTR [ebx+0x13]
  40a6a0:	99                   	cdq    
  40a6a1:	8b f0                	mov    esi,eax
  40a6a3:	8b ca                	mov    ecx,edx
  40a6a5:	0f b6 43 12          	movzx  eax,BYTE PTR [ebx+0x12]
  40a6a9:	0f a4 f1 08          	shld   ecx,esi,0x8
  40a6ad:	99                   	cdq    
  40a6ae:	c1 e6 08             	shl    esi,0x8
  40a6b1:	0b ca                	or     ecx,edx
  40a6b3:	0b f0                	or     esi,eax
  40a6b5:	0f b6 43 10          	movzx  eax,BYTE PTR [ebx+0x10]
  40a6b9:	0f a4 f1 10          	shld   ecx,esi,0x10
  40a6bd:	99                   	cdq    
  40a6be:	33 c9                	xor    ecx,ecx
  40a6c0:	c1 e6 10             	shl    esi,0x10
  40a6c3:	0b f0                	or     esi,eax
  40a6c5:	0f b6 43 11          	movzx  eax,BYTE PTR [ebx+0x11]
  40a6c9:	99                   	cdq    
  40a6ca:	81 e6 ff ff ff 01    	and    esi,0x1ffffff
  40a6d0:	0f a4 c2 08          	shld   edx,eax,0x8
  40a6d4:	c1 e0 08             	shl    eax,0x8
  40a6d7:	0b f0                	or     esi,eax
  40a6d9:	0b ca                	or     ecx,edx
  40a6db:	89 77 28             	mov    DWORD PTR [edi+0x28],esi
  40a6de:	89 4f 2c             	mov    DWORD PTR [edi+0x2c],ecx
  40a6e1:	8a 43 16             	mov    al,BYTE PTR [ebx+0x16]
  40a6e4:	24 07                	and    al,0x7
  40a6e6:	0f b6 c0             	movzx  eax,al
  40a6e9:	99                   	cdq    
  40a6ea:	8b c8                	mov    ecx,eax
  40a6ec:	8b f2                	mov    esi,edx
  40a6ee:	0f a4 ce 08          	shld   esi,ecx,0x8
  40a6f2:	0f b6 43 15          	movzx  eax,BYTE PTR [ebx+0x15]
  40a6f6:	99                   	cdq    
  40a6f7:	c1 e1 08             	shl    ecx,0x8
  40a6fa:	0b f2                	or     esi,edx
  40a6fc:	0b c8                	or     ecx,eax
  40a6fe:	0f b6 43 14          	movzx  eax,BYTE PTR [ebx+0x14]
  40a702:	0f a4 ce 08          	shld   esi,ecx,0x8
  40a706:	99                   	cdq    
  40a707:	c1 e1 08             	shl    ecx,0x8
  40a70a:	0b f2                	or     esi,edx
  40a70c:	0b c8                	or     ecx,eax
  40a70e:	8a 43 13             	mov    al,BYTE PTR [ebx+0x13]
  40a711:	0f a4 ce 07          	shld   esi,ecx,0x7
  40a715:	d0 e8                	shr    al,1
  40a717:	0f b6 c0             	movzx  eax,al
  40a71a:	99                   	cdq    
  40a71b:	c1 e1 07             	shl    ecx,0x7
  40a71e:	0b f2                	or     esi,edx
  40a720:	0b c8                	or     ecx,eax
  40a722:	89 77 34             	mov    DWORD PTR [edi+0x34],esi
  40a725:	89 4f 30             	mov    DWORD PTR [edi+0x30],ecx
  40a728:	8a 43 19             	mov    al,BYTE PTR [ebx+0x19]
  40a72b:	24 0f                	and    al,0xf
  40a72d:	0f b6 c0             	movzx  eax,al
  40a730:	99                   	cdq    
  40a731:	8b c8                	mov    ecx,eax
  40a733:	8b f2                	mov    esi,edx
  40a735:	0f b6 43 18          	movzx  eax,BYTE PTR [ebx+0x18]
  40a739:	0f a4 ce 08          	shld   esi,ecx,0x8
  40a73d:	99                   	cdq    
  40a73e:	c1 e1 08             	shl    ecx,0x8
  40a741:	0b f2                	or     esi,edx
  40a743:	0b c8                	or     ecx,eax
  40a745:	0f b6 43 17          	movzx  eax,BYTE PTR [ebx+0x17]
  40a749:	0f a4 ce 08          	shld   esi,ecx,0x8
  40a74d:	99                   	cdq    
  40a74e:	c1 e1 08             	shl    ecx,0x8
  40a751:	0b f2                	or     esi,edx
  40a753:	0b c8                	or     ecx,eax
  40a755:	8a 43 16             	mov    al,BYTE PTR [ebx+0x16]
  40a758:	0f a4 ce 05          	shld   esi,ecx,0x5
  40a75c:	c0 e8 03             	shr    al,0x3
  40a75f:	0f b6 c0             	movzx  eax,al
  40a762:	99                   	cdq    
  40a763:	c1 e1 05             	shl    ecx,0x5
  40a766:	0b f2                	or     esi,edx
  40a768:	0b c8                	or     ecx,eax
  40a76a:	89 77 3c             	mov    DWORD PTR [edi+0x3c],esi
  40a76d:	89 4f 38             	mov    DWORD PTR [edi+0x38],ecx
  40a770:	8a 43 1c             	mov    al,BYTE PTR [ebx+0x1c]
  40a773:	24 3f                	and    al,0x3f
  40a775:	0f b6 c0             	movzx  eax,al
  40a778:	99                   	cdq    
  40a779:	8b c8                	mov    ecx,eax
  40a77b:	8b f2                	mov    esi,edx
  40a77d:	0f b6 43 1b          	movzx  eax,BYTE PTR [ebx+0x1b]
  40a781:	0f a4 ce 08          	shld   esi,ecx,0x8
  40a785:	99                   	cdq    
  40a786:	c1 e1 08             	shl    ecx,0x8
  40a789:	0b f2                	or     esi,edx
  40a78b:	0b c8                	or     ecx,eax
  40a78d:	0f b6 43 1a          	movzx  eax,BYTE PTR [ebx+0x1a]
  40a791:	0f a4 ce 08          	shld   esi,ecx,0x8
  40a795:	99                   	cdq    
  40a796:	c1 e1 08             	shl    ecx,0x8
  40a799:	0b f2                	or     esi,edx
  40a79b:	0b c8                	or     ecx,eax
  40a79d:	8a 43 19             	mov    al,BYTE PTR [ebx+0x19]
  40a7a0:	0f a4 ce 04          	shld   esi,ecx,0x4
  40a7a4:	c1 e1 04             	shl    ecx,0x4
  40a7a7:	c0 e8 04             	shr    al,0x4
  40a7aa:	0f b6 c0             	movzx  eax,al
  40a7ad:	99                   	cdq    
  40a7ae:	0b c8                	or     ecx,eax
  40a7b0:	0b f2                	or     esi,edx
  40a7b2:	89 4f 40             	mov    DWORD PTR [edi+0x40],ecx
  40a7b5:	89 77 44             	mov    DWORD PTR [edi+0x44],esi
  40a7b8:	8a 43 1f             	mov    al,BYTE PTR [ebx+0x1f]
  40a7bb:	24 7f                	and    al,0x7f
  40a7bd:	0f b6 c0             	movzx  eax,al
  40a7c0:	99                   	cdq    
  40a7c1:	8b c8                	mov    ecx,eax
  40a7c3:	8b f2                	mov    esi,edx
  40a7c5:	0f b6 43 1e          	movzx  eax,BYTE PTR [ebx+0x1e]
  40a7c9:	0f a4 ce 08          	shld   esi,ecx,0x8
  40a7cd:	99                   	cdq    
  40a7ce:	c1 e1 08             	shl    ecx,0x8
  40a7d1:	0b f2                	or     esi,edx
  40a7d3:	0b c8                	or     ecx,eax
  40a7d5:	0f b6 43 1d          	movzx  eax,BYTE PTR [ebx+0x1d]
  40a7d9:	0f a4 ce 08          	shld   esi,ecx,0x8
  40a7dd:	99                   	cdq    
  40a7de:	c1 e1 08             	shl    ecx,0x8
  40a7e1:	0b f2                	or     esi,edx
  40a7e3:	0b c8                	or     ecx,eax
  40a7e5:	8a 43 1c             	mov    al,BYTE PTR [ebx+0x1c]
  40a7e8:	0f a4 ce 02          	shld   esi,ecx,0x2
  40a7ec:	c0 e8 06             	shr    al,0x6
  40a7ef:	0f b6 c0             	movzx  eax,al
  40a7f2:	c1 e1 02             	shl    ecx,0x2
  40a7f5:	99                   	cdq    
  40a7f6:	0b c8                	or     ecx,eax
  40a7f8:	0b f2                	or     esi,edx
  40a7fa:	89 77 4c             	mov    DWORD PTR [edi+0x4c],esi
  40a7fd:	89 4f 48             	mov    DWORD PTR [edi+0x48],ecx
  40a800:	5f                   	pop    edi
  40a801:	5e                   	pop    esi
  40a802:	5b                   	pop    ebx
  40a803:	5d                   	pop    ebp
  40a804:	c3                   	ret    
  40a805:	55                   	push   ebp
  40a806:	8b ec                	mov    ebp,esp
  40a808:	81 ec c8 01 00 00    	sub    esp,0x1c8
  40a80e:	56                   	push   esi
  40a80f:	8b 75 18             	mov    esi,DWORD PTR [ebp+0x18]
  40a812:	57                   	push   edi
  40a813:	6a 14                	push   0x14
  40a815:	59                   	pop    ecx
  40a816:	ff 75 1c             	push   DWORD PTR [ebp+0x1c]
  40a819:	8d bd 80 fe ff ff    	lea    edi,[ebp-0x180]
  40a81f:	ff 75 18             	push   DWORD PTR [ebp+0x18]
  40a822:	f3 a5                	rep movs DWORD PTR es:[edi],DWORD PTR ds:[esi]
  40a824:	e8 70 0d 00 00       	call   0x40b599
  40a829:	8d 85 80 fe ff ff    	lea    eax,[ebp-0x180]
  40a82f:	50                   	push   eax
  40a830:	ff 75 1c             	push   DWORD PTR [ebp+0x1c]
  40a833:	e8 cc fc ff ff       	call   0x40a504
  40a838:	8b 75 20             	mov    esi,DWORD PTR [ebp+0x20]
  40a83b:	8d bd 80 fe ff ff    	lea    edi,[ebp-0x180]
  40a841:	6a 14                	push   0x14
  40a843:	59                   	pop    ecx
  40a844:	ff 75 24             	push   DWORD PTR [ebp+0x24]
  40a847:	f3 a5                	rep movs DWORD PTR es:[edi],DWORD PTR ds:[esi]
  40a849:	ff 75 20             	push   DWORD PTR [ebp+0x20]
  40a84c:	e8 48 0d 00 00       	call   0x40b599
  40a851:	8d 85 80 fe ff ff    	lea    eax,[ebp-0x180]
  40a857:	50                   	push   eax
  40a858:	ff 75 24             	push   DWORD PTR [ebp+0x24]
  40a85b:	e8 a4 fc ff ff       	call   0x40a504
  40a860:	ff 75 1c             	push   DWORD PTR [ebp+0x1c]
  40a863:	8d 85 d0 fe ff ff    	lea    eax,[ebp-0x130]
  40a869:	ff 75 20             	push   DWORD PTR [ebp+0x20]
  40a86c:	50                   	push   eax
  40a86d:	e8 25 02 00 00       	call   0x40aa97
  40a872:	ff 75 24             	push   DWORD PTR [ebp+0x24]
  40a875:	8d 85 68 ff ff ff    	lea    eax,[ebp-0x98]
  40a87b:	ff 75 18             	push   DWORD PTR [ebp+0x18]
  40a87e:	50                   	push   eax
  40a87f:	e8 13 02 00 00       	call   0x40aa97
  40a884:	8d 85 d0 fe ff ff    	lea    eax,[ebp-0x130]
  40a88a:	50                   	push   eax
  40a88b:	e8 e9 07 00 00       	call   0x40b079
  40a890:	8d 85 d0 fe ff ff    	lea    eax,[ebp-0x130]
  40a896:	50                   	push   eax
  40a897:	e8 c9 06 00 00       	call   0x40af65
  40a89c:	83 c4 40             	add    esp,0x40
  40a89f:	8d 85 68 ff ff ff    	lea    eax,[ebp-0x98]
  40a8a5:	50                   	push   eax
  40a8a6:	e8 ce 07 00 00       	call   0x40b079
  40a8ab:	8d 85 68 ff ff ff    	lea    eax,[ebp-0x98]
  40a8b1:	50                   	push   eax
  40a8b2:	e8 ae 06 00 00       	call   0x40af65
  40a8b7:	6a 14                	push   0x14
  40a8b9:	59                   	pop    ecx
  40a8ba:	8d 85 68 ff ff ff    	lea    eax,[ebp-0x98]
  40a8c0:	50                   	push   eax
  40a8c1:	8d 85 d0 fe ff ff    	lea    eax,[ebp-0x130]
  40a8c7:	8d b5 d0 fe ff ff    	lea    esi,[ebp-0x130]
  40a8cd:	8d bd 80 fe ff ff    	lea    edi,[ebp-0x180]
  40a8d3:	f3 a5                	rep movs DWORD PTR es:[edi],DWORD PTR ds:[esi]
  40a8d5:	50                   	push   eax
  40a8d6:	e8 be 0c 00 00       	call   0x40b599
  40a8db:	8d 85 80 fe ff ff    	lea    eax,[ebp-0x180]
  40a8e1:	50                   	push   eax
  40a8e2:	8d 85 68 ff ff ff    	lea    eax,[ebp-0x98]
  40a8e8:	50                   	push   eax
  40a8e9:	e8 16 fc ff ff       	call   0x40a504
  40a8ee:	8d 85 d0 fe ff ff    	lea    eax,[ebp-0x130]
  40a8f4:	50                   	push   eax
  40a8f5:	8d 85 38 fe ff ff    	lea    eax,[ebp-0x1c8]
  40a8fb:	50                   	push   eax
  40a8fc:	e8 28 09 00 00       	call   0x40b229
  40a901:	8d 85 68 ff ff ff    	lea    eax,[ebp-0x98]
  40a907:	50                   	push   eax
  40a908:	8d 85 d0 fe ff ff    	lea    eax,[ebp-0x130]
  40a90e:	50                   	push   eax
  40a90f:	e8 15 09 00 00       	call   0x40b229
  40a914:	ff 75 28             	push   DWORD PTR [ebp+0x28]
  40a917:	8d 85 d0 fe ff ff    	lea    eax,[ebp-0x130]
  40a91d:	50                   	push   eax
  40a91e:	8d 85 68 ff ff ff    	lea    eax,[ebp-0x98]
  40a924:	50                   	push   eax
  40a925:	e8 6d 01 00 00       	call   0x40aa97
  40a92a:	8d 85 68 ff ff ff    	lea    eax,[ebp-0x98]
  40a930:	50                   	push   eax
  40a931:	e8 43 07 00 00       	call   0x40b079
  40a936:	8d 85 68 ff ff ff    	lea    eax,[ebp-0x98]
  40a93c:	50                   	push   eax
  40a93d:	e8 23 06 00 00       	call   0x40af65
  40a942:	8b 7d 10             	mov    edi,DWORD PTR [ebp+0x10]
  40a945:	8d b5 38 fe ff ff    	lea    esi,[ebp-0x1c8]
  40a94b:	6a 14                	push   0x14
  40a94d:	59                   	pop    ecx
  40a94e:	f3 a5                	rep movs DWORD PTR es:[edi],DWORD PTR ds:[esi]
  40a950:	8b 7d 14             	mov    edi,DWORD PTR [ebp+0x14]
  40a953:	8d 85 38 fe ff ff    	lea    eax,[ebp-0x1c8]
  40a959:	6a 14                	push   0x14
  40a95b:	59                   	pop    ecx
  40a95c:	ff 75 18             	push   DWORD PTR [ebp+0x18]
  40a95f:	8d b5 68 ff ff ff    	lea    esi,[ebp-0x98]
  40a965:	f3 a5                	rep movs DWORD PTR es:[edi],DWORD PTR ds:[esi]
  40a967:	50                   	push   eax
  40a968:	e8 bc 08 00 00       	call   0x40b229
  40a96d:	83 c4 44             	add    esp,0x44
  40a970:	8d 85 68 ff ff ff    	lea    eax,[ebp-0x98]
  40a976:	ff 75 1c             	push   DWORD PTR [ebp+0x1c]
  40a979:	50                   	push   eax
  40a97a:	e8 aa 08 00 00       	call   0x40b229
  40a97f:	8d 85 68 ff ff ff    	lea    eax,[ebp-0x98]
  40a985:	50                   	push   eax
  40a986:	8d 85 38 fe ff ff    	lea    eax,[ebp-0x1c8]
  40a98c:	50                   	push   eax
  40a98d:	ff 75 08             	push   DWORD PTR [ebp+0x8]
  40a990:	e8 02 01 00 00       	call   0x40aa97
  40a995:	ff 75 08             	push   DWORD PTR [ebp+0x8]
  40a998:	e8 dc 06 00 00       	call   0x40b079
  40a99d:	ff 75 08             	push   DWORD PTR [ebp+0x8]
  40a9a0:	e8 c0 05 00 00       	call   0x40af65
  40a9a5:	8d 85 38 fe ff ff    	lea    eax,[ebp-0x1c8]
  40a9ab:	50                   	push   eax
  40a9ac:	8d 85 68 ff ff ff    	lea    eax,[ebp-0x98]
  40a9b2:	50                   	push   eax
  40a9b3:	e8 4c fb ff ff       	call   0x40a504
  40a9b8:	6a 48                	push   0x48
  40a9ba:	8d 85 20 ff ff ff    	lea    eax,[ebp-0xe0]
  40a9c0:	6a 00                	push   0x0
  40a9c2:	50                   	push   eax
  40a9c3:	e8 33 a8 ff ff       	call   0x4051fb
  40a9c8:	83 c4 30             	add    esp,0x30
  40a9cb:	33 f6                	xor    esi,esi
  40a9cd:	6a 00                	push   0x0
  40a9cf:	68 41 db 01 00       	push   0x1db41
  40a9d4:	ff b4 35 6c ff ff ff 	push   DWORD PTR [ebp+esi*1-0x94]
  40a9db:	ff b4 35 68 ff ff ff 	push   DWORD PTR [ebp+esi*1-0x98]
  40a9e2:	e8 09 29 00 00       	call   0x40d2f0
  40a9e7:	89 84 35 d0 fe ff ff 	mov    DWORD PTR [ebp+esi*1-0x130],eax
  40a9ee:	89 94 35 d4 fe ff ff 	mov    DWORD PTR [ebp+esi*1-0x12c],edx
  40a9f5:	83 c6 08             	add    esi,0x8
  40a9f8:	83 fe 50             	cmp    esi,0x50
  40a9fb:	72 d0                	jb     0x40a9cd
  40a9fd:	8d 85 d0 fe ff ff    	lea    eax,[ebp-0x130]
  40aa03:	50                   	push   eax
  40aa04:	e8 5c 05 00 00       	call   0x40af65
  40aa09:	8d 85 38 fe ff ff    	lea    eax,[ebp-0x1c8]
  40aa0f:	50                   	push   eax
  40aa10:	8d 85 d0 fe ff ff    	lea    eax,[ebp-0x130]
  40aa16:	50                   	push   eax
  40aa17:	e8 7d 0b 00 00       	call   0x40b599
  40aa1c:	8d 85 d0 fe ff ff    	lea    eax,[ebp-0x130]
  40aa22:	50                   	push   eax
  40aa23:	8d 85 68 ff ff ff    	lea    eax,[ebp-0x98]
  40aa29:	50                   	push   eax
  40aa2a:	ff 75 0c             	push   DWORD PTR [ebp+0xc]
  40aa2d:	e8 65 00 00 00       	call   0x40aa97
  40aa32:	ff 75 0c             	push   DWORD PTR [ebp+0xc]
  40aa35:	e8 3f 06 00 00       	call   0x40b079
  40aa3a:	ff 75 0c             	push   DWORD PTR [ebp+0xc]
  40aa3d:	e8 23 05 00 00       	call   0x40af65
  40aa42:	83 c4 20             	add    esp,0x20
  40aa45:	5f                   	pop    edi
  40aa46:	5e                   	pop    esi
  40aa47:	8b e5                	mov    esp,ebp
  40aa49:	5d                   	pop    ebp
  40aa4a:	c3                   	ret    
  40aa4b:	55                   	push   ebp
  40aa4c:	8b ec                	mov    ebp,esp
  40aa4e:	81 ec 98 00 00 00    	sub    esp,0x98
  40aa54:	8d 85 68 ff ff ff    	lea    eax,[ebp-0x98]
  40aa5a:	56                   	push   esi
  40aa5b:	57                   	push   edi
  40aa5c:	ff 75 10             	push   DWORD PTR [ebp+0x10]
  40aa5f:	ff 75 0c             	push   DWORD PTR [ebp+0xc]
  40aa62:	50                   	push   eax
  40aa63:	e8 2f 00 00 00       	call   0x40aa97
  40aa68:	8d 85 68 ff ff ff    	lea    eax,[ebp-0x98]
  40aa6e:	50                   	push   eax
  40aa6f:	e8 05 06 00 00       	call   0x40b079
  40aa74:	8d 85 68 ff ff ff    	lea    eax,[ebp-0x98]
  40aa7a:	50                   	push   eax
  40aa7b:	e8 e5 04 00 00       	call   0x40af65
  40aa80:	8b 7d 08             	mov    edi,DWORD PTR [ebp+0x8]
  40aa83:	8d b5 68 ff ff ff    	lea    esi,[ebp-0x98]
  40aa89:	83 c4 14             	add    esp,0x14
  40aa8c:	6a 14                	push   0x14
  40aa8e:	59                   	pop    ecx
  40aa8f:	f3 a5                	rep movs DWORD PTR es:[edi],DWORD PTR ds:[esi]
  40aa91:	5f                   	pop    edi
  40aa92:	5e                   	pop    esi
  40aa93:	8b e5                	mov    esp,ebp
  40aa95:	5d                   	pop    ebp
  40aa96:	c3                   	ret    
  40aa97:	55                   	push   ebp
  40aa98:	8b ec                	mov    ebp,esp
  40aa9a:	8b 4d 08             	mov    ecx,DWORD PTR [ebp+0x8]
  40aa9d:	53                   	push   ebx
  40aa9e:	8b 5d 0c             	mov    ebx,DWORD PTR [ebp+0xc]
  40aaa1:	56                   	push   esi
  40aaa2:	57                   	push   edi
  40aaa3:	8b 7d 10             	mov    edi,DWORD PTR [ebp+0x10]
  40aaa6:	8b 03                	mov    eax,DWORD PTR [ebx]
  40aaa8:	f7 2f                	imul   DWORD PTR [edi]
  40aaaa:	89 01                	mov    DWORD PTR [ecx],eax
  40aaac:	89 51 04             	mov    DWORD PTR [ecx+0x4],edx
  40aaaf:	8b 43 08             	mov    eax,DWORD PTR [ebx+0x8]
  40aab2:	f7 2f                	imul   DWORD PTR [edi]
  40aab4:	8b c8                	mov    ecx,eax
  40aab6:	8b f2                	mov    esi,edx
  40aab8:	8b 03                	mov    eax,DWORD PTR [ebx]
  40aaba:	f7 6f 08             	imul   DWORD PTR [edi+0x8]
  40aabd:	03 c8                	add    ecx,eax
  40aabf:	8b 45 08             	mov    eax,DWORD PTR [ebp+0x8]
  40aac2:	13 f2                	adc    esi,edx
  40aac4:	89 48 08             	mov    DWORD PTR [eax+0x8],ecx
  40aac7:	89 70 0c             	mov    DWORD PTR [eax+0xc],esi
  40aaca:	8b 43 08             	mov    eax,DWORD PTR [ebx+0x8]
  40aacd:	f7 6f 08             	imul   DWORD PTR [edi+0x8]
  40aad0:	8b c8                	mov    ecx,eax
  40aad2:	8b f2                	mov    esi,edx
  40aad4:	8b 03                	mov    eax,DWORD PTR [ebx]
  40aad6:	f7 6f 10             	imul   DWORD PTR [edi+0x10]
  40aad9:	0f a4 ce 01          	shld   esi,ecx,0x1
  40aadd:	03 c9                	add    ecx,ecx
  40aadf:	03 c8                	add    ecx,eax
  40aae1:	8b 43 10             	mov    eax,DWORD PTR [ebx+0x10]
  40aae4:	13 f2                	adc    esi,edx
  40aae6:	f7 2f                	imul   DWORD PTR [edi]
  40aae8:	03 c8                	add    ecx,eax
  40aaea:	8b 45 08             	mov    eax,DWORD PTR [ebp+0x8]
  40aaed:	13 f2                	adc    esi,edx
  40aaef:	89 48 10             	mov    DWORD PTR [eax+0x10],ecx
  40aaf2:	89 70 14             	mov    DWORD PTR [eax+0x14],esi
  40aaf5:	8b 03                	mov    eax,DWORD PTR [ebx]
  40aaf7:	f7 6f 18             	imul   DWORD PTR [edi+0x18]
  40aafa:	8b c8                	mov    ecx,eax
  40aafc:	8b f2                	mov    esi,edx
  40aafe:	8b 43 08             	mov    eax,DWORD PTR [ebx+0x8]
  40ab01:	f7 6f 10             	imul   DWORD PTR [edi+0x10]
  40ab04:	03 c8                	add    ecx,eax
  40ab06:	8b 43 10             	mov    eax,DWORD PTR [ebx+0x10]
  40ab09:	13 f2                	adc    esi,edx
  40ab0b:	f7 6f 08             	imul   DWORD PTR [edi+0x8]
  40ab0e:	03 c8                	add    ecx,eax
  40ab10:	8b 43 18             	mov    eax,DWORD PTR [ebx+0x18]
  40ab13:	13 f2                	adc    esi,edx
  40ab15:	f7 2f                	imul   DWORD PTR [edi]
  40ab17:	03 c8                	add    ecx,eax
  40ab19:	8b 45 08             	mov    eax,DWORD PTR [ebp+0x8]
  40ab1c:	13 f2                	adc    esi,edx
  40ab1e:	89 48 18             	mov    DWORD PTR [eax+0x18],ecx
  40ab21:	89 70 1c             	mov    DWORD PTR [eax+0x1c],esi
  40ab24:	8b 43 18             	mov    eax,DWORD PTR [ebx+0x18]
  40ab27:	f7 6f 08             	imul   DWORD PTR [edi+0x8]
  40ab2a:	8b c8                	mov    ecx,eax
  40ab2c:	8b f2                	mov    esi,edx
  40ab2e:	8b 43 08             	mov    eax,DWORD PTR [ebx+0x8]
  40ab31:	f7 6f 18             	imul   DWORD PTR [edi+0x18]
  40ab34:	03 c8                	add    ecx,eax
  40ab36:	8b 43 10             	mov    eax,DWORD PTR [ebx+0x10]
  40ab39:	13 f2                	adc    esi,edx
  40ab3b:	f7 6f 10             	imul   DWORD PTR [edi+0x10]
  40ab3e:	0f a4 ce 01          	shld   esi,ecx,0x1
  40ab42:	03 c9                	add    ecx,ecx
  40ab44:	03 c8                	add    ecx,eax
  40ab46:	8b 43 20             	mov    eax,DWORD PTR [ebx+0x20]
  40ab49:	13 f2                	adc    esi,edx
  40ab4b:	f7 2f                	imul   DWORD PTR [edi]
  40ab4d:	03 c8                	add    ecx,eax
  40ab4f:	8b 03                	mov    eax,DWORD PTR [ebx]
  40ab51:	13 f2                	adc    esi,edx
  40ab53:	f7 6f 20             	imul   DWORD PTR [edi+0x20]
  40ab56:	03 c8                	add    ecx,eax
  40ab58:	8b 45 08             	mov    eax,DWORD PTR [ebp+0x8]
  40ab5b:	13 f2                	adc    esi,edx
  40ab5d:	89 48 20             	mov    DWORD PTR [eax+0x20],ecx
  40ab60:	89 70 24             	mov    DWORD PTR [eax+0x24],esi
  40ab63:	8b 03                	mov    eax,DWORD PTR [ebx]
  40ab65:	f7 6f 28             	imul   DWORD PTR [edi+0x28]
  40ab68:	8b c8                	mov    ecx,eax
  40ab6a:	8b f2                	mov    esi,edx
  40ab6c:	8b 43 08             	mov    eax,DWORD PTR [ebx+0x8]
  40ab6f:	f7 6f 20             	imul   DWORD PTR [edi+0x20]
  40ab72:	03 c8                	add    ecx,eax
  40ab74:	8b 43 18             	mov    eax,DWORD PTR [ebx+0x18]
  40ab77:	13 f2                	adc    esi,edx
  40ab79:	f7 6f 10             	imul   DWORD PTR [edi+0x10]
  40ab7c:	03 c8                	add    ecx,eax
  40ab7e:	8b 43 20             	mov    eax,DWORD PTR [ebx+0x20]
  40ab81:	13 f2                	adc    esi,edx
  40ab83:	f7 6f 08             	imul   DWORD PTR [edi+0x8]
  40ab86:	03 c8                	add    ecx,eax
  40ab88:	8b 43 28             	mov    eax,DWORD PTR [ebx+0x28]
  40ab8b:	13 f2                	adc    esi,edx
  40ab8d:	f7 2f                	imul   DWORD PTR [edi]
  40ab8f:	03 c8                	add    ecx,eax
  40ab91:	8b 43 10             	mov    eax,DWORD PTR [ebx+0x10]
  40ab94:	13 f2                	adc    esi,edx
  40ab96:	f7 6f 18             	imul   DWORD PTR [edi+0x18]
  40ab99:	03 c8                	add    ecx,eax
  40ab9b:	8b 45 08             	mov    eax,DWORD PTR [ebp+0x8]
  40ab9e:	13 f2                	adc    esi,edx
  40aba0:	89 48 28             	mov    DWORD PTR [eax+0x28],ecx
  40aba3:	89 70 2c             	mov    DWORD PTR [eax+0x2c],esi
  40aba6:	8b 43 18             	mov    eax,DWORD PTR [ebx+0x18]
  40aba9:	f7 6f 18             	imul   DWORD PTR [edi+0x18]
  40abac:	8b c8                	mov    ecx,eax
  40abae:	8b f2                	mov    esi,edx
  40abb0:	8b 43 28             	mov    eax,DWORD PTR [ebx+0x28]
  40abb3:	f7 6f 08             	imul   DWORD PTR [edi+0x8]
  40abb6:	03 c8                	add    ecx,eax
  40abb8:	8b 43 08             	mov    eax,DWORD PTR [ebx+0x8]
  40abbb:	13 f2                	adc    esi,edx
  40abbd:	f7 6f 28             	imul   DWORD PTR [edi+0x28]
  40abc0:	03 c8                	add    ecx,eax
  40abc2:	8b 43 20             	mov    eax,DWORD PTR [ebx+0x20]
  40abc5:	13 f2                	adc    esi,edx
  40abc7:	f7 6f 10             	imul   DWORD PTR [edi+0x10]
  40abca:	0f a4 ce 01          	shld   esi,ecx,0x1
  40abce:	03 c9                	add    ecx,ecx
  40abd0:	03 c8                	add    ecx,eax
  40abd2:	8b 03                	mov    eax,DWORD PTR [ebx]
  40abd4:	13 f2                	adc    esi,edx
  40abd6:	f7 6f 30             	imul   DWORD PTR [edi+0x30]
  40abd9:	03 c8                	add    ecx,eax
  40abdb:	8b 43 30             	mov    eax,DWORD PTR [ebx+0x30]
  40abde:	13 f2                	adc    esi,edx
  40abe0:	f7 2f                	imul   DWORD PTR [edi]
  40abe2:	03 c8                	add    ecx,eax
  40abe4:	8b 43 10             	mov    eax,DWORD PTR [ebx+0x10]
  40abe7:	13 f2                	adc    esi,edx
  40abe9:	f7 6f 20             	imul   DWORD PTR [edi+0x20]
  40abec:	03 c8                	add    ecx,eax
  40abee:	8b 45 08             	mov    eax,DWORD PTR [ebp+0x8]
  40abf1:	13 f2                	adc    esi,edx
  40abf3:	89 48 30             	mov    DWORD PTR [eax+0x30],ecx
  40abf6:	89 70 34             	mov    DWORD PTR [eax+0x34],esi
  40abf9:	8b 43 18             	mov    eax,DWORD PTR [ebx+0x18]
  40abfc:	f7 6f 20             	imul   DWORD PTR [edi+0x20]
  40abff:	8b c8                	mov    ecx,eax
  40ac01:	8b f2                	mov    esi,edx
  40ac03:	8b 43 10             	mov    eax,DWORD PTR [ebx+0x10]
  40ac06:	f7 6f 28             	imul   DWORD PTR [edi+0x28]
  40ac09:	03 c8                	add    ecx,eax
  40ac0b:	8b 43 28             	mov    eax,DWORD PTR [ebx+0x28]
  40ac0e:	13 f2                	adc    esi,edx
  40ac10:	f7 6f 10             	imul   DWORD PTR [edi+0x10]
  40ac13:	03 c8                	add    ecx,eax
  40ac15:	8b 43 30             	mov    eax,DWORD PTR [ebx+0x30]
  40ac18:	13 f2                	adc    esi,edx
  40ac1a:	f7 6f 08             	imul   DWORD PTR [edi+0x8]
  40ac1d:	03 c8                	add    ecx,eax
  40ac1f:	8b 43 20             	mov    eax,DWORD PTR [ebx+0x20]
  40ac22:	13 f2                	adc    esi,edx
  40ac24:	f7 6f 18             	imul   DWORD PTR [edi+0x18]
  40ac27:	03 c8                	add    ecx,eax
  40ac29:	13 f2                	adc    esi,edx
  40ac2b:	8b 03                	mov    eax,DWORD PTR [ebx]
  40ac2d:	f7 6f 38             	imul   DWORD PTR [edi+0x38]
  40ac30:	03 c8                	add    ecx,eax
  40ac32:	8b 43 08             	mov    eax,DWORD PTR [ebx+0x8]
  40ac35:	13 f2                	adc    esi,edx
  40ac37:	f7 6f 30             	imul   DWORD PTR [edi+0x30]
  40ac3a:	03 c8                	add    ecx,eax
  40ac3c:	8b 43 38             	mov    eax,DWORD PTR [ebx+0x38]
  40ac3f:	13 f2                	adc    esi,edx
  40ac41:	f7 2f                	imul   DWORD PTR [edi]
  40ac43:	03 c8                	add    ecx,eax
  40ac45:	8b 45 08             	mov    eax,DWORD PTR [ebp+0x8]
  40ac48:	13 f2                	adc    esi,edx
  40ac4a:	89 48 38             	mov    DWORD PTR [eax+0x38],ecx
  40ac4d:	89 70 3c             	mov    DWORD PTR [eax+0x3c],esi
  40ac50:	8b 43 38             	mov    eax,DWORD PTR [ebx+0x38]
  40ac53:	f7 6f 08             	imul   DWORD PTR [edi+0x8]
  40ac56:	8b c8                	mov    ecx,eax
  40ac58:	8b f2                	mov    esi,edx
  40ac5a:	8b 43 08             	mov    eax,DWORD PTR [ebx+0x8]
  40ac5d:	f7 6f 38             	imul   DWORD PTR [edi+0x38]
  40ac60:	03 c8                	add    ecx,eax
  40ac62:	8b 43 18             	mov    eax,DWORD PTR [ebx+0x18]
  40ac65:	13 f2                	adc    esi,edx
  40ac67:	f7 6f 28             	imul   DWORD PTR [edi+0x28]
  40ac6a:	03 c8                	add    ecx,eax
  40ac6c:	8b 43 28             	mov    eax,DWORD PTR [ebx+0x28]
  40ac6f:	13 f2                	adc    esi,edx
  40ac71:	f7 6f 18             	imul   DWORD PTR [edi+0x18]
  40ac74:	03 c8                	add    ecx,eax
  40ac76:	8b 43 10             	mov    eax,DWORD PTR [ebx+0x10]
  40ac79:	13 f2                	adc    esi,edx
  40ac7b:	f7 6f 30             	imul   DWORD PTR [edi+0x30]
  40ac7e:	0f a4 ce 01          	shld   esi,ecx,0x1
  40ac82:	03 c9                	add    ecx,ecx
  40ac84:	03 c8                	add    ecx,eax
  40ac86:	8b 43 20             	mov    eax,DWORD PTR [ebx+0x20]
  40ac89:	13 f2                	adc    esi,edx
  40ac8b:	f7 6f 20             	imul   DWORD PTR [edi+0x20]
  40ac8e:	03 c8                	add    ecx,eax
  40ac90:	8b 03                	mov    eax,DWORD PTR [ebx]
  40ac92:	13 f2                	adc    esi,edx
  40ac94:	f7 6f 40             	imul   DWORD PTR [edi+0x40]
  40ac97:	03 c8                	add    ecx,eax
  40ac99:	8b 43 30             	mov    eax,DWORD PTR [ebx+0x30]
  40ac9c:	13 f2                	adc    esi,edx
  40ac9e:	f7 6f 10             	imul   DWORD PTR [edi+0x10]
  40aca1:	03 c8                	add    ecx,eax
  40aca3:	8b 43 40             	mov    eax,DWORD PTR [ebx+0x40]
  40aca6:	13 f2                	adc    esi,edx
  40aca8:	f7 2f                	imul   DWORD PTR [edi]
  40acaa:	03 c8                	add    ecx,eax
  40acac:	8b 45 08             	mov    eax,DWORD PTR [ebp+0x8]
  40acaf:	13 f2                	adc    esi,edx
  40acb1:	89 48 40             	mov    DWORD PTR [eax+0x40],ecx
  40acb4:	89 70 44             	mov    DWORD PTR [eax+0x44],esi
  40acb7:	8b 43 20             	mov    eax,DWORD PTR [ebx+0x20]
  40acba:	f7 6f 28             	imul   DWORD PTR [edi+0x28]
  40acbd:	8b c8                	mov    ecx,eax
  40acbf:	8b f2                	mov    esi,edx
  40acc1:	8b 43 40             	mov    eax,DWORD PTR [ebx+0x40]
  40acc4:	f7 6f 08             	imul   DWORD PTR [edi+0x8]
  40acc7:	03 c8                	add    ecx,eax
  40acc9:	8b 03                	mov    eax,DWORD PTR [ebx]
  40accb:	13 f2                	adc    esi,edx
  40accd:	f7 6f 48             	imul   DWORD PTR [edi+0x48]
  40acd0:	03 c8                	add    ecx,eax
  40acd2:	8b 43 48             	mov    eax,DWORD PTR [ebx+0x48]
  40acd5:	13 f2                	adc    esi,edx
  40acd7:	f7 2f                	imul   DWORD PTR [edi]
  40acd9:	03 c8                	add    ecx,eax
  40acdb:	8b 43 08             	mov    eax,DWORD PTR [ebx+0x8]
  40acde:	13 f2                	adc    esi,edx
  40ace0:	f7 6f 40             	imul   DWORD PTR [edi+0x40]
  40ace3:	03 c8                	add    ecx,eax
  40ace5:	8b 43 30             	mov    eax,DWORD PTR [ebx+0x30]
  40ace8:	13 f2                	adc    esi,edx
  40acea:	f7 6f 18             	imul   DWORD PTR [edi+0x18]
  40aced:	03 c8                	add    ecx,eax
  40acef:	8b 43 18             	mov    eax,DWORD PTR [ebx+0x18]
  40acf2:	13 f2                	adc    esi,edx
  40acf4:	f7 6f 30             	imul   DWORD PTR [edi+0x30]
  40acf7:	03 c8                	add    ecx,eax
  40acf9:	8b 43 38             	mov    eax,DWORD PTR [ebx+0x38]
  40acfc:	13 f2                	adc    esi,edx
  40acfe:	f7 6f 10             	imul   DWORD PTR [edi+0x10]
  40ad01:	03 c8                	add    ecx,eax
  40ad03:	8b 43 10             	mov    eax,DWORD PTR [ebx+0x10]
  40ad06:	13 f2                	adc    esi,edx
  40ad08:	f7 6f 38             	imul   DWORD PTR [edi+0x38]
  40ad0b:	03 c8                	add    ecx,eax
  40ad0d:	8b 43 28             	mov    eax,DWORD PTR [ebx+0x28]
  40ad10:	13 f2                	adc    esi,edx
  40ad12:	f7 6f 20             	imul   DWORD PTR [edi+0x20]
  40ad15:	03 c8                	add    ecx,eax
  40ad17:	8b 45 08             	mov    eax,DWORD PTR [ebp+0x8]
  40ad1a:	13 f2                	adc    esi,edx
  40ad1c:	89 48 48             	mov    DWORD PTR [eax+0x48],ecx
  40ad1f:	89 70 4c             	mov    DWORD PTR [eax+0x4c],esi
  40ad22:	8b 43 18             	mov    eax,DWORD PTR [ebx+0x18]
  40ad25:	f7 6f 38             	imul   DWORD PTR [edi+0x38]
  40ad28:	8b c8                	mov    ecx,eax
  40ad2a:	8b f2                	mov    esi,edx
  40ad2c:	8b 43 38             	mov    eax,DWORD PTR [ebx+0x38]
  40ad2f:	f7 6f 18             	imul   DWORD PTR [edi+0x18]
  40ad32:	03 c8                	add    ecx,eax
  40ad34:	8b 43 48             	mov    eax,DWORD PTR [ebx+0x48]
  40ad37:	13 f2                	adc    esi,edx
  40ad39:	f7 6f 08             	imul   DWORD PTR [edi+0x8]
  40ad3c:	03 c8                	add    ecx,eax
  40ad3e:	8b 43 28             	mov    eax,DWORD PTR [ebx+0x28]
  40ad41:	13 f2                	adc    esi,edx
  40ad43:	f7 6f 28             	imul   DWORD PTR [edi+0x28]
  40ad46:	03 c8                	add    ecx,eax
  40ad48:	8b 43 08             	mov    eax,DWORD PTR [ebx+0x8]
  40ad4b:	13 f2                	adc    esi,edx
  40ad4d:	f7 6f 48             	imul   DWORD PTR [edi+0x48]
  40ad50:	03 c8                	add    ecx,eax
  40ad52:	8b 43 20             	mov    eax,DWORD PTR [ebx+0x20]
  40ad55:	13 f2                	adc    esi,edx
  40ad57:	f7 6f 30             	imul   DWORD PTR [edi+0x30]
  40ad5a:	0f a4 ce 01          	shld   esi,ecx,0x1
  40ad5e:	03 c9                	add    ecx,ecx
  40ad60:	03 c8                	add    ecx,eax
  40ad62:	8b 43 30             	mov    eax,DWORD PTR [ebx+0x30]
  40ad65:	13 f2                	adc    esi,edx
  40ad67:	f7 6f 20             	imul   DWORD PTR [edi+0x20]
  40ad6a:	03 c8                	add    ecx,eax
  40ad6c:	8b 43 40             	mov    eax,DWORD PTR [ebx+0x40]
  40ad6f:	13 f2                	adc    esi,edx
  40ad71:	f7 6f 10             	imul   DWORD PTR [edi+0x10]
  40ad74:	03 c8                	add    ecx,eax
  40ad76:	8b 43 10             	mov    eax,DWORD PTR [ebx+0x10]
  40ad79:	13 f2                	adc    esi,edx
  40ad7b:	f7 6f 40             	imul   DWORD PTR [edi+0x40]
  40ad7e:	03 c8                	add    ecx,eax
  40ad80:	8b 45 08             	mov    eax,DWORD PTR [ebp+0x8]
  40ad83:	13 f2                	adc    esi,edx
  40ad85:	89 48 50             	mov    DWORD PTR [eax+0x50],ecx
  40ad88:	89 70 54             	mov    DWORD PTR [eax+0x54],esi
  40ad8b:	8b 43 18             	mov    eax,DWORD PTR [ebx+0x18]
  40ad8e:	f7 6f 40             	imul   DWORD PTR [edi+0x40]
  40ad91:	8b c8                	mov    ecx,eax
  40ad93:	8b f2                	mov    esi,edx
  40ad95:	8b 43 38             	mov    eax,DWORD PTR [ebx+0x38]
  40ad98:	f7 6f 20             	imul   DWORD PTR [edi+0x20]
  40ad9b:	03 c8                	add    ecx,eax
  40ad9d:	8b 43 40             	mov    eax,DWORD PTR [ebx+0x40]
  40ada0:	13 f2                	adc    esi,edx
  40ada2:	f7 6f 18             	imul   DWORD PTR [edi+0x18]
  40ada5:	03 c8                	add    ecx,eax
  40ada7:	8b 43 10             	mov    eax,DWORD PTR [ebx+0x10]
  40adaa:	13 f2                	adc    esi,edx
  40adac:	f7 6f 48             	imul   DWORD PTR [edi+0x48]
  40adaf:	03 c8                	add    ecx,eax
  40adb1:	8b 43 28             	mov    eax,DWORD PTR [ebx+0x28]
  40adb4:	13 f2                	adc    esi,edx
  40adb6:	f7 6f 30             	imul   DWORD PTR [edi+0x30]
  40adb9:	03 c8                	add    ecx,eax
  40adbb:	8b 43 20             	mov    eax,DWORD PTR [ebx+0x20]
  40adbe:	13 f2                	adc    esi,edx
  40adc0:	f7 6f 38             	imul   DWORD PTR [edi+0x38]
  40adc3:	03 c8                	add    ecx,eax
  40adc5:	8b 43 30             	mov    eax,DWORD PTR [ebx+0x30]
  40adc8:	13 f2                	adc    esi,edx
  40adca:	f7 6f 28             	imul   DWORD PTR [edi+0x28]
  40adcd:	03 c8                	add    ecx,eax
  40adcf:	8b 43 48             	mov    eax,DWORD PTR [ebx+0x48]
  40add2:	13 f2                	adc    esi,edx
  40add4:	f7 6f 10             	imul   DWORD PTR [edi+0x10]
  40add7:	03 c8                	add    ecx,eax
  40add9:	8b 45 08             	mov    eax,DWORD PTR [ebp+0x8]
  40addc:	13 f2                	adc    esi,edx
  40adde:	89 48 58             	mov    DWORD PTR [eax+0x58],ecx
  40ade1:	89 70 5c             	mov    DWORD PTR [eax+0x5c],esi
  40ade4:	8b 43 48             	mov    eax,DWORD PTR [ebx+0x48]
  40ade7:	f7 6f 18             	imul   DWORD PTR [edi+0x18]
  40adea:	8b c8                	mov    ecx,eax
  40adec:	8b f2                	mov    esi,edx
  40adee:	8b 43 38             	mov    eax,DWORD PTR [ebx+0x38]
  40adf1:	f7 6f 28             	imul   DWORD PTR [edi+0x28]
  40adf4:	03 c8                	add    ecx,eax
  40adf6:	8b 43 18             	mov    eax,DWORD PTR [ebx+0x18]
  40adf9:	13 f2                	adc    esi,edx
  40adfb:	f7 6f 48             	imul   DWORD PTR [edi+0x48]
  40adfe:	03 c8                	add    ecx,eax
  40ae00:	8b 43 28             	mov    eax,DWORD PTR [ebx+0x28]
  40ae03:	13 f2                	adc    esi,edx
  40ae05:	f7 6f 38             	imul   DWORD PTR [edi+0x38]
  40ae08:	03 c8                	add    ecx,eax
  40ae0a:	8b 43 40             	mov    eax,DWORD PTR [ebx+0x40]
  40ae0d:	13 f2                	adc    esi,edx
  40ae0f:	f7 6f 20             	imul   DWORD PTR [edi+0x20]
  40ae12:	0f a4 ce 01          	shld   esi,ecx,0x1
  40ae16:	03 c9                	add    ecx,ecx
  40ae18:	03 c8                	add    ecx,eax
  40ae1a:	8b 43 20             	mov    eax,DWORD PTR [ebx+0x20]
  40ae1d:	13 f2                	adc    esi,edx
  40ae1f:	f7 6f 40             	imul   DWORD PTR [edi+0x40]
  40ae22:	03 c8                	add    ecx,eax
  40ae24:	8b 43 30             	mov    eax,DWORD PTR [ebx+0x30]
  40ae27:	13 f2                	adc    esi,edx
  40ae29:	f7 6f 30             	imul   DWORD PTR [edi+0x30]
  40ae2c:	03 c8                	add    ecx,eax
  40ae2e:	8b 45 08             	mov    eax,DWORD PTR [ebp+0x8]
  40ae31:	13 f2                	adc    esi,edx
  40ae33:	89 48 60             	mov    DWORD PTR [eax+0x60],ecx
  40ae36:	89 70 64             	mov    DWORD PTR [eax+0x64],esi
  40ae39:	8b 43 20             	mov    eax,DWORD PTR [ebx+0x20]
  40ae3c:	f7 6f 48             	imul   DWORD PTR [edi+0x48]
  40ae3f:	8b c8                	mov    ecx,eax
  40ae41:	8b f2                	mov    esi,edx
  40ae43:	8b 43 30             	mov    eax,DWORD PTR [ebx+0x30]
  40ae46:	f7 6f 38             	imul   DWORD PTR [edi+0x38]
  40ae49:	03 c8                	add    ecx,eax
  40ae4b:	8b 43 48             	mov    eax,DWORD PTR [ebx+0x48]
  40ae4e:	13 f2                	adc    esi,edx
  40ae50:	f7 6f 20             	imul   DWORD PTR [edi+0x20]
  40ae53:	03 c8                	add    ecx,eax
  40ae55:	8b 43 38             	mov    eax,DWORD PTR [ebx+0x38]
  40ae58:	13 f2                	adc    esi,edx
  40ae5a:	f7 6f 30             	imul   DWORD PTR [edi+0x30]
  40ae5d:	03 c8                	add    ecx,eax
  40ae5f:	8b 43 40             	mov    eax,DWORD PTR [ebx+0x40]
  40ae62:	13 f2                	adc    esi,edx
  40ae64:	f7 6f 28             	imul   DWORD PTR [edi+0x28]
  40ae67:	03 c8                	add    ecx,eax
  40ae69:	8b 43 28             	mov    eax,DWORD PTR [ebx+0x28]
  40ae6c:	13 f2                	adc    esi,edx
  40ae6e:	f7 6f 40             	imul   DWORD PTR [edi+0x40]
  40ae71:	03 c8                	add    ecx,eax
  40ae73:	8b 45 08             	mov    eax,DWORD PTR [ebp+0x8]
  40ae76:	13 f2                	adc    esi,edx
  40ae78:	89 48 68             	mov    DWORD PTR [eax+0x68],ecx
  40ae7b:	89 70 6c             	mov    DWORD PTR [eax+0x6c],esi
  40ae7e:	8b 43 38             	mov    eax,DWORD PTR [ebx+0x38]
  40ae81:	f7 6f 38             	imul   DWORD PTR [edi+0x38]
  40ae84:	8b c8                	mov    ecx,eax
  40ae86:	8b f2                	mov    esi,edx
  40ae88:	8b 43 28             	mov    eax,DWORD PTR [ebx+0x28]
  40ae8b:	f7 6f 48             	imul   DWORD PTR [edi+0x48]
  40ae8e:	03 c8                	add    ecx,eax
  40ae90:	13 f2                	adc    esi,edx
  40ae92:	8b 43 48             	mov    eax,DWORD PTR [ebx+0x48]
  40ae95:	f7 6f 28             	imul   DWORD PTR [edi+0x28]
  40ae98:	03 c8                	add    ecx,eax
  40ae9a:	8b 43 30             	mov    eax,DWORD PTR [ebx+0x30]
  40ae9d:	13 f2                	adc    esi,edx
  40ae9f:	f7 6f 40             	imul   DWORD PTR [edi+0x40]
  40aea2:	0f a4 ce 01          	shld   esi,ecx,0x1
  40aea6:	03 c9                	add    ecx,ecx
  40aea8:	03 c8                	add    ecx,eax
  40aeaa:	8b 43 40             	mov    eax,DWORD PTR [ebx+0x40]
  40aead:	13 f2                	adc    esi,edx
  40aeaf:	f7 6f 30             	imul   DWORD PTR [edi+0x30]
  40aeb2:	03 c8                	add    ecx,eax
  40aeb4:	8b 45 08             	mov    eax,DWORD PTR [ebp+0x8]
  40aeb7:	13 f2                	adc    esi,edx
  40aeb9:	89 48 70             	mov    DWORD PTR [eax+0x70],ecx
  40aebc:	89 70 74             	mov    DWORD PTR [eax+0x74],esi
  40aebf:	8b 43 38             	mov    eax,DWORD PTR [ebx+0x38]
  40aec2:	f7 6f 40             	imul   DWORD PTR [edi+0x40]
  40aec5:	8b c8                	mov    ecx,eax
  40aec7:	8b f2                	mov    esi,edx
  40aec9:	8b 43 40             	mov    eax,DWORD PTR [ebx+0x40]
  40aecc:	f7 6f 38             	imul   DWORD PTR [edi+0x38]
  40aecf:	03 c8                	add    ecx,eax
  40aed1:	8b 43 30             	mov    eax,DWORD PTR [ebx+0x30]
  40aed4:	13 f2                	adc    esi,edx
  40aed6:	f7 6f 48             	imul   DWORD PTR [edi+0x48]
  40aed9:	03 c8                	add    ecx,eax
  40aedb:	8b 43 48             	mov    eax,DWORD PTR [ebx+0x48]
  40aede:	13 f2                	adc    esi,edx
  40aee0:	f7 6f 30             	imul   DWORD PTR [edi+0x30]
  40aee3:	03 c8                	add    ecx,eax
  40aee5:	8b 45 08             	mov    eax,DWORD PTR [ebp+0x8]
  40aee8:	13 f2                	adc    esi,edx
  40aeea:	89 48 78             	mov    DWORD PTR [eax+0x78],ecx
  40aeed:	89 70 7c             	mov    DWORD PTR [eax+0x7c],esi
  40aef0:	8b 43 48             	mov    eax,DWORD PTR [ebx+0x48]
  40aef3:	f7 6f 38             	imul   DWORD PTR [edi+0x38]
  40aef6:	8b c8                	mov    ecx,eax
  40aef8:	8b f2                	mov    esi,edx
  40aefa:	8b 43 38             	mov    eax,DWORD PTR [ebx+0x38]
  40aefd:	f7 6f 48             	imul   DWORD PTR [edi+0x48]
  40af00:	03 c8                	add    ecx,eax
  40af02:	8b 43 40             	mov    eax,DWORD PTR [ebx+0x40]
  40af05:	13 f2                	adc    esi,edx
  40af07:	f7 6f 40             	imul   DWORD PTR [edi+0x40]
  40af0a:	0f a4 ce 01          	shld   esi,ecx,0x1
  40af0e:	03 c9                	add    ecx,ecx
  40af10:	03 c8                	add    ecx,eax
  40af12:	8b 45 08             	mov    eax,DWORD PTR [ebp+0x8]
  40af15:	13 f2                	adc    esi,edx
  40af17:	89 88 80 00 00 00    	mov    DWORD PTR [eax+0x80],ecx
  40af1d:	89 b0 84 00 00 00    	mov    DWORD PTR [eax+0x84],esi
  40af23:	8b 43 48             	mov    eax,DWORD PTR [ebx+0x48]
  40af26:	f7 6f 40             	imul   DWORD PTR [edi+0x40]
  40af29:	8b c8                	mov    ecx,eax
  40af2b:	8b f2                	mov    esi,edx
  40af2d:	8b 43 40             	mov    eax,DWORD PTR [ebx+0x40]
  40af30:	f7 6f 48             	imul   DWORD PTR [edi+0x48]
  40af33:	03 c8                	add    ecx,eax
  40af35:	8b 45 08             	mov    eax,DWORD PTR [ebp+0x8]
  40af38:	13 f2                	adc    esi,edx
  40af3a:	89 88 88 00 00 00    	mov    DWORD PTR [eax+0x88],ecx
  40af40:	8b c8                	mov    ecx,eax
  40af42:	89 b1 8c 00 00 00    	mov    DWORD PTR [ecx+0x8c],esi
  40af48:	8b 43 48             	mov    eax,DWORD PTR [ebx+0x48]
  40af4b:	f7 6f 48             	imul   DWORD PTR [edi+0x48]
  40af4e:	5f                   	pop    edi
  40af4f:	0f a4 c2 01          	shld   edx,eax,0x1
  40af53:	5e                   	pop    esi
  40af54:	03 c0                	add    eax,eax
  40af56:	89 91 94 00 00 00    	mov    DWORD PTR [ecx+0x94],edx
  40af5c:	89 81 90 00 00 00    	mov    DWORD PTR [ecx+0x90],eax
  40af62:	5b                   	pop    ebx
  40af63:	5d                   	pop    ebp
  40af64:	c3                   	ret    
  40af65:	55                   	push   ebp
  40af66:	8b ec                	mov    ebp,esp
  40af68:	83 ec 0c             	sub    esp,0xc
  40af6b:	8b 45 08             	mov    eax,DWORD PTR [ebp+0x8]
  40af6e:	53                   	push   ebx
  40af6f:	56                   	push   esi
  40af70:	c7 45 f8 05 00 00 00 	mov    DWORD PTR [ebp-0x8],0x5
  40af77:	83 60 50 00          	and    DWORD PTR [eax+0x50],0x0
  40af7b:	83 60 54 00          	and    DWORD PTR [eax+0x54],0x0
  40af7f:	83 c0 08             	add    eax,0x8
  40af82:	89 45 f4             	mov    DWORD PTR [ebp-0xc],eax
  40af85:	89 45 fc             	mov    DWORD PTR [ebp-0x4],eax
  40af88:	57                   	push   edi
  40af89:	8b 78 fc             	mov    edi,DWORD PTR [eax-0x4]
  40af8c:	33 d2                	xor    edx,edx
  40af8e:	8b 58 f8             	mov    ebx,DWORD PTR [eax-0x8]
  40af91:	8b f7                	mov    esi,edi
  40af93:	c1 fe 1f             	sar    esi,0x1f
  40af96:	c1 ee 06             	shr    esi,0x6
  40af99:	03 f3                	add    esi,ebx
  40af9b:	13 d7                	adc    edx,edi
  40af9d:	0f ac d6 1a          	shrd   esi,edx,0x1a
  40afa1:	c1 fa 1a             	sar    edx,0x1a
  40afa4:	8b c6                	mov    eax,esi
  40afa6:	8b ca                	mov    ecx,edx
  40afa8:	0f a4 c1 1a          	shld   ecx,eax,0x1a
  40afac:	c1 e0 1a             	shl    eax,0x1a
  40afaf:	2b d8                	sub    ebx,eax
  40afb1:	8b 45 fc             	mov    eax,DWORD PTR [ebp-0x4]
  40afb4:	1b f9                	sbb    edi,ecx
  40afb6:	01 30                	add    DWORD PTR [eax],esi
  40afb8:	89 78 fc             	mov    DWORD PTR [eax-0x4],edi
  40afbb:	11 50 04             	adc    DWORD PTR [eax+0x4],edx
  40afbe:	33 d2                	xor    edx,edx
  40afc0:	8b 78 04             	mov    edi,DWORD PTR [eax+0x4]
  40afc3:	8b f7                	mov    esi,edi
  40afc5:	c1 fe 1f             	sar    esi,0x1f
  40afc8:	89 58 f8             	mov    DWORD PTR [eax-0x8],ebx
  40afcb:	8b 18                	mov    ebx,DWORD PTR [eax]
  40afcd:	c1 ee 07             	shr    esi,0x7
  40afd0:	03 f3                	add    esi,ebx
  40afd2:	13 d7                	adc    edx,edi
  40afd4:	0f ac d6 19          	shrd   esi,edx,0x19
  40afd8:	c1 fa 19             	sar    edx,0x19
  40afdb:	8b c6                	mov    eax,esi
  40afdd:	8b ca                	mov    ecx,edx
  40afdf:	0f a4 c1 19          	shld   ecx,eax,0x19
  40afe3:	c1 e0 19             	shl    eax,0x19
  40afe6:	2b d8                	sub    ebx,eax
  40afe8:	8b 45 fc             	mov    eax,DWORD PTR [ebp-0x4]
  40afeb:	1b f9                	sbb    edi,ecx
  40afed:	01 70 08             	add    DWORD PTR [eax+0x8],esi
  40aff0:	89 18                	mov    DWORD PTR [eax],ebx
  40aff2:	11 50 0c             	adc    DWORD PTR [eax+0xc],edx
  40aff5:	89 78 04             	mov    DWORD PTR [eax+0x4],edi
  40aff8:	83 c0 10             	add    eax,0x10
  40affb:	83 6d f8 01          	sub    DWORD PTR [ebp-0x8],0x1
  40afff:	89 45 fc             	mov    DWORD PTR [ebp-0x4],eax
  40b002:	75 85                	jne    0x40af89
  40b004:	8b 7d 08             	mov    edi,DWORD PTR [ebp+0x8]
  40b007:	8b 57 50             	mov    edx,DWORD PTR [edi+0x50]
  40b00a:	8b c2                	mov    eax,edx
  40b00c:	8b 77 54             	mov    esi,DWORD PTR [edi+0x54]
  40b00f:	8b ce                	mov    ecx,esi
  40b011:	0f a4 c1 04          	shld   ecx,eax,0x4
  40b015:	c1 e0 04             	shl    eax,0x4
  40b018:	01 07                	add    DWORD PTR [edi],eax
  40b01a:	8b c2                	mov    eax,edx
  40b01c:	11 4f 04             	adc    DWORD PTR [edi+0x4],ecx
  40b01f:	8b ce                	mov    ecx,esi
  40b021:	0f a4 c1 01          	shld   ecx,eax,0x1
  40b025:	03 c0                	add    eax,eax
  40b027:	01 07                	add    DWORD PTR [edi],eax
  40b029:	11 4f 04             	adc    DWORD PTR [edi+0x4],ecx
  40b02c:	01 17                	add    DWORD PTR [edi],edx
  40b02e:	8b 1f                	mov    ebx,DWORD PTR [edi]
  40b030:	11 77 04             	adc    DWORD PTR [edi+0x4],esi
  40b033:	33 d2                	xor    edx,edx
  40b035:	83 67 50 00          	and    DWORD PTR [edi+0x50],0x0
  40b039:	83 67 54 00          	and    DWORD PTR [edi+0x54],0x0
  40b03d:	8b 7f 04             	mov    edi,DWORD PTR [edi+0x4]
  40b040:	8b f7                	mov    esi,edi
  40b042:	c1 fe 1f             	sar    esi,0x1f
  40b045:	c1 ee 06             	shr    esi,0x6
  40b048:	03 f3                	add    esi,ebx
  40b04a:	13 d7                	adc    edx,edi
  40b04c:	0f ac d6 1a          	shrd   esi,edx,0x1a
  40b050:	c1 fa 1a             	sar    edx,0x1a
  40b053:	8b c6                	mov    eax,esi
  40b055:	8b ca                	mov    ecx,edx
  40b057:	0f a4 c1 1a          	shld   ecx,eax,0x1a
  40b05b:	c1 e0 1a             	shl    eax,0x1a
  40b05e:	2b d8                	sub    ebx,eax
  40b060:	8b 45 08             	mov    eax,DWORD PTR [ebp+0x8]
  40b063:	1b f9                	sbb    edi,ecx
  40b065:	89 18                	mov    DWORD PTR [eax],ebx
  40b067:	89 78 04             	mov    DWORD PTR [eax+0x4],edi
  40b06a:	8b 45 f4             	mov    eax,DWORD PTR [ebp-0xc]
  40b06d:	5f                   	pop    edi
  40b06e:	01 30                	add    DWORD PTR [eax],esi
  40b070:	5e                   	pop    esi
  40b071:	11 50 04             	adc    DWORD PTR [eax+0x4],edx
  40b074:	5b                   	pop    ebx
  40b075:	8b e5                	mov    esp,ebp
  40b077:	5d                   	pop    ebp
  40b078:	c3                   	ret    
  40b079:	55                   	push   ebp
  40b07a:	8b ec                	mov    ebp,esp
  40b07c:	56                   	push   esi
  40b07d:	57                   	push   edi
  40b07e:	8b 7d 08             	mov    edi,DWORD PTR [ebp+0x8]
  40b081:	8b 97 90 00 00 00    	mov    edx,DWORD PTR [edi+0x90]
  40b087:	8b c2                	mov    eax,edx
  40b089:	8b b7 94 00 00 00    	mov    esi,DWORD PTR [edi+0x94]
  40b08f:	8b ce                	mov    ecx,esi
  40b091:	0f a4 c1 04          	shld   ecx,eax,0x4
  40b095:	c1 e0 04             	shl    eax,0x4
  40b098:	01 47 40             	add    DWORD PTR [edi+0x40],eax
  40b09b:	8b c2                	mov    eax,edx
  40b09d:	11 4f 44             	adc    DWORD PTR [edi+0x44],ecx
  40b0a0:	8b ce                	mov    ecx,esi
  40b0a2:	0f a4 c1 01          	shld   ecx,eax,0x1
  40b0a6:	03 c0                	add    eax,eax
  40b0a8:	01 47 40             	add    DWORD PTR [edi+0x40],eax
  40b0ab:	11 4f 44             	adc    DWORD PTR [edi+0x44],ecx
  40b0ae:	01 57 40             	add    DWORD PTR [edi+0x40],edx
  40b0b1:	8b 97 88 00 00 00    	mov    edx,DWORD PTR [edi+0x88]
  40b0b7:	8b c2                	mov    eax,edx
  40b0b9:	11 77 44             	adc    DWORD PTR [edi+0x44],esi
  40b0bc:	8b b7 8c 00 00 00    	mov    esi,DWORD PTR [edi+0x8c]
  40b0c2:	8b ce                	mov    ecx,esi
  40b0c4:	0f a4 c1 04          	shld   ecx,eax,0x4
  40b0c8:	c1 e0 04             	shl    eax,0x4
  40b0cb:	01 47 38             	add    DWORD PTR [edi+0x38],eax
  40b0ce:	8b c2                	mov    eax,edx
  40b0d0:	11 4f 3c             	adc    DWORD PTR [edi+0x3c],ecx
  40b0d3:	8b ce                	mov    ecx,esi
  40b0d5:	0f a4 c1 01          	shld   ecx,eax,0x1
  40b0d9:	03 c0                	add    eax,eax
  40b0db:	01 47 38             	add    DWORD PTR [edi+0x38],eax
  40b0de:	11 4f 3c             	adc    DWORD PTR [edi+0x3c],ecx
  40b0e1:	01 57 38             	add    DWORD PTR [edi+0x38],edx
  40b0e4:	8b 97 80 00 00 00    	mov    edx,DWORD PTR [edi+0x80]
  40b0ea:	8b c2                	mov    eax,edx
  40b0ec:	11 77 3c             	adc    DWORD PTR [edi+0x3c],esi
  40b0ef:	8b b7 84 00 00 00    	mov    esi,DWORD PTR [edi+0x84]
  40b0f5:	8b ce                	mov    ecx,esi
  40b0f7:	0f a4 c1 04          	shld   ecx,eax,0x4
  40b0fb:	c1 e0 04             	shl    eax,0x4
  40b0fe:	01 47 30             	add    DWORD PTR [edi+0x30],eax
  40b101:	8b c2                	mov    eax,edx
  40b103:	11 4f 34             	adc    DWORD PTR [edi+0x34],ecx
  40b106:	8b ce                	mov    ecx,esi
  40b108:	0f a4 c1 01          	shld   ecx,eax,0x1
  40b10c:	03 c0                	add    eax,eax
  40b10e:	01 47 30             	add    DWORD PTR [edi+0x30],eax
  40b111:	11 4f 34             	adc    DWORD PTR [edi+0x34],ecx
  40b114:	01 57 30             	add    DWORD PTR [edi+0x30],edx
  40b117:	8b 57 78             	mov    edx,DWORD PTR [edi+0x78]
  40b11a:	8b c2                	mov    eax,edx
  40b11c:	11 77 34             	adc    DWORD PTR [edi+0x34],esi
  40b11f:	8b 77 7c             	mov    esi,DWORD PTR [edi+0x7c]
  40b122:	8b ce                	mov    ecx,esi
  40b124:	0f a4 c1 04          	shld   ecx,eax,0x4
  40b128:	c1 e0 04             	shl    eax,0x4
  40b12b:	01 47 28             	add    DWORD PTR [edi+0x28],eax
  40b12e:	8b c2                	mov    eax,edx
  40b130:	11 4f 2c             	adc    DWORD PTR [edi+0x2c],ecx
  40b133:	8b ce                	mov    ecx,esi
  40b135:	0f a4 c1 01          	shld   ecx,eax,0x1
  40b139:	03 c0                	add    eax,eax
  40b13b:	01 47 28             	add    DWORD PTR [edi+0x28],eax
  40b13e:	11 4f 2c             	adc    DWORD PTR [edi+0x2c],ecx
  40b141:	01 57 28             	add    DWORD PTR [edi+0x28],edx
  40b144:	8b 57 70             	mov    edx,DWORD PTR [edi+0x70]
  40b147:	8b c2                	mov    eax,edx
  40b149:	11 77 2c             	adc    DWORD PTR [edi+0x2c],esi
  40b14c:	8b 77 74             	mov    esi,DWORD PTR [edi+0x74]
  40b14f:	8b ce                	mov    ecx,esi
  40b151:	0f a4 c1 04          	shld   ecx,eax,0x4
  40b155:	c1 e0 04             	shl    eax,0x4
  40b158:	01 47 20             	add    DWORD PTR [edi+0x20],eax
  40b15b:	8b c2                	mov    eax,edx
  40b15d:	11 4f 24             	adc    DWORD PTR [edi+0x24],ecx
  40b160:	8b ce                	mov    ecx,esi
  40b162:	0f a4 c1 01          	shld   ecx,eax,0x1
  40b166:	03 c0                	add    eax,eax
  40b168:	01 47 20             	add    DWORD PTR [edi+0x20],eax
  40b16b:	11 4f 24             	adc    DWORD PTR [edi+0x24],ecx
  40b16e:	01 57 20             	add    DWORD PTR [edi+0x20],edx
  40b171:	8b 57 68             	mov    edx,DWORD PTR [edi+0x68]
  40b174:	8b c2                	mov    eax,edx
  40b176:	11 77 24             	adc    DWORD PTR [edi+0x24],esi
  40b179:	8b 77 6c             	mov    esi,DWORD PTR [edi+0x6c]
  40b17c:	8b ce                	mov    ecx,esi
  40b17e:	0f a4 c1 04          	shld   ecx,eax,0x4
  40b182:	c1 e0 04             	shl    eax,0x4
  40b185:	01 47 18             	add    DWORD PTR [edi+0x18],eax
  40b188:	8b c2                	mov    eax,edx
  40b18a:	11 4f 1c             	adc    DWORD PTR [edi+0x1c],ecx
  40b18d:	8b ce                	mov    ecx,esi
  40b18f:	0f a4 c1 01          	shld   ecx,eax,0x1
  40b193:	03 c0                	add    eax,eax
  40b195:	01 47 18             	add    DWORD PTR [edi+0x18],eax
  40b198:	11 4f 1c             	adc    DWORD PTR [edi+0x1c],ecx
  40b19b:	01 57 18             	add    DWORD PTR [edi+0x18],edx
  40b19e:	8b 57 60             	mov    edx,DWORD PTR [edi+0x60]
  40b1a1:	8b c2                	mov    eax,edx
  40b1a3:	11 77 1c             	adc    DWORD PTR [edi+0x1c],esi
  40b1a6:	8b 77 64             	mov    esi,DWORD PTR [edi+0x64]
  40b1a9:	8b ce                	mov    ecx,esi
  40b1ab:	0f a4 c1 04          	shld   ecx,eax,0x4
  40b1af:	c1 e0 04             	shl    eax,0x4
  40b1b2:	01 47 10             	add    DWORD PTR [edi+0x10],eax
  40b1b5:	8b c2                	mov    eax,edx
  40b1b7:	11 4f 14             	adc    DWORD PTR [edi+0x14],ecx
  40b1ba:	8b ce                	mov    ecx,esi
  40b1bc:	0f a4 c1 01          	shld   ecx,eax,0x1
  40b1c0:	03 c0                	add    eax,eax
  40b1c2:	01 47 10             	add    DWORD PTR [edi+0x10],eax
  40b1c5:	11 4f 14             	adc    DWORD PTR [edi+0x14],ecx
  40b1c8:	01 57 10             	add    DWORD PTR [edi+0x10],edx
  40b1cb:	8b 57 58             	mov    edx,DWORD PTR [edi+0x58]
  40b1ce:	8b c2                	mov    eax,edx
  40b1d0:	11 77 14             	adc    DWORD PTR [edi+0x14],esi
  40b1d3:	8b 77 5c             	mov    esi,DWORD PTR [edi+0x5c]
  40b1d6:	8b ce                	mov    ecx,esi
  40b1d8:	0f a4 c1 04          	shld   ecx,eax,0x4
  40b1dc:	c1 e0 04             	shl    eax,0x4
  40b1df:	01 47 08             	add    DWORD PTR [edi+0x8],eax
  40b1e2:	8b c2                	mov    eax,edx
  40b1e4:	11 4f 0c             	adc    DWORD PTR [edi+0xc],ecx
  40b1e7:	8b ce                	mov    ecx,esi
  40b1e9:	0f a4 c1 01          	shld   ecx,eax,0x1
  40b1ed:	03 c0                	add    eax,eax
  40b1ef:	01 47 08             	add    DWORD PTR [edi+0x8],eax
  40b1f2:	11 4f 0c             	adc    DWORD PTR [edi+0xc],ecx
  40b1f5:	01 57 08             	add    DWORD PTR [edi+0x8],edx
  40b1f8:	8b 57 50             	mov    edx,DWORD PTR [edi+0x50]
  40b1fb:	8b c2                	mov    eax,edx
  40b1fd:	11 77 0c             	adc    DWORD PTR [edi+0xc],esi
  40b200:	8b 77 54             	mov    esi,DWORD PTR [edi+0x54]
  40b203:	8b ce                	mov    ecx,esi
  40b205:	0f a4 c1 04          	shld   ecx,eax,0x4
  40b209:	c1 e0 04             	shl    eax,0x4
  40b20c:	01 07                	add    DWORD PTR [edi],eax
  40b20e:	8b c2                	mov    eax,edx
  40b210:	11 4f 04             	adc    DWORD PTR [edi+0x4],ecx
  40b213:	8b ce                	mov    ecx,esi
  40b215:	0f a4 c1 01          	shld   ecx,eax,0x1
  40b219:	03 c0                	add    eax,eax
  40b21b:	01 07                	add    DWORD PTR [edi],eax
  40b21d:	11 4f 04             	adc    DWORD PTR [edi+0x4],ecx
  40b220:	01 17                	add    DWORD PTR [edi],edx
  40b222:	11 77 04             	adc    DWORD PTR [edi+0x4],esi
  40b225:	5f                   	pop    edi
  40b226:	5e                   	pop    esi
  40b227:	5d                   	pop    ebp
  40b228:	c3                   	ret    
  40b229:	55                   	push   ebp
  40b22a:	8b ec                	mov    ebp,esp
  40b22c:	81 ec 98 00 00 00    	sub    esp,0x98
  40b232:	8d 85 68 ff ff ff    	lea    eax,[ebp-0x98]
  40b238:	56                   	push   esi
  40b239:	57                   	push   edi
  40b23a:	ff 75 0c             	push   DWORD PTR [ebp+0xc]
  40b23d:	50                   	push   eax
  40b23e:	e8 2f 00 00 00       	call   0x40b272
  40b243:	8d 85 68 ff ff ff    	lea    eax,[ebp-0x98]
  40b249:	50                   	push   eax
  40b24a:	e8 2a fe ff ff       	call   0x40b079
  40b24f:	8d 85 68 ff ff ff    	lea    eax,[ebp-0x98]
  40b255:	50                   	push   eax
  40b256:	e8 0a fd ff ff       	call   0x40af65
  40b25b:	8b 7d 08             	mov    edi,DWORD PTR [ebp+0x8]
  40b25e:	8d b5 68 ff ff ff    	lea    esi,[ebp-0x98]
  40b264:	83 c4 10             	add    esp,0x10
  40b267:	6a 14                	push   0x14
  40b269:	59                   	pop    ecx
  40b26a:	f3 a5                	rep movs DWORD PTR es:[edi],DWORD PTR ds:[esi]
  40b26c:	5f                   	pop    edi
  40b26d:	5e                   	pop    esi
  40b26e:	8b e5                	mov    esp,ebp
  40b270:	5d                   	pop    ebp
  40b271:	c3                   	ret    
  40b272:	55                   	push   ebp
  40b273:	8b ec                	mov    ebp,esp
  40b275:	53                   	push   ebx
  40b276:	8b 5d 08             	mov    ebx,DWORD PTR [ebp+0x8]
  40b279:	56                   	push   esi
  40b27a:	57                   	push   edi
  40b27b:	8b 7d 0c             	mov    edi,DWORD PTR [ebp+0xc]
  40b27e:	8b 07                	mov    eax,DWORD PTR [edi]
  40b280:	f7 e8                	imul   eax
  40b282:	89 03                	mov    DWORD PTR [ebx],eax
  40b284:	89 53 04             	mov    DWORD PTR [ebx+0x4],edx
  40b287:	8b 07                	mov    eax,DWORD PTR [edi]
  40b289:	f7 6f 08             	imul   DWORD PTR [edi+0x8]
  40b28c:	0f a4 c2 01          	shld   edx,eax,0x1
  40b290:	03 c0                	add    eax,eax
  40b292:	89 53 0c             	mov    DWORD PTR [ebx+0xc],edx
  40b295:	89 43 08             	mov    DWORD PTR [ebx+0x8],eax
  40b298:	8b 07                	mov    eax,DWORD PTR [edi]
  40b29a:	f7 6f 10             	imul   DWORD PTR [edi+0x10]
  40b29d:	8b c8                	mov    ecx,eax
  40b29f:	8b f2                	mov    esi,edx
  40b2a1:	8b 47 08             	mov    eax,DWORD PTR [edi+0x8]
  40b2a4:	f7 e8                	imul   eax
  40b2a6:	03 c8                	add    ecx,eax
  40b2a8:	13 f2                	adc    esi,edx
  40b2aa:	0f a4 ce 01          	shld   esi,ecx,0x1
  40b2ae:	89 73 14             	mov    DWORD PTR [ebx+0x14],esi
  40b2b1:	03 c9                	add    ecx,ecx
  40b2b3:	89 4b 10             	mov    DWORD PTR [ebx+0x10],ecx
  40b2b6:	8b 07                	mov    eax,DWORD PTR [edi]
  40b2b8:	f7 6f 18             	imul   DWORD PTR [edi+0x18]
  40b2bb:	8b c8                	mov    ecx,eax
  40b2bd:	8b f2                	mov    esi,edx
  40b2bf:	8b 47 08             	mov    eax,DWORD PTR [edi+0x8]
  40b2c2:	f7 6f 10             	imul   DWORD PTR [edi+0x10]
  40b2c5:	03 c8                	add    ecx,eax
  40b2c7:	13 f2                	adc    esi,edx
  40b2c9:	0f a4 ce 01          	shld   esi,ecx,0x1
  40b2cd:	89 73 1c             	mov    DWORD PTR [ebx+0x1c],esi
  40b2d0:	03 c9                	add    ecx,ecx
  40b2d2:	89 4b 18             	mov    DWORD PTR [ebx+0x18],ecx
  40b2d5:	8b 47 08             	mov    eax,DWORD PTR [edi+0x8]
  40b2d8:	f7 6f 18             	imul   DWORD PTR [edi+0x18]
  40b2db:	8b c8                	mov    ecx,eax
  40b2dd:	8b f2                	mov    esi,edx
  40b2df:	8b 07                	mov    eax,DWORD PTR [edi]
  40b2e1:	f7 6f 20             	imul   DWORD PTR [edi+0x20]
  40b2e4:	0f a4 ce 01          	shld   esi,ecx,0x1
  40b2e8:	03 c9                	add    ecx,ecx
  40b2ea:	03 c8                	add    ecx,eax
  40b2ec:	8b 47 10             	mov    eax,DWORD PTR [edi+0x10]
  40b2ef:	13 f2                	adc    esi,edx
  40b2f1:	0f a4 ce 01          	shld   esi,ecx,0x1
  40b2f5:	f7 e8                	imul   eax
  40b2f7:	03 c9                	add    ecx,ecx
  40b2f9:	03 c8                	add    ecx,eax
  40b2fb:	89 4b 20             	mov    DWORD PTR [ebx+0x20],ecx
  40b2fe:	13 f2                	adc    esi,edx
  40b300:	89 73 24             	mov    DWORD PTR [ebx+0x24],esi
  40b303:	8b 47 08             	mov    eax,DWORD PTR [edi+0x8]
  40b306:	f7 6f 20             	imul   DWORD PTR [edi+0x20]
  40b309:	8b c8                	mov    ecx,eax
  40b30b:	8b f2                	mov    esi,edx
  40b30d:	8b 47 10             	mov    eax,DWORD PTR [edi+0x10]
  40b310:	f7 6f 18             	imul   DWORD PTR [edi+0x18]
  40b313:	03 c8                	add    ecx,eax
  40b315:	8b 07                	mov    eax,DWORD PTR [edi]
  40b317:	13 f2                	adc    esi,edx
  40b319:	f7 6f 28             	imul   DWORD PTR [edi+0x28]
  40b31c:	03 c8                	add    ecx,eax
  40b31e:	13 f2                	adc    esi,edx
  40b320:	0f a4 ce 01          	shld   esi,ecx,0x1
  40b324:	03 c9                	add    ecx,ecx
  40b326:	89 73 2c             	mov    DWORD PTR [ebx+0x2c],esi
  40b329:	89 4b 28             	mov    DWORD PTR [ebx+0x28],ecx
  40b32c:	8b 47 08             	mov    eax,DWORD PTR [edi+0x8]
  40b32f:	f7 6f 28             	imul   DWORD PTR [edi+0x28]
  40b332:	8b c8                	mov    ecx,eax
  40b334:	8b f2                	mov    esi,edx
  40b336:	8b 47 10             	mov    eax,DWORD PTR [edi+0x10]
  40b339:	0f a4 ce 01          	shld   esi,ecx,0x1
  40b33d:	03 c9                	add    ecx,ecx
  40b33f:	f7 6f 20             	imul   DWORD PTR [edi+0x20]
  40b342:	03 c8                	add    ecx,eax
  40b344:	8b 47 18             	mov    eax,DWORD PTR [edi+0x18]
  40b347:	13 f2                	adc    esi,edx
  40b349:	f7 e8                	imul   eax
  40b34b:	03 c8                	add    ecx,eax
  40b34d:	8b 07                	mov    eax,DWORD PTR [edi]
  40b34f:	13 f2                	adc    esi,edx
  40b351:	f7 6f 30             	imul   DWORD PTR [edi+0x30]
  40b354:	03 c8                	add    ecx,eax
  40b356:	13 f2                	adc    esi,edx
  40b358:	0f a4 ce 01          	shld   esi,ecx,0x1
  40b35c:	89 73 34             	mov    DWORD PTR [ebx+0x34],esi
  40b35f:	03 c9                	add    ecx,ecx
  40b361:	89 4b 30             	mov    DWORD PTR [ebx+0x30],ecx
  40b364:	8b 47 18             	mov    eax,DWORD PTR [edi+0x18]
  40b367:	f7 6f 20             	imul   DWORD PTR [edi+0x20]
  40b36a:	8b c8                	mov    ecx,eax
  40b36c:	8b f2                	mov    esi,edx
  40b36e:	8b 07                	mov    eax,DWORD PTR [edi]
  40b370:	f7 6f 38             	imul   DWORD PTR [edi+0x38]
  40b373:	03 c8                	add    ecx,eax
  40b375:	8b 47 10             	mov    eax,DWORD PTR [edi+0x10]
  40b378:	13 f2                	adc    esi,edx
  40b37a:	f7 6f 28             	imul   DWORD PTR [edi+0x28]
  40b37d:	03 c8                	add    ecx,eax
  40b37f:	8b 47 08             	mov    eax,DWORD PTR [edi+0x8]
  40b382:	13 f2                	adc    esi,edx
  40b384:	f7 6f 30             	imul   DWORD PTR [edi+0x30]
  40b387:	03 c8                	add    ecx,eax
  40b389:	13 f2                	adc    esi,edx
  40b38b:	0f a4 ce 01          	shld   esi,ecx,0x1
  40b38f:	89 73 3c             	mov    DWORD PTR [ebx+0x3c],esi
  40b392:	03 c9                	add    ecx,ecx
  40b394:	89 4b 38             	mov    DWORD PTR [ebx+0x38],ecx
  40b397:	8b 47 08             	mov    eax,DWORD PTR [edi+0x8]
  40b39a:	f7 6f 38             	imul   DWORD PTR [edi+0x38]
  40b39d:	8b c8                	mov    ecx,eax
  40b39f:	8b f2                	mov    esi,edx
  40b3a1:	8b 47 18             	mov    eax,DWORD PTR [edi+0x18]
  40b3a4:	f7 6f 28             	imul   DWORD PTR [edi+0x28]
  40b3a7:	03 c8                	add    ecx,eax
  40b3a9:	8b 07                	mov    eax,DWORD PTR [edi]
  40b3ab:	13 f2                	adc    esi,edx
  40b3ad:	f7 6f 40             	imul   DWORD PTR [edi+0x40]
  40b3b0:	0f a4 ce 01          	shld   esi,ecx,0x1
  40b3b4:	03 c9                	add    ecx,ecx
  40b3b6:	03 c8                	add    ecx,eax
  40b3b8:	8b 47 10             	mov    eax,DWORD PTR [edi+0x10]
  40b3bb:	13 f2                	adc    esi,edx
  40b3bd:	f7 6f 30             	imul   DWORD PTR [edi+0x30]
  40b3c0:	03 c8                	add    ecx,eax
  40b3c2:	8b 47 20             	mov    eax,DWORD PTR [edi+0x20]
  40b3c5:	13 f2                	adc    esi,edx
  40b3c7:	f7 e8                	imul   eax
  40b3c9:	0f a4 ce 01          	shld   esi,ecx,0x1
  40b3cd:	03 c9                	add    ecx,ecx
  40b3cf:	03 c8                	add    ecx,eax
  40b3d1:	89 4b 40             	mov    DWORD PTR [ebx+0x40],ecx
  40b3d4:	13 f2                	adc    esi,edx
  40b3d6:	89 73 44             	mov    DWORD PTR [ebx+0x44],esi
  40b3d9:	8b 47 20             	mov    eax,DWORD PTR [edi+0x20]
  40b3dc:	f7 6f 28             	imul   DWORD PTR [edi+0x28]
  40b3df:	8b c8                	mov    ecx,eax
  40b3e1:	8b f2                	mov    esi,edx
  40b3e3:	8b 47 10             	mov    eax,DWORD PTR [edi+0x10]
  40b3e6:	f7 6f 38             	imul   DWORD PTR [edi+0x38]
  40b3e9:	03 c8                	add    ecx,eax
  40b3eb:	8b 47 08             	mov    eax,DWORD PTR [edi+0x8]
  40b3ee:	13 f2                	adc    esi,edx
  40b3f0:	f7 6f 40             	imul   DWORD PTR [edi+0x40]
  40b3f3:	03 c8                	add    ecx,eax
  40b3f5:	8b 47 18             	mov    eax,DWORD PTR [edi+0x18]
  40b3f8:	13 f2                	adc    esi,edx
  40b3fa:	f7 6f 30             	imul   DWORD PTR [edi+0x30]
  40b3fd:	03 c8                	add    ecx,eax
  40b3ff:	8b 07                	mov    eax,DWORD PTR [edi]
  40b401:	13 f2                	adc    esi,edx
  40b403:	f7 6f 48             	imul   DWORD PTR [edi+0x48]
  40b406:	03 c8                	add    ecx,eax
  40b408:	13 f2                	adc    esi,edx
  40b40a:	0f a4 ce 01          	shld   esi,ecx,0x1
  40b40e:	89 73 4c             	mov    DWORD PTR [ebx+0x4c],esi
  40b411:	03 c9                	add    ecx,ecx
  40b413:	89 4b 48             	mov    DWORD PTR [ebx+0x48],ecx
  40b416:	8b 47 18             	mov    eax,DWORD PTR [edi+0x18]
  40b419:	f7 6f 38             	imul   DWORD PTR [edi+0x38]
  40b41c:	8b c8                	mov    ecx,eax
  40b41e:	8b f2                	mov    esi,edx
  40b420:	8b 47 08             	mov    eax,DWORD PTR [edi+0x8]
  40b423:	f7 6f 48             	imul   DWORD PTR [edi+0x48]
  40b426:	03 c8                	add    ecx,eax
  40b428:	8b 47 20             	mov    eax,DWORD PTR [edi+0x20]
  40b42b:	13 f2                	adc    esi,edx
  40b42d:	f7 6f 30             	imul   DWORD PTR [edi+0x30]
  40b430:	0f a4 ce 01          	shld   esi,ecx,0x1
  40b434:	03 c9                	add    ecx,ecx
  40b436:	03 c8                	add    ecx,eax
  40b438:	8b 47 10             	mov    eax,DWORD PTR [edi+0x10]
  40b43b:	13 f2                	adc    esi,edx
  40b43d:	f7 6f 40             	imul   DWORD PTR [edi+0x40]
  40b440:	03 c8                	add    ecx,eax
  40b442:	8b 47 28             	mov    eax,DWORD PTR [edi+0x28]
  40b445:	13 f2                	adc    esi,edx
  40b447:	f7 e8                	imul   eax
  40b449:	03 c8                	add    ecx,eax
  40b44b:	13 f2                	adc    esi,edx
  40b44d:	0f a4 ce 01          	shld   esi,ecx,0x1
  40b451:	89 73 54             	mov    DWORD PTR [ebx+0x54],esi
  40b454:	03 c9                	add    ecx,ecx
  40b456:	89 4b 50             	mov    DWORD PTR [ebx+0x50],ecx
  40b459:	8b 47 18             	mov    eax,DWORD PTR [edi+0x18]
  40b45c:	f7 6f 40             	imul   DWORD PTR [edi+0x40]
  40b45f:	8b c8                	mov    ecx,eax
  40b461:	8b f2                	mov    esi,edx
  40b463:	8b 47 20             	mov    eax,DWORD PTR [edi+0x20]
  40b466:	f7 6f 38             	imul   DWORD PTR [edi+0x38]
  40b469:	03 c8                	add    ecx,eax
  40b46b:	8b 47 28             	mov    eax,DWORD PTR [edi+0x28]
  40b46e:	13 f2                	adc    esi,edx
  40b470:	f7 6f 30             	imul   DWORD PTR [edi+0x30]
  40b473:	03 c8                	add    ecx,eax
  40b475:	8b 47 10             	mov    eax,DWORD PTR [edi+0x10]
  40b478:	13 f2                	adc    esi,edx
  40b47a:	f7 6f 48             	imul   DWORD PTR [edi+0x48]
  40b47d:	03 c8                	add    ecx,eax
  40b47f:	13 f2                	adc    esi,edx
  40b481:	0f a4 ce 01          	shld   esi,ecx,0x1
  40b485:	89 73 5c             	mov    DWORD PTR [ebx+0x5c],esi
  40b488:	03 c9                	add    ecx,ecx
  40b48a:	89 4b 58             	mov    DWORD PTR [ebx+0x58],ecx
  40b48d:	8b 47 28             	mov    eax,DWORD PTR [edi+0x28]
  40b490:	f7 6f 38             	imul   DWORD PTR [edi+0x38]
  40b493:	8b c8                	mov    ecx,eax
  40b495:	8b f2                	mov    esi,edx
  40b497:	8b 47 18             	mov    eax,DWORD PTR [edi+0x18]
  40b49a:	f7 6f 48             	imul   DWORD PTR [edi+0x48]
  40b49d:	03 c8                	add    ecx,eax
  40b49f:	8b 47 20             	mov    eax,DWORD PTR [edi+0x20]
  40b4a2:	13 f2                	adc    esi,edx
  40b4a4:	f7 6f 40             	imul   DWORD PTR [edi+0x40]
  40b4a7:	0f a4 ce 01          	shld   esi,ecx,0x1
  40b4ab:	03 c9                	add    ecx,ecx
  40b4ad:	03 c8                	add    ecx,eax
  40b4af:	8b 47 30             	mov    eax,DWORD PTR [edi+0x30]
  40b4b2:	13 f2                	adc    esi,edx
  40b4b4:	f7 e8                	imul   eax
  40b4b6:	0f a4 ce 01          	shld   esi,ecx,0x1
  40b4ba:	03 c9                	add    ecx,ecx
  40b4bc:	03 c8                	add    ecx,eax
  40b4be:	89 4b 60             	mov    DWORD PTR [ebx+0x60],ecx
  40b4c1:	13 f2                	adc    esi,edx
  40b4c3:	89 73 64             	mov    DWORD PTR [ebx+0x64],esi
  40b4c6:	8b 47 20             	mov    eax,DWORD PTR [edi+0x20]
  40b4c9:	f7 6f 48             	imul   DWORD PTR [edi+0x48]
  40b4cc:	8b c8                	mov    ecx,eax
  40b4ce:	8b f2                	mov    esi,edx
  40b4d0:	8b 47 28             	mov    eax,DWORD PTR [edi+0x28]
  40b4d3:	f7 6f 40             	imul   DWORD PTR [edi+0x40]
  40b4d6:	03 c8                	add    ecx,eax
  40b4d8:	8b 47 30             	mov    eax,DWORD PTR [edi+0x30]
  40b4db:	13 f2                	adc    esi,edx
  40b4dd:	f7 6f 38             	imul   DWORD PTR [edi+0x38]
  40b4e0:	03 c8                	add    ecx,eax
  40b4e2:	13 f2                	adc    esi,edx
  40b4e4:	0f a4 ce 01          	shld   esi,ecx,0x1
  40b4e8:	89 73 6c             	mov    DWORD PTR [ebx+0x6c],esi
  40b4eb:	03 c9                	add    ecx,ecx
  40b4ed:	89 4b 68             	mov    DWORD PTR [ebx+0x68],ecx
  40b4f0:	8b 47 28             	mov    eax,DWORD PTR [edi+0x28]
  40b4f3:	f7 6f 48             	imul   DWORD PTR [edi+0x48]
  40b4f6:	8b c8                	mov    ecx,eax
  40b4f8:	8b f2                	mov    esi,edx
  40b4fa:	8b 47 38             	mov    eax,DWORD PTR [edi+0x38]
  40b4fd:	f7 e8                	imul   eax
  40b4ff:	0f a4 ce 01          	shld   esi,ecx,0x1
  40b503:	03 c9                	add    ecx,ecx
  40b505:	03 c8                	add    ecx,eax
  40b507:	8b 47 30             	mov    eax,DWORD PTR [edi+0x30]
  40b50a:	13 f2                	adc    esi,edx
  40b50c:	f7 6f 40             	imul   DWORD PTR [edi+0x40]
  40b50f:	03 c8                	add    ecx,eax
  40b511:	13 f2                	adc    esi,edx
  40b513:	0f a4 ce 01          	shld   esi,ecx,0x1
  40b517:	89 73 74             	mov    DWORD PTR [ebx+0x74],esi
  40b51a:	03 c9                	add    ecx,ecx
  40b51c:	89 4b 70             	mov    DWORD PTR [ebx+0x70],ecx
  40b51f:	8b 47 30             	mov    eax,DWORD PTR [edi+0x30]
  40b522:	f7 6f 48             	imul   DWORD PTR [edi+0x48]
  40b525:	8b c8                	mov    ecx,eax
  40b527:	8b f2                	mov    esi,edx
  40b529:	8b 47 38             	mov    eax,DWORD PTR [edi+0x38]
  40b52c:	f7 6f 40             	imul   DWORD PTR [edi+0x40]
  40b52f:	03 c8                	add    ecx,eax
  40b531:	13 f2                	adc    esi,edx
  40b533:	0f a4 ce 01          	shld   esi,ecx,0x1
  40b537:	89 73 7c             	mov    DWORD PTR [ebx+0x7c],esi
  40b53a:	03 c9                	add    ecx,ecx
  40b53c:	89 4b 78             	mov    DWORD PTR [ebx+0x78],ecx
  40b53f:	8b 47 38             	mov    eax,DWORD PTR [edi+0x38]
  40b542:	f7 6f 48             	imul   DWORD PTR [edi+0x48]
  40b545:	8b c8                	mov    ecx,eax
  40b547:	8b f2                	mov    esi,edx
  40b549:	8b 47 40             	mov    eax,DWORD PTR [edi+0x40]
  40b54c:	f7 e8                	imul   eax
  40b54e:	0f a4 ce 02          	shld   esi,ecx,0x2
  40b552:	c1 e1 02             	shl    ecx,0x2
  40b555:	03 c8                	add    ecx,eax
  40b557:	89 8b 80 00 00 00    	mov    DWORD PTR [ebx+0x80],ecx
  40b55d:	13 f2                	adc    esi,edx
  40b55f:	89 b3 84 00 00 00    	mov    DWORD PTR [ebx+0x84],esi
  40b565:	8b 47 40             	mov    eax,DWORD PTR [edi+0x40]
  40b568:	f7 6f 48             	imul   DWORD PTR [edi+0x48]
  40b56b:	0f a4 c2 01          	shld   edx,eax,0x1
  40b56f:	03 c0                	add    eax,eax
  40b571:	89 93 8c 00 00 00    	mov    DWORD PTR [ebx+0x8c],edx
  40b577:	89 83 88 00 00 00    	mov    DWORD PTR [ebx+0x88],eax
  40b57d:	8b 47 48             	mov    eax,DWORD PTR [edi+0x48]
  40b580:	f7 e8                	imul   eax
  40b582:	5f                   	pop    edi
  40b583:	0f a4 c2 01          	shld   edx,eax,0x1
  40b587:	5e                   	pop    esi
  40b588:	03 c0                	add    eax,eax
  40b58a:	89 93 94 00 00 00    	mov    DWORD PTR [ebx+0x94],edx
  40b590:	89 83 90 00 00 00    	mov    DWORD PTR [ebx+0x90],eax
  40b596:	5b                   	pop    ebx
  40b597:	5d                   	pop    ebp
  40b598:	c3                   	ret    
  40b599:	55                   	push   ebp
  40b59a:	8b ec                	mov    ebp,esp
  40b59c:	8b 45 08             	mov    eax,DWORD PTR [ebp+0x8]
  40b59f:	56                   	push   esi
  40b5a0:	57                   	push   edi
  40b5a1:	8b 7d 0c             	mov    edi,DWORD PTR [ebp+0xc]
  40b5a4:	33 f6                	xor    esi,esi
  40b5a6:	8b d7                	mov    edx,edi
  40b5a8:	8d 48 08             	lea    ecx,[eax+0x8]
  40b5ab:	2b d0                	sub    edx,eax
  40b5ad:	8b 04 f7             	mov    eax,DWORD PTR [edi+esi*8]
  40b5b0:	01 41 f8             	add    DWORD PTR [ecx-0x8],eax
  40b5b3:	8b 44 f7 04          	mov    eax,DWORD PTR [edi+esi*8+0x4]
  40b5b7:	11 41 fc             	adc    DWORD PTR [ecx-0x4],eax
  40b5ba:	8b 04 0a             	mov    eax,DWORD PTR [edx+ecx*1]
  40b5bd:	01 01                	add    DWORD PTR [ecx],eax
  40b5bf:	8b 44 0a 04          	mov    eax,DWORD PTR [edx+ecx*1+0x4]
  40b5c3:	11 41 04             	adc    DWORD PTR [ecx+0x4],eax
  40b5c6:	83 c6 02             	add    esi,0x2
  40b5c9:	8d 49 10             	lea    ecx,[ecx+0x10]
  40b5cc:	83 fe 0a             	cmp    esi,0xa
  40b5cf:	72 dc                	jb     0x40b5ad
  40b5d1:	5f                   	pop    edi
  40b5d2:	5e                   	pop    esi
  40b5d3:	5d                   	pop    ebp
  40b5d4:	c3                   	ret    
  40b5d5:	55                   	push   ebp
  40b5d6:	8b ec                	mov    ebp,esp
  40b5d8:	8b 4d 08             	mov    ecx,DWORD PTR [ebp+0x8]
  40b5db:	33 4d 0c             	xor    ecx,DWORD PTR [ebp+0xc]
  40b5de:	f7 d1                	not    ecx
  40b5e0:	8b c1                	mov    eax,ecx
  40b5e2:	c1 e0 10             	shl    eax,0x10
  40b5e5:	23 c8                	and    ecx,eax
  40b5e7:	8b c1                	mov    eax,ecx
  40b5e9:	c1 e0 08             	shl    eax,0x8
  40b5ec:	23 c8                	and    ecx,eax
  40b5ee:	8b c1                	mov    eax,ecx
  40b5f0:	c1 e0 04             	shl    eax,0x4
  40b5f3:	23 c8                	and    ecx,eax
  40b5f5:	8b c1                	mov    eax,ecx
  40b5f7:	c1 e0 02             	shl    eax,0x2
  40b5fa:	23 c8                	and    ecx,eax
  40b5fc:	8d 04 09             	lea    eax,[ecx+ecx*1]
  40b5ff:	c1 f9 1f             	sar    ecx,0x1f
  40b602:	c1 f8 1f             	sar    eax,0x1f
  40b605:	23 c1                	and    eax,ecx
  40b607:	5d                   	pop    ebp
  40b608:	c3                   	ret    
  40b609:	55                   	push   ebp
  40b60a:	8b ec                	mov    ebp,esp
  40b60c:	53                   	push   ebx
  40b60d:	8b 5d 10             	mov    ebx,DWORD PTR [ebp+0x10]
  40b610:	56                   	push   esi
  40b611:	8b 75 0c             	mov    esi,DWORD PTR [ebp+0xc]
  40b614:	f7 db                	neg    ebx
  40b616:	57                   	push   edi
  40b617:	8b 7d 08             	mov    edi,DWORD PTR [ebp+0x8]
  40b61a:	2b fe                	sub    edi,esi
  40b61c:	c7 45 14 0a 00 00 00 	mov    DWORD PTR [ebp+0x14],0xa
  40b623:	8b 04 37             	mov    eax,DWORD PTR [edi+esi*1]
  40b626:	8b 0e                	mov    ecx,DWORD PTR [esi]
  40b628:	33 c8                	xor    ecx,eax
  40b62a:	23 cb                	and    ecx,ebx
  40b62c:	33 c1                	xor    eax,ecx
  40b62e:	99                   	cdq    
  40b62f:	89 04 37             	mov    DWORD PTR [edi+esi*1],eax
  40b632:	89 54 37 04          	mov    DWORD PTR [edi+esi*1+0x4],edx
  40b636:	8b 06                	mov    eax,DWORD PTR [esi]
  40b638:	33 c1                	xor    eax,ecx
  40b63a:	83 6d 14 01          	sub    DWORD PTR [ebp+0x14],0x1
  40b63e:	99                   	cdq    
  40b63f:	89 06                	mov    DWORD PTR [esi],eax
  40b641:	8d 76 08             	lea    esi,[esi+0x8]
  40b644:	89 56 fc             	mov    DWORD PTR [esi-0x4],edx
  40b647:	75 da                	jne    0x40b623
  40b649:	5f                   	pop    edi
  40b64a:	5e                   	pop    esi
  40b64b:	5b                   	pop    ebx
  40b64c:	5d                   	pop    ebp
  40b64d:	c3                   	ret    
  40b64e:	55                   	push   ebp
  40b64f:	8b ec                	mov    ebp,esp
  40b651:	81 ec cc 00 00 00    	sub    esp,0xcc
  40b657:	83 7d 08 00          	cmp    DWORD PTR [ebp+0x8],0x0
  40b65b:	53                   	push   ebx
  40b65c:	56                   	push   esi
  40b65d:	57                   	push   edi
  40b65e:	0f 84 1c 01 00 00    	je     0x40b780
  40b664:	8b 5d 10             	mov    ebx,DWORD PTR [ebp+0x10]
  40b667:	8b 7d 14             	mov    edi,DWORD PTR [ebp+0x14]
  40b66a:	85 db                	test   ebx,ebx
  40b66c:	75 08                	jne    0x40b676
  40b66e:	85 ff                	test   edi,edi
  40b670:	0f 85 0a 01 00 00    	jne    0x40b780
  40b676:	8b 75 18             	mov    esi,DWORD PTR [ebp+0x18]
  40b679:	b8 c8 00 00 00       	mov    eax,0xc8
  40b67e:	3b f0                	cmp    esi,eax
  40b680:	0f 83 fa 00 00 00    	jae    0x40b780
  40b686:	50                   	push   eax
  40b687:	8d 85 34 ff ff ff    	lea    eax,[ebp-0xcc]
  40b68d:	6a 00                	push   0x0
  40b68f:	50                   	push   eax
  40b690:	e8 66 9b ff ff       	call   0x4051fb
  40b695:	83 c4 0c             	add    esp,0xc
  40b698:	3b fe                	cmp    edi,esi
  40b69a:	72 46                	jb     0x40b6e2
  40b69c:	8b c3                	mov    eax,ebx
  40b69e:	8d 8d 34 ff ff ff    	lea    ecx,[ebp-0xcc]
  40b6a4:	2b c1                	sub    eax,ecx
  40b6a6:	89 45 fc             	mov    DWORD PTR [ebp-0x4],eax
  40b6a9:	33 d2                	xor    edx,edx
  40b6ab:	85 f6                	test   esi,esi
  40b6ad:	74 18                	je     0x40b6c7
  40b6af:	8b 7d fc             	mov    edi,DWORD PTR [ebp-0x4]
  40b6b2:	8d 8d 34 ff ff ff    	lea    ecx,[ebp-0xcc]
  40b6b8:	03 ca                	add    ecx,edx
  40b6ba:	8a 04 0f             	mov    al,BYTE PTR [edi+ecx*1]
  40b6bd:	30 01                	xor    BYTE PTR [ecx],al
  40b6bf:	42                   	inc    edx
  40b6c0:	3b d6                	cmp    edx,esi
  40b6c2:	72 ee                	jb     0x40b6b2
  40b6c4:	8b 7d 14             	mov    edi,DWORD PTR [ebp+0x14]
  40b6c7:	8d 85 34 ff ff ff    	lea    eax,[ebp-0xcc]
  40b6cd:	50                   	push   eax
  40b6ce:	e8 b7 00 00 00       	call   0x40b78a
  40b6d3:	01 75 fc             	add    DWORD PTR [ebp-0x4],esi
  40b6d6:	2b fe                	sub    edi,esi
  40b6d8:	03 de                	add    ebx,esi
  40b6da:	89 7d 14             	mov    DWORD PTR [ebp+0x14],edi
  40b6dd:	59                   	pop    ecx
  40b6de:	3b fe                	cmp    edi,esi
  40b6e0:	73 c7                	jae    0x40b6a9
  40b6e2:	8a 45 1c             	mov    al,BYTE PTR [ebp+0x1c]
  40b6e5:	30 84 3d 34 ff ff ff 	xor    BYTE PTR [ebp+edi*1-0xcc],al
  40b6ec:	80 b4 35 33 ff ff ff 	xor    BYTE PTR [ebp+esi*1-0xcd],0x80
  40b6f3:	80 
  40b6f4:	85 ff                	test   edi,edi
  40b6f6:	74 1c                	je     0x40b714
  40b6f8:	8d 85 34 ff ff ff    	lea    eax,[ebp-0xcc]
  40b6fe:	2b d8                	sub    ebx,eax
  40b700:	33 d2                	xor    edx,edx
  40b702:	8d 8d 34 ff ff ff    	lea    ecx,[ebp-0xcc]
  40b708:	03 ca                	add    ecx,edx
  40b70a:	8a 04 0b             	mov    al,BYTE PTR [ebx+ecx*1]
  40b70d:	30 01                	xor    BYTE PTR [ecx],al
  40b70f:	42                   	inc    edx
  40b710:	3b d7                	cmp    edx,edi
  40b712:	72 ee                	jb     0x40b702
  40b714:	8d 85 34 ff ff ff    	lea    eax,[ebp-0xcc]
  40b71a:	50                   	push   eax
  40b71b:	e8 6a 00 00 00       	call   0x40b78a
  40b720:	8b 7d 0c             	mov    edi,DWORD PTR [ebp+0xc]
  40b723:	8b 45 08             	mov    eax,DWORD PTR [ebp+0x8]
  40b726:	59                   	pop    ecx
  40b727:	3b fe                	cmp    edi,esi
  40b729:	72 2d                	jb     0x40b758
  40b72b:	85 f6                	test   esi,esi
  40b72d:	74 11                	je     0x40b740
  40b72f:	56                   	push   esi
  40b730:	8d 8d 34 ff ff ff    	lea    ecx,[ebp-0xcc]
  40b736:	51                   	push   ecx
  40b737:	50                   	push   eax
  40b738:	e8 99 9a ff ff       	call   0x4051d6
  40b73d:	83 c4 0c             	add    esp,0xc
  40b740:	8d 85 34 ff ff ff    	lea    eax,[ebp-0xcc]
  40b746:	50                   	push   eax
  40b747:	e8 3e 00 00 00       	call   0x40b78a
  40b74c:	8b 45 08             	mov    eax,DWORD PTR [ebp+0x8]
  40b74f:	03 c6                	add    eax,esi
  40b751:	2b fe                	sub    edi,esi
  40b753:	89 45 08             	mov    DWORD PTR [ebp+0x8],eax
  40b756:	eb ce                	jmp    0x40b726
  40b758:	85 ff                	test   edi,edi
  40b75a:	74 11                	je     0x40b76d
  40b75c:	57                   	push   edi
  40b75d:	8d 95 34 ff ff ff    	lea    edx,[ebp-0xcc]
  40b763:	52                   	push   edx
  40b764:	50                   	push   eax
  40b765:	e8 6c 9a ff ff       	call   0x4051d6
  40b76a:	83 c4 0c             	add    esp,0xc
  40b76d:	32 c0                	xor    al,al
  40b76f:	8d bd 34 ff ff ff    	lea    edi,[ebp-0xcc]
  40b775:	b9 c8 00 00 00       	mov    ecx,0xc8
  40b77a:	f3 aa                	rep stos BYTE PTR es:[edi],al
  40b77c:	33 c0                	xor    eax,eax
  40b77e:	eb 03                	jmp    0x40b783
  40b780:	83 c8 ff             	or     eax,0xffffffff
  40b783:	5f                   	pop    edi
  40b784:	5e                   	pop    esi
  40b785:	5b                   	pop    ebx
  40b786:	8b e5                	mov    esp,ebp
  40b788:	5d                   	pop    ebp
  40b789:	c3                   	ret    
  40b78a:	55                   	push   ebp
  40b78b:	8b ec                	mov    ebp,esp
  40b78d:	83 ec 28             	sub    esp,0x28
  40b790:	53                   	push   ebx
  40b791:	56                   	push   esi
  40b792:	8b 75 08             	mov    esi,DWORD PTR [ebp+0x8]
  40b795:	57                   	push   edi
  40b796:	c7 45 d8 a0 0b 41 00 	mov    DWORD PTR [ebp-0x28],0x410ba0
  40b79d:	8b 5e 10             	mov    ebx,DWORD PTR [esi+0x10]
  40b7a0:	33 5e 38             	xor    ebx,DWORD PTR [esi+0x38]
  40b7a3:	33 5e 60             	xor    ebx,DWORD PTR [esi+0x60]
  40b7a6:	33 9e 88 00 00 00    	xor    ebx,DWORD PTR [esi+0x88]
  40b7ac:	33 9e b0 00 00 00    	xor    ebx,DWORD PTR [esi+0xb0]
  40b7b2:	8b 06                	mov    eax,DWORD PTR [esi]
  40b7b4:	33 46 28             	xor    eax,DWORD PTR [esi+0x28]
  40b7b7:	33 46 50             	xor    eax,DWORD PTR [esi+0x50]
  40b7ba:	33 46 78             	xor    eax,DWORD PTR [esi+0x78]
  40b7bd:	33 86 a0 00 00 00    	xor    eax,DWORD PTR [esi+0xa0]
  40b7c3:	8b 4e 04             	mov    ecx,DWORD PTR [esi+0x4]
  40b7c6:	33 4e 2c             	xor    ecx,DWORD PTR [esi+0x2c]
  40b7c9:	33 4e 54             	xor    ecx,DWORD PTR [esi+0x54]
  40b7cc:	33 4e 7c             	xor    ecx,DWORD PTR [esi+0x7c]
  40b7cf:	33 8e a4 00 00 00    	xor    ecx,DWORD PTR [esi+0xa4]
  40b7d5:	8b 56 14             	mov    edx,DWORD PTR [esi+0x14]
  40b7d8:	33 56 3c             	xor    edx,DWORD PTR [esi+0x3c]
  40b7db:	33 56 64             	xor    edx,DWORD PTR [esi+0x64]
  40b7de:	33 96 8c 00 00 00    	xor    edx,DWORD PTR [esi+0x8c]
  40b7e4:	33 96 b4 00 00 00    	xor    edx,DWORD PTR [esi+0xb4]
  40b7ea:	8b 7e 20             	mov    edi,DWORD PTR [esi+0x20]
  40b7ed:	33 7e 48             	xor    edi,DWORD PTR [esi+0x48]
  40b7f0:	33 7e 70             	xor    edi,DWORD PTR [esi+0x70]
  40b7f3:	33 be 98 00 00 00    	xor    edi,DWORD PTR [esi+0x98]
  40b7f9:	33 be c0 00 00 00    	xor    edi,DWORD PTR [esi+0xc0]
  40b7ff:	89 5d f8             	mov    DWORD PTR [ebp-0x8],ebx
  40b802:	8b 5e 18             	mov    ebx,DWORD PTR [esi+0x18]
  40b805:	33 5e 40             	xor    ebx,DWORD PTR [esi+0x40]
  40b808:	33 5e 68             	xor    ebx,DWORD PTR [esi+0x68]
  40b80b:	33 9e 90 00 00 00    	xor    ebx,DWORD PTR [esi+0x90]
  40b811:	33 9e b8 00 00 00    	xor    ebx,DWORD PTR [esi+0xb8]
  40b817:	89 45 f0             	mov    DWORD PTR [ebp-0x10],eax
  40b81a:	8b 46 08             	mov    eax,DWORD PTR [esi+0x8]
  40b81d:	33 46 30             	xor    eax,DWORD PTR [esi+0x30]
  40b820:	33 46 58             	xor    eax,DWORD PTR [esi+0x58]
  40b823:	33 86 80 00 00 00    	xor    eax,DWORD PTR [esi+0x80]
  40b829:	33 86 a8 00 00 00    	xor    eax,DWORD PTR [esi+0xa8]
  40b82f:	89 4d f4             	mov    DWORD PTR [ebp-0xc],ecx
  40b832:	8b 4e 0c             	mov    ecx,DWORD PTR [esi+0xc]
  40b835:	33 4e 34             	xor    ecx,DWORD PTR [esi+0x34]
  40b838:	33 4e 5c             	xor    ecx,DWORD PTR [esi+0x5c]
  40b83b:	33 8e 84 00 00 00    	xor    ecx,DWORD PTR [esi+0x84]
  40b841:	33 8e ac 00 00 00    	xor    ecx,DWORD PTR [esi+0xac]
  40b847:	89 55 dc             	mov    DWORD PTR [ebp-0x24],edx
  40b84a:	8b 56 1c             	mov    edx,DWORD PTR [esi+0x1c]
  40b84d:	33 56 44             	xor    edx,DWORD PTR [esi+0x44]
  40b850:	33 56 6c             	xor    edx,DWORD PTR [esi+0x6c]
  40b853:	33 96 94 00 00 00    	xor    edx,DWORD PTR [esi+0x94]
  40b859:	33 96 bc 00 00 00    	xor    edx,DWORD PTR [esi+0xbc]
  40b85f:	89 5d e4             	mov    DWORD PTR [ebp-0x1c],ebx
  40b862:	8b 5e 24             	mov    ebx,DWORD PTR [esi+0x24]
  40b865:	33 5e 4c             	xor    ebx,DWORD PTR [esi+0x4c]
  40b868:	33 5e 74             	xor    ebx,DWORD PTR [esi+0x74]
  40b86b:	33 9e 9c 00 00 00    	xor    ebx,DWORD PTR [esi+0x9c]
  40b871:	33 9e c4 00 00 00    	xor    ebx,DWORD PTR [esi+0xc4]
  40b877:	8b f1                	mov    esi,ecx
  40b879:	89 45 ec             	mov    DWORD PTR [ebp-0x14],eax
  40b87c:	89 4d e8             	mov    DWORD PTR [ebp-0x18],ecx
  40b87f:	0f a4 c1 01          	shld   ecx,eax,0x1
  40b883:	c1 ee 1f             	shr    esi,0x1f
  40b886:	03 c0                	add    eax,eax
  40b888:	89 55 e0             	mov    DWORD PTR [ebp-0x20],edx
  40b88b:	0b f0                	or     esi,eax
  40b88d:	89 5d fc             	mov    DWORD PTR [ebp-0x4],ebx
  40b890:	8b 45 08             	mov    eax,DWORD PTR [ebp+0x8]
  40b893:	33 d2                	xor    edx,edx
  40b895:	8b 5d 08             	mov    ebx,DWORD PTR [ebp+0x8]
  40b898:	0b d1                	or     edx,ecx
  40b89a:	8b ce                	mov    ecx,esi
  40b89c:	33 08                	xor    ecx,DWORD PTR [eax]
  40b89e:	8b c2                	mov    eax,edx
  40b8a0:	33 43 04             	xor    eax,DWORD PTR [ebx+0x4]
  40b8a3:	33 cf                	xor    ecx,edi
  40b8a5:	33 45 fc             	xor    eax,DWORD PTR [ebp-0x4]
  40b8a8:	89 0b                	mov    DWORD PTR [ebx],ecx
  40b8aa:	8b cb                	mov    ecx,ebx
  40b8ac:	89 41 04             	mov    DWORD PTR [ecx+0x4],eax
  40b8af:	8b ce                	mov    ecx,esi
  40b8b1:	8b c2                	mov    eax,edx
  40b8b3:	33 cf                	xor    ecx,edi
  40b8b5:	33 45 fc             	xor    eax,DWORD PTR [ebp-0x4]
  40b8b8:	31 4b 28             	xor    DWORD PTR [ebx+0x28],ecx
  40b8bb:	8b cb                	mov    ecx,ebx
  40b8bd:	31 41 2c             	xor    DWORD PTR [ecx+0x2c],eax
  40b8c0:	8b ce                	mov    ecx,esi
  40b8c2:	8b c3                	mov    eax,ebx
  40b8c4:	33 48 50             	xor    ecx,DWORD PTR [eax+0x50]
  40b8c7:	8b c2                	mov    eax,edx
  40b8c9:	33 43 54             	xor    eax,DWORD PTR [ebx+0x54]
  40b8cc:	33 cf                	xor    ecx,edi
  40b8ce:	33 45 fc             	xor    eax,DWORD PTR [ebp-0x4]
  40b8d1:	89 4b 50             	mov    DWORD PTR [ebx+0x50],ecx
  40b8d4:	8b cb                	mov    ecx,ebx
  40b8d6:	89 41 54             	mov    DWORD PTR [ecx+0x54],eax
  40b8d9:	8b ce                	mov    ecx,esi
  40b8db:	8b c3                	mov    eax,ebx
  40b8dd:	33 48 78             	xor    ecx,DWORD PTR [eax+0x78]
  40b8e0:	8b c2                	mov    eax,edx
  40b8e2:	33 43 7c             	xor    eax,DWORD PTR [ebx+0x7c]
  40b8e5:	33 cf                	xor    ecx,edi
  40b8e7:	33 45 fc             	xor    eax,DWORD PTR [ebp-0x4]
  40b8ea:	89 4b 78             	mov    DWORD PTR [ebx+0x78],ecx
  40b8ed:	8b cb                	mov    ecx,ebx
  40b8ef:	89 41 7c             	mov    DWORD PTR [ecx+0x7c],eax
  40b8f2:	33 b1 a0 00 00 00    	xor    esi,DWORD PTR [ecx+0xa0]
  40b8f8:	33 91 a4 00 00 00    	xor    edx,DWORD PTR [ecx+0xa4]
  40b8fe:	33 f7                	xor    esi,edi
  40b900:	33 55 fc             	xor    edx,DWORD PTR [ebp-0x4]
  40b903:	89 b1 a0 00 00 00    	mov    DWORD PTR [ecx+0xa0],esi
  40b909:	89 91 a4 00 00 00    	mov    DWORD PTR [ecx+0xa4],edx
  40b90f:	33 d2                	xor    edx,edx
  40b911:	8b 4d dc             	mov    ecx,DWORD PTR [ebp-0x24]
  40b914:	8b f1                	mov    esi,ecx
  40b916:	8b 45 f8             	mov    eax,DWORD PTR [ebp-0x8]
  40b919:	0f a4 c1 01          	shld   ecx,eax,0x1
  40b91d:	c1 ee 1f             	shr    esi,0x1f
  40b920:	0b d1                	or     edx,ecx
  40b922:	03 c0                	add    eax,eax
  40b924:	0b f0                	or     esi,eax
  40b926:	8b c3                	mov    eax,ebx
  40b928:	8b ce                	mov    ecx,esi
  40b92a:	33 48 08             	xor    ecx,DWORD PTR [eax+0x8]
  40b92d:	8b c2                	mov    eax,edx
  40b92f:	33 43 0c             	xor    eax,DWORD PTR [ebx+0xc]
  40b932:	33 4d f0             	xor    ecx,DWORD PTR [ebp-0x10]
  40b935:	33 45 f4             	xor    eax,DWORD PTR [ebp-0xc]
  40b938:	89 4b 08             	mov    DWORD PTR [ebx+0x8],ecx
  40b93b:	8b cb                	mov    ecx,ebx
  40b93d:	89 41 0c             	mov    DWORD PTR [ecx+0xc],eax
  40b940:	8b c3                	mov    eax,ebx
  40b942:	8b ce                	mov    ecx,esi
  40b944:	33 48 30             	xor    ecx,DWORD PTR [eax+0x30]
  40b947:	8b c2                	mov    eax,edx
  40b949:	33 43 34             	xor    eax,DWORD PTR [ebx+0x34]
  40b94c:	33 4d f0             	xor    ecx,DWORD PTR [ebp-0x10]
  40b94f:	33 45 f4             	xor    eax,DWORD PTR [ebp-0xc]
  40b952:	89 4b 30             	mov    DWORD PTR [ebx+0x30],ecx
  40b955:	8b cb                	mov    ecx,ebx
  40b957:	89 41 34             	mov    DWORD PTR [ecx+0x34],eax
  40b95a:	8b ce                	mov    ecx,esi
  40b95c:	33 4d f0             	xor    ecx,DWORD PTR [ebp-0x10]
  40b95f:	8b c2                	mov    eax,edx
  40b961:	31 4b 58             	xor    DWORD PTR [ebx+0x58],ecx
  40b964:	8b cb                	mov    ecx,ebx
  40b966:	33 45 f4             	xor    eax,DWORD PTR [ebp-0xc]
  40b969:	31 41 5c             	xor    DWORD PTR [ecx+0x5c],eax
  40b96c:	8b ce                	mov    ecx,esi
  40b96e:	33 4d f0             	xor    ecx,DWORD PTR [ebp-0x10]
  40b971:	8b c2                	mov    eax,edx
  40b973:	31 8b 80 00 00 00    	xor    DWORD PTR [ebx+0x80],ecx
  40b979:	8b cb                	mov    ecx,ebx
  40b97b:	33 45 f4             	xor    eax,DWORD PTR [ebp-0xc]
  40b97e:	33 75 f0             	xor    esi,DWORD PTR [ebp-0x10]
  40b981:	33 55 f4             	xor    edx,DWORD PTR [ebp-0xc]
  40b984:	31 81 84 00 00 00    	xor    DWORD PTR [ecx+0x84],eax
  40b98a:	31 b1 a8 00 00 00    	xor    DWORD PTR [ecx+0xa8],esi
  40b990:	31 91 ac 00 00 00    	xor    DWORD PTR [ecx+0xac],edx
  40b996:	8b 4d e0             	mov    ecx,DWORD PTR [ebp-0x20]
  40b999:	8b f1                	mov    esi,ecx
  40b99b:	8b 45 e4             	mov    eax,DWORD PTR [ebp-0x1c]
  40b99e:	c1 ee 1f             	shr    esi,0x1f
  40b9a1:	0f a4 c1 01          	shld   ecx,eax,0x1
  40b9a5:	03 c0                	add    eax,eax
  40b9a7:	33 d2                	xor    edx,edx
  40b9a9:	0b f0                	or     esi,eax
  40b9ab:	0b d1                	or     edx,ecx
  40b9ad:	8b c3                	mov    eax,ebx
  40b9af:	8b ce                	mov    ecx,esi
  40b9b1:	33 48 10             	xor    ecx,DWORD PTR [eax+0x10]
  40b9b4:	8b c2                	mov    eax,edx
  40b9b6:	33 43 14             	xor    eax,DWORD PTR [ebx+0x14]
  40b9b9:	33 4d ec             	xor    ecx,DWORD PTR [ebp-0x14]
  40b9bc:	33 45 e8             	xor    eax,DWORD PTR [ebp-0x18]
  40b9bf:	89 4b 10             	mov    DWORD PTR [ebx+0x10],ecx
  40b9c2:	8b cb                	mov    ecx,ebx
  40b9c4:	89 41 14             	mov    DWORD PTR [ecx+0x14],eax
  40b9c7:	8b c3                	mov    eax,ebx
  40b9c9:	8b ce                	mov    ecx,esi
  40b9cb:	33 48 38             	xor    ecx,DWORD PTR [eax+0x38]
  40b9ce:	8b c2                	mov    eax,edx
  40b9d0:	33 43 3c             	xor    eax,DWORD PTR [ebx+0x3c]
  40b9d3:	33 4d ec             	xor    ecx,DWORD PTR [ebp-0x14]
  40b9d6:	33 45 e8             	xor    eax,DWORD PTR [ebp-0x18]
  40b9d9:	89 4b 38             	mov    DWORD PTR [ebx+0x38],ecx
  40b9dc:	8b cb                	mov    ecx,ebx
  40b9de:	89 41 3c             	mov    DWORD PTR [ecx+0x3c],eax
  40b9e1:	8b c3                	mov    eax,ebx
  40b9e3:	8b ce                	mov    ecx,esi
  40b9e5:	33 48 60             	xor    ecx,DWORD PTR [eax+0x60]
  40b9e8:	8b c2                	mov    eax,edx
  40b9ea:	33 43 64             	xor    eax,DWORD PTR [ebx+0x64]
  40b9ed:	33 4d ec             	xor    ecx,DWORD PTR [ebp-0x14]
  40b9f0:	33 45 e8             	xor    eax,DWORD PTR [ebp-0x18]
  40b9f3:	89 4b 60             	mov    DWORD PTR [ebx+0x60],ecx
  40b9f6:	8b cb                	mov    ecx,ebx
  40b9f8:	89 41 64             	mov    DWORD PTR [ecx+0x64],eax
  40b9fb:	8b c3                	mov    eax,ebx
  40b9fd:	8b ce                	mov    ecx,esi
  40b9ff:	33 88 88 00 00 00    	xor    ecx,DWORD PTR [eax+0x88]
  40ba05:	8b c2                	mov    eax,edx
  40ba07:	33 83 8c 00 00 00    	xor    eax,DWORD PTR [ebx+0x8c]
  40ba0d:	33 4d ec             	xor    ecx,DWORD PTR [ebp-0x14]
  40ba10:	33 45 e8             	xor    eax,DWORD PTR [ebp-0x18]
  40ba13:	89 8b 88 00 00 00    	mov    DWORD PTR [ebx+0x88],ecx
  40ba19:	8b cb                	mov    ecx,ebx
  40ba1b:	8b 5d fc             	mov    ebx,DWORD PTR [ebp-0x4]
  40ba1e:	89 81 8c 00 00 00    	mov    DWORD PTR [ecx+0x8c],eax
  40ba24:	33 b1 b0 00 00 00    	xor    esi,DWORD PTR [ecx+0xb0]
  40ba2a:	33 91 b4 00 00 00    	xor    edx,DWORD PTR [ecx+0xb4]
  40ba30:	33 75 ec             	xor    esi,DWORD PTR [ebp-0x14]
  40ba33:	33 55 e8             	xor    edx,DWORD PTR [ebp-0x18]
  40ba36:	89 b1 b0 00 00 00    	mov    DWORD PTR [ecx+0xb0],esi
  40ba3c:	8b f3                	mov    esi,ebx
  40ba3e:	89 91 b4 00 00 00    	mov    DWORD PTR [ecx+0xb4],edx
  40ba44:	33 d2                	xor    edx,edx
  40ba46:	0f a4 fb 01          	shld   ebx,edi,0x1
  40ba4a:	c1 ee 1f             	shr    esi,0x1f
  40ba4d:	03 ff                	add    edi,edi
  40ba4f:	0b d3                	or     edx,ebx
  40ba51:	8b 5d dc             	mov    ebx,DWORD PTR [ebp-0x24]
  40ba54:	0b f7                	or     esi,edi
  40ba56:	8b 7d 08             	mov    edi,DWORD PTR [ebp+0x8]
  40ba59:	8b ce                	mov    ecx,esi
  40ba5b:	33 4d f8             	xor    ecx,DWORD PTR [ebp-0x8]
  40ba5e:	8b c2                	mov    eax,edx
  40ba60:	33 c3                	xor    eax,ebx
  40ba62:	31 4f 18             	xor    DWORD PTR [edi+0x18],ecx
  40ba65:	8b cf                	mov    ecx,edi
  40ba67:	31 41 1c             	xor    DWORD PTR [ecx+0x1c],eax
  40ba6a:	8b c7                	mov    eax,edi
  40ba6c:	8b ce                	mov    ecx,esi
  40ba6e:	33 48 40             	xor    ecx,DWORD PTR [eax+0x40]
  40ba71:	8b c2                	mov    eax,edx
  40ba73:	33 4d f8             	xor    ecx,DWORD PTR [ebp-0x8]
  40ba76:	33 47 44             	xor    eax,DWORD PTR [edi+0x44]
  40ba79:	89 4f 40             	mov    DWORD PTR [edi+0x40],ecx
  40ba7c:	33 c3                	xor    eax,ebx
  40ba7e:	8b cf                	mov    ecx,edi
  40ba80:	89 41 44             	mov    DWORD PTR [ecx+0x44],eax
  40ba83:	8b c7                	mov    eax,edi
  40ba85:	8b ce                	mov    ecx,esi
  40ba87:	33 48 68             	xor    ecx,DWORD PTR [eax+0x68]
  40ba8a:	8b c2                	mov    eax,edx
  40ba8c:	33 47 6c             	xor    eax,DWORD PTR [edi+0x6c]
  40ba8f:	33 4d f8             	xor    ecx,DWORD PTR [ebp-0x8]
  40ba92:	33 c3                	xor    eax,ebx
  40ba94:	89 4f 68             	mov    DWORD PTR [edi+0x68],ecx
  40ba97:	8b cf                	mov    ecx,edi
  40ba99:	89 41 6c             	mov    DWORD PTR [ecx+0x6c],eax
  40ba9c:	8b ce                	mov    ecx,esi
  40ba9e:	8b c7                	mov    eax,edi
  40baa0:	33 88 90 00 00 00    	xor    ecx,DWORD PTR [eax+0x90]
  40baa6:	8b c2                	mov    eax,edx
  40baa8:	33 87 94 00 00 00    	xor    eax,DWORD PTR [edi+0x94]
  40baae:	33 4d f8             	xor    ecx,DWORD PTR [ebp-0x8]
  40bab1:	33 c3                	xor    eax,ebx
  40bab3:	89 8f 90 00 00 00    	mov    DWORD PTR [edi+0x90],ecx
  40bab9:	8b cf                	mov    ecx,edi
  40babb:	89 81 94 00 00 00    	mov    DWORD PTR [ecx+0x94],eax
  40bac1:	33 b1 b8 00 00 00    	xor    esi,DWORD PTR [ecx+0xb8]
  40bac7:	33 91 bc 00 00 00    	xor    edx,DWORD PTR [ecx+0xbc]
  40bacd:	33 75 f8             	xor    esi,DWORD PTR [ebp-0x8]
  40bad0:	33 d3                	xor    edx,ebx
  40bad2:	89 b1 b8 00 00 00    	mov    DWORD PTR [ecx+0xb8],esi
  40bad8:	8b df                	mov    ebx,edi
  40bada:	89 91 bc 00 00 00    	mov    DWORD PTR [ecx+0xbc],edx
  40bae0:	33 d2                	xor    edx,edx
  40bae2:	8b 4d f4             	mov    ecx,DWORD PTR [ebp-0xc]
  40bae5:	8b f1                	mov    esi,ecx
  40bae7:	8b 45 f0             	mov    eax,DWORD PTR [ebp-0x10]
  40baea:	0f a4 c1 01          	shld   ecx,eax,0x1
  40baee:	c1 ee 1f             	shr    esi,0x1f
  40baf1:	0b d1                	or     edx,ecx
  40baf3:	03 c0                	add    eax,eax
  40baf5:	0b f0                	or     esi,eax
  40baf7:	8b c2                	mov    eax,edx
  40baf9:	33 43 24             	xor    eax,DWORD PTR [ebx+0x24]
  40bafc:	8b ce                	mov    ecx,esi
  40bafe:	33 4b 20             	xor    ecx,DWORD PTR [ebx+0x20]
  40bb01:	33 4d e4             	xor    ecx,DWORD PTR [ebp-0x1c]
  40bb04:	33 45 e0             	xor    eax,DWORD PTR [ebp-0x20]
  40bb07:	89 4b 20             	mov    DWORD PTR [ebx+0x20],ecx
  40bb0a:	8b cb                	mov    ecx,ebx
  40bb0c:	8b 5d e0             	mov    ebx,DWORD PTR [ebp-0x20]
  40bb0f:	89 41 24             	mov    DWORD PTR [ecx+0x24],eax
  40bb12:	8b ce                	mov    ecx,esi
  40bb14:	33 4d e4             	xor    ecx,DWORD PTR [ebp-0x1c]
  40bb17:	8b c2                	mov    eax,edx
  40bb19:	31 4f 48             	xor    DWORD PTR [edi+0x48],ecx
  40bb1c:	33 c3                	xor    eax,ebx
  40bb1e:	8b cf                	mov    ecx,edi
  40bb20:	31 41 4c             	xor    DWORD PTR [ecx+0x4c],eax
  40bb23:	8b c7                	mov    eax,edi
  40bb25:	8b ce                	mov    ecx,esi
  40bb27:	33 48 70             	xor    ecx,DWORD PTR [eax+0x70]
  40bb2a:	8b c2                	mov    eax,edx
  40bb2c:	33 47 74             	xor    eax,DWORD PTR [edi+0x74]
  40bb2f:	33 4d e4             	xor    ecx,DWORD PTR [ebp-0x1c]
  40bb32:	33 c3                	xor    eax,ebx
  40bb34:	89 4f 70             	mov    DWORD PTR [edi+0x70],ecx
  40bb37:	8b cf                	mov    ecx,edi
  40bb39:	89 41 74             	mov    DWORD PTR [ecx+0x74],eax
  40bb3c:	8b c7                	mov    eax,edi
  40bb3e:	8b ce                	mov    ecx,esi
  40bb40:	33 88 98 00 00 00    	xor    ecx,DWORD PTR [eax+0x98]
  40bb46:	8b c2                	mov    eax,edx
  40bb48:	33 4d e4             	xor    ecx,DWORD PTR [ebp-0x1c]
  40bb4b:	33 87 9c 00 00 00    	xor    eax,DWORD PTR [edi+0x9c]
  40bb51:	89 8f 98 00 00 00    	mov    DWORD PTR [edi+0x98],ecx
  40bb57:	33 c3                	xor    eax,ebx
  40bb59:	8b cf                	mov    ecx,edi
  40bb5b:	89 81 9c 00 00 00    	mov    DWORD PTR [ecx+0x9c],eax
  40bb61:	33 b1 c0 00 00 00    	xor    esi,DWORD PTR [ecx+0xc0]
  40bb67:	33 91 c4 00 00 00    	xor    edx,DWORD PTR [ecx+0xc4]
  40bb6d:	33 75 e4             	xor    esi,DWORD PTR [ebp-0x1c]
  40bb70:	33 d3                	xor    edx,ebx
  40bb72:	89 b1 c0 00 00 00    	mov    DWORD PTR [ecx+0xc0],esi
  40bb78:	89 91 c4 00 00 00    	mov    DWORD PTR [ecx+0xc4],edx
  40bb7e:	8b 71 08             	mov    esi,DWORD PTR [ecx+0x8]
  40bb81:	8b 51 0c             	mov    edx,DWORD PTR [ecx+0xc]
  40bb84:	8b 59 50             	mov    ebx,DWORD PTR [ecx+0x50]
  40bb87:	8b 79 54             	mov    edi,DWORD PTR [ecx+0x54]
  40bb8a:	8b ca                	mov    ecx,edx
  40bb8c:	c1 e9 1f             	shr    ecx,0x1f
  40bb8f:	0f a4 f2 01          	shld   edx,esi,0x1
  40bb93:	33 c0                	xor    eax,eax
  40bb95:	0b c2                	or     eax,edx
  40bb97:	03 f6                	add    esi,esi
  40bb99:	0b ce                	or     ecx,esi
  40bb9b:	8b 75 08             	mov    esi,DWORD PTR [ebp+0x8]
  40bb9e:	89 4e 50             	mov    DWORD PTR [esi+0x50],ecx
  40bba1:	8b cf                	mov    ecx,edi
  40bba3:	89 46 54             	mov    DWORD PTR [esi+0x54],eax
  40bba6:	8b 46 38             	mov    eax,DWORD PTR [esi+0x38]
  40bba9:	8b 56 3c             	mov    edx,DWORD PTR [esi+0x3c]
  40bbac:	0f a4 df 03          	shld   edi,ebx,0x3
  40bbb0:	c1 e9 1d             	shr    ecx,0x1d
  40bbb3:	89 45 dc             	mov    DWORD PTR [ebp-0x24],eax
  40bbb6:	33 c0                	xor    eax,eax
  40bbb8:	0b c7                	or     eax,edi
  40bbba:	c1 e3 03             	shl    ebx,0x3
  40bbbd:	89 46 3c             	mov    DWORD PTR [esi+0x3c],eax
  40bbc0:	0b cb                	or     ecx,ebx
  40bbc2:	89 4e 38             	mov    DWORD PTR [esi+0x38],ecx
  40bbc5:	33 c0                	xor    eax,eax
  40bbc7:	8b 7e 58             	mov    edi,DWORD PTR [esi+0x58]
  40bbca:	8b ca                	mov    ecx,edx
  40bbcc:	8b 76 5c             	mov    esi,DWORD PTR [esi+0x5c]
  40bbcf:	8b 5d dc             	mov    ebx,DWORD PTR [ebp-0x24]
  40bbd2:	0f a4 da 06          	shld   edx,ebx,0x6
  40bbd6:	c1 e9 1a             	shr    ecx,0x1a
  40bbd9:	0b c2                	or     eax,edx
  40bbdb:	c1 e3 06             	shl    ebx,0x6
  40bbde:	8b 55 08             	mov    edx,DWORD PTR [ebp+0x8]
  40bbe1:	0b cb                	or     ecx,ebx
  40bbe3:	89 4a 58             	mov    DWORD PTR [edx+0x58],ecx
  40bbe6:	8b ce                	mov    ecx,esi
  40bbe8:	89 42 5c             	mov    DWORD PTR [edx+0x5c],eax
  40bbeb:	33 c0                	xor    eax,eax
  40bbed:	8b 9a 88 00 00 00    	mov    ebx,DWORD PTR [edx+0x88]
  40bbf3:	8b 92 8c 00 00 00    	mov    edx,DWORD PTR [edx+0x8c]
  40bbf9:	0f a4 fe 0a          	shld   esi,edi,0xa
  40bbfd:	c1 e9 16             	shr    ecx,0x16
  40bc00:	0b c6                	or     eax,esi
  40bc02:	c1 e7 0a             	shl    edi,0xa
  40bc05:	8b 75 08             	mov    esi,DWORD PTR [ebp+0x8]
  40bc08:	0b cf                	or     ecx,edi
  40bc0a:	89 8e 88 00 00 00    	mov    DWORD PTR [esi+0x88],ecx
  40bc10:	8b ca                	mov    ecx,edx
  40bc12:	89 86 8c 00 00 00    	mov    DWORD PTR [esi+0x8c],eax
  40bc18:	33 c0                	xor    eax,eax
  40bc1a:	8b be 90 00 00 00    	mov    edi,DWORD PTR [esi+0x90]
  40bc20:	8b b6 94 00 00 00    	mov    esi,DWORD PTR [esi+0x94]
  40bc26:	0f a4 da 0f          	shld   edx,ebx,0xf
  40bc2a:	c1 e9 11             	shr    ecx,0x11
  40bc2d:	0b c2                	or     eax,edx
  40bc2f:	c1 e3 0f             	shl    ebx,0xf
  40bc32:	8b 55 08             	mov    edx,DWORD PTR [ebp+0x8]
  40bc35:	0b cb                	or     ecx,ebx
  40bc37:	89 8a 90 00 00 00    	mov    DWORD PTR [edx+0x90],ecx
  40bc3d:	8b ce                	mov    ecx,esi
  40bc3f:	89 82 94 00 00 00    	mov    DWORD PTR [edx+0x94],eax
  40bc45:	33 c0                	xor    eax,eax
  40bc47:	8b 5a 18             	mov    ebx,DWORD PTR [edx+0x18]
  40bc4a:	8b 52 1c             	mov    edx,DWORD PTR [edx+0x1c]
  40bc4d:	0f a4 fe 15          	shld   esi,edi,0x15
  40bc51:	c1 e9 0b             	shr    ecx,0xb
  40bc54:	0b c6                	or     eax,esi
  40bc56:	c1 e7 15             	shl    edi,0x15
  40bc59:	8b 75 08             	mov    esi,DWORD PTR [ebp+0x8]
  40bc5c:	0b cf                	or     ecx,edi
  40bc5e:	89 4e 18             	mov    DWORD PTR [esi+0x18],ecx
  40bc61:	8b ca                	mov    ecx,edx
  40bc63:	89 46 1c             	mov    DWORD PTR [esi+0x1c],eax
  40bc66:	33 c0                	xor    eax,eax
  40bc68:	8b 7e 28             	mov    edi,DWORD PTR [esi+0x28]
  40bc6b:	8b 76 2c             	mov    esi,DWORD PTR [esi+0x2c]
  40bc6e:	0f a4 da 1c          	shld   edx,ebx,0x1c
  40bc72:	c1 e9 04             	shr    ecx,0x4
  40bc75:	c1 e3 1c             	shl    ebx,0x1c
  40bc78:	0b cb                	or     ecx,ebx
  40bc7a:	0b c2                	or     eax,edx
  40bc7c:	8b 55 08             	mov    edx,DWORD PTR [ebp+0x8]
  40bc7f:	89 4a 28             	mov    DWORD PTR [edx+0x28],ecx
  40bc82:	89 42 2c             	mov    DWORD PTR [edx+0x2c],eax
  40bc85:	8b 9a 80 00 00 00    	mov    ebx,DWORD PTR [edx+0x80]
  40bc8b:	8b cf                	mov    ecx,edi
  40bc8d:	8b 92 84 00 00 00    	mov    edx,DWORD PTR [edx+0x84]
  40bc93:	33 c0                	xor    eax,eax
  40bc95:	0f ac f7 1c          	shrd   edi,esi,0x1c
  40bc99:	c1 e1 04             	shl    ecx,0x4
  40bc9c:	c1 ee 1c             	shr    esi,0x1c
  40bc9f:	0b c7                	or     eax,edi
  40bca1:	0b ce                	or     ecx,esi
  40bca3:	8b 75 08             	mov    esi,DWORD PTR [ebp+0x8]
  40bca6:	89 8e 84 00 00 00    	mov    DWORD PTR [esi+0x84],ecx
  40bcac:	8b cb                	mov    ecx,ebx
  40bcae:	89 86 80 00 00 00    	mov    DWORD PTR [esi+0x80],eax
  40bcb4:	33 c0                	xor    eax,eax
  40bcb6:	8b 7e 40             	mov    edi,DWORD PTR [esi+0x40]
  40bcb9:	8b 76 44             	mov    esi,DWORD PTR [esi+0x44]
  40bcbc:	0f ac d3 13          	shrd   ebx,edx,0x13
  40bcc0:	c1 e1 0d             	shl    ecx,0xd
  40bcc3:	c1 ea 13             	shr    edx,0x13
  40bcc6:	0b c3                	or     eax,ebx
  40bcc8:	0b ca                	or     ecx,edx
  40bcca:	8b 55 08             	mov    edx,DWORD PTR [ebp+0x8]
  40bccd:	89 4a 44             	mov    DWORD PTR [edx+0x44],ecx
  40bcd0:	8b cf                	mov    ecx,edi
  40bcd2:	89 42 40             	mov    DWORD PTR [edx+0x40],eax
  40bcd5:	33 c0                	xor    eax,eax
  40bcd7:	8b 9a a8 00 00 00    	mov    ebx,DWORD PTR [edx+0xa8]
  40bcdd:	8b 92 ac 00 00 00    	mov    edx,DWORD PTR [edx+0xac]
  40bce3:	0f ac f7 09          	shrd   edi,esi,0x9
  40bce7:	c1 e1 17             	shl    ecx,0x17
  40bcea:	c1 ee 09             	shr    esi,0x9
  40bced:	0b c7                	or     eax,edi
  40bcef:	0b ce                	or     ecx,esi
  40bcf1:	8b 75 08             	mov    esi,DWORD PTR [ebp+0x8]
  40bcf4:	89 8e ac 00 00 00    	mov    DWORD PTR [esi+0xac],ecx
  40bcfa:	8b ca                	mov    ecx,edx
  40bcfc:	89 86 a8 00 00 00    	mov    DWORD PTR [esi+0xa8],eax
  40bd02:	33 c0                	xor    eax,eax
  40bd04:	8b be c0 00 00 00    	mov    edi,DWORD PTR [esi+0xc0]
  40bd0a:	8b b6 c4 00 00 00    	mov    esi,DWORD PTR [esi+0xc4]
  40bd10:	0f a4 da 02          	shld   edx,ebx,0x2
  40bd14:	c1 e9 1e             	shr    ecx,0x1e
  40bd17:	0b c2                	or     eax,edx
  40bd19:	c1 e3 02             	shl    ebx,0x2
  40bd1c:	8b 55 08             	mov    edx,DWORD PTR [ebp+0x8]
  40bd1f:	0b cb                	or     ecx,ebx
  40bd21:	89 8a c0 00 00 00    	mov    DWORD PTR [edx+0xc0],ecx
  40bd27:	8b ce                	mov    ecx,esi
  40bd29:	89 82 c4 00 00 00    	mov    DWORD PTR [edx+0xc4],eax
  40bd2f:	33 c0                	xor    eax,eax
  40bd31:	8b 5a 20             	mov    ebx,DWORD PTR [edx+0x20]
  40bd34:	8b 52 24             	mov    edx,DWORD PTR [edx+0x24]
  40bd37:	0f a4 fe 0e          	shld   esi,edi,0xe
  40bd3b:	c1 e9 12             	shr    ecx,0x12
  40bd3e:	0b c6                	or     eax,esi
  40bd40:	c1 e7 0e             	shl    edi,0xe
  40bd43:	8b 75 08             	mov    esi,DWORD PTR [ebp+0x8]
  40bd46:	0b cf                	or     ecx,edi
  40bd48:	89 4e 20             	mov    DWORD PTR [esi+0x20],ecx
  40bd4b:	8b ca                	mov    ecx,edx
  40bd4d:	89 46 24             	mov    DWORD PTR [esi+0x24],eax
  40bd50:	33 c0                	xor    eax,eax
  40bd52:	8b 7e 78             	mov    edi,DWORD PTR [esi+0x78]
  40bd55:	8b 76 7c             	mov    esi,DWORD PTR [esi+0x7c]
  40bd58:	0f a4 da 1b          	shld   edx,ebx,0x1b
  40bd5c:	c1 e9 05             	shr    ecx,0x5
  40bd5f:	0b c2                	or     eax,edx
  40bd61:	c1 e3 1b             	shl    ebx,0x1b
  40bd64:	8b 55 08             	mov    edx,DWORD PTR [ebp+0x8]
  40bd67:	0b cb                	or     ecx,ebx
  40bd69:	89 4a 78             	mov    DWORD PTR [edx+0x78],ecx
  40bd6c:	8b cf                	mov    ecx,edi
  40bd6e:	89 42 7c             	mov    DWORD PTR [edx+0x7c],eax
  40bd71:	33 c0                	xor    eax,eax
  40bd73:	8b 9a b8 00 00 00    	mov    ebx,DWORD PTR [edx+0xb8]
  40bd79:	8b 92 bc 00 00 00    	mov    edx,DWORD PTR [edx+0xbc]
  40bd7f:	0f ac f7 17          	shrd   edi,esi,0x17
  40bd83:	c1 e1 09             	shl    ecx,0x9
  40bd86:	c1 ee 17             	shr    esi,0x17
  40bd89:	0b c7                	or     eax,edi
  40bd8b:	0b ce                	or     ecx,esi
  40bd8d:	8b 75 08             	mov    esi,DWORD PTR [ebp+0x8]
  40bd90:	89 8e bc 00 00 00    	mov    DWORD PTR [esi+0xbc],ecx
  40bd96:	8b cb                	mov    ecx,ebx
  40bd98:	89 86 b8 00 00 00    	mov    DWORD PTR [esi+0xb8],eax
  40bd9e:	33 c0                	xor    eax,eax
  40bda0:	8b be 98 00 00 00    	mov    edi,DWORD PTR [esi+0x98]
  40bda6:	8b b6 9c 00 00 00    	mov    esi,DWORD PTR [esi+0x9c]
  40bdac:	0f ac d3 08          	shrd   ebx,edx,0x8
  40bdb0:	c1 e1 18             	shl    ecx,0x18
  40bdb3:	0b c3                	or     eax,ebx
  40bdb5:	c1 ea 08             	shr    edx,0x8
  40bdb8:	0b ca                	or     ecx,edx
  40bdba:	8b 55 08             	mov    edx,DWORD PTR [ebp+0x8]
  40bdbd:	89 8a 9c 00 00 00    	mov    DWORD PTR [edx+0x9c],ecx
  40bdc3:	8b ce                	mov    ecx,esi
  40bdc5:	89 82 98 00 00 00    	mov    DWORD PTR [edx+0x98],eax
  40bdcb:	33 c0                	xor    eax,eax
  40bdcd:	8b 5a 68             	mov    ebx,DWORD PTR [edx+0x68]
  40bdd0:	8b 52 6c             	mov    edx,DWORD PTR [edx+0x6c]
  40bdd3:	0f a4 fe 08          	shld   esi,edi,0x8
  40bdd7:	c1 e9 18             	shr    ecx,0x18
  40bdda:	0b c6                	or     eax,esi
  40bddc:	c1 e7 08             	shl    edi,0x8
  40bddf:	8b 75 08             	mov    esi,DWORD PTR [ebp+0x8]
  40bde2:	0b cf                	or     ecx,edi
  40bde4:	89 4e 68             	mov    DWORD PTR [esi+0x68],ecx
  40bde7:	8b ca                	mov    ecx,edx
  40bde9:	89 46 6c             	mov    DWORD PTR [esi+0x6c],eax
  40bdec:	33 c0                	xor    eax,eax
  40bdee:	8b 7e 60             	mov    edi,DWORD PTR [esi+0x60]
  40bdf1:	8b 76 64             	mov    esi,DWORD PTR [esi+0x64]
  40bdf4:	0f a4 da 19          	shld   edx,ebx,0x19
  40bdf8:	c1 e9 07             	shr    ecx,0x7
  40bdfb:	0b c2                	or     eax,edx
  40bdfd:	c1 e3 19             	shl    ebx,0x19
  40be00:	8b 55 08             	mov    edx,DWORD PTR [ebp+0x8]
  40be03:	0b cb                	or     ecx,ebx
  40be05:	89 4a 60             	mov    DWORD PTR [edx+0x60],ecx
  40be08:	8b cf                	mov    ecx,edi
  40be0a:	89 42 64             	mov    DWORD PTR [edx+0x64],eax
  40be0d:	33 c0                	xor    eax,eax
  40be0f:	8b 5a 10             	mov    ebx,DWORD PTR [edx+0x10]
  40be12:	8b 52 14             	mov    edx,DWORD PTR [edx+0x14]
  40be15:	0f ac f7 15          	shrd   edi,esi,0x15
  40be19:	c1 e1 0b             	shl    ecx,0xb
  40be1c:	c1 ee 15             	shr    esi,0x15
  40be1f:	0b c7                	or     eax,edi
  40be21:	0b ce                	or     ecx,esi
  40be23:	8b 75 08             	mov    esi,DWORD PTR [ebp+0x8]
  40be26:	89 4e 14             	mov    DWORD PTR [esi+0x14],ecx
  40be29:	8b cb                	mov    ecx,ebx
  40be2b:	89 46 10             	mov    DWORD PTR [esi+0x10],eax
  40be2e:	33 c0                	xor    eax,eax
  40be30:	8b be a0 00 00 00    	mov    edi,DWORD PTR [esi+0xa0]
  40be36:	8b b6 a4 00 00 00    	mov    esi,DWORD PTR [esi+0xa4]
  40be3c:	0f ac d3 02          	shrd   ebx,edx,0x2
  40be40:	c1 e1 1e             	shl    ecx,0x1e
  40be43:	c1 ea 02             	shr    edx,0x2
  40be46:	0b c3                	or     eax,ebx
  40be48:	0b ca                	or     ecx,edx
  40be4a:	8b 55 08             	mov    edx,DWORD PTR [ebp+0x8]
  40be4d:	89 82 a0 00 00 00    	mov    DWORD PTR [edx+0xa0],eax
  40be53:	33 c0                	xor    eax,eax
  40be55:	89 8a a4 00 00 00    	mov    DWORD PTR [edx+0xa4],ecx
  40be5b:	8b ce                	mov    ecx,esi
  40be5d:	8b 5a 70             	mov    ebx,DWORD PTR [edx+0x70]
  40be60:	8b 52 74             	mov    edx,DWORD PTR [edx+0x74]
  40be63:	0f a4 fe 12          	shld   esi,edi,0x12
  40be67:	c1 e9 0e             	shr    ecx,0xe
  40be6a:	c1 e7 12             	shl    edi,0x12
  40be6d:	0b c6                	or     eax,esi
  40be6f:	0b cf                	or     ecx,edi
  40be71:	8b 7d 08             	mov    edi,DWORD PTR [ebp+0x8]
  40be74:	89 4f 70             	mov    DWORD PTR [edi+0x70],ecx
  40be77:	8b cb                	mov    ecx,ebx
  40be79:	89 47 74             	mov    DWORD PTR [edi+0x74],eax
  40be7c:	8b 87 b0 00 00 00    	mov    eax,DWORD PTR [edi+0xb0]
  40be82:	8b b7 b4 00 00 00    	mov    esi,DWORD PTR [edi+0xb4]
  40be88:	89 45 dc             	mov    DWORD PTR [ebp-0x24],eax
  40be8b:	33 c0                	xor    eax,eax
  40be8d:	c1 e1 07             	shl    ecx,0x7
  40be90:	0f ac d3 19          	shrd   ebx,edx,0x19
  40be94:	0b c3                	or     eax,ebx
  40be96:	c1 ea 19             	shr    edx,0x19
  40be99:	89 87 b0 00 00 00    	mov    DWORD PTR [edi+0xb0],eax
  40be9f:	0b ca                	or     ecx,edx
  40bea1:	89 8f b4 00 00 00    	mov    DWORD PTR [edi+0xb4],ecx
  40bea7:	33 c0                	xor    eax,eax
  40bea9:	8b 5f 48             	mov    ebx,DWORD PTR [edi+0x48]
  40beac:	8b 7f 4c             	mov    edi,DWORD PTR [edi+0x4c]
  40beaf:	8b 55 dc             	mov    edx,DWORD PTR [ebp-0x24]
  40beb2:	8b ca                	mov    ecx,edx
  40beb4:	c1 e1 1d             	shl    ecx,0x1d
  40beb7:	0f ac f2 03          	shrd   edx,esi,0x3
  40bebb:	0b c2                	or     eax,edx
  40bebd:	c1 ee 03             	shr    esi,0x3
  40bec0:	8b 55 08             	mov    edx,DWORD PTR [ebp+0x8]
  40bec3:	0b ce                	or     ecx,esi
  40bec5:	89 4a 4c             	mov    DWORD PTR [edx+0x4c],ecx
  40bec8:	8b cf                	mov    ecx,edi
  40beca:	89 42 48             	mov    DWORD PTR [edx+0x48],eax
  40becd:	33 c0                	xor    eax,eax
  40becf:	8b 72 30             	mov    esi,DWORD PTR [edx+0x30]
  40bed2:	8b 52 34             	mov    edx,DWORD PTR [edx+0x34]
  40bed5:	c1 e9 0c             	shr    ecx,0xc
  40bed8:	0f a4 df 14          	shld   edi,ebx,0x14
  40bedc:	0b c7                	or     eax,edi
  40bede:	c1 e3 14             	shl    ebx,0x14
  40bee1:	8b 7d 08             	mov    edi,DWORD PTR [ebp+0x8]
  40bee4:	0b cb                	or     ecx,ebx
  40bee6:	89 4f 30             	mov    DWORD PTR [edi+0x30],ecx
  40bee9:	8b ce                	mov    ecx,esi
  40beeb:	89 47 34             	mov    DWORD PTR [edi+0x34],eax
  40beee:	33 c0                	xor    eax,eax
  40bef0:	c1 e1 0c             	shl    ecx,0xc
  40bef3:	0f ac d6 14          	shrd   esi,edx,0x14
  40bef7:	0b c6                	or     eax,esi
  40bef9:	c1 ea 14             	shr    edx,0x14
  40befc:	89 47 08             	mov    DWORD PTR [edi+0x8],eax
  40beff:	0b ca                	or     ecx,edx
  40bf01:	89 4f 0c             	mov    DWORD PTR [edi+0xc],ecx
  40bf04:	8b 07                	mov    eax,DWORD PTR [edi]
  40bf06:	8b 4f 08             	mov    ecx,DWORD PTR [edi+0x8]
  40bf09:	8b 5f 18             	mov    ebx,DWORD PTR [edi+0x18]
  40bf0c:	8b 77 10             	mov    esi,DWORD PTR [edi+0x10]
  40bf0f:	8b 57 14             	mov    edx,DWORD PTR [edi+0x14]
  40bf12:	89 45 e0             	mov    DWORD PTR [ebp-0x20],eax
  40bf15:	8b 47 04             	mov    eax,DWORD PTR [edi+0x4]
  40bf18:	89 45 e4             	mov    DWORD PTR [ebp-0x1c],eax
  40bf1b:	8b 47 0c             	mov    eax,DWORD PTR [edi+0xc]
  40bf1e:	8b 7f 1c             	mov    edi,DWORD PTR [edi+0x1c]
  40bf21:	89 45 e8             	mov    DWORD PTR [ebp-0x18],eax
  40bf24:	8b 45 08             	mov    eax,DWORD PTR [ebp+0x8]
  40bf27:	89 4d f4             	mov    DWORD PTR [ebp-0xc],ecx
  40bf2a:	f7 d1                	not    ecx
  40bf2c:	23 ce                	and    ecx,esi
  40bf2e:	89 5d dc             	mov    DWORD PTR [ebp-0x24],ebx
  40bf31:	33 4d e0             	xor    ecx,DWORD PTR [ebp-0x20]
  40bf34:	8b 40 20             	mov    eax,DWORD PTR [eax+0x20]
  40bf37:	8b 5d 08             	mov    ebx,DWORD PTR [ebp+0x8]
  40bf3a:	89 45 ec             	mov    DWORD PTR [ebp-0x14],eax
  40bf3d:	8b 45 08             	mov    eax,DWORD PTR [ebp+0x8]
  40bf40:	8b 40 24             	mov    eax,DWORD PTR [eax+0x24]
  40bf43:	89 45 f0             	mov    DWORD PTR [ebp-0x10],eax
  40bf46:	8b 45 e8             	mov    eax,DWORD PTR [ebp-0x18]
  40bf49:	89 0b                	mov    DWORD PTR [ebx],ecx
  40bf4b:	f7 d0                	not    eax
  40bf4d:	23 c2                	and    eax,edx
  40bf4f:	8b cb                	mov    ecx,ebx
  40bf51:	33 45 e4             	xor    eax,DWORD PTR [ebp-0x1c]
  40bf54:	89 41 04             	mov    DWORD PTR [ecx+0x4],eax
  40bf57:	8b ce                	mov    ecx,esi
  40bf59:	f7 d1                	not    ecx
  40bf5b:	8b c2                	mov    eax,edx
  40bf5d:	23 4d dc             	and    ecx,DWORD PTR [ebp-0x24]
  40bf60:	f7 d0                	not    eax
  40bf62:	33 4d f4             	xor    ecx,DWORD PTR [ebp-0xc]
  40bf65:	23 c7                	and    eax,edi
  40bf67:	33 45 e8             	xor    eax,DWORD PTR [ebp-0x18]
  40bf6a:	89 4b 08             	mov    DWORD PTR [ebx+0x8],ecx
  40bf6d:	8b cb                	mov    ecx,ebx
  40bf6f:	89 41 0c             	mov    DWORD PTR [ecx+0xc],eax
  40bf72:	8b 4d dc             	mov    ecx,DWORD PTR [ebp-0x24]
  40bf75:	8b c7                	mov    eax,edi
  40bf77:	f7 d0                	not    eax
  40bf79:	f7 d1                	not    ecx
  40bf7b:	23 45 f0             	and    eax,DWORD PTR [ebp-0x10]
  40bf7e:	23 4d ec             	and    ecx,DWORD PTR [ebp-0x14]
  40bf81:	33 c2                	xor    eax,edx
  40bf83:	33 ce                	xor    ecx,esi
  40bf85:	8b d3                	mov    edx,ebx
  40bf87:	89 42 14             	mov    DWORD PTR [edx+0x14],eax
  40bf8a:	89 4a 10             	mov    DWORD PTR [edx+0x10],ecx
  40bf8d:	8b 45 f0             	mov    eax,DWORD PTR [ebp-0x10]
  40bf90:	8b 4d ec             	mov    ecx,DWORD PTR [ebp-0x14]
  40bf93:	f7 d0                	not    eax
  40bf95:	23 45 e4             	and    eax,DWORD PTR [ebp-0x1c]
  40bf98:	f7 d1                	not    ecx
  40bf9a:	23 4d e0             	and    ecx,DWORD PTR [ebp-0x20]
  40bf9d:	33 c7                	xor    eax,edi
  40bf9f:	33 4d dc             	xor    ecx,DWORD PTR [ebp-0x24]
  40bfa2:	8b fa                	mov    edi,edx
  40bfa4:	89 47 1c             	mov    DWORD PTR [edi+0x1c],eax
  40bfa7:	89 4f 18             	mov    DWORD PTR [edi+0x18],ecx
  40bfaa:	8b 4d e0             	mov    ecx,DWORD PTR [ebp-0x20]
  40bfad:	8b 45 e4             	mov    eax,DWORD PTR [ebp-0x1c]
  40bfb0:	f7 d1                	not    ecx
  40bfb2:	23 4d f4             	and    ecx,DWORD PTR [ebp-0xc]
  40bfb5:	f7 d0                	not    eax
  40bfb7:	23 45 e8             	and    eax,DWORD PTR [ebp-0x18]
  40bfba:	33 45 f0             	xor    eax,DWORD PTR [ebp-0x10]
  40bfbd:	33 4d ec             	xor    ecx,DWORD PTR [ebp-0x14]
  40bfc0:	89 47 24             	mov    DWORD PTR [edi+0x24],eax
  40bfc3:	89 4f 20             	mov    DWORD PTR [edi+0x20],ecx
  40bfc6:	8b 47 28             	mov    eax,DWORD PTR [edi+0x28]
  40bfc9:	8b 4f 30             	mov    ecx,DWORD PTR [edi+0x30]
  40bfcc:	8b 5f 40             	mov    ebx,DWORD PTR [edi+0x40]
  40bfcf:	8b 77 38             	mov    esi,DWORD PTR [edi+0x38]
  40bfd2:	8b 57 3c             	mov    edx,DWORD PTR [edi+0x3c]
  40bfd5:	89 45 e0             	mov    DWORD PTR [ebp-0x20],eax
  40bfd8:	8b 47 2c             	mov    eax,DWORD PTR [edi+0x2c]
  40bfdb:	89 45 e4             	mov    DWORD PTR [ebp-0x1c],eax
  40bfde:	8b 47 34             	mov    eax,DWORD PTR [edi+0x34]
  40bfe1:	8b 7f 44             	mov    edi,DWORD PTR [edi+0x44]
  40bfe4:	89 45 e8             	mov    DWORD PTR [ebp-0x18],eax
  40bfe7:	8b 45 08             	mov    eax,DWORD PTR [ebp+0x8]
  40bfea:	89 4d f4             	mov    DWORD PTR [ebp-0xc],ecx
  40bfed:	f7 d1                	not    ecx
  40bfef:	23 ce                	and    ecx,esi
  40bff1:	89 5d dc             	mov    DWORD PTR [ebp-0x24],ebx
  40bff4:	33 4d e0             	xor    ecx,DWORD PTR [ebp-0x20]
  40bff7:	8b 40 48             	mov    eax,DWORD PTR [eax+0x48]
  40bffa:	8b 5d 08             	mov    ebx,DWORD PTR [ebp+0x8]
  40bffd:	89 45 ec             	mov    DWORD PTR [ebp-0x14],eax
  40c000:	8b 45 08             	mov    eax,DWORD PTR [ebp+0x8]
  40c003:	8b 40 4c             	mov    eax,DWORD PTR [eax+0x4c]
  40c006:	89 45 f0             	mov    DWORD PTR [ebp-0x10],eax
  40c009:	8b 45 e8             	mov    eax,DWORD PTR [ebp-0x18]
  40c00c:	89 4b 28             	mov    DWORD PTR [ebx+0x28],ecx
  40c00f:	f7 d0                	not    eax
  40c011:	23 c2                	and    eax,edx
  40c013:	8b cb                	mov    ecx,ebx
  40c015:	33 45 e4             	xor    eax,DWORD PTR [ebp-0x1c]
  40c018:	89 41 2c             	mov    DWORD PTR [ecx+0x2c],eax
  40c01b:	8b ce                	mov    ecx,esi
  40c01d:	f7 d1                	not    ecx
  40c01f:	8b c2                	mov    eax,edx
  40c021:	23 4d dc             	and    ecx,DWORD PTR [ebp-0x24]
  40c024:	f7 d0                	not    eax
  40c026:	33 4d f4             	xor    ecx,DWORD PTR [ebp-0xc]
  40c029:	23 c7                	and    eax,edi
  40c02b:	33 45 e8             	xor    eax,DWORD PTR [ebp-0x18]
  40c02e:	89 4b 30             	mov    DWORD PTR [ebx+0x30],ecx
  40c031:	8b cb                	mov    ecx,ebx
  40c033:	89 41 34             	mov    DWORD PTR [ecx+0x34],eax
  40c036:	8b c7                	mov    eax,edi
  40c038:	8b 4d dc             	mov    ecx,DWORD PTR [ebp-0x24]
  40c03b:	f7 d0                	not    eax
  40c03d:	23 45 f0             	and    eax,DWORD PTR [ebp-0x10]
  40c040:	f7 d1                	not    ecx
  40c042:	23 4d ec             	and    ecx,DWORD PTR [ebp-0x14]
  40c045:	33 ce                	xor    ecx,esi
  40c047:	33 c2                	xor    eax,edx
  40c049:	8b d3                	mov    edx,ebx
  40c04b:	89 42 3c             	mov    DWORD PTR [edx+0x3c],eax
  40c04e:	89 4a 38             	mov    DWORD PTR [edx+0x38],ecx
  40c051:	8b 45 f0             	mov    eax,DWORD PTR [ebp-0x10]
  40c054:	8b 4d ec             	mov    ecx,DWORD PTR [ebp-0x14]
  40c057:	f7 d0                	not    eax
  40c059:	23 45 e4             	and    eax,DWORD PTR [ebp-0x1c]
  40c05c:	f7 d1                	not    ecx
  40c05e:	23 4d e0             	and    ecx,DWORD PTR [ebp-0x20]
  40c061:	33 c7                	xor    eax,edi
  40c063:	33 4d dc             	xor    ecx,DWORD PTR [ebp-0x24]
  40c066:	8b fa                	mov    edi,edx
  40c068:	89 4f 40             	mov    DWORD PTR [edi+0x40],ecx
  40c06b:	89 47 44             	mov    DWORD PTR [edi+0x44],eax
  40c06e:	8b 4d e0             	mov    ecx,DWORD PTR [ebp-0x20]
  40c071:	8b 45 e4             	mov    eax,DWORD PTR [ebp-0x1c]
  40c074:	f7 d1                	not    ecx
  40c076:	23 4d f4             	and    ecx,DWORD PTR [ebp-0xc]
  40c079:	f7 d0                	not    eax
  40c07b:	23 45 e8             	and    eax,DWORD PTR [ebp-0x18]
  40c07e:	33 45 f0             	xor    eax,DWORD PTR [ebp-0x10]
  40c081:	33 4d ec             	xor    ecx,DWORD PTR [ebp-0x14]
  40c084:	89 4f 48             	mov    DWORD PTR [edi+0x48],ecx
  40c087:	89 47 4c             	mov    DWORD PTR [edi+0x4c],eax
  40c08a:	8b 47 50             	mov    eax,DWORD PTR [edi+0x50]
  40c08d:	8b 4f 58             	mov    ecx,DWORD PTR [edi+0x58]
  40c090:	8b 5f 68             	mov    ebx,DWORD PTR [edi+0x68]
  40c093:	8b 77 60             	mov    esi,DWORD PTR [edi+0x60]
  40c096:	8b 57 64             	mov    edx,DWORD PTR [edi+0x64]
  40c099:	89 45 e0             	mov    DWORD PTR [ebp-0x20],eax
  40c09c:	8b 47 54             	mov    eax,DWORD PTR [edi+0x54]
  40c09f:	89 45 e4             	mov    DWORD PTR [ebp-0x1c],eax
  40c0a2:	8b 47 5c             	mov    eax,DWORD PTR [edi+0x5c]
  40c0a5:	8b 7f 6c             	mov    edi,DWORD PTR [edi+0x6c]
  40c0a8:	89 45 e8             	mov    DWORD PTR [ebp-0x18],eax
  40c0ab:	8b 45 08             	mov    eax,DWORD PTR [ebp+0x8]
  40c0ae:	89 4d f4             	mov    DWORD PTR [ebp-0xc],ecx
  40c0b1:	f7 d1                	not    ecx
  40c0b3:	23 ce                	and    ecx,esi
  40c0b5:	89 5d dc             	mov    DWORD PTR [ebp-0x24],ebx
  40c0b8:	33 4d e0             	xor    ecx,DWORD PTR [ebp-0x20]
  40c0bb:	8b 40 70             	mov    eax,DWORD PTR [eax+0x70]
  40c0be:	8b 5d 08             	mov    ebx,DWORD PTR [ebp+0x8]
  40c0c1:	89 45 ec             	mov    DWORD PTR [ebp-0x14],eax
  40c0c4:	8b 45 08             	mov    eax,DWORD PTR [ebp+0x8]
  40c0c7:	8b 40 74             	mov    eax,DWORD PTR [eax+0x74]
  40c0ca:	89 4b 50             	mov    DWORD PTR [ebx+0x50],ecx
  40c0cd:	8b cb                	mov    ecx,ebx
  40c0cf:	89 45 f0             	mov    DWORD PTR [ebp-0x10],eax
  40c0d2:	8b 45 e8             	mov    eax,DWORD PTR [ebp-0x18]
  40c0d5:	f7 d0                	not    eax
  40c0d7:	23 c2                	and    eax,edx
  40c0d9:	33 45 e4             	xor    eax,DWORD PTR [ebp-0x1c]
  40c0dc:	89 41 54             	mov    DWORD PTR [ecx+0x54],eax
  40c0df:	8b ce                	mov    ecx,esi
  40c0e1:	f7 d1                	not    ecx
  40c0e3:	8b c2                	mov    eax,edx
  40c0e5:	23 4d dc             	and    ecx,DWORD PTR [ebp-0x24]
  40c0e8:	f7 d0                	not    eax
  40c0ea:	33 4d f4             	xor    ecx,DWORD PTR [ebp-0xc]
  40c0ed:	23 c7                	and    eax,edi
  40c0ef:	33 45 e8             	xor    eax,DWORD PTR [ebp-0x18]
  40c0f2:	89 4b 58             	mov    DWORD PTR [ebx+0x58],ecx
  40c0f5:	8b cb                	mov    ecx,ebx
  40c0f7:	89 41 5c             	mov    DWORD PTR [ecx+0x5c],eax
  40c0fa:	8b c7                	mov    eax,edi
  40c0fc:	8b 4d dc             	mov    ecx,DWORD PTR [ebp-0x24]
  40c0ff:	f7 d0                	not    eax
  40c101:	23 45 f0             	and    eax,DWORD PTR [ebp-0x10]
  40c104:	f7 d1                	not    ecx
  40c106:	23 4d ec             	and    ecx,DWORD PTR [ebp-0x14]
  40c109:	33 c2                	xor    eax,edx
  40c10b:	8b d3                	mov    edx,ebx
  40c10d:	33 ce                	xor    ecx,esi
  40c10f:	89 4a 60             	mov    DWORD PTR [edx+0x60],ecx
  40c112:	8b 4d ec             	mov    ecx,DWORD PTR [ebp-0x14]
  40c115:	89 42 64             	mov    DWORD PTR [edx+0x64],eax
  40c118:	f7 d1                	not    ecx
  40c11a:	8b 45 f0             	mov    eax,DWORD PTR [ebp-0x10]
  40c11d:	23 4d e0             	and    ecx,DWORD PTR [ebp-0x20]
  40c120:	f7 d0                	not    eax
  40c122:	23 45 e4             	and    eax,DWORD PTR [ebp-0x1c]
  40c125:	33 4d dc             	xor    ecx,DWORD PTR [ebp-0x24]
  40c128:	33 c7                	xor    eax,edi
  40c12a:	8b fa                	mov    edi,edx
  40c12c:	89 4f 68             	mov    DWORD PTR [edi+0x68],ecx
  40c12f:	89 47 6c             	mov    DWORD PTR [edi+0x6c],eax
  40c132:	8b 4d e0             	mov    ecx,DWORD PTR [ebp-0x20]
  40c135:	8b 45 e4             	mov    eax,DWORD PTR [ebp-0x1c]
  40c138:	f7 d1                	not    ecx
  40c13a:	23 4d f4             	and    ecx,DWORD PTR [ebp-0xc]
  40c13d:	f7 d0                	not    eax
  40c13f:	23 45 e8             	and    eax,DWORD PTR [ebp-0x18]
  40c142:	33 45 f0             	xor    eax,DWORD PTR [ebp-0x10]
  40c145:	33 4d ec             	xor    ecx,DWORD PTR [ebp-0x14]
  40c148:	89 4f 70             	mov    DWORD PTR [edi+0x70],ecx
  40c14b:	89 47 74             	mov    DWORD PTR [edi+0x74],eax
  40c14e:	8b 47 78             	mov    eax,DWORD PTR [edi+0x78]
  40c151:	8b 8f 80 00 00 00    	mov    ecx,DWORD PTR [edi+0x80]
  40c157:	8b 9f 90 00 00 00    	mov    ebx,DWORD PTR [edi+0x90]
  40c15d:	8b b7 88 00 00 00    	mov    esi,DWORD PTR [edi+0x88]
  40c163:	8b 97 8c 00 00 00    	mov    edx,DWORD PTR [edi+0x8c]
  40c169:	89 45 e0             	mov    DWORD PTR [ebp-0x20],eax
  40c16c:	8b 47 7c             	mov    eax,DWORD PTR [edi+0x7c]
  40c16f:	89 45 e4             	mov    DWORD PTR [ebp-0x1c],eax
  40c172:	8b 87 84 00 00 00    	mov    eax,DWORD PTR [edi+0x84]
  40c178:	8b bf 94 00 00 00    	mov    edi,DWORD PTR [edi+0x94]
  40c17e:	89 45 e8             	mov    DWORD PTR [ebp-0x18],eax
  40c181:	8b 45 08             	mov    eax,DWORD PTR [ebp+0x8]
  40c184:	89 4d f4             	mov    DWORD PTR [ebp-0xc],ecx
  40c187:	f7 d1                	not    ecx
  40c189:	23 ce                	and    ecx,esi
  40c18b:	89 5d dc             	mov    DWORD PTR [ebp-0x24],ebx
  40c18e:	33 4d e0             	xor    ecx,DWORD PTR [ebp-0x20]
  40c191:	8b 80 98 00 00 00    	mov    eax,DWORD PTR [eax+0x98]
  40c197:	8b 5d 08             	mov    ebx,DWORD PTR [ebp+0x8]
  40c19a:	89 45 ec             	mov    DWORD PTR [ebp-0x14],eax
  40c19d:	8b 45 08             	mov    eax,DWORD PTR [ebp+0x8]
  40c1a0:	8b 80 9c 00 00 00    	mov    eax,DWORD PTR [eax+0x9c]
  40c1a6:	89 4b 78             	mov    DWORD PTR [ebx+0x78],ecx
  40c1a9:	8b cb                	mov    ecx,ebx
  40c1ab:	89 45 f0             	mov    DWORD PTR [ebp-0x10],eax
  40c1ae:	8b 45 e8             	mov    eax,DWORD PTR [ebp-0x18]
  40c1b1:	f7 d0                	not    eax
  40c1b3:	23 c2                	and    eax,edx
  40c1b5:	33 45 e4             	xor    eax,DWORD PTR [ebp-0x1c]
  40c1b8:	89 41 7c             	mov    DWORD PTR [ecx+0x7c],eax
  40c1bb:	8b ce                	mov    ecx,esi
  40c1bd:	f7 d1                	not    ecx
  40c1bf:	8b c2                	mov    eax,edx
  40c1c1:	23 4d dc             	and    ecx,DWORD PTR [ebp-0x24]
  40c1c4:	f7 d0                	not    eax
  40c1c6:	33 4d f4             	xor    ecx,DWORD PTR [ebp-0xc]
  40c1c9:	23 c7                	and    eax,edi
  40c1cb:	33 45 e8             	xor    eax,DWORD PTR [ebp-0x18]
  40c1ce:	89 8b 80 00 00 00    	mov    DWORD PTR [ebx+0x80],ecx
  40c1d4:	8b cb                	mov    ecx,ebx
  40c1d6:	89 81 84 00 00 00    	mov    DWORD PTR [ecx+0x84],eax
  40c1dc:	8b c7                	mov    eax,edi
  40c1de:	8b 4d dc             	mov    ecx,DWORD PTR [ebp-0x24]
  40c1e1:	f7 d0                	not    eax
  40c1e3:	23 45 f0             	and    eax,DWORD PTR [ebp-0x10]
  40c1e6:	f7 d1                	not    ecx
  40c1e8:	23 4d ec             	and    ecx,DWORD PTR [ebp-0x14]
  40c1eb:	33 c2                	xor    eax,edx
  40c1ed:	33 ce                	xor    ecx,esi
  40c1ef:	8b d3                	mov    edx,ebx
  40c1f1:	89 8a 88 00 00 00    	mov    DWORD PTR [edx+0x88],ecx
  40c1f7:	8b 4d ec             	mov    ecx,DWORD PTR [ebp-0x14]
  40c1fa:	89 82 8c 00 00 00    	mov    DWORD PTR [edx+0x8c],eax
  40c200:	f7 d1                	not    ecx
  40c202:	8b 45 f0             	mov    eax,DWORD PTR [ebp-0x10]
  40c205:	23 4d e0             	and    ecx,DWORD PTR [ebp-0x20]
  40c208:	f7 d0                	not    eax
  40c20a:	33 4d dc             	xor    ecx,DWORD PTR [ebp-0x24]
  40c20d:	23 45 e4             	and    eax,DWORD PTR [ebp-0x1c]
  40c210:	33 c7                	xor    eax,edi
  40c212:	8b fa                	mov    edi,edx
  40c214:	89 8f 90 00 00 00    	mov    DWORD PTR [edi+0x90],ecx
  40c21a:	8b 4d e0             	mov    ecx,DWORD PTR [ebp-0x20]
  40c21d:	89 87 94 00 00 00    	mov    DWORD PTR [edi+0x94],eax
  40c223:	f7 d1                	not    ecx
  40c225:	23 4d f4             	and    ecx,DWORD PTR [ebp-0xc]
  40c228:	33 4d ec             	xor    ecx,DWORD PTR [ebp-0x14]
  40c22b:	8b 45 e4             	mov    eax,DWORD PTR [ebp-0x1c]
  40c22e:	89 8f 98 00 00 00    	mov    DWORD PTR [edi+0x98],ecx
  40c234:	f7 d0                	not    eax
  40c236:	23 45 e8             	and    eax,DWORD PTR [ebp-0x18]
  40c239:	33 45 f0             	xor    eax,DWORD PTR [ebp-0x10]
  40c23c:	89 87 9c 00 00 00    	mov    DWORD PTR [edi+0x9c],eax
  40c242:	8b 87 a0 00 00 00    	mov    eax,DWORD PTR [edi+0xa0]
  40c248:	8b 8f a8 00 00 00    	mov    ecx,DWORD PTR [edi+0xa8]
  40c24e:	8b b7 b0 00 00 00    	mov    esi,DWORD PTR [edi+0xb0]
  40c254:	8b 9f b8 00 00 00    	mov    ebx,DWORD PTR [edi+0xb8]
  40c25a:	89 45 e0             	mov    DWORD PTR [ebp-0x20],eax
  40c25d:	8b 87 a4 00 00 00    	mov    eax,DWORD PTR [edi+0xa4]
  40c263:	8b 97 b4 00 00 00    	mov    edx,DWORD PTR [edi+0xb4]
  40c269:	89 45 e4             	mov    DWORD PTR [ebp-0x1c],eax
  40c26c:	8b 87 ac 00 00 00    	mov    eax,DWORD PTR [edi+0xac]
  40c272:	8b bf bc 00 00 00    	mov    edi,DWORD PTR [edi+0xbc]
  40c278:	89 45 e8             	mov    DWORD PTR [ebp-0x18],eax
  40c27b:	8b 45 08             	mov    eax,DWORD PTR [ebp+0x8]
  40c27e:	89 4d f4             	mov    DWORD PTR [ebp-0xc],ecx
  40c281:	f7 d1                	not    ecx
  40c283:	23 ce                	and    ecx,esi
  40c285:	89 5d dc             	mov    DWORD PTR [ebp-0x24],ebx
  40c288:	33 4d e0             	xor    ecx,DWORD PTR [ebp-0x20]
  40c28b:	8b 80 c0 00 00 00    	mov    eax,DWORD PTR [eax+0xc0]
  40c291:	8b 5d 08             	mov    ebx,DWORD PTR [ebp+0x8]
  40c294:	89 45 ec             	mov    DWORD PTR [ebp-0x14],eax
  40c297:	8b 45 08             	mov    eax,DWORD PTR [ebp+0x8]
  40c29a:	8b 80 c4 00 00 00    	mov    eax,DWORD PTR [eax+0xc4]
  40c2a0:	89 8b a0 00 00 00    	mov    DWORD PTR [ebx+0xa0],ecx
  40c2a6:	8b cb                	mov    ecx,ebx
  40c2a8:	89 45 f0             	mov    DWORD PTR [ebp-0x10],eax
  40c2ab:	8b 45 e8             	mov    eax,DWORD PTR [ebp-0x18]
  40c2ae:	f7 d0                	not    eax
  40c2b0:	23 c2                	and    eax,edx
  40c2b2:	33 45 e4             	xor    eax,DWORD PTR [ebp-0x1c]
  40c2b5:	89 81 a4 00 00 00    	mov    DWORD PTR [ecx+0xa4],eax
  40c2bb:	8b ce                	mov    ecx,esi
  40c2bd:	f7 d1                	not    ecx
  40c2bf:	8b c2                	mov    eax,edx
  40c2c1:	23 4d dc             	and    ecx,DWORD PTR [ebp-0x24]
  40c2c4:	f7 d0                	not    eax
  40c2c6:	33 4d f4             	xor    ecx,DWORD PTR [ebp-0xc]
  40c2c9:	23 c7                	and    eax,edi
  40c2cb:	33 45 e8             	xor    eax,DWORD PTR [ebp-0x18]
  40c2ce:	89 8b a8 00 00 00    	mov    DWORD PTR [ebx+0xa8],ecx
  40c2d4:	8b cb                	mov    ecx,ebx
  40c2d6:	89 81 ac 00 00 00    	mov    DWORD PTR [ecx+0xac],eax
  40c2dc:	8b c7                	mov    eax,edi
  40c2de:	8b 4d dc             	mov    ecx,DWORD PTR [ebp-0x24]
  40c2e1:	f7 d0                	not    eax
  40c2e3:	23 45 f0             	and    eax,DWORD PTR [ebp-0x10]
  40c2e6:	f7 d1                	not    ecx
  40c2e8:	23 4d ec             	and    ecx,DWORD PTR [ebp-0x14]
  40c2eb:	33 c2                	xor    eax,edx
  40c2ed:	33 ce                	xor    ecx,esi
  40c2ef:	8b d3                	mov    edx,ebx
  40c2f1:	8b f2                	mov    esi,edx
  40c2f3:	89 8a b0 00 00 00    	mov    DWORD PTR [edx+0xb0],ecx
  40c2f9:	8b 4d ec             	mov    ecx,DWORD PTR [ebp-0x14]
  40c2fc:	89 82 b4 00 00 00    	mov    DWORD PTR [edx+0xb4],eax
  40c302:	f7 d1                	not    ecx
  40c304:	23 4d e0             	and    ecx,DWORD PTR [ebp-0x20]
  40c307:	8b 45 f0             	mov    eax,DWORD PTR [ebp-0x10]
  40c30a:	33 4d dc             	xor    ecx,DWORD PTR [ebp-0x24]
  40c30d:	f7 d0                	not    eax
  40c30f:	23 45 e4             	and    eax,DWORD PTR [ebp-0x1c]
  40c312:	33 c7                	xor    eax,edi
  40c314:	89 8b b8 00 00 00    	mov    DWORD PTR [ebx+0xb8],ecx
  40c31a:	8b 4d e0             	mov    ecx,DWORD PTR [ebp-0x20]
  40c31d:	89 83 bc 00 00 00    	mov    DWORD PTR [ebx+0xbc],eax
  40c323:	f7 d1                	not    ecx
  40c325:	8b 45 e4             	mov    eax,DWORD PTR [ebp-0x1c]
  40c328:	23 4d f4             	and    ecx,DWORD PTR [ebp-0xc]
  40c32b:	f7 d0                	not    eax
  40c32d:	23 45 e8             	and    eax,DWORD PTR [ebp-0x18]
  40c330:	33 4d ec             	xor    ecx,DWORD PTR [ebp-0x14]
  40c333:	33 45 f0             	xor    eax,DWORD PTR [ebp-0x10]
  40c336:	89 8e c0 00 00 00    	mov    DWORD PTR [esi+0xc0],ecx
  40c33c:	89 86 c4 00 00 00    	mov    DWORD PTR [esi+0xc4],eax
  40c342:	8b 4d d8             	mov    ecx,DWORD PTR [ebp-0x28]
  40c345:	8b 01                	mov    eax,DWORD PTR [ecx]
  40c347:	31 06                	xor    DWORD PTR [esi],eax
  40c349:	8b 41 04             	mov    eax,DWORD PTR [ecx+0x4]
  40c34c:	83 c1 08             	add    ecx,0x8
  40c34f:	31 46 04             	xor    DWORD PTR [esi+0x4],eax
  40c352:	89 4d d8             	mov    DWORD PTR [ebp-0x28],ecx
  40c355:	81 f9 60 0c 41 00    	cmp    ecx,0x410c60
  40c35b:	0f 8c 3c f4 ff ff    	jl     0x40b79d
  40c361:	5f                   	pop    edi
  40c362:	5e                   	pop    esi
  40c363:	5b                   	pop    ebx
  40c364:	8b e5                	mov    esp,ebp
  40c366:	5d                   	pop    ebp
  40c367:	c3                   	ret    
  40c368:	55                   	push   ebp
  40c369:	8b ec                	mov    ebp,esp
  40c36b:	83 7d 0c 20          	cmp    DWORD PTR [ebp+0xc],0x20
  40c36f:	76 05                	jbe    0x40c376
  40c371:	83 c8 ff             	or     eax,0xffffffff
  40c374:	5d                   	pop    ebp
  40c375:	c3                   	ret    
  40c376:	6a 06                	push   0x6
  40c378:	68 88 00 00 00       	push   0x88
  40c37d:	ff 75 14             	push   DWORD PTR [ebp+0x14]
  40c380:	ff 75 10             	push   DWORD PTR [ebp+0x10]
  40c383:	ff 75 0c             	push   DWORD PTR [ebp+0xc]
  40c386:	ff 75 08             	push   DWORD PTR [ebp+0x8]
  40c389:	e8 c0 f2 ff ff       	call   0x40b64e
  40c38e:	83 c4 18             	add    esp,0x18
  40c391:	5d                   	pop    ebp
  40c392:	c3                   	ret    
  40c393:	55                   	push   ebp
  40c394:	8b ec                	mov    ebp,esp
  40c396:	8a 45 08             	mov    al,BYTE PTR [ebp+0x8]
  40c399:	8d 48 d0             	lea    ecx,[eax-0x30]
  40c39c:	80 f9 09             	cmp    cl,0x9
  40c39f:	77 04                	ja     0x40c3a5
  40c3a1:	2c 30                	sub    al,0x30
  40c3a3:	5d                   	pop    ebp
  40c3a4:	c3                   	ret    
  40c3a5:	0f be c0             	movsx  eax,al
  40c3a8:	83 f8 61             	cmp    eax,0x61
  40c3ab:	7f 10                	jg     0x40c3bd
  40c3ad:	74 0a                	je     0x40c3b9
  40c3af:	83 e8 41             	sub    eax,0x41
  40c3b2:	74 05                	je     0x40c3b9
  40c3b4:	83 e8 01             	sub    eax,0x1
  40c3b7:	eb 07                	jmp    0x40c3c0
  40c3b9:	b0 0a                	mov    al,0xa
  40c3bb:	5d                   	pop    ebp
  40c3bc:	c3                   	ret    
  40c3bd:	83 e8 62             	sub    eax,0x62
  40c3c0:	74 28                	je     0x40c3ea
  40c3c2:	83 e8 01             	sub    eax,0x1
  40c3c5:	74 1f                	je     0x40c3e6
  40c3c7:	83 e8 01             	sub    eax,0x1
  40c3ca:	74 16                	je     0x40c3e2
  40c3cc:	83 e8 01             	sub    eax,0x1
  40c3cf:	74 0d                	je     0x40c3de
  40c3d1:	83 e8 01             	sub    eax,0x1
  40c3d4:	74 04                	je     0x40c3da
  40c3d6:	0c ff                	or     al,0xff
  40c3d8:	5d                   	pop    ebp
  40c3d9:	c3                   	ret    
  40c3da:	b0 0f                	mov    al,0xf
  40c3dc:	5d                   	pop    ebp
  40c3dd:	c3                   	ret    
  40c3de:	b0 0e                	mov    al,0xe
  40c3e0:	5d                   	pop    ebp
  40c3e1:	c3                   	ret    
  40c3e2:	b0 0d                	mov    al,0xd
  40c3e4:	5d                   	pop    ebp
  40c3e5:	c3                   	ret    
  40c3e6:	b0 0c                	mov    al,0xc
  40c3e8:	5d                   	pop    ebp
  40c3e9:	c3                   	ret    
  40c3ea:	b0 0b                	mov    al,0xb
  40c3ec:	5d                   	pop    ebp
  40c3ed:	c3                   	ret    
  40c3ee:	55                   	push   ebp
  40c3ef:	8b ec                	mov    ebp,esp
  40c3f1:	8b 4d 08             	mov    ecx,DWORD PTR [ebp+0x8]
  40c3f4:	8b 55 0c             	mov    edx,DWORD PTR [ebp+0xc]
  40c3f7:	56                   	push   esi
  40c3f8:	8b 41 08             	mov    eax,DWORD PTR [ecx+0x8]
  40c3fb:	8b 31                	mov    esi,DWORD PTR [ecx]
  40c3fd:	2b c6                	sub    eax,esi
  40c3ff:	3b c2                	cmp    eax,edx
  40c401:	73 04                	jae    0x40c407
  40c403:	33 c0                	xor    eax,eax
  40c405:	eb 15                	jmp    0x40c41c
  40c407:	83 79 0c 00          	cmp    DWORD PTR [ecx+0xc],0x0
  40c40b:	74 0a                	je     0x40c417
  40c40d:	8d 04 16             	lea    eax,[esi+edx*1]
  40c410:	89 01                	mov    DWORD PTR [ecx],eax
  40c412:	3b 41 0c             	cmp    eax,DWORD PTR [ecx+0xc]
  40c415:	77 ec                	ja     0x40c403
  40c417:	52                   	push   edx
  40c418:	ff 51 14             	call   DWORD PTR [ecx+0x14]
  40c41b:	59                   	pop    ecx
  40c41c:	5e                   	pop    esi
  40c41d:	5d                   	pop    ebp
  40c41e:	c3                   	ret    
  40c41f:	55                   	push   ebp
  40c420:	8b ec                	mov    ebp,esp
  40c422:	83 ec 70             	sub    esp,0x70
  40c425:	53                   	push   ebx
  40c426:	56                   	push   esi
  40c427:	57                   	push   edi
  40c428:	33 db                	xor    ebx,ebx
  40c42a:	8d 45 90             	lea    eax,[ebp-0x70]
  40c42d:	6a 34                	push   0x34
  40c42f:	53                   	push   ebx
  40c430:	50                   	push   eax
  40c431:	89 5d e0             	mov    DWORD PTR [ebp-0x20],ebx
  40c434:	e8 c2 8d ff ff       	call   0x4051fb
  40c439:	8b 45 10             	mov    eax,DWORD PTR [ebp+0x10]
  40c43c:	83 c4 0c             	add    esp,0xc
  40c43f:	89 5d dc             	mov    DWORD PTR [ebp-0x24],ebx
  40c442:	89 5d d0             	mov    DWORD PTR [ebp-0x30],ebx
  40c445:	89 5d c4             	mov    DWORD PTR [ebp-0x3c],ebx
  40c448:	89 5d c8             	mov    DWORD PTR [ebp-0x38],ebx
  40c44b:	8b 5d 0c             	mov    ebx,DWORD PTR [ebp+0xc]
  40c44e:	89 5d cc             	mov    DWORD PTR [ebp-0x34],ebx
  40c451:	83 f8 03             	cmp    eax,0x3
  40c454:	72 1a                	jb     0x40c470
  40c456:	80 3b ef             	cmp    BYTE PTR [ebx],0xef
  40c459:	75 15                	jne    0x40c470
  40c45b:	80 7b 01 bb          	cmp    BYTE PTR [ebx+0x1],0xbb
  40c45f:	75 0f                	jne    0x40c470
  40c461:	80 7b 02 bf          	cmp    BYTE PTR [ebx+0x2],0xbf
  40c465:	75 09                	jne    0x40c470
  40c467:	83 c3 03             	add    ebx,0x3
  40c46a:	83 e8 03             	sub    eax,0x3
  40c46d:	89 5d cc             	mov    DWORD PTR [ebp-0x34],ebx
  40c470:	8b 75 08             	mov    esi,DWORD PTR [ebp+0x8]
  40c473:	8d 7d 9c             	lea    edi,[ebp-0x64]
  40c476:	dd 05 60 0c 41 00    	fld    QWORD PTR ds:0x410c60
  40c47c:	03 c3                	add    eax,ebx
  40c47e:	89 45 e4             	mov    DWORD PTR [ebp-0x1c],eax
  40c481:	83 c8 ff             	or     eax,0xffffffff
  40c484:	6a 06                	push   0x6
  40c486:	59                   	pop    ecx
  40c487:	f3 a5                	rep movs DWORD PTR es:[edi],DWORD PTR ds:[esi]
  40c489:	89 45 94             	mov    DWORD PTR [ebp-0x6c],eax
  40c48c:	83 e8 08             	sub    eax,0x8
  40c48f:	83 6d 94 08          	sub    DWORD PTR [ebp-0x6c],0x8
  40c493:	89 45 98             	mov    DWORD PTR [ebp-0x68],eax
  40c496:	33 c0                	xor    eax,eax
  40c498:	40                   	inc    eax
  40c499:	89 45 b4             	mov    DWORD PTR [ebp-0x4c],eax
  40c49c:	83 65 ec 00          	and    DWORD PTR [ebp-0x14],0x0
  40c4a0:	33 ff                	xor    edi,edi
  40c4a2:	21 7d e8             	and    DWORD PTR [ebp-0x18],edi
  40c4a5:	33 f6                	xor    esi,esi
  40c4a7:	6a 08                	push   0x8
  40c4a9:	5a                   	pop    edx
  40c4aa:	89 7d 10             	mov    DWORD PTR [ebp+0x10],edi
  40c4ad:	89 75 f4             	mov    DWORD PTR [ebp-0xc],esi
  40c4b0:	89 75 f0             	mov    DWORD PTR [ebp-0x10],esi
  40c4b3:	89 55 f8             	mov    DWORD PTR [ebp-0x8],edx
  40c4b6:	c7 45 bc 01 00 00 00 	mov    DWORD PTR [ebp-0x44],0x1
  40c4bd:	89 5d b8             	mov    DWORD PTR [ebp-0x48],ebx
  40c4c0:	3b 5d e4             	cmp    ebx,DWORD PTR [ebp-0x1c]
  40c4c3:	75 04                	jne    0x40c4c9
  40c4c5:	32 c9                	xor    cl,cl
  40c4c7:	eb 02                	jmp    0x40c4cb
  40c4c9:	8a 0b                	mov    cl,BYTE PTR [ebx]
  40c4cb:	88 4d 0f             	mov    BYTE PTR [ebp+0xf],cl
  40c4ce:	f6 c2 20             	test   dl,0x20
  40c4d1:	0f 84 39 03 00 00    	je     0x40c810
  40c4d7:	84 c9                	test   cl,cl
  40c4d9:	0f 84 4f 0b 00 00    	je     0x40d02e
  40c4df:	3b 7d 94             	cmp    edi,DWORD PTR [ebp-0x6c]
  40c4e2:	0f 87 46 0b 00 00    	ja     0x40d02e
  40c4e8:	f6 c2 10             	test   dl,0x10
  40c4eb:	0f 84 d6 02 00 00    	je     0x40c7c7
  40c4f1:	83 e2 ef             	and    edx,0xffffffef
  40c4f4:	0f be c1             	movsx  eax,cl
  40c4f7:	89 55 f8             	mov    DWORD PTR [ebp-0x8],edx
  40c4fa:	dd d8                	fstp   st(0)
  40c4fc:	83 e8 62             	sub    eax,0x62
  40c4ff:	0f 84 ab 02 00 00    	je     0x40c7b0
  40c505:	83 e8 04             	sub    eax,0x4
  40c508:	0f 84 92 02 00 00    	je     0x40c7a0
  40c50e:	83 e8 08             	sub    eax,0x8
  40c511:	0f 84 79 02 00 00    	je     0x40c790
  40c517:	83 e8 04             	sub    eax,0x4
  40c51a:	0f 84 60 02 00 00    	je     0x40c780
  40c520:	48                   	dec    eax
  40c521:	83 e8 01             	sub    eax,0x1
  40c524:	0f 84 46 02 00 00    	je     0x40c770
  40c52a:	83 e8 01             	sub    eax,0x1
  40c52d:	74 08                	je     0x40c537
  40c52f:	8b 45 b4             	mov    eax,DWORD PTR [ebp-0x4c]
  40c532:	e9 58 03 00 00       	jmp    0x40c88f
  40c537:	8b 45 e4             	mov    eax,DWORD PTR [ebp-0x1c]
  40c53a:	2b c3                	sub    eax,ebx
  40c53c:	83 f8 04             	cmp    eax,0x4
  40c53f:	0f 8e eb 0a 00 00    	jle    0x40d030
  40c545:	43                   	inc    ebx
  40c546:	89 5d b8             	mov    DWORD PTR [ebp-0x48],ebx
  40c549:	0f b6 03             	movzx  eax,BYTE PTR [ebx]
  40c54c:	50                   	push   eax
  40c54d:	e8 41 fe ff ff       	call   0x40c393
  40c552:	88 45 0f             	mov    BYTE PTR [ebp+0xf],al
  40c555:	59                   	pop    ecx
  40c556:	3c ff                	cmp    al,0xff
  40c558:	0f 84 d2 0a 00 00    	je     0x40d030
  40c55e:	43                   	inc    ebx
  40c55f:	89 5d b8             	mov    DWORD PTR [ebp-0x48],ebx
  40c562:	0f b6 0b             	movzx  ecx,BYTE PTR [ebx]
  40c565:	51                   	push   ecx
  40c566:	e8 28 fe ff ff       	call   0x40c393
  40c56b:	88 45 13             	mov    BYTE PTR [ebp+0x13],al
  40c56e:	59                   	pop    ecx
  40c56f:	3c ff                	cmp    al,0xff
  40c571:	0f 84 b9 0a 00 00    	je     0x40d030
  40c577:	43                   	inc    ebx
  40c578:	89 5d b8             	mov    DWORD PTR [ebp-0x48],ebx
  40c57b:	0f b6 0b             	movzx  ecx,BYTE PTR [ebx]
  40c57e:	51                   	push   ecx
  40c57f:	e8 0f fe ff ff       	call   0x40c393
  40c584:	88 45 0b             	mov    BYTE PTR [ebp+0xb],al
  40c587:	59                   	pop    ecx
  40c588:	3c ff                	cmp    al,0xff
  40c58a:	0f 84 a0 0a 00 00    	je     0x40d030
  40c590:	43                   	inc    ebx
  40c591:	89 5d b8             	mov    DWORD PTR [ebp-0x48],ebx
  40c594:	0f b6 0b             	movzx  ecx,BYTE PTR [ebx]
  40c597:	51                   	push   ecx
  40c598:	e8 f6 fd ff ff       	call   0x40c393
  40c59d:	88 45 ff             	mov    BYTE PTR [ebp-0x1],al
  40c5a0:	59                   	pop    ecx
  40c5a1:	3c ff                	cmp    al,0xff
  40c5a3:	0f 84 87 0a 00 00    	je     0x40d030
  40c5a9:	8a 45 0f             	mov    al,BYTE PTR [ebp+0xf]
  40c5ac:	0f b6 4d 13          	movzx  ecx,BYTE PTR [ebp+0x13]
  40c5b0:	c0 e0 04             	shl    al,0x4
  40c5b3:	0f b6 f0             	movzx  esi,al
  40c5b6:	8a 45 0b             	mov    al,BYTE PTR [ebp+0xb]
  40c5b9:	0b f1                	or     esi,ecx
  40c5bb:	c0 e0 04             	shl    al,0x4
  40c5be:	8b ce                	mov    ecx,esi
  40c5c0:	0f b6 c0             	movzx  eax,al
  40c5c3:	c1 e1 08             	shl    ecx,0x8
  40c5c6:	0b c8                	or     ecx,eax
  40c5c8:	89 75 d8             	mov    DWORD PTR [ebp-0x28],esi
  40c5cb:	0f b6 45 ff          	movzx  eax,BYTE PTR [ebp-0x1]
  40c5cf:	0b c8                	or     ecx,eax
  40c5d1:	8b c1                	mov    eax,ecx
  40c5d3:	89 4d d8             	mov    DWORD PTR [ebp-0x28],ecx
  40c5d6:	25 00 f8 00 00       	and    eax,0xf800
  40c5db:	3d 00 d8 00 00       	cmp    eax,0xd800
  40c5e0:	0f 85 ba 00 00 00    	jne    0x40c6a0
  40c5e6:	8b 45 e4             	mov    eax,DWORD PTR [ebp-0x1c]
  40c5e9:	2b c3                	sub    eax,ebx
  40c5eb:	83 f8 06             	cmp    eax,0x6
  40c5ee:	0f 8e 3c 0a 00 00    	jle    0x40d030
  40c5f4:	43                   	inc    ebx
  40c5f5:	89 5d b8             	mov    DWORD PTR [ebp-0x48],ebx
  40c5f8:	80 3b 5c             	cmp    BYTE PTR [ebx],0x5c
  40c5fb:	0f 85 2f 0a 00 00    	jne    0x40d030
  40c601:	43                   	inc    ebx
  40c602:	89 5d b8             	mov    DWORD PTR [ebp-0x48],ebx
  40c605:	80 3b 75             	cmp    BYTE PTR [ebx],0x75
  40c608:	0f 85 22 0a 00 00    	jne    0x40d030
  40c60e:	43                   	inc    ebx
  40c60f:	89 5d b8             	mov    DWORD PTR [ebp-0x48],ebx
  40c612:	0f b6 03             	movzx  eax,BYTE PTR [ebx]
  40c615:	50                   	push   eax
  40c616:	e8 78 fd ff ff       	call   0x40c393
  40c61b:	59                   	pop    ecx
  40c61c:	3c ff                	cmp    al,0xff
  40c61e:	0f 84 0c 0a 00 00    	je     0x40d030
  40c624:	43                   	inc    ebx
  40c625:	89 5d b8             	mov    DWORD PTR [ebp-0x48],ebx
  40c628:	0f b6 03             	movzx  eax,BYTE PTR [ebx]
  40c62b:	50                   	push   eax
  40c62c:	e8 62 fd ff ff       	call   0x40c393
  40c631:	88 45 0f             	mov    BYTE PTR [ebp+0xf],al
  40c634:	59                   	pop    ecx
  40c635:	3c ff                	cmp    al,0xff
  40c637:	0f 84 f3 09 00 00    	je     0x40d030
  40c63d:	43                   	inc    ebx
  40c63e:	89 5d b8             	mov    DWORD PTR [ebp-0x48],ebx
  40c641:	0f b6 0b             	movzx  ecx,BYTE PTR [ebx]
  40c644:	51                   	push   ecx
  40c645:	e8 49 fd ff ff       	call   0x40c393
  40c64a:	88 45 13             	mov    BYTE PTR [ebp+0x13],al
  40c64d:	59                   	pop    ecx
  40c64e:	3c ff                	cmp    al,0xff
  40c650:	0f 84 da 09 00 00    	je     0x40d030
  40c656:	43                   	inc    ebx
  40c657:	89 5d b8             	mov    DWORD PTR [ebp-0x48],ebx
  40c65a:	0f b6 0b             	movzx  ecx,BYTE PTR [ebx]
  40c65d:	51                   	push   ecx
  40c65e:	e8 30 fd ff ff       	call   0x40c393
  40c663:	88 45 0b             	mov    BYTE PTR [ebp+0xb],al
  40c666:	59                   	pop    ecx
  40c667:	3c ff                	cmp    al,0xff
  40c669:	0f 84 c1 09 00 00    	je     0x40d030
  40c66f:	8b 75 d8             	mov    esi,DWORD PTR [ebp-0x28]
  40c672:	0f b6 4d 0f          	movzx  ecx,BYTE PTR [ebp+0xf]
  40c676:	81 e6 bf 03 00 00    	and    esi,0x3bf
  40c67c:	8a 45 13             	mov    al,BYTE PTR [ebp+0x13]
  40c67f:	83 ce 40             	or     esi,0x40
  40c682:	83 e1 03             	and    ecx,0x3
  40c685:	c1 e6 02             	shl    esi,0x2
  40c688:	0b f1                	or     esi,ecx
  40c68a:	c0 e0 04             	shl    al,0x4
  40c68d:	8b ce                	mov    ecx,esi
  40c68f:	0f b6 c0             	movzx  eax,al
  40c692:	c1 e1 08             	shl    ecx,0x8
  40c695:	0b c8                	or     ecx,eax
  40c697:	89 75 d8             	mov    DWORD PTR [ebp-0x28],esi
  40c69a:	0f b6 45 0b          	movzx  eax,BYTE PTR [ebp+0xb]
  40c69e:	0b c8                	or     ecx,eax
  40c6a0:	8b 45 b4             	mov    eax,DWORD PTR [ebp-0x4c]
  40c6a3:	83 f9 7f             	cmp    ecx,0x7f
  40c6a6:	77 16                	ja     0x40c6be
  40c6a8:	85 c0                	test   eax,eax
  40c6aa:	75 06                	jne    0x40c6b2
  40c6ac:	8b 75 ec             	mov    esi,DWORD PTR [ebp-0x14]
  40c6af:	88 0c 37             	mov    BYTE PTR [edi+esi*1],cl
  40c6b2:	47                   	inc    edi
  40c6b3:	8b 75 f4             	mov    esi,DWORD PTR [ebp-0xc]
  40c6b6:	89 7d 10             	mov    DWORD PTR [ebp+0x10],edi
  40c6b9:	e9 49 09 00 00       	jmp    0x40d007
  40c6be:	81 f9 ff 07 00 00    	cmp    ecx,0x7ff
  40c6c4:	77 2b                	ja     0x40c6f1
  40c6c6:	85 c0                	test   eax,eax
  40c6c8:	74 05                	je     0x40c6cf
  40c6ca:	83 c7 02             	add    edi,0x2
  40c6cd:	eb e4                	jmp    0x40c6b3
  40c6cf:	8b 75 ec             	mov    esi,DWORD PTR [ebp-0x14]
  40c6d2:	8b c1                	mov    eax,ecx
  40c6d4:	c1 e8 06             	shr    eax,0x6
  40c6d7:	80 e1 3f             	and    cl,0x3f
  40c6da:	0c c0                	or     al,0xc0
  40c6dc:	80 c9 80             	or     cl,0x80
  40c6df:	88 04 37             	mov    BYTE PTR [edi+esi*1],al
  40c6e2:	88 4c 37 01          	mov    BYTE PTR [edi+esi*1+0x1],cl
  40c6e6:	83 c7 02             	add    edi,0x2
  40c6e9:	89 7d 10             	mov    DWORD PTR [ebp+0x10],edi
  40c6ec:	e9 10 09 00 00       	jmp    0x40d001
  40c6f1:	81 f9 ff ff 00 00    	cmp    ecx,0xffff
  40c6f7:	77 32                	ja     0x40c72b
  40c6f9:	85 c0                	test   eax,eax
  40c6fb:	74 05                	je     0x40c702
  40c6fd:	83 c7 03             	add    edi,0x3
  40c700:	eb b1                	jmp    0x40c6b3
  40c702:	8b 75 ec             	mov    esi,DWORD PTR [ebp-0x14]
  40c705:	8b c1                	mov    eax,ecx
  40c707:	c1 e8 0c             	shr    eax,0xc
  40c70a:	0c e0                	or     al,0xe0
  40c70c:	88 04 37             	mov    BYTE PTR [edi+esi*1],al
  40c70f:	8b c1                	mov    eax,ecx
  40c711:	c1 e8 06             	shr    eax,0x6
  40c714:	80 e1 3f             	and    cl,0x3f
  40c717:	24 3f                	and    al,0x3f
  40c719:	80 c9 80             	or     cl,0x80
  40c71c:	0c 80                	or     al,0x80
  40c71e:	88 44 37 01          	mov    BYTE PTR [edi+esi*1+0x1],al
  40c722:	88 4c 37 02          	mov    BYTE PTR [edi+esi*1+0x2],cl
  40c726:	83 c7 03             	add    edi,0x3
  40c729:	eb be                	jmp    0x40c6e9
  40c72b:	85 c0                	test   eax,eax
  40c72d:	74 08                	je     0x40c737
  40c72f:	83 c7 04             	add    edi,0x4
  40c732:	e9 7c ff ff ff       	jmp    0x40c6b3
  40c737:	8b 75 ec             	mov    esi,DWORD PTR [ebp-0x14]
  40c73a:	8b c1                	mov    eax,ecx
  40c73c:	c1 e8 12             	shr    eax,0x12
  40c73f:	0c f0                	or     al,0xf0
  40c741:	88 04 37             	mov    BYTE PTR [edi+esi*1],al
  40c744:	8b c1                	mov    eax,ecx
  40c746:	c1 e8 0c             	shr    eax,0xc
  40c749:	24 3f                	and    al,0x3f
  40c74b:	0c 80                	or     al,0x80
  40c74d:	88 44 37 01          	mov    BYTE PTR [edi+esi*1+0x1],al
  40c751:	8b c1                	mov    eax,ecx
  40c753:	c1 e8 06             	shr    eax,0x6
  40c756:	80 e1 3f             	and    cl,0x3f
  40c759:	24 3f                	and    al,0x3f
  40c75b:	80 c9 80             	or     cl,0x80
  40c75e:	0c 80                	or     al,0x80
  40c760:	88 44 37 02          	mov    BYTE PTR [edi+esi*1+0x2],al
  40c764:	88 4c 37 03          	mov    BYTE PTR [edi+esi*1+0x3],cl
  40c768:	83 c7 04             	add    edi,0x4
  40c76b:	e9 79 ff ff ff       	jmp    0x40c6e9
  40c770:	8b 45 b4             	mov    eax,DWORD PTR [ebp-0x4c]
  40c773:	85 c0                	test   eax,eax
  40c775:	75 47                	jne    0x40c7be
  40c777:	8b 4d ec             	mov    ecx,DWORD PTR [ebp-0x14]
  40c77a:	c6 04 0f 09          	mov    BYTE PTR [edi+ecx*1],0x9
  40c77e:	eb 3e                	jmp    0x40c7be
  40c780:	8b 45 b4             	mov    eax,DWORD PTR [ebp-0x4c]
  40c783:	85 c0                	test   eax,eax
  40c785:	75 37                	jne    0x40c7be
  40c787:	8b 4d ec             	mov    ecx,DWORD PTR [ebp-0x14]
  40c78a:	c6 04 0f 0d          	mov    BYTE PTR [edi+ecx*1],0xd
  40c78e:	eb 2e                	jmp    0x40c7be
  40c790:	8b 45 b4             	mov    eax,DWORD PTR [ebp-0x4c]
  40c793:	85 c0                	test   eax,eax
  40c795:	75 27                	jne    0x40c7be
  40c797:	8b 4d ec             	mov    ecx,DWORD PTR [ebp-0x14]
  40c79a:	c6 04 0f 0a          	mov    BYTE PTR [edi+ecx*1],0xa
  40c79e:	eb 1e                	jmp    0x40c7be
  40c7a0:	8b 45 b4             	mov    eax,DWORD PTR [ebp-0x4c]
  40c7a3:	85 c0                	test   eax,eax
  40c7a5:	75 17                	jne    0x40c7be
  40c7a7:	8b 4d ec             	mov    ecx,DWORD PTR [ebp-0x14]
  40c7aa:	c6 04 0f 0c          	mov    BYTE PTR [edi+ecx*1],0xc
  40c7ae:	eb 0e                	jmp    0x40c7be
  40c7b0:	8b 45 b4             	mov    eax,DWORD PTR [ebp-0x4c]
  40c7b3:	85 c0                	test   eax,eax
  40c7b5:	75 07                	jne    0x40c7be
  40c7b7:	8b 4d ec             	mov    ecx,DWORD PTR [ebp-0x14]
  40c7ba:	c6 04 0f 08          	mov    BYTE PTR [edi+ecx*1],0x8
  40c7be:	47                   	inc    edi
  40c7bf:	89 7d 10             	mov    DWORD PTR [ebp+0x10],edi
  40c7c2:	e9 40 08 00 00       	jmp    0x40d007
  40c7c7:	80 f9 5c             	cmp    cl,0x5c
  40c7ca:	75 0d                	jne    0x40c7d9
  40c7cc:	83 ca 10             	or     edx,0x10
  40c7cf:	dd d8                	fstp   st(0)
  40c7d1:	89 55 f8             	mov    DWORD PTR [ebp-0x8],edx
  40c7d4:	e9 2e 08 00 00       	jmp    0x40d007
  40c7d9:	80 f9 22             	cmp    cl,0x22
  40c7dc:	0f 85 ab 00 00 00    	jne    0x40c88d
  40c7e2:	85 c0                	test   eax,eax
  40c7e4:	75 07                	jne    0x40c7ed
  40c7e6:	8b 45 ec             	mov    eax,DWORD PTR [ebp-0x14]
  40c7e9:	c6 04 07 00          	mov    BYTE PTR [edi+eax*1],0x0
  40c7ed:	8b 46 04             	mov    eax,DWORD PTR [esi+0x4]
  40c7f0:	83 e2 df             	and    edx,0xffffffdf
  40c7f3:	83 65 ec 00          	and    DWORD PTR [ebp-0x14],0x0
  40c7f7:	89 55 f8             	mov    DWORD PTR [ebp-0x8],edx
  40c7fa:	83 e8 01             	sub    eax,0x1
  40c7fd:	74 52                	je     0x40c851
  40c7ff:	83 e8 04             	sub    eax,0x4
  40c802:	8b 45 b4             	mov    eax,DWORD PTR [ebp-0x4c]
  40c805:	75 09                	jne    0x40c810
  40c807:	83 ca 01             	or     edx,0x1
  40c80a:	89 7e 08             	mov    DWORD PTR [esi+0x8],edi
  40c80d:	89 55 f8             	mov    DWORD PTR [ebp-0x8],edx
  40c810:	f6 45 a0 01          	test   BYTE PTR [ebp-0x60],0x1
  40c814:	0f 84 19 01 00 00    	je     0x40c933
  40c81a:	f7 c2 00 60 00 00    	test   edx,0x6000
  40c820:	0f 84 c6 00 00 00    	je     0x40c8ec
  40c826:	f7 c2 00 20 00 00    	test   edx,0x2000
  40c82c:	74 77                	je     0x40c8a5
  40c82e:	dd d8                	fstp   st(0)
  40c830:	80 f9 0d             	cmp    cl,0xd
  40c833:	74 0d                	je     0x40c842
  40c835:	80 f9 0a             	cmp    cl,0xa
  40c838:	74 08                	je     0x40c842
  40c83a:	84 c9                	test   cl,cl
  40c83c:	0f 85 c5 07 00 00    	jne    0x40d007
  40c842:	81 e2 ff df ff ff    	and    edx,0xffffdfff
  40c848:	4b                   	dec    ebx
  40c849:	89 55 f8             	mov    DWORD PTR [ebp-0x8],edx
  40c84c:	e9 b6 07 00 00       	jmp    0x40d007
  40c851:	83 7d b4 00          	cmp    DWORD PTR [ebp-0x4c],0x0
  40c855:	dd d8                	fstp   st(0)
  40c857:	74 08                	je     0x40c861
  40c859:	8d 47 01             	lea    eax,[edi+0x1]
  40c85c:	01 46 0c             	add    DWORD PTR [esi+0xc],eax
  40c85f:	eb 21                	jmp    0x40c882
  40c861:	6b 56 08 0c          	imul   edx,DWORD PTR [esi+0x8],0xc
  40c865:	8b 4e 0c             	mov    ecx,DWORD PTR [esi+0xc]
  40c868:	8b 46 10             	mov    eax,DWORD PTR [esi+0x10]
  40c86b:	89 04 0a             	mov    DWORD PTR [edx+ecx*1],eax
  40c86e:	6b 4e 08 0c          	imul   ecx,DWORD PTR [esi+0x8],0xc
  40c872:	8b 46 0c             	mov    eax,DWORD PTR [esi+0xc]
  40c875:	8b 55 f8             	mov    edx,DWORD PTR [ebp-0x8]
  40c878:	89 7c 01 04          	mov    DWORD PTR [ecx+eax*1+0x4],edi
  40c87c:	8d 47 01             	lea    eax,[edi+0x1]
  40c87f:	01 46 10             	add    DWORD PTR [esi+0x10],eax
  40c882:	83 ca 48             	or     edx,0x48
  40c885:	89 55 f8             	mov    DWORD PTR [ebp-0x8],edx
  40c888:	e9 77 07 00 00       	jmp    0x40d004
  40c88d:	dd d8                	fstp   st(0)
  40c88f:	85 c0                	test   eax,eax
  40c891:	0f 85 27 ff ff ff    	jne    0x40c7be
  40c897:	8b 75 ec             	mov    esi,DWORD PTR [ebp-0x14]
  40c89a:	88 0c 37             	mov    BYTE PTR [edi+esi*1],cl
  40c89d:	8b 75 f4             	mov    esi,DWORD PTR [ebp-0xc]
  40c8a0:	e9 19 ff ff ff       	jmp    0x40c7be
  40c8a5:	f7 c2 00 40 00 00    	test   edx,0x4000
  40c8ab:	0f 84 82 00 00 00    	je     0x40c933
  40c8b1:	dd d8                	fstp   st(0)
  40c8b3:	84 c9                	test   cl,cl
  40c8b5:	0f 84 75 07 00 00    	je     0x40d030
  40c8bb:	80 f9 2a             	cmp    cl,0x2a
  40c8be:	0f 85 43 07 00 00    	jne    0x40d007
  40c8c4:	8b 45 e4             	mov    eax,DWORD PTR [ebp-0x1c]
  40c8c7:	48                   	dec    eax
  40c8c8:	3b d8                	cmp    ebx,eax
  40c8ca:	0f 83 34 07 00 00    	jae    0x40d004
  40c8d0:	80 7b 01 2f          	cmp    BYTE PTR [ebx+0x1],0x2f
  40c8d4:	8b 45 b4             	mov    eax,DWORD PTR [ebp-0x4c]
  40c8d7:	0f 85 2a 07 00 00    	jne    0x40d007
  40c8dd:	81 e2 ff bf ff ff    	and    edx,0xffffbfff
  40c8e3:	43                   	inc    ebx
  40c8e4:	89 55 f8             	mov    DWORD PTR [ebp-0x8],edx
  40c8e7:	e9 1b 07 00 00       	jmp    0x40d007
  40c8ec:	80 f9 2f             	cmp    cl,0x2f
  40c8ef:	75 42                	jne    0x40c933
  40c8f1:	dd d8                	fstp   st(0)
  40c8f3:	f6 c2 88             	test   dl,0x88
  40c8f6:	75 0a                	jne    0x40c902
  40c8f8:	83 7e 04 01          	cmp    DWORD PTR [esi+0x4],0x1
  40c8fc:	0f 85 2e 07 00 00    	jne    0x40d030
  40c902:	43                   	inc    ebx
  40c903:	89 5d b8             	mov    DWORD PTR [ebp-0x48],ebx
  40c906:	3b 5d e4             	cmp    ebx,DWORD PTR [ebp-0x1c]
  40c909:	0f 84 21 07 00 00    	je     0x40d030
  40c90f:	8a 03                	mov    al,BYTE PTR [ebx]
  40c911:	3c 2a                	cmp    al,0x2a
  40c913:	74 13                	je     0x40c928
  40c915:	3c 2f                	cmp    al,0x2f
  40c917:	0f 85 13 07 00 00    	jne    0x40d030
  40c91d:	81 ca 00 20 00 00    	or     edx,0x2000
  40c923:	e9 5d ff ff ff       	jmp    0x40c885
  40c928:	81 ca 00 40 00 00    	or     edx,0x4000
  40c92e:	e9 52 ff ff ff       	jmp    0x40c885
  40c933:	84 d2                	test   dl,dl
  40c935:	79 3e                	jns    0x40c975
  40c937:	84 c9                	test   cl,cl
  40c939:	0f 84 d4 06 00 00    	je     0x40d013
  40c93f:	0f be c1             	movsx  eax,cl
  40c942:	dd d8                	fstp   st(0)
  40c944:	83 e8 09             	sub    eax,0x9
  40c947:	0f 84 b7 06 00 00    	je     0x40d004
  40c94d:	83 e8 01             	sub    eax,0x1
  40c950:	74 17                	je     0x40c969
  40c952:	83 e8 03             	sub    eax,0x3
  40c955:	0f 84 a9 06 00 00    	je     0x40d004
  40c95b:	83 e8 13             	sub    eax,0x13
  40c95e:	0f 85 cc 06 00 00    	jne    0x40d030
  40c964:	e9 9b 06 00 00       	jmp    0x40d004
  40c969:	ff 45 bc             	inc    DWORD PTR [ebp-0x44]
  40c96c:	83 65 c0 00          	and    DWORD PTR [ebp-0x40],0x0
  40c970:	e9 8f 06 00 00       	jmp    0x40d004
  40c975:	f6 c2 08             	test   dl,0x8
  40c978:	0f 84 45 03 00 00    	je     0x40ccc3
  40c97e:	0f be c1             	movsx  eax,cl
  40c981:	dd d8                	fstp   st(0)
  40c983:	83 e8 09             	sub    eax,0x9
  40c986:	0f 84 78 06 00 00    	je     0x40d004
  40c98c:	83 e8 01             	sub    eax,0x1
  40c98f:	74 d8                	je     0x40c969
  40c991:	83 e8 03             	sub    eax,0x3
  40c994:	0f 84 6a 06 00 00    	je     0x40d004
  40c99a:	83 e8 13             	sub    eax,0x13
  40c99d:	0f 84 61 06 00 00    	je     0x40d004
  40c9a3:	83 e8 3d             	sub    eax,0x3d
  40c9a6:	0f 84 fa 02 00 00    	je     0x40cca6
  40c9ac:	f6 c2 04             	test   dl,0x4
  40c9af:	74 11                	je     0x40c9c2
  40c9b1:	80 f9 2c             	cmp    cl,0x2c
  40c9b4:	0f 85 76 06 00 00    	jne    0x40d030
  40c9ba:	83 e2 fb             	and    edx,0xfffffffb
  40c9bd:	e9 c3 fe ff ff       	jmp    0x40c885
  40c9c2:	f6 c2 40             	test   dl,0x40
  40c9c5:	74 11                	je     0x40c9d8
  40c9c7:	80 f9 3a             	cmp    cl,0x3a
  40c9ca:	0f 85 60 06 00 00    	jne    0x40d030
  40c9d0:	83 e2 bf             	and    edx,0xffffffbf
  40c9d3:	e9 ad fe ff ff       	jmp    0x40c885
  40c9d8:	83 e2 f7             	and    edx,0xfffffff7
  40c9db:	89 55 f8             	mov    DWORD PTR [ebp-0x8],edx
  40c9de:	80 f9 22             	cmp    cl,0x22
  40c9e1:	0f 84 7b 02 00 00    	je     0x40cc62
  40c9e7:	80 f9 5b             	cmp    cl,0x5b
  40c9ea:	0f 84 39 02 00 00    	je     0x40cc29
  40c9f0:	80 f9 66             	cmp    cl,0x66
  40c9f3:	0f 84 b5 01 00 00    	je     0x40cbae
  40c9f9:	80 f9 6e             	cmp    cl,0x6e
  40c9fc:	0f 84 73 01 00 00    	je     0x40cb75
  40ca02:	80 f9 74             	cmp    cl,0x74
  40ca05:	0f 84 f7 00 00 00    	je     0x40cb02
  40ca0b:	80 f9 7b             	cmp    cl,0x7b
  40ca0e:	0f 84 bb 00 00 00    	je     0x40cacf
  40ca14:	80 f9 30             	cmp    cl,0x30
  40ca17:	7c 05                	jl     0x40ca1e
  40ca19:	80 f9 39             	cmp    cl,0x39
  40ca1c:	7e 09                	jle    0x40ca27
  40ca1e:	80 f9 2d             	cmp    cl,0x2d
  40ca21:	0f 85 09 06 00 00    	jne    0x40d030
  40ca27:	6a 03                	push   0x3
  40ca29:	8d 45 e0             	lea    eax,[ebp-0x20]
  40ca2c:	50                   	push   eax
  40ca2d:	8d 45 e8             	lea    eax,[ebp-0x18]
  40ca30:	50                   	push   eax
  40ca31:	8d 45 f0             	lea    eax,[ebp-0x10]
  40ca34:	50                   	push   eax
  40ca35:	8d 45 90             	lea    eax,[ebp-0x70]
  40ca38:	50                   	push   eax
  40ca39:	e8 d6 06 00 00       	call   0x40d114
  40ca3e:	83 c4 14             	add    esp,0x14
  40ca41:	85 c0                	test   eax,eax
  40ca43:	0f 84 e7 05 00 00    	je     0x40d030
  40ca49:	83 7d b4 00          	cmp    DWORD PTR [ebp-0x4c],0x0
  40ca4d:	8b 5d b8             	mov    ebx,DWORD PTR [ebp-0x48]
  40ca50:	75 45                	jne    0x40ca97
  40ca52:	8a 45 0f             	mov    al,BYTE PTR [ebp+0xf]
  40ca55:	8b 7d e4             	mov    edi,DWORD PTR [ebp-0x1c]
  40ca58:	3c 30                	cmp    al,0x30
  40ca5a:	7c 04                	jl     0x40ca60
  40ca5c:	3c 39                	cmp    al,0x39
  40ca5e:	7e 14                	jle    0x40ca74
  40ca60:	3c 2b                	cmp    al,0x2b
  40ca62:	74 10                	je     0x40ca74
  40ca64:	3c 2d                	cmp    al,0x2d
  40ca66:	74 0c                	je     0x40ca74
  40ca68:	3c 65                	cmp    al,0x65
  40ca6a:	74 08                	je     0x40ca74
  40ca6c:	3c 45                	cmp    al,0x45
  40ca6e:	74 04                	je     0x40ca74
  40ca70:	3c 2e                	cmp    al,0x2e
  40ca72:	75 0c                	jne    0x40ca80
  40ca74:	43                   	inc    ebx
  40ca75:	89 5d b8             	mov    DWORD PTR [ebp-0x48],ebx
  40ca78:	3b df                	cmp    ebx,edi
  40ca7a:	74 04                	je     0x40ca80
  40ca7c:	8a 03                	mov    al,BYTE PTR [ebx]
  40ca7e:	eb d8                	jmp    0x40ca58
  40ca80:	8b 55 f8             	mov    edx,DWORD PTR [ebp-0x8]
  40ca83:	8b 75 f0             	mov    esi,DWORD PTR [ebp-0x10]
  40ca86:	83 ca 03             	or     edx,0x3
  40ca89:	8b 7d 10             	mov    edi,DWORD PTR [ebp+0x10]
  40ca8c:	89 55 f8             	mov    DWORD PTR [ebp-0x8],edx
  40ca8f:	89 75 f4             	mov    DWORD PTR [ebp-0xc],esi
  40ca92:	e9 e9 04 00 00       	jmp    0x40cf80
  40ca97:	8b 55 f8             	mov    edx,DWORD PTR [ebp-0x8]
  40ca9a:	83 65 dc 00          	and    DWORD PTR [ebp-0x24],0x0
  40ca9e:	81 e2 ff e0 ff ff    	and    edx,0xffffe0ff
  40caa4:	83 65 c4 00          	and    DWORD PTR [ebp-0x3c],0x0
  40caa8:	83 65 c8 00          	and    DWORD PTR [ebp-0x38],0x0
  40caac:	83 65 d0 00          	and    DWORD PTR [ebp-0x30],0x0
  40cab0:	80 7d 0f 2d          	cmp    BYTE PTR [ebp+0xf],0x2d
  40cab4:	8b 75 f0             	mov    esi,DWORD PTR [ebp-0x10]
  40cab7:	89 75 f4             	mov    DWORD PTR [ebp-0xc],esi
  40caba:	74 08                	je     0x40cac4
  40cabc:	83 ca 02             	or     edx,0x2
  40cabf:	e9 3d 04 00 00       	jmp    0x40cf01
  40cac4:	81 ca 00 01 00 00    	or     edx,0x100
  40caca:	e9 b6 fd ff ff       	jmp    0x40c885
  40cacf:	6a 01                	push   0x1
  40cad1:	8d 45 e0             	lea    eax,[ebp-0x20]
  40cad4:	50                   	push   eax
  40cad5:	8d 45 e8             	lea    eax,[ebp-0x18]
  40cad8:	50                   	push   eax
  40cad9:	8d 45 f0             	lea    eax,[ebp-0x10]
  40cadc:	50                   	push   eax
  40cadd:	8d 45 90             	lea    eax,[ebp-0x70]
  40cae0:	50                   	push   eax
  40cae1:	e8 2e 06 00 00       	call   0x40d114
  40cae6:	83 c4 14             	add    esp,0x14
  40cae9:	85 c0                	test   eax,eax
  40caeb:	0f 84 3f 05 00 00    	je     0x40d030
  40caf1:	8b 75 f0             	mov    esi,DWORD PTR [ebp-0x10]
  40caf4:	8b 5d b8             	mov    ebx,DWORD PTR [ebp-0x48]
  40caf7:	8b 55 f8             	mov    edx,DWORD PTR [ebp-0x8]
  40cafa:	89 75 f4             	mov    DWORD PTR [ebp-0xc],esi
  40cafd:	e9 02 05 00 00       	jmp    0x40d004
  40cb02:	8b 45 e4             	mov    eax,DWORD PTR [ebp-0x1c]
  40cb05:	2b c3                	sub    eax,ebx
  40cb07:	83 f8 03             	cmp    eax,0x3
  40cb0a:	0f 8c 20 05 00 00    	jl     0x40d030
  40cb10:	43                   	inc    ebx
  40cb11:	89 5d b8             	mov    DWORD PTR [ebp-0x48],ebx
  40cb14:	80 3b 72             	cmp    BYTE PTR [ebx],0x72
  40cb17:	0f 85 13 05 00 00    	jne    0x40d030
  40cb1d:	43                   	inc    ebx
  40cb1e:	89 5d b8             	mov    DWORD PTR [ebp-0x48],ebx
  40cb21:	80 3b 75             	cmp    BYTE PTR [ebx],0x75
  40cb24:	0f 85 06 05 00 00    	jne    0x40d030
  40cb2a:	43                   	inc    ebx
  40cb2b:	89 5d b8             	mov    DWORD PTR [ebp-0x48],ebx
  40cb2e:	80 3b 65             	cmp    BYTE PTR [ebx],0x65
  40cb31:	0f 85 f9 04 00 00    	jne    0x40d030
  40cb37:	6a 06                	push   0x6
  40cb39:	8d 45 e0             	lea    eax,[ebp-0x20]
  40cb3c:	50                   	push   eax
  40cb3d:	8d 45 e8             	lea    eax,[ebp-0x18]
  40cb40:	50                   	push   eax
  40cb41:	8d 45 f0             	lea    eax,[ebp-0x10]
  40cb44:	50                   	push   eax
  40cb45:	8d 45 90             	lea    eax,[ebp-0x70]
  40cb48:	50                   	push   eax
  40cb49:	e8 c6 05 00 00       	call   0x40d114
  40cb4e:	83 c4 14             	add    esp,0x14
  40cb51:	85 c0                	test   eax,eax
  40cb53:	0f 84 d7 04 00 00    	je     0x40d030
  40cb59:	8b 75 f0             	mov    esi,DWORD PTR [ebp-0x10]
  40cb5c:	33 c0                	xor    eax,eax
  40cb5e:	8b 55 f8             	mov    edx,DWORD PTR [ebp-0x8]
  40cb61:	40                   	inc    eax
  40cb62:	8b 5d b8             	mov    ebx,DWORD PTR [ebp-0x48]
  40cb65:	0b d0                	or     edx,eax
  40cb67:	89 75 f4             	mov    DWORD PTR [ebp-0xc],esi
  40cb6a:	89 46 08             	mov    DWORD PTR [esi+0x8],eax
  40cb6d:	89 55 f8             	mov    DWORD PTR [ebp-0x8],edx
  40cb70:	e9 0b 04 00 00       	jmp    0x40cf80
  40cb75:	8b 45 e4             	mov    eax,DWORD PTR [ebp-0x1c]
  40cb78:	2b c3                	sub    eax,ebx
  40cb7a:	83 f8 03             	cmp    eax,0x3
  40cb7d:	0f 8c ad 04 00 00    	jl     0x40d030
  40cb83:	43                   	inc    ebx
  40cb84:	89 5d b8             	mov    DWORD PTR [ebp-0x48],ebx
  40cb87:	80 3b 75             	cmp    BYTE PTR [ebx],0x75
  40cb8a:	0f 85 a0 04 00 00    	jne    0x40d030
  40cb90:	43                   	inc    ebx
  40cb91:	89 5d b8             	mov    DWORD PTR [ebp-0x48],ebx
  40cb94:	80 3b 6c             	cmp    BYTE PTR [ebx],0x6c
  40cb97:	0f 85 93 04 00 00    	jne    0x40d030
  40cb9d:	43                   	inc    ebx
  40cb9e:	89 5d b8             	mov    DWORD PTR [ebp-0x48],ebx
  40cba1:	80 3b 6c             	cmp    BYTE PTR [ebx],0x6c
  40cba4:	0f 85 86 04 00 00    	jne    0x40d030
  40cbaa:	6a 07                	push   0x7
  40cbac:	eb 44                	jmp    0x40cbf2
  40cbae:	8b 45 e4             	mov    eax,DWORD PTR [ebp-0x1c]
  40cbb1:	2b c3                	sub    eax,ebx
  40cbb3:	83 f8 04             	cmp    eax,0x4
  40cbb6:	0f 8c 74 04 00 00    	jl     0x40d030
  40cbbc:	43                   	inc    ebx
  40cbbd:	89 5d b8             	mov    DWORD PTR [ebp-0x48],ebx
  40cbc0:	80 3b 61             	cmp    BYTE PTR [ebx],0x61
  40cbc3:	0f 85 67 04 00 00    	jne    0x40d030
  40cbc9:	43                   	inc    ebx
  40cbca:	89 5d b8             	mov    DWORD PTR [ebp-0x48],ebx
  40cbcd:	80 3b 6c             	cmp    BYTE PTR [ebx],0x6c
  40cbd0:	0f 85 5a 04 00 00    	jne    0x40d030
  40cbd6:	43                   	inc    ebx
  40cbd7:	89 5d b8             	mov    DWORD PTR [ebp-0x48],ebx
  40cbda:	80 3b 73             	cmp    BYTE PTR [ebx],0x73
  40cbdd:	0f 85 4d 04 00 00    	jne    0x40d030
  40cbe3:	43                   	inc    ebx
  40cbe4:	89 5d b8             	mov    DWORD PTR [ebp-0x48],ebx
  40cbe7:	80 3b 65             	cmp    BYTE PTR [ebx],0x65
  40cbea:	0f 85 40 04 00 00    	jne    0x40d030
  40cbf0:	6a 06                	push   0x6
  40cbf2:	8d 45 e0             	lea    eax,[ebp-0x20]
  40cbf5:	50                   	push   eax
  40cbf6:	8d 45 e8             	lea    eax,[ebp-0x18]
  40cbf9:	50                   	push   eax
  40cbfa:	8d 45 f0             	lea    eax,[ebp-0x10]
  40cbfd:	50                   	push   eax
  40cbfe:	8d 45 90             	lea    eax,[ebp-0x70]
  40cc01:	50                   	push   eax
  40cc02:	e8 0d 05 00 00       	call   0x40d114
  40cc07:	83 c4 14             	add    esp,0x14
  40cc0a:	85 c0                	test   eax,eax
  40cc0c:	0f 84 1e 04 00 00    	je     0x40d030
  40cc12:	8b 55 f8             	mov    edx,DWORD PTR [ebp-0x8]
  40cc15:	8b 75 f0             	mov    esi,DWORD PTR [ebp-0x10]
  40cc18:	83 ca 01             	or     edx,0x1
  40cc1b:	8b 5d b8             	mov    ebx,DWORD PTR [ebp-0x48]
  40cc1e:	89 55 f8             	mov    DWORD PTR [ebp-0x8],edx
  40cc21:	89 75 f4             	mov    DWORD PTR [ebp-0xc],esi
  40cc24:	e9 57 03 00 00       	jmp    0x40cf80
  40cc29:	6a 02                	push   0x2
  40cc2b:	8d 45 e0             	lea    eax,[ebp-0x20]
  40cc2e:	50                   	push   eax
  40cc2f:	8d 45 e8             	lea    eax,[ebp-0x18]
  40cc32:	50                   	push   eax
  40cc33:	8d 45 f0             	lea    eax,[ebp-0x10]
  40cc36:	50                   	push   eax
  40cc37:	8d 45 90             	lea    eax,[ebp-0x70]
  40cc3a:	50                   	push   eax
  40cc3b:	e8 d4 04 00 00       	call   0x40d114
  40cc40:	83 c4 14             	add    esp,0x14
  40cc43:	85 c0                	test   eax,eax
  40cc45:	0f 84 e5 03 00 00    	je     0x40d030
  40cc4b:	8b 55 f8             	mov    edx,DWORD PTR [ebp-0x8]
  40cc4e:	8b 75 f0             	mov    esi,DWORD PTR [ebp-0x10]
  40cc51:	83 ca 08             	or     edx,0x8
  40cc54:	8b 5d b8             	mov    ebx,DWORD PTR [ebp-0x48]
  40cc57:	89 55 f8             	mov    DWORD PTR [ebp-0x8],edx
  40cc5a:	89 75 f4             	mov    DWORD PTR [ebp-0xc],esi
  40cc5d:	e9 a2 03 00 00       	jmp    0x40d004
  40cc62:	6a 05                	push   0x5
  40cc64:	8d 45 e0             	lea    eax,[ebp-0x20]
  40cc67:	50                   	push   eax
  40cc68:	8d 45 e8             	lea    eax,[ebp-0x18]
  40cc6b:	50                   	push   eax
  40cc6c:	8d 45 f0             	lea    eax,[ebp-0x10]
  40cc6f:	50                   	push   eax
  40cc70:	8d 45 90             	lea    eax,[ebp-0x70]
  40cc73:	50                   	push   eax
  40cc74:	e8 9b 04 00 00       	call   0x40d114
  40cc79:	83 c4 14             	add    esp,0x14
  40cc7c:	85 c0                	test   eax,eax
  40cc7e:	0f 84 ac 03 00 00    	je     0x40d030
  40cc84:	8b 75 f0             	mov    esi,DWORD PTR [ebp-0x10]
  40cc87:	8b 55 f8             	mov    edx,DWORD PTR [ebp-0x8]
  40cc8a:	8b 5d b8             	mov    ebx,DWORD PTR [ebp-0x48]
  40cc8d:	83 ca 20             	or     edx,0x20
  40cc90:	33 ff                	xor    edi,edi
  40cc92:	89 55 f8             	mov    DWORD PTR [ebp-0x8],edx
  40cc95:	8b 4e 0c             	mov    ecx,DWORD PTR [esi+0xc]
  40cc98:	89 75 f4             	mov    DWORD PTR [ebp-0xc],esi
  40cc9b:	89 4d ec             	mov    DWORD PTR [ebp-0x14],ecx
  40cc9e:	89 7d 10             	mov    DWORD PTR [ebp+0x10],edi
  40cca1:	e9 5e 03 00 00       	jmp    0x40d004
  40cca6:	85 f6                	test   esi,esi
  40cca8:	0f 84 82 03 00 00    	je     0x40d030
  40ccae:	83 7e 04 02          	cmp    DWORD PTR [esi+0x4],0x2
  40ccb2:	0f 85 78 03 00 00    	jne    0x40d030
  40ccb8:	83 e2 f3             	and    edx,0xfffffff3
  40ccbb:	83 ca 01             	or     edx,0x1
  40ccbe:	e9 3e 02 00 00       	jmp    0x40cf01
  40ccc3:	8d 46 04             	lea    eax,[esi+0x4]
  40ccc6:	8b 30                	mov    esi,DWORD PTR [eax]
  40ccc8:	89 45 08             	mov    DWORD PTR [ebp+0x8],eax
  40cccb:	83 fe 01             	cmp    esi,0x1
  40ccce:	0f 84 32 02 00 00    	je     0x40cf06
  40ccd4:	8d 46 fd             	lea    eax,[esi-0x3]
  40ccd7:	83 f8 01             	cmp    eax,0x1
  40ccda:	0f 87 9b 02 00 00    	ja     0x40cf7b
  40cce0:	8a c1                	mov    al,cl
  40cce2:	2c 30                	sub    al,0x30
  40cce4:	3c 09                	cmp    al,0x9
  40cce6:	0f 87 c2 00 00 00    	ja     0x40cdae
  40ccec:	8b 45 dc             	mov    eax,DWORD PTR [ebp-0x24]
  40ccef:	dd d8                	fstp   st(0)
  40ccf1:	40                   	inc    eax
  40ccf2:	89 45 dc             	mov    DWORD PTR [ebp-0x24],eax
  40ccf5:	83 fe 03             	cmp    esi,0x3
  40ccf8:	74 3b                	je     0x40cd35
  40ccfa:	f7 c2 00 04 00 00    	test   edx,0x400
  40cd00:	0f 85 8a 00 00 00    	jne    0x40cd90
  40cd06:	6a 00                	push   0x0
  40cd08:	6a 0a                	push   0xa
  40cd0a:	ff 75 c8             	push   DWORD PTR [ebp-0x38]
  40cd0d:	0f be c1             	movsx  eax,cl
  40cd10:	ff 75 c4             	push   DWORD PTR [ebp-0x3c]
  40cd13:	83 e8 30             	sub    eax,0x30
  40cd16:	99                   	cdq    
  40cd17:	8b f0                	mov    esi,eax
  40cd19:	8b fa                	mov    edi,edx
  40cd1b:	e8 d0 05 00 00       	call   0x40d2f0
  40cd20:	03 f0                	add    esi,eax
  40cd22:	89 75 c4             	mov    DWORD PTR [ebp-0x3c],esi
  40cd25:	13 fa                	adc    edi,edx
  40cd27:	8b 55 f8             	mov    edx,DWORD PTR [ebp-0x8]
  40cd2a:	89 7d c8             	mov    DWORD PTR [ebp-0x38],edi
  40cd2d:	8b 7d 10             	mov    edi,DWORD PTR [ebp+0x10]
  40cd30:	e9 cc 02 00 00       	jmp    0x40d001
  40cd35:	f7 c2 00 04 00 00    	test   edx,0x400
  40cd3b:	75 53                	jne    0x40cd90
  40cd3d:	be 00 02 00 00       	mov    esi,0x200
  40cd42:	85 d6                	test   esi,edx
  40cd44:	0f 85 e6 02 00 00    	jne    0x40d030
  40cd4a:	83 f8 01             	cmp    eax,0x1
  40cd4d:	75 0a                	jne    0x40cd59
  40cd4f:	80 f9 30             	cmp    cl,0x30
  40cd52:	75 05                	jne    0x40cd59
  40cd54:	0b d6                	or     edx,esi
  40cd56:	89 55 f8             	mov    DWORD PTR [ebp-0x8],edx
  40cd59:	0f be c1             	movsx  eax,cl
  40cd5c:	83 e8 30             	sub    eax,0x30
  40cd5f:	99                   	cdq    
  40cd60:	8b f0                	mov    esi,eax
  40cd62:	8b fa                	mov    edi,edx
  40cd64:	8b 45 f4             	mov    eax,DWORD PTR [ebp-0xc]
  40cd67:	6a 00                	push   0x0
  40cd69:	6a 0a                	push   0xa
  40cd6b:	ff 70 0c             	push   DWORD PTR [eax+0xc]
  40cd6e:	ff 70 08             	push   DWORD PTR [eax+0x8]
  40cd71:	e8 7a 05 00 00       	call   0x40d2f0
  40cd76:	03 f0                	add    esi,eax
  40cd78:	8b 45 f4             	mov    eax,DWORD PTR [ebp-0xc]
  40cd7b:	13 fa                	adc    edi,edx
  40cd7d:	8b 55 f8             	mov    edx,DWORD PTR [ebp-0x8]
  40cd80:	89 70 08             	mov    DWORD PTR [eax+0x8],esi
  40cd83:	8b f0                	mov    esi,eax
  40cd85:	89 7e 0c             	mov    DWORD PTR [esi+0xc],edi
  40cd88:	8b 7d 10             	mov    edi,DWORD PTR [ebp+0x10]
  40cd8b:	e9 74 02 00 00       	jmp    0x40d004
  40cd90:	6b 4d d0 0a          	imul   ecx,DWORD PTR [ebp-0x30],0xa
  40cd94:	81 ca 00 08 00 00    	or     edx,0x800
  40cd9a:	0f be 45 0f          	movsx  eax,BYTE PTR [ebp+0xf]
  40cd9e:	83 c0 d0             	add    eax,0xffffffd0
  40cda1:	89 55 f8             	mov    DWORD PTR [ebp-0x8],edx
  40cda4:	03 c1                	add    eax,ecx
  40cda6:	89 45 d0             	mov    DWORD PTR [ebp-0x30],eax
  40cda9:	e9 53 02 00 00       	jmp    0x40d001
  40cdae:	80 f9 2b             	cmp    cl,0x2b
  40cdb1:	74 36                	je     0x40cde9
  40cdb3:	80 f9 2d             	cmp    cl,0x2d
  40cdb6:	74 31                	je     0x40cde9
  40cdb8:	80 f9 2e             	cmp    cl,0x2e
  40cdbb:	75 59                	jne    0x40ce16
  40cdbd:	83 fe 03             	cmp    esi,0x3
  40cdc0:	75 54                	jne    0x40ce16
  40cdc2:	83 7d dc 00          	cmp    DWORD PTR [ebp-0x24],0x0
  40cdc6:	dd d8                	fstp   st(0)
  40cdc8:	0f 84 62 02 00 00    	je     0x40d030
  40cdce:	8b 45 08             	mov    eax,DWORD PTR [ebp+0x8]
  40cdd1:	8b 75 f4             	mov    esi,DWORD PTR [ebp-0xc]
  40cdd4:	83 65 dc 00          	and    DWORD PTR [ebp-0x24],0x0
  40cdd8:	c7 00 04 00 00 00    	mov    DWORD PTR [eax],0x4
  40cdde:	df 6e 08             	fild   QWORD PTR [esi+0x8]
  40cde1:	dd 5e 08             	fstp   QWORD PTR [esi+0x8]
  40cde4:	e9 1b 02 00 00       	jmp    0x40d004
  40cde9:	8b c2                	mov    eax,edx
  40cdeb:	25 00 0c 00 00       	and    eax,0xc00
  40cdf0:	3d 00 04 00 00       	cmp    eax,0x400
  40cdf5:	75 1f                	jne    0x40ce16
  40cdf7:	8b c2                	mov    eax,edx
  40cdf9:	dd d8                	fstp   st(0)
  40cdfb:	0d 00 08 00 00       	or     eax,0x800
  40ce00:	8b d0                	mov    edx,eax
  40ce02:	81 ca 00 10 00 00    	or     edx,0x1000
  40ce08:	80 f9 2d             	cmp    cl,0x2d
  40ce0b:	0f 45 d0             	cmovne edx,eax
  40ce0e:	89 55 f8             	mov    DWORD PTR [ebp-0x8],edx
  40ce11:	e9 eb 01 00 00       	jmp    0x40d001
  40ce16:	f7 c2 00 04 00 00    	test   edx,0x400
  40ce1c:	75 7f                	jne    0x40ce9d
  40ce1e:	83 fe 04             	cmp    esi,0x4
  40ce21:	75 42                	jne    0x40ce65
  40ce23:	8b 45 dc             	mov    eax,DWORD PTR [ebp-0x24]
  40ce26:	85 c0                	test   eax,eax
  40ce28:	0f 84 00 02 00 00    	je     0x40d02e
  40ce2e:	df 6d c4             	fild   QWORD PTR [ebp-0x3c]
  40ce31:	50                   	push   eax
  40ce32:	51                   	push   ecx
  40ce33:	51                   	push   ecx
  40ce34:	dd 5d d4             	fstp   QWORD PTR [ebp-0x2c]
  40ce37:	dd 45 d4             	fld    QWORD PTR [ebp-0x2c]
  40ce3a:	dd 5d d4             	fstp   QWORD PTR [ebp-0x2c]
  40ce3d:	dd 1c 24             	fstp   QWORD PTR [esp]
  40ce40:	e8 8a 02 00 00       	call   0x40d0cf
  40ce45:	dc 7d d4             	fdivr  QWORD PTR [ebp-0x2c]
  40ce48:	83 c4 0c             	add    esp,0xc
  40ce4b:	8b 45 f4             	mov    eax,DWORD PTR [ebp-0xc]
  40ce4e:	8b 75 f0             	mov    esi,DWORD PTR [ebp-0x10]
  40ce51:	8b 5d b8             	mov    ebx,DWORD PTR [ebp-0x48]
  40ce54:	8b 55 f8             	mov    edx,DWORD PTR [ebp-0x8]
  40ce57:	8a 4d 0f             	mov    cl,BYTE PTR [ebp+0xf]
  40ce5a:	89 75 f4             	mov    DWORD PTR [ebp-0xc],esi
  40ce5d:	dc 40 08             	fadd   QWORD PTR [eax+0x8]
  40ce60:	dd 58 08             	fstp   QWORD PTR [eax+0x8]
  40ce63:	eb 05                	jmp    0x40ce6a
  40ce65:	8b 75 f4             	mov    esi,DWORD PTR [ebp-0xc]
  40ce68:	dd d8                	fstp   st(0)
  40ce6a:	80 f9 65             	cmp    cl,0x65
  40ce6d:	74 05                	je     0x40ce74
  40ce6f:	80 f9 45             	cmp    cl,0x45
  40ce72:	75 5d                	jne    0x40ced1
  40ce74:	8b 45 08             	mov    eax,DWORD PTR [ebp+0x8]
  40ce77:	81 ca 00 04 00 00    	or     edx,0x400
  40ce7d:	83 38 03             	cmp    DWORD PTR [eax],0x3
  40ce80:	75 0c                	jne    0x40ce8e
  40ce82:	c7 00 04 00 00 00    	mov    DWORD PTR [eax],0x4
  40ce88:	df 6e 08             	fild   QWORD PTR [esi+0x8]
  40ce8b:	dd 5e 08             	fstp   QWORD PTR [esi+0x8]
  40ce8e:	83 65 dc 00          	and    DWORD PTR [ebp-0x24],0x0
  40ce92:	81 e2 ff fd ff ff    	and    edx,0xfffffdff
  40ce98:	e9 e8 f9 ff ff       	jmp    0x40c885
  40ce9d:	83 7d dc 00          	cmp    DWORD PTR [ebp-0x24],0x0
  40cea1:	0f 84 87 01 00 00    	je     0x40d02e
  40cea7:	8b 45 d0             	mov    eax,DWORD PTR [ebp-0x30]
  40ceaa:	8b c8                	mov    ecx,eax
  40ceac:	f7 d9                	neg    ecx
  40ceae:	81 e2 00 10 00 00    	and    edx,0x1000
  40ceb4:	0f 45 c1             	cmovne eax,ecx
  40ceb7:	50                   	push   eax
  40ceb8:	51                   	push   ecx
  40ceb9:	51                   	push   ecx
  40ceba:	dd 1c 24             	fstp   QWORD PTR [esp]
  40cebd:	e8 0d 02 00 00       	call   0x40d0cf
  40cec2:	8b 75 f4             	mov    esi,DWORD PTR [ebp-0xc]
  40cec5:	83 c4 0c             	add    esp,0xc
  40cec8:	8b 55 f8             	mov    edx,DWORD PTR [ebp-0x8]
  40cecb:	dc 4e 08             	fmul   QWORD PTR [esi+0x8]
  40cece:	dd 5e 08             	fstp   QWORD PTR [esi+0x8]
  40ced1:	f7 c2 00 01 00 00    	test   edx,0x100
  40ced7:	74 25                	je     0x40cefe
  40ced9:	8b 45 08             	mov    eax,DWORD PTR [ebp+0x8]
  40cedc:	83 38 03             	cmp    DWORD PTR [eax],0x3
  40cedf:	75 15                	jne    0x40cef6
  40cee1:	8b 4e 08             	mov    ecx,DWORD PTR [esi+0x8]
  40cee4:	8b 46 0c             	mov    eax,DWORD PTR [esi+0xc]
  40cee7:	f7 d9                	neg    ecx
  40cee9:	89 4e 08             	mov    DWORD PTR [esi+0x8],ecx
  40ceec:	83 d0 00             	adc    eax,0x0
  40ceef:	f7 d8                	neg    eax
  40cef1:	89 46 0c             	mov    DWORD PTR [esi+0xc],eax
  40cef4:	eb 08                	jmp    0x40cefe
  40cef6:	dd 46 08             	fld    QWORD PTR [esi+0x8]
  40cef9:	d9 e0                	fchs   
  40cefb:	dd 5e 08             	fstp   QWORD PTR [esi+0x8]
  40cefe:	83 ca 03             	or     edx,0x3
  40cf01:	89 55 f8             	mov    DWORD PTR [ebp-0x8],edx
  40cf04:	eb 7a                	jmp    0x40cf80
  40cf06:	0f be c1             	movsx  eax,cl
  40cf09:	dd d8                	fstp   st(0)
  40cf0b:	83 e8 09             	sub    eax,0x9
  40cf0e:	0f 84 ed 00 00 00    	je     0x40d001
  40cf14:	83 e8 01             	sub    eax,0x1
  40cf17:	0f 84 dd 00 00 00    	je     0x40cffa
  40cf1d:	83 e8 03             	sub    eax,0x3
  40cf20:	0f 84 db 00 00 00    	je     0x40d001
  40cf26:	83 e8 13             	sub    eax,0x13
  40cf29:	0f 84 d2 00 00 00    	je     0x40d001
  40cf2f:	48                   	dec    eax
  40cf30:	83 e8 01             	sub    eax,0x1
  40cf33:	74 27                	je     0x40cf5c
  40cf35:	83 e8 0a             	sub    eax,0xa
  40cf38:	74 14                	je     0x40cf4e
  40cf3a:	83 e8 51             	sub    eax,0x51
  40cf3d:	0f 85 ed 00 00 00    	jne    0x40d030
  40cf43:	83 e2 fb             	and    edx,0xfffffffb
  40cf46:	83 ca 01             	or     edx,0x1
  40cf49:	89 55 f8             	mov    DWORD PTR [ebp-0x8],edx
  40cf4c:	eb 2f                	jmp    0x40cf7d
  40cf4e:	f6 c2 04             	test   dl,0x4
  40cf51:	0f 84 d9 00 00 00    	je     0x40d030
  40cf57:	83 e2 fb             	and    edx,0xfffffffb
  40cf5a:	eb ed                	jmp    0x40cf49
  40cf5c:	f6 c2 04             	test   dl,0x4
  40cf5f:	0f 85 cb 00 00 00    	jne    0x40d030
  40cf65:	8b 75 f4             	mov    esi,DWORD PTR [ebp-0xc]
  40cf68:	83 ca 20             	or     edx,0x20
  40cf6b:	33 ff                	xor    edi,edi
  40cf6d:	89 55 f8             	mov    DWORD PTR [ebp-0x8],edx
  40cf70:	89 7d 10             	mov    DWORD PTR [ebp+0x10],edi
  40cf73:	8b 46 10             	mov    eax,DWORD PTR [esi+0x10]
  40cf76:	89 45 ec             	mov    DWORD PTR [ebp-0x14],eax
  40cf79:	eb 05                	jmp    0x40cf80
  40cf7b:	dd d8                	fstp   st(0)
  40cf7d:	8b 75 f4             	mov    esi,DWORD PTR [ebp-0xc]
  40cf80:	f6 c2 02             	test   dl,0x2
  40cf83:	74 0a                	je     0x40cf8f
  40cf85:	83 e2 fd             	and    edx,0xfffffffd
  40cf88:	4b                   	dec    ebx
  40cf89:	89 55 f8             	mov    DWORD PTR [ebp-0x8],edx
  40cf8c:	89 5d b8             	mov    DWORD PTR [ebp-0x48],ebx
  40cf8f:	f6 c2 01             	test   dl,0x1
  40cf92:	74 70                	je     0x40d004
  40cf94:	8b 06                	mov    eax,DWORD PTR [esi]
  40cf96:	83 e2 fe             	and    edx,0xfffffffe
  40cf99:	83 ca 04             	or     edx,0x4
  40cf9c:	8b ca                	mov    ecx,edx
  40cf9e:	85 c0                	test   eax,eax
  40cfa0:	75 0b                	jne    0x40cfad
  40cfa2:	81 ca 80 00 00 00    	or     edx,0x80
  40cfa8:	e9 d8 f8 ff ff       	jmp    0x40c885
  40cfad:	83 ca 08             	or     edx,0x8
  40cfb0:	83 78 04 02          	cmp    DWORD PTR [eax+0x4],0x2
  40cfb4:	0f 45 d1             	cmovne edx,ecx
  40cfb7:	83 7d b4 00          	cmp    DWORD PTR [ebp-0x4c],0x0
  40cfbb:	89 55 f8             	mov    DWORD PTR [ebp-0x8],edx
  40cfbe:	75 23                	jne    0x40cfe3
  40cfc0:	8b 48 04             	mov    ecx,DWORD PTR [eax+0x4]
  40cfc3:	83 e9 01             	sub    ecx,0x1
  40cfc6:	74 10                	je     0x40cfd8
  40cfc8:	83 e9 01             	sub    ecx,0x1
  40cfcb:	75 16                	jne    0x40cfe3
  40cfcd:	8b 48 08             	mov    ecx,DWORD PTR [eax+0x8]
  40cfd0:	8b 40 0c             	mov    eax,DWORD PTR [eax+0xc]
  40cfd3:	89 34 88             	mov    DWORD PTR [eax+ecx*4],esi
  40cfd6:	eb 0b                	jmp    0x40cfe3
  40cfd8:	6b 48 08 0c          	imul   ecx,DWORD PTR [eax+0x8],0xc
  40cfdc:	8b 40 0c             	mov    eax,DWORD PTR [eax+0xc]
  40cfdf:	89 74 01 08          	mov    DWORD PTR [ecx+eax*1+0x8],esi
  40cfe3:	8b 06                	mov    eax,DWORD PTR [esi]
  40cfe5:	ff 40 08             	inc    DWORD PTR [eax+0x8]
  40cfe8:	8b 40 08             	mov    eax,DWORD PTR [eax+0x8]
  40cfeb:	3b 45 94             	cmp    eax,DWORD PTR [ebp-0x6c]
  40cfee:	77 40                	ja     0x40d030
  40cff0:	8b 36                	mov    esi,DWORD PTR [esi]
  40cff2:	89 75 f4             	mov    DWORD PTR [ebp-0xc],esi
  40cff5:	89 75 f0             	mov    DWORD PTR [ebp-0x10],esi
  40cff8:	eb 0a                	jmp    0x40d004
  40cffa:	ff 45 bc             	inc    DWORD PTR [ebp-0x44]
  40cffd:	83 65 c0 00          	and    DWORD PTR [ebp-0x40],0x0
  40d001:	8b 75 f4             	mov    esi,DWORD PTR [ebp-0xc]
  40d004:	8b 45 b4             	mov    eax,DWORD PTR [ebp-0x4c]
  40d007:	dd 05 60 0c 41 00    	fld    QWORD PTR ds:0x410c60
  40d00d:	43                   	inc    ebx
  40d00e:	e9 aa f4 ff ff       	jmp    0x40c4bd
  40d013:	83 6d b4 01          	sub    DWORD PTR [ebp-0x4c],0x1
  40d017:	8b 45 e8             	mov    eax,DWORD PTR [ebp-0x18]
  40d01a:	89 45 e0             	mov    DWORD PTR [ebp-0x20],eax
  40d01d:	78 0b                	js     0x40d02a
  40d01f:	8b 45 b4             	mov    eax,DWORD PTR [ebp-0x4c]
  40d022:	8b 5d cc             	mov    ebx,DWORD PTR [ebp-0x34]
  40d025:	e9 72 f4 ff ff       	jmp    0x40c49c
  40d02a:	dd d8                	fstp   st(0)
  40d02c:	eb 34                	jmp    0x40d062
  40d02e:	dd d8                	fstp   st(0)
  40d030:	8b 5d b4             	mov    ebx,DWORD PTR [ebp-0x4c]
  40d033:	85 db                	test   ebx,ebx
  40d035:	8b 45 e0             	mov    eax,DWORD PTR [ebp-0x20]
  40d038:	0f 45 45 e8          	cmovne eax,DWORD PTR [ebp-0x18]
  40d03c:	85 c0                	test   eax,eax
  40d03e:	74 0e                	je     0x40d04e
  40d040:	8b 70 10             	mov    esi,DWORD PTR [eax+0x10]
  40d043:	50                   	push   eax
  40d044:	ff 55 a8             	call   DWORD PTR [ebp-0x58]
  40d047:	8b c6                	mov    eax,esi
  40d049:	59                   	pop    ecx
  40d04a:	85 f6                	test   esi,esi
  40d04c:	75 f2                	jne    0x40d040
  40d04e:	85 db                	test   ebx,ebx
  40d050:	75 0e                	jne    0x40d060
  40d052:	ff 75 e8             	push   DWORD PTR [ebp-0x18]
  40d055:	8d 45 9c             	lea    eax,[ebp-0x64]
  40d058:	50                   	push   eax
  40d059:	e8 0b 00 00 00       	call   0x40d069
  40d05e:	59                   	pop    ecx
  40d05f:	59                   	pop    ecx
  40d060:	33 c0                	xor    eax,eax
  40d062:	5f                   	pop    edi
  40d063:	5e                   	pop    esi
  40d064:	5b                   	pop    ebx
  40d065:	8b e5                	mov    esp,ebp
  40d067:	5d                   	pop    ebp
  40d068:	c3                   	ret    
  40d069:	55                   	push   ebp
  40d06a:	8b ec                	mov    ebp,esp
  40d06c:	56                   	push   esi
  40d06d:	8b 75 0c             	mov    esi,DWORD PTR [ebp+0xc]
  40d070:	85 f6                	test   esi,esi
  40d072:	74 58                	je     0x40d0cc
  40d074:	83 26 00             	and    DWORD PTR [esi],0x0
  40d077:	57                   	push   edi
  40d078:	8b 7d 08             	mov    edi,DWORD PTR [ebp+0x8]
  40d07b:	8b 46 04             	mov    eax,DWORD PTR [esi+0x4]
  40d07e:	83 e8 01             	sub    eax,0x1
  40d081:	74 1f                	je     0x40d0a2
  40d083:	83 e8 01             	sub    eax,0x1
  40d086:	74 07                	je     0x40d08f
  40d088:	83 e8 03             	sub    eax,0x3
  40d08b:	75 23                	jne    0x40d0b0
  40d08d:	eb 1a                	jmp    0x40d0a9
  40d08f:	8b 4e 08             	mov    ecx,DWORD PTR [esi+0x8]
  40d092:	85 c9                	test   ecx,ecx
  40d094:	74 13                	je     0x40d0a9
  40d096:	8b 46 0c             	mov    eax,DWORD PTR [esi+0xc]
  40d099:	49                   	dec    ecx
  40d09a:	89 4e 08             	mov    DWORD PTR [esi+0x8],ecx
  40d09d:	8b 34 88             	mov    esi,DWORD PTR [eax+ecx*4]
  40d0a0:	eb 25                	jmp    0x40d0c7
  40d0a2:	8b 46 08             	mov    eax,DWORD PTR [esi+0x8]
  40d0a5:	85 c0                	test   eax,eax
  40d0a7:	75 10                	jne    0x40d0b9
  40d0a9:	ff 76 0c             	push   DWORD PTR [esi+0xc]
  40d0ac:	ff 57 0c             	call   DWORD PTR [edi+0xc]
  40d0af:	59                   	pop    ecx
  40d0b0:	56                   	push   esi
  40d0b1:	8b 36                	mov    esi,DWORD PTR [esi]
  40d0b3:	ff 57 0c             	call   DWORD PTR [edi+0xc]
  40d0b6:	59                   	pop    ecx
  40d0b7:	eb 0e                	jmp    0x40d0c7
  40d0b9:	48                   	dec    eax
  40d0ba:	6b c8 0c             	imul   ecx,eax,0xc
  40d0bd:	89 46 08             	mov    DWORD PTR [esi+0x8],eax
  40d0c0:	8b 46 0c             	mov    eax,DWORD PTR [esi+0xc]
  40d0c3:	8b 74 01 08          	mov    esi,DWORD PTR [ecx+eax*1+0x8]
  40d0c7:	85 f6                	test   esi,esi
  40d0c9:	75 b0                	jne    0x40d07b
  40d0cb:	5f                   	pop    edi
  40d0cc:	5e                   	pop    esi
  40d0cd:	5d                   	pop    ebp
  40d0ce:	c3                   	ret    
  40d0cf:	55                   	push   ebp
  40d0d0:	8b ec                	mov    ebp,esp
  40d0d2:	53                   	push   ebx
  40d0d3:	8b 5d 10             	mov    ebx,DWORD PTR [ebp+0x10]
  40d0d6:	85 db                	test   ebx,ebx
  40d0d8:	75 04                	jne    0x40d0de
  40d0da:	d9 e8                	fld1   
  40d0dc:	eb 33                	jmp    0x40d111
  40d0de:	dd 45 08             	fld    QWORD PTR [ebp+0x8]
  40d0e1:	8b c3                	mov    eax,ebx
  40d0e3:	99                   	cdq    
  40d0e4:	2b c2                	sub    eax,edx
  40d0e6:	d1 f8                	sar    eax,1
  40d0e8:	50                   	push   eax
  40d0e9:	51                   	push   ecx
  40d0ea:	51                   	push   ecx
  40d0eb:	dd 1c 24             	fstp   QWORD PTR [esp]
  40d0ee:	e8 dc ff ff ff       	call   0x40d0cf
  40d0f3:	83 c4 0c             	add    esp,0xc
  40d0f6:	f6 c3 01             	test   bl,0x1
  40d0f9:	75 04                	jne    0x40d0ff
  40d0fb:	dc c8                	fmul   st(0),st
  40d0fd:	eb 12                	jmp    0x40d111
  40d0ff:	85 db                	test   ebx,ebx
  40d101:	7e 09                	jle    0x40d10c
  40d103:	d9 c0                	fld    st(0)
  40d105:	dc 4d 08             	fmul   QWORD PTR [ebp+0x8]
  40d108:	de c9                	fmulp  st(1),st
  40d10a:	eb 05                	jmp    0x40d111
  40d10c:	dc c8                	fmul   st(0),st
  40d10e:	dc 75 08             	fdiv   QWORD PTR [ebp+0x8]
  40d111:	5b                   	pop    ebx
  40d112:	5d                   	pop    ebp
  40d113:	c3                   	ret    
  40d114:	55                   	push   ebp
  40d115:	8b ec                	mov    ebp,esp
  40d117:	8b 55 08             	mov    edx,DWORD PTR [ebp+0x8]
  40d11a:	53                   	push   ebx
  40d11b:	33 db                	xor    ebx,ebx
  40d11d:	56                   	push   esi
  40d11e:	57                   	push   edi
  40d11f:	39 5a 24             	cmp    DWORD PTR [edx+0x24],ebx
  40d122:	0f 85 85 00 00 00    	jne    0x40d1ad
  40d128:	8b 4d 14             	mov    ecx,DWORD PTR [ebp+0x14]
  40d12b:	8b 45 0c             	mov    eax,DWORD PTR [ebp+0xc]
  40d12e:	8b 31                	mov    esi,DWORD PTR [ecx]
  40d130:	89 30                	mov    DWORD PTR [eax],esi
  40d132:	8b 01                	mov    eax,DWORD PTR [ecx]
  40d134:	8b 40 10             	mov    eax,DWORD PTR [eax+0x10]
  40d137:	89 01                	mov    DWORD PTR [ecx],eax
  40d139:	8b 45 10             	mov    eax,DWORD PTR [ebp+0x10]
  40d13c:	39 18                	cmp    DWORD PTR [eax],ebx
  40d13e:	75 02                	jne    0x40d142
  40d140:	89 30                	mov    DWORD PTR [eax],esi
  40d142:	8b 46 04             	mov    eax,DWORD PTR [esi+0x4]
  40d145:	83 e8 01             	sub    eax,0x1
  40d148:	74 38                	je     0x40d182
  40d14a:	83 e8 01             	sub    eax,0x1
  40d14d:	74 0f                	je     0x40d15e
  40d14f:	83 e8 03             	sub    eax,0x3
  40d152:	0f 85 93 00 00 00    	jne    0x40d1eb
  40d158:	8b 46 08             	mov    eax,DWORD PTR [esi+0x8]
  40d15b:	40                   	inc    eax
  40d15c:	eb 0e                	jmp    0x40d16c
  40d15e:	8b 46 08             	mov    eax,DWORD PTR [esi+0x8]
  40d161:	85 c0                	test   eax,eax
  40d163:	0f 84 82 00 00 00    	je     0x40d1eb
  40d169:	c1 e0 02             	shl    eax,0x2
  40d16c:	53                   	push   ebx
  40d16d:	50                   	push   eax
  40d16e:	52                   	push   edx
  40d16f:	e8 7a f2 ff ff       	call   0x40c3ee
  40d174:	83 c4 0c             	add    esp,0xc
  40d177:	89 46 0c             	mov    DWORD PTR [esi+0xc],eax
  40d17a:	85 c0                	test   eax,eax
  40d17c:	75 2a                	jne    0x40d1a8
  40d17e:	33 c0                	xor    eax,eax
  40d180:	eb 6c                	jmp    0x40d1ee
  40d182:	8b 46 08             	mov    eax,DWORD PTR [esi+0x8]
  40d185:	85 c0                	test   eax,eax
  40d187:	74 62                	je     0x40d1eb
  40d189:	6b f8 0c             	imul   edi,eax,0xc
  40d18c:	8b 46 0c             	mov    eax,DWORD PTR [esi+0xc]
  40d18f:	53                   	push   ebx
  40d190:	03 c7                	add    eax,edi
  40d192:	50                   	push   eax
  40d193:	52                   	push   edx
  40d194:	e8 55 f2 ff ff       	call   0x40c3ee
  40d199:	83 c4 0c             	add    esp,0xc
  40d19c:	89 46 0c             	mov    DWORD PTR [esi+0xc],eax
  40d19f:	85 c0                	test   eax,eax
  40d1a1:	74 db                	je     0x40d17e
  40d1a3:	03 c7                	add    eax,edi
  40d1a5:	89 46 10             	mov    DWORD PTR [esi+0x10],eax
  40d1a8:	89 5e 08             	mov    DWORD PTR [esi+0x8],ebx
  40d1ab:	eb 3e                	jmp    0x40d1eb
  40d1ad:	8b 42 20             	mov    eax,DWORD PTR [edx+0x20]
  40d1b0:	6a 01                	push   0x1
  40d1b2:	83 c0 18             	add    eax,0x18
  40d1b5:	50                   	push   eax
  40d1b6:	52                   	push   edx
  40d1b7:	e8 32 f2 ff ff       	call   0x40c3ee
  40d1bc:	8b c8                	mov    ecx,eax
  40d1be:	83 c4 0c             	add    esp,0xc
  40d1c1:	85 c9                	test   ecx,ecx
  40d1c3:	74 b9                	je     0x40d17e
  40d1c5:	8b 45 10             	mov    eax,DWORD PTR [ebp+0x10]
  40d1c8:	39 18                	cmp    DWORD PTR [eax],ebx
  40d1ca:	75 02                	jne    0x40d1ce
  40d1cc:	89 08                	mov    DWORD PTR [eax],ecx
  40d1ce:	8b 75 0c             	mov    esi,DWORD PTR [ebp+0xc]
  40d1d1:	8b 45 18             	mov    eax,DWORD PTR [ebp+0x18]
  40d1d4:	8b 7d 14             	mov    edi,DWORD PTR [ebp+0x14]
  40d1d7:	89 41 04             	mov    DWORD PTR [ecx+0x4],eax
  40d1da:	8b 06                	mov    eax,DWORD PTR [esi]
  40d1dc:	89 01                	mov    DWORD PTR [ecx],eax
  40d1de:	8b 17                	mov    edx,DWORD PTR [edi]
  40d1e0:	85 d2                	test   edx,edx
  40d1e2:	74 03                	je     0x40d1e7
  40d1e4:	89 4a 10             	mov    DWORD PTR [edx+0x10],ecx
  40d1e7:	89 0e                	mov    DWORD PTR [esi],ecx
  40d1e9:	89 0f                	mov    DWORD PTR [edi],ecx
  40d1eb:	33 c0                	xor    eax,eax
  40d1ed:	40                   	inc    eax
  40d1ee:	5f                   	pop    edi
  40d1ef:	5e                   	pop    esi
  40d1f0:	5b                   	pop    ebx
  40d1f1:	5d                   	pop    ebp
  40d1f2:	c3                   	ret    
  40d1f3:	cc                   	int3   
  40d1f4:	cc                   	int3   
  40d1f5:	cc                   	int3   
  40d1f6:	cc                   	int3   
  40d1f7:	cc                   	int3   
  40d1f8:	cc                   	int3   
  40d1f9:	cc                   	int3   
  40d1fa:	cc                   	int3   
  40d1fb:	cc                   	int3   
  40d1fc:	cc                   	int3   
  40d1fd:	cc                   	int3   
  40d1fe:	cc                   	int3   
  40d1ff:	cc                   	int3   
  40d200:	51                   	push   ecx
  40d201:	8d 4c 24 04          	lea    ecx,[esp+0x4]
  40d205:	2b c8                	sub    ecx,eax
  40d207:	1b c0                	sbb    eax,eax
  40d209:	f7 d0                	not    eax
  40d20b:	23 c8                	and    ecx,eax
  40d20d:	8b c4                	mov    eax,esp
  40d20f:	25 00 f0 ff ff       	and    eax,0xfffff000
  40d214:	3b c8                	cmp    ecx,eax
  40d216:	f2 72 0b             	bnd jb 0x40d224
  40d219:	8b c1                	mov    eax,ecx
  40d21b:	59                   	pop    ecx
  40d21c:	94                   	xchg   esp,eax
  40d21d:	8b 00                	mov    eax,DWORD PTR [eax]
  40d21f:	89 04 24             	mov    DWORD PTR [esp],eax
  40d222:	f2 c3                	bnd ret 
  40d224:	2d 00 10 00 00       	sub    eax,0x1000
  40d229:	85 00                	test   DWORD PTR [eax],eax
  40d22b:	eb e7                	jmp    0x40d214
  40d22d:	cc                   	int3   
  40d22e:	cc                   	int3   
  40d22f:	cc                   	int3   
  40d230:	83 3d 14 34 41 00 00 	cmp    DWORD PTR ds:0x413414,0x0
  40d237:	74 37                	je     0x40d270
  40d239:	55                   	push   ebp
  40d23a:	8b ec                	mov    ebp,esp
  40d23c:	83 ec 08             	sub    esp,0x8
  40d23f:	83 e4 f8             	and    esp,0xfffffff8
  40d242:	dd 1c 24             	fstp   QWORD PTR [esp]
  40d245:	f2 0f 2c 04 24       	cvttsd2si eax,QWORD PTR [esp]
  40d24a:	c9                   	leave  
  40d24b:	c3                   	ret    
  40d24c:	83 3d 14 34 41 00 00 	cmp    DWORD PTR ds:0x413414,0x0
  40d253:	74 1b                	je     0x40d270
  40d255:	83 ec 04             	sub    esp,0x4
  40d258:	d9 3c 24             	fnstcw WORD PTR [esp]
  40d25b:	58                   	pop    eax
  40d25c:	66 83 e0 7f          	and    ax,0x7f
  40d260:	66 83 f8 7f          	cmp    ax,0x7f
  40d264:	74 d3                	je     0x40d239
  40d266:	8d a4 24 00 00 00 00 	lea    esp,[esp+0x0]
  40d26d:	8d 49 00             	lea    ecx,[ecx+0x0]
  40d270:	55                   	push   ebp
  40d271:	8b ec                	mov    ebp,esp
  40d273:	83 ec 20             	sub    esp,0x20
  40d276:	83 e4 f0             	and    esp,0xfffffff0
  40d279:	d9 c0                	fld    st(0)
  40d27b:	d9 54 24 18          	fst    DWORD PTR [esp+0x18]
  40d27f:	df 7c 24 10          	fistp  QWORD PTR [esp+0x10]
  40d283:	df 6c 24 10          	fild   QWORD PTR [esp+0x10]
  40d287:	8b 54 24 18          	mov    edx,DWORD PTR [esp+0x18]
  40d28b:	8b 44 24 10          	mov    eax,DWORD PTR [esp+0x10]
  40d28f:	85 c0                	test   eax,eax
  40d291:	74 3c                	je     0x40d2cf
  40d293:	de e9                	fsubp  st(1),st
  40d295:	85 d2                	test   edx,edx
  40d297:	79 1e                	jns    0x40d2b7
  40d299:	d9 1c 24             	fstp   DWORD PTR [esp]
  40d29c:	8b 0c 24             	mov    ecx,DWORD PTR [esp]
  40d29f:	81 f1 00 00 00 80    	xor    ecx,0x80000000
  40d2a5:	81 c1 ff ff ff 7f    	add    ecx,0x7fffffff
  40d2ab:	83 d0 00             	adc    eax,0x0
  40d2ae:	8b 54 24 14          	mov    edx,DWORD PTR [esp+0x14]
  40d2b2:	83 d2 00             	adc    edx,0x0
  40d2b5:	eb 2c                	jmp    0x40d2e3
  40d2b7:	d9 1c 24             	fstp   DWORD PTR [esp]
  40d2ba:	8b 0c 24             	mov    ecx,DWORD PTR [esp]
  40d2bd:	81 c1 ff ff ff 7f    	add    ecx,0x7fffffff
  40d2c3:	83 d8 00             	sbb    eax,0x0
  40d2c6:	8b 54 24 14          	mov    edx,DWORD PTR [esp+0x14]
  40d2ca:	83 da 00             	sbb    edx,0x0
  40d2cd:	eb 14                	jmp    0x40d2e3
  40d2cf:	8b 54 24 14          	mov    edx,DWORD PTR [esp+0x14]
  40d2d3:	f7 c2 ff ff ff 7f    	test   edx,0x7fffffff
  40d2d9:	75 b8                	jne    0x40d293
  40d2db:	d9 5c 24 18          	fstp   DWORD PTR [esp+0x18]
  40d2df:	d9 5c 24 18          	fstp   DWORD PTR [esp+0x18]
  40d2e3:	c9                   	leave  
  40d2e4:	c3                   	ret    
  40d2e5:	cc                   	int3   
  40d2e6:	cc                   	int3   
  40d2e7:	cc                   	int3   
  40d2e8:	cc                   	int3   
  40d2e9:	cc                   	int3   
  40d2ea:	cc                   	int3   
  40d2eb:	cc                   	int3   
  40d2ec:	cc                   	int3   
  40d2ed:	cc                   	int3   
  40d2ee:	cc                   	int3   
  40d2ef:	cc                   	int3   
  40d2f0:	8b 44 24 08          	mov    eax,DWORD PTR [esp+0x8]
  40d2f4:	8b 4c 24 10          	mov    ecx,DWORD PTR [esp+0x10]
  40d2f8:	0b c8                	or     ecx,eax
  40d2fa:	8b 4c 24 0c          	mov    ecx,DWORD PTR [esp+0xc]
  40d2fe:	75 09                	jne    0x40d309
  40d300:	8b 44 24 04          	mov    eax,DWORD PTR [esp+0x4]
  40d304:	f7 e1                	mul    ecx
  40d306:	c2 10 00             	ret    0x10
  40d309:	53                   	push   ebx
  40d30a:	f7 e1                	mul    ecx
  40d30c:	8b d8                	mov    ebx,eax
  40d30e:	8b 44 24 08          	mov    eax,DWORD PTR [esp+0x8]
  40d312:	f7 64 24 14          	mul    DWORD PTR [esp+0x14]
  40d316:	03 d8                	add    ebx,eax
  40d318:	8b 44 24 08          	mov    eax,DWORD PTR [esp+0x8]
  40d31c:	f7 e1                	mul    ecx
  40d31e:	03 d3                	add    edx,ebx
  40d320:	5b                   	pop    ebx
  40d321:	c2 10 00             	ret    0x10

